ARM GAS  /tmp/ccVU1W56.s 			page 1


   1              		.cpu cortex-m33
   2              		.eabi_attribute 27, 1
   3              		.eabi_attribute 28, 1
   4              		.eabi_attribute 20, 1
   5              		.eabi_attribute 21, 1
   6              		.eabi_attribute 23, 3
   7              		.eabi_attribute 24, 1
   8              		.eabi_attribute 25, 1
   9              		.eabi_attribute 26, 1
  10              		.eabi_attribute 30, 1
  11              		.eabi_attribute 34, 1
  12              		.eabi_attribute 18, 4
  13              		.file	"stm32h5xx_hal_icache.c"
  14              		.text
  15              	.Ltext0:
  16              		.cfi_sections	.debug_frame
  17              		.section	.text.HAL_ICACHE_ConfigAssociativityMode,"ax",%progbits
  18              		.align	1
  19              		.global	HAL_ICACHE_ConfigAssociativityMode
  20              		.arch armv8-m.main
  21              		.arch_extension dsp
  22              		.syntax unified
  23              		.thumb
  24              		.thumb_func
  25              		.fpu fpv4-sp-d16
  27              	HAL_ICACHE_ConfigAssociativityMode:
  28              	.LVL0:
  29              	.LFB361:
  30              		.file 1 "Drivers/STM32H5xx_HAL_Driver/Src/stm32h5xx_hal_icache.c"
   1:Drivers/STM32H5xx_HAL_Driver/Src/stm32h5xx_hal_icache.c **** /**
   2:Drivers/STM32H5xx_HAL_Driver/Src/stm32h5xx_hal_icache.c ****   ******************************************************************************
   3:Drivers/STM32H5xx_HAL_Driver/Src/stm32h5xx_hal_icache.c ****   * @file    stm32h5xx_hal_icache.c
   4:Drivers/STM32H5xx_HAL_Driver/Src/stm32h5xx_hal_icache.c ****   * @author  MCD Application Team
   5:Drivers/STM32H5xx_HAL_Driver/Src/stm32h5xx_hal_icache.c ****   * @brief   ICACHE HAL module driver.
   6:Drivers/STM32H5xx_HAL_Driver/Src/stm32h5xx_hal_icache.c ****   *          This file provides firmware functions to manage the following
   7:Drivers/STM32H5xx_HAL_Driver/Src/stm32h5xx_hal_icache.c ****   *          functionalities of the Instruction Cache (ICACHE).
   8:Drivers/STM32H5xx_HAL_Driver/Src/stm32h5xx_hal_icache.c ****   *           + Initialization and Configuration
   9:Drivers/STM32H5xx_HAL_Driver/Src/stm32h5xx_hal_icache.c ****   *           + Invalidate functions
  10:Drivers/STM32H5xx_HAL_Driver/Src/stm32h5xx_hal_icache.c ****   *           + Monitoring management
  11:Drivers/STM32H5xx_HAL_Driver/Src/stm32h5xx_hal_icache.c ****   *           + Memory address remap management
  12:Drivers/STM32H5xx_HAL_Driver/Src/stm32h5xx_hal_icache.c ****   ******************************************************************************
  13:Drivers/STM32H5xx_HAL_Driver/Src/stm32h5xx_hal_icache.c ****   * @attention
  14:Drivers/STM32H5xx_HAL_Driver/Src/stm32h5xx_hal_icache.c ****   *
  15:Drivers/STM32H5xx_HAL_Driver/Src/stm32h5xx_hal_icache.c ****   * Copyright (c) 2023 STMicroelectronics.
  16:Drivers/STM32H5xx_HAL_Driver/Src/stm32h5xx_hal_icache.c ****   * All rights reserved.
  17:Drivers/STM32H5xx_HAL_Driver/Src/stm32h5xx_hal_icache.c ****   *
  18:Drivers/STM32H5xx_HAL_Driver/Src/stm32h5xx_hal_icache.c ****   * This software is licensed under terms that can be found in the LICENSE file
  19:Drivers/STM32H5xx_HAL_Driver/Src/stm32h5xx_hal_icache.c ****   * in the root directory of this software component.
  20:Drivers/STM32H5xx_HAL_Driver/Src/stm32h5xx_hal_icache.c ****   * If no LICENSE file comes with this software, it is provided AS-IS.
  21:Drivers/STM32H5xx_HAL_Driver/Src/stm32h5xx_hal_icache.c ****   *
  22:Drivers/STM32H5xx_HAL_Driver/Src/stm32h5xx_hal_icache.c ****   ******************************************************************************
  23:Drivers/STM32H5xx_HAL_Driver/Src/stm32h5xx_hal_icache.c ****   @verbatim
  24:Drivers/STM32H5xx_HAL_Driver/Src/stm32h5xx_hal_icache.c ****   ==============================================================================
  25:Drivers/STM32H5xx_HAL_Driver/Src/stm32h5xx_hal_icache.c ****                         ##### ICACHE main features #####
  26:Drivers/STM32H5xx_HAL_Driver/Src/stm32h5xx_hal_icache.c ****   ==============================================================================
  27:Drivers/STM32H5xx_HAL_Driver/Src/stm32h5xx_hal_icache.c ****   [..]
  28:Drivers/STM32H5xx_HAL_Driver/Src/stm32h5xx_hal_icache.c ****     The Instruction Cache (ICACHE) is introduced on C-AHB code bus of
ARM GAS  /tmp/ccVU1W56.s 			page 2


  29:Drivers/STM32H5xx_HAL_Driver/Src/stm32h5xx_hal_icache.c ****     Cortex-M33 processor to improve performance when fetching instruction
  30:Drivers/STM32H5xx_HAL_Driver/Src/stm32h5xx_hal_icache.c ****     and data from both internal and external memories. It allows close to
  31:Drivers/STM32H5xx_HAL_Driver/Src/stm32h5xx_hal_icache.c ****     zero wait states performance.
  32:Drivers/STM32H5xx_HAL_Driver/Src/stm32h5xx_hal_icache.c **** 
  33:Drivers/STM32H5xx_HAL_Driver/Src/stm32h5xx_hal_icache.c ****     (+) The ICACHE provides two performance counters (Hit and Miss),
  34:Drivers/STM32H5xx_HAL_Driver/Src/stm32h5xx_hal_icache.c ****         cache invalidate maintenance operation, error management and TrustZone
  35:Drivers/STM32H5xx_HAL_Driver/Src/stm32h5xx_hal_icache.c ****         security support.
  36:Drivers/STM32H5xx_HAL_Driver/Src/stm32h5xx_hal_icache.c **** 
  37:Drivers/STM32H5xx_HAL_Driver/Src/stm32h5xx_hal_icache.c ****     (+) The ICACHE provides additionally the possibility to remap input address
  38:Drivers/STM32H5xx_HAL_Driver/Src/stm32h5xx_hal_icache.c ****         falling into up to four memory regions (used to remap aliased code in
  39:Drivers/STM32H5xx_HAL_Driver/Src/stm32h5xx_hal_icache.c ****         external memories to the internal Code region, for execution)
  40:Drivers/STM32H5xx_HAL_Driver/Src/stm32h5xx_hal_icache.c **** 
  41:Drivers/STM32H5xx_HAL_Driver/Src/stm32h5xx_hal_icache.c ****   ===============================================================================
  42:Drivers/STM32H5xx_HAL_Driver/Src/stm32h5xx_hal_icache.c ****                         ##### How to use this driver #####
  43:Drivers/STM32H5xx_HAL_Driver/Src/stm32h5xx_hal_icache.c ****   ===============================================================================
  44:Drivers/STM32H5xx_HAL_Driver/Src/stm32h5xx_hal_icache.c ****   [..]
  45:Drivers/STM32H5xx_HAL_Driver/Src/stm32h5xx_hal_icache.c ****      The ICACHE HAL driver can be used as follows:
  46:Drivers/STM32H5xx_HAL_Driver/Src/stm32h5xx_hal_icache.c **** 
  47:Drivers/STM32H5xx_HAL_Driver/Src/stm32h5xx_hal_icache.c ****     (#) Optionally configure the Instruction Cache mode with
  48:Drivers/STM32H5xx_HAL_Driver/Src/stm32h5xx_hal_icache.c ****         HAL_ICACHE_ConfigAssociativityMode() if the default configuration
  49:Drivers/STM32H5xx_HAL_Driver/Src/stm32h5xx_hal_icache.c ****         does not suit the application requirements.
  50:Drivers/STM32H5xx_HAL_Driver/Src/stm32h5xx_hal_icache.c **** 
  51:Drivers/STM32H5xx_HAL_Driver/Src/stm32h5xx_hal_icache.c ****     (#) Enable and disable the Instruction Cache with respectively
  52:Drivers/STM32H5xx_HAL_Driver/Src/stm32h5xx_hal_icache.c ****         HAL_ICACHE_Enable() and HAL_ICACHE_Disable().
  53:Drivers/STM32H5xx_HAL_Driver/Src/stm32h5xx_hal_icache.c ****         Use HAL_ICACHE_IsEnabled() to get the Instruction Cache status.
  54:Drivers/STM32H5xx_HAL_Driver/Src/stm32h5xx_hal_icache.c ****         To ensure a deterministic cache behavior after power on, system reset or after
  55:Drivers/STM32H5xx_HAL_Driver/Src/stm32h5xx_hal_icache.c ****         a call to @ref HAL_ICACHE_Disable(), the application must call
  56:Drivers/STM32H5xx_HAL_Driver/Src/stm32h5xx_hal_icache.c ****         @ref HAL_ICACHE_WaitForInvalidateComplete(). Indeed on power on, system reset
  57:Drivers/STM32H5xx_HAL_Driver/Src/stm32h5xx_hal_icache.c ****         or cache disable, an automatic cache invalidation procedure is launched and the
  58:Drivers/STM32H5xx_HAL_Driver/Src/stm32h5xx_hal_icache.c ****         cache is bypassed until the operation completes.
  59:Drivers/STM32H5xx_HAL_Driver/Src/stm32h5xx_hal_icache.c **** 
  60:Drivers/STM32H5xx_HAL_Driver/Src/stm32h5xx_hal_icache.c ****     (#) Initiate the cache maintenance invalidation procedure with either
  61:Drivers/STM32H5xx_HAL_Driver/Src/stm32h5xx_hal_icache.c ****         HAL_ICACHE_Invalidate() (blocking mode) or HAL_ICACHE_Invalidate_IT()
  62:Drivers/STM32H5xx_HAL_Driver/Src/stm32h5xx_hal_icache.c ****         (interrupt mode). When interrupt mode is used, the callback function
  63:Drivers/STM32H5xx_HAL_Driver/Src/stm32h5xx_hal_icache.c ****         HAL_ICACHE_InvalidateCompleteCallback() is called when the invalidate
  64:Drivers/STM32H5xx_HAL_Driver/Src/stm32h5xx_hal_icache.c ****         procedure is complete. The function HAL_ICACHE_WaitForInvalidateComplete()
  65:Drivers/STM32H5xx_HAL_Driver/Src/stm32h5xx_hal_icache.c ****         may be called to wait for the end of the invalidate procedure automatically
  66:Drivers/STM32H5xx_HAL_Driver/Src/stm32h5xx_hal_icache.c ****         initiated when disabling the Instruction Cache with HAL_ICACHE_Disable().
  67:Drivers/STM32H5xx_HAL_Driver/Src/stm32h5xx_hal_icache.c ****         The cache operation is bypassed during the invalidation procedure.
  68:Drivers/STM32H5xx_HAL_Driver/Src/stm32h5xx_hal_icache.c **** 
  69:Drivers/STM32H5xx_HAL_Driver/Src/stm32h5xx_hal_icache.c ****     (#) Use the performance monitoring counters for Hit and Miss with the following
  70:Drivers/STM32H5xx_HAL_Driver/Src/stm32h5xx_hal_icache.c ****         functions: HAL_ICACHE_Monitor_Start(), HAL_ICACHE_Monitor_Stop(),
  71:Drivers/STM32H5xx_HAL_Driver/Src/stm32h5xx_hal_icache.c ****         HAL_ICACHE_Monitor_Reset(), HAL_ICACHE_Monitor_GetHitValue() and
  72:Drivers/STM32H5xx_HAL_Driver/Src/stm32h5xx_hal_icache.c ****         HAL_ICACHE_Monitor_GetMissValue()
  73:Drivers/STM32H5xx_HAL_Driver/Src/stm32h5xx_hal_icache.c **** 
  74:Drivers/STM32H5xx_HAL_Driver/Src/stm32h5xx_hal_icache.c ****     (#) Enable and disable up to four regions to remap input address from external
  75:Drivers/STM32H5xx_HAL_Driver/Src/stm32h5xx_hal_icache.c ****         memories to the internal Code region for execution with
  76:Drivers/STM32H5xx_HAL_Driver/Src/stm32h5xx_hal_icache.c ****         HAL_ICACHE_EnableRemapRegion() and HAL_ICACHE_DisableRemapRegion()
  77:Drivers/STM32H5xx_HAL_Driver/Src/stm32h5xx_hal_icache.c **** 
  78:Drivers/STM32H5xx_HAL_Driver/Src/stm32h5xx_hal_icache.c ****   @endverbatim
  79:Drivers/STM32H5xx_HAL_Driver/Src/stm32h5xx_hal_icache.c ****   */
  80:Drivers/STM32H5xx_HAL_Driver/Src/stm32h5xx_hal_icache.c **** 
  81:Drivers/STM32H5xx_HAL_Driver/Src/stm32h5xx_hal_icache.c **** /* Includes ------------------------------------------------------------------*/
  82:Drivers/STM32H5xx_HAL_Driver/Src/stm32h5xx_hal_icache.c **** #include "stm32h5xx_hal.h"
  83:Drivers/STM32H5xx_HAL_Driver/Src/stm32h5xx_hal_icache.c **** 
  84:Drivers/STM32H5xx_HAL_Driver/Src/stm32h5xx_hal_icache.c **** /** @addtogroup STM32H5xx_HAL_Driver
  85:Drivers/STM32H5xx_HAL_Driver/Src/stm32h5xx_hal_icache.c ****   * @{
ARM GAS  /tmp/ccVU1W56.s 			page 3


  86:Drivers/STM32H5xx_HAL_Driver/Src/stm32h5xx_hal_icache.c ****   */
  87:Drivers/STM32H5xx_HAL_Driver/Src/stm32h5xx_hal_icache.c **** 
  88:Drivers/STM32H5xx_HAL_Driver/Src/stm32h5xx_hal_icache.c **** /** @defgroup ICACHE ICACHE
  89:Drivers/STM32H5xx_HAL_Driver/Src/stm32h5xx_hal_icache.c ****   * @brief HAL ICACHE module driver
  90:Drivers/STM32H5xx_HAL_Driver/Src/stm32h5xx_hal_icache.c ****   * @{
  91:Drivers/STM32H5xx_HAL_Driver/Src/stm32h5xx_hal_icache.c ****   */
  92:Drivers/STM32H5xx_HAL_Driver/Src/stm32h5xx_hal_icache.c **** #if defined(ICACHE) && defined (HAL_ICACHE_MODULE_ENABLED)
  93:Drivers/STM32H5xx_HAL_Driver/Src/stm32h5xx_hal_icache.c **** 
  94:Drivers/STM32H5xx_HAL_Driver/Src/stm32h5xx_hal_icache.c **** /* Private typedef -----------------------------------------------------------*/
  95:Drivers/STM32H5xx_HAL_Driver/Src/stm32h5xx_hal_icache.c **** /* Private constants ---------------------------------------------------------*/
  96:Drivers/STM32H5xx_HAL_Driver/Src/stm32h5xx_hal_icache.c **** /** @addtogroup ICACHE_Private_Constants ICACHE Private Constants
  97:Drivers/STM32H5xx_HAL_Driver/Src/stm32h5xx_hal_icache.c ****   * @{
  98:Drivers/STM32H5xx_HAL_Driver/Src/stm32h5xx_hal_icache.c ****   */
  99:Drivers/STM32H5xx_HAL_Driver/Src/stm32h5xx_hal_icache.c **** #define ICACHE_INVALIDATE_TIMEOUT_VALUE        1U   /* 1ms */
 100:Drivers/STM32H5xx_HAL_Driver/Src/stm32h5xx_hal_icache.c **** #define ICACHE_DISABLE_TIMEOUT_VALUE           1U   /* 1ms */
 101:Drivers/STM32H5xx_HAL_Driver/Src/stm32h5xx_hal_icache.c **** 
 102:Drivers/STM32H5xx_HAL_Driver/Src/stm32h5xx_hal_icache.c **** /**
 103:Drivers/STM32H5xx_HAL_Driver/Src/stm32h5xx_hal_icache.c ****   * @}
 104:Drivers/STM32H5xx_HAL_Driver/Src/stm32h5xx_hal_icache.c ****   */
 105:Drivers/STM32H5xx_HAL_Driver/Src/stm32h5xx_hal_icache.c **** 
 106:Drivers/STM32H5xx_HAL_Driver/Src/stm32h5xx_hal_icache.c **** /* Private macros ------------------------------------------------------------*/
 107:Drivers/STM32H5xx_HAL_Driver/Src/stm32h5xx_hal_icache.c **** /** @defgroup ICACHE_Private_Macros ICACHE Private Macros
 108:Drivers/STM32H5xx_HAL_Driver/Src/stm32h5xx_hal_icache.c ****   * @{
 109:Drivers/STM32H5xx_HAL_Driver/Src/stm32h5xx_hal_icache.c ****   */
 110:Drivers/STM32H5xx_HAL_Driver/Src/stm32h5xx_hal_icache.c **** 
 111:Drivers/STM32H5xx_HAL_Driver/Src/stm32h5xx_hal_icache.c **** #define IS_ICACHE_ASSOCIATIVITY_MODE(__MODE__) (((__MODE__) == ICACHE_1WAY) || \
 112:Drivers/STM32H5xx_HAL_Driver/Src/stm32h5xx_hal_icache.c ****                                                 ((__MODE__) == ICACHE_2WAYS))
 113:Drivers/STM32H5xx_HAL_Driver/Src/stm32h5xx_hal_icache.c **** 
 114:Drivers/STM32H5xx_HAL_Driver/Src/stm32h5xx_hal_icache.c **** #define IS_ICACHE_MONITOR_TYPE(__TYPE__)    (((__TYPE__) == ICACHE_MONITOR_HIT_MISS) || \
 115:Drivers/STM32H5xx_HAL_Driver/Src/stm32h5xx_hal_icache.c ****                                              ((__TYPE__) == ICACHE_MONITOR_HIT)      || \
 116:Drivers/STM32H5xx_HAL_Driver/Src/stm32h5xx_hal_icache.c ****                                              ((__TYPE__) == ICACHE_MONITOR_MISS))
 117:Drivers/STM32H5xx_HAL_Driver/Src/stm32h5xx_hal_icache.c **** 
 118:Drivers/STM32H5xx_HAL_Driver/Src/stm32h5xx_hal_icache.c **** #if defined(ICACHE_CRRx_REN)
 119:Drivers/STM32H5xx_HAL_Driver/Src/stm32h5xx_hal_icache.c **** #define IS_ICACHE_REGION_NUMBER(__NUMBER__) ((__NUMBER__) < 4U)
 120:Drivers/STM32H5xx_HAL_Driver/Src/stm32h5xx_hal_icache.c **** 
 121:Drivers/STM32H5xx_HAL_Driver/Src/stm32h5xx_hal_icache.c **** #define IS_ICACHE_REGION_SIZE(__SIZE__)     (((__SIZE__) == ICACHE_REGIONSIZE_2MB)   || \
 122:Drivers/STM32H5xx_HAL_Driver/Src/stm32h5xx_hal_icache.c ****                                              ((__SIZE__) == ICACHE_REGIONSIZE_4MB)   || \
 123:Drivers/STM32H5xx_HAL_Driver/Src/stm32h5xx_hal_icache.c ****                                              ((__SIZE__) == ICACHE_REGIONSIZE_8MB)   || \
 124:Drivers/STM32H5xx_HAL_Driver/Src/stm32h5xx_hal_icache.c ****                                              ((__SIZE__) == ICACHE_REGIONSIZE_16MB)  || \
 125:Drivers/STM32H5xx_HAL_Driver/Src/stm32h5xx_hal_icache.c ****                                              ((__SIZE__) == ICACHE_REGIONSIZE_32MB)  || \
 126:Drivers/STM32H5xx_HAL_Driver/Src/stm32h5xx_hal_icache.c ****                                              ((__SIZE__) == ICACHE_REGIONSIZE_64MB)  || \
 127:Drivers/STM32H5xx_HAL_Driver/Src/stm32h5xx_hal_icache.c ****                                              ((__SIZE__) == ICACHE_REGIONSIZE_128MB))
 128:Drivers/STM32H5xx_HAL_Driver/Src/stm32h5xx_hal_icache.c **** 
 129:Drivers/STM32H5xx_HAL_Driver/Src/stm32h5xx_hal_icache.c **** #define IS_ICACHE_REGION_TRAFFIC_ROUTE(__TRAFFICROUTE__)  (((__TRAFFICROUTE__) == ICACHE_MASTER1_PO
 130:Drivers/STM32H5xx_HAL_Driver/Src/stm32h5xx_hal_icache.c ****                                                            ((__TRAFFICROUTE__) == ICACHE_MASTER2_PO
 131:Drivers/STM32H5xx_HAL_Driver/Src/stm32h5xx_hal_icache.c **** 
 132:Drivers/STM32H5xx_HAL_Driver/Src/stm32h5xx_hal_icache.c **** #define IS_ICACHE_REGION_OUTPUT_BURST_TYPE(__OUTPUTBURSTTYPE_) (((__OUTPUTBURSTTYPE_) == ICACHE_OUT
 133:Drivers/STM32H5xx_HAL_Driver/Src/stm32h5xx_hal_icache.c ****                                                                 ((__OUTPUTBURSTTYPE_) == ICACHE_OUT
 134:Drivers/STM32H5xx_HAL_Driver/Src/stm32h5xx_hal_icache.c **** 
 135:Drivers/STM32H5xx_HAL_Driver/Src/stm32h5xx_hal_icache.c **** #endif /*  ICACHE_CRRx_REN */
 136:Drivers/STM32H5xx_HAL_Driver/Src/stm32h5xx_hal_icache.c **** /**
 137:Drivers/STM32H5xx_HAL_Driver/Src/stm32h5xx_hal_icache.c ****   * @}
 138:Drivers/STM32H5xx_HAL_Driver/Src/stm32h5xx_hal_icache.c ****   */
 139:Drivers/STM32H5xx_HAL_Driver/Src/stm32h5xx_hal_icache.c **** 
 140:Drivers/STM32H5xx_HAL_Driver/Src/stm32h5xx_hal_icache.c **** /* Private variables ---------------------------------------------------------*/
 141:Drivers/STM32H5xx_HAL_Driver/Src/stm32h5xx_hal_icache.c **** /* Private function prototypes -----------------------------------------------*/
 142:Drivers/STM32H5xx_HAL_Driver/Src/stm32h5xx_hal_icache.c **** 
ARM GAS  /tmp/ccVU1W56.s 			page 4


 143:Drivers/STM32H5xx_HAL_Driver/Src/stm32h5xx_hal_icache.c **** /* Exported functions --------------------------------------------------------*/
 144:Drivers/STM32H5xx_HAL_Driver/Src/stm32h5xx_hal_icache.c **** 
 145:Drivers/STM32H5xx_HAL_Driver/Src/stm32h5xx_hal_icache.c **** /** @defgroup ICACHE_Exported_Functions ICACHE Exported Functions
 146:Drivers/STM32H5xx_HAL_Driver/Src/stm32h5xx_hal_icache.c ****   * @{
 147:Drivers/STM32H5xx_HAL_Driver/Src/stm32h5xx_hal_icache.c ****   */
 148:Drivers/STM32H5xx_HAL_Driver/Src/stm32h5xx_hal_icache.c **** 
 149:Drivers/STM32H5xx_HAL_Driver/Src/stm32h5xx_hal_icache.c **** /** @defgroup ICACHE_Exported_Functions_Group1 Initialization and control functions
 150:Drivers/STM32H5xx_HAL_Driver/Src/stm32h5xx_hal_icache.c ****   * @brief    Initialization and control functions
 151:Drivers/STM32H5xx_HAL_Driver/Src/stm32h5xx_hal_icache.c ****   *
 152:Drivers/STM32H5xx_HAL_Driver/Src/stm32h5xx_hal_icache.c ****   @verbatim
 153:Drivers/STM32H5xx_HAL_Driver/Src/stm32h5xx_hal_icache.c ****   ==============================================================================
 154:Drivers/STM32H5xx_HAL_Driver/Src/stm32h5xx_hal_icache.c ****             ##### Initialization and control functions #####
 155:Drivers/STM32H5xx_HAL_Driver/Src/stm32h5xx_hal_icache.c ****   ==============================================================================
 156:Drivers/STM32H5xx_HAL_Driver/Src/stm32h5xx_hal_icache.c ****   [..]
 157:Drivers/STM32H5xx_HAL_Driver/Src/stm32h5xx_hal_icache.c ****     This section provides functions allowing to initialize and control the
 158:Drivers/STM32H5xx_HAL_Driver/Src/stm32h5xx_hal_icache.c ****     Instruction Cache (mode, invalidate procedure, performance counters).
 159:Drivers/STM32H5xx_HAL_Driver/Src/stm32h5xx_hal_icache.c ****   @endverbatim
 160:Drivers/STM32H5xx_HAL_Driver/Src/stm32h5xx_hal_icache.c ****   * @{
 161:Drivers/STM32H5xx_HAL_Driver/Src/stm32h5xx_hal_icache.c ****   */
 162:Drivers/STM32H5xx_HAL_Driver/Src/stm32h5xx_hal_icache.c **** 
 163:Drivers/STM32H5xx_HAL_Driver/Src/stm32h5xx_hal_icache.c **** /**
 164:Drivers/STM32H5xx_HAL_Driver/Src/stm32h5xx_hal_icache.c ****   * @brief  Configure the Instruction Cache cache associativity mode selection.
 165:Drivers/STM32H5xx_HAL_Driver/Src/stm32h5xx_hal_icache.c ****   * @param  AssociativityMode  Associativity mode selection
 166:Drivers/STM32H5xx_HAL_Driver/Src/stm32h5xx_hal_icache.c ****   *         This parameter can be one of the following values:
 167:Drivers/STM32H5xx_HAL_Driver/Src/stm32h5xx_hal_icache.c ****   *            @arg ICACHE_1WAY   1-way cache (direct mapped cache)
 168:Drivers/STM32H5xx_HAL_Driver/Src/stm32h5xx_hal_icache.c ****   *            @arg ICACHE_2WAYS  2-ways set associative cache (default)
 169:Drivers/STM32H5xx_HAL_Driver/Src/stm32h5xx_hal_icache.c ****   * @retval HAL status (HAL_OK/HAL_ERROR)
 170:Drivers/STM32H5xx_HAL_Driver/Src/stm32h5xx_hal_icache.c ****   */
 171:Drivers/STM32H5xx_HAL_Driver/Src/stm32h5xx_hal_icache.c **** HAL_StatusTypeDef HAL_ICACHE_ConfigAssociativityMode(uint32_t AssociativityMode)
 172:Drivers/STM32H5xx_HAL_Driver/Src/stm32h5xx_hal_icache.c **** {
  31              		.loc 1 172 1 view -0
  32              		.cfi_startproc
  33              		@ args = 0, pretend = 0, frame = 0
  34              		@ frame_needed = 0, uses_anonymous_args = 0
  35              		@ link register save eliminated.
 173:Drivers/STM32H5xx_HAL_Driver/Src/stm32h5xx_hal_icache.c ****   HAL_StatusTypeDef status = HAL_OK;
  36              		.loc 1 173 3 view .LVU1
 174:Drivers/STM32H5xx_HAL_Driver/Src/stm32h5xx_hal_icache.c **** 
 175:Drivers/STM32H5xx_HAL_Driver/Src/stm32h5xx_hal_icache.c ****   /* Check the parameters */
 176:Drivers/STM32H5xx_HAL_Driver/Src/stm32h5xx_hal_icache.c ****   assert_param(IS_ICACHE_ASSOCIATIVITY_MODE(AssociativityMode));
  37              		.loc 1 176 3 view .LVU2
 177:Drivers/STM32H5xx_HAL_Driver/Src/stm32h5xx_hal_icache.c **** 
 178:Drivers/STM32H5xx_HAL_Driver/Src/stm32h5xx_hal_icache.c ****   /* Check cache is not enabled */
 179:Drivers/STM32H5xx_HAL_Driver/Src/stm32h5xx_hal_icache.c ****   if (READ_BIT(ICACHE->CR, ICACHE_CR_EN) != 0U)
  38              		.loc 1 179 3 view .LVU3
  39              		.loc 1 179 7 is_stmt 0 view .LVU4
  40 0000 074B     		ldr	r3, .L4
  41 0002 1B68     		ldr	r3, [r3]
  42              		.loc 1 179 6 view .LVU5
  43 0004 13F0010F 		tst	r3, #1
  44 0008 07D1     		bne	.L3
 180:Drivers/STM32H5xx_HAL_Driver/Src/stm32h5xx_hal_icache.c ****   {
 181:Drivers/STM32H5xx_HAL_Driver/Src/stm32h5xx_hal_icache.c ****     status = HAL_ERROR;
 182:Drivers/STM32H5xx_HAL_Driver/Src/stm32h5xx_hal_icache.c ****   }
 183:Drivers/STM32H5xx_HAL_Driver/Src/stm32h5xx_hal_icache.c ****   else
 184:Drivers/STM32H5xx_HAL_Driver/Src/stm32h5xx_hal_icache.c ****   {
 185:Drivers/STM32H5xx_HAL_Driver/Src/stm32h5xx_hal_icache.c ****     MODIFY_REG(ICACHE->CR, ICACHE_CR_WAYSEL, AssociativityMode);
ARM GAS  /tmp/ccVU1W56.s 			page 5


  45              		.loc 1 185 5 is_stmt 1 view .LVU6
  46 000a 054A     		ldr	r2, .L4
  47 000c 1368     		ldr	r3, [r2]
  48 000e 23F00403 		bic	r3, r3, #4
  49 0012 1843     		orrs	r0, r0, r3
  50              	.LVL1:
  51              		.loc 1 185 5 is_stmt 0 view .LVU7
  52 0014 1060     		str	r0, [r2]
 173:Drivers/STM32H5xx_HAL_Driver/Src/stm32h5xx_hal_icache.c **** 
  53              		.loc 1 173 21 view .LVU8
  54 0016 0020     		movs	r0, #0
  55 0018 7047     		bx	lr
  56              	.LVL2:
  57              	.L3:
 181:Drivers/STM32H5xx_HAL_Driver/Src/stm32h5xx_hal_icache.c ****   }
  58              		.loc 1 181 12 view .LVU9
  59 001a 0120     		movs	r0, #1
  60              	.LVL3:
 186:Drivers/STM32H5xx_HAL_Driver/Src/stm32h5xx_hal_icache.c ****   }
 187:Drivers/STM32H5xx_HAL_Driver/Src/stm32h5xx_hal_icache.c **** 
 188:Drivers/STM32H5xx_HAL_Driver/Src/stm32h5xx_hal_icache.c ****   return status;
  61              		.loc 1 188 3 is_stmt 1 view .LVU10
 189:Drivers/STM32H5xx_HAL_Driver/Src/stm32h5xx_hal_icache.c **** }
  62              		.loc 1 189 1 is_stmt 0 view .LVU11
  63 001c 7047     		bx	lr
  64              	.L5:
  65 001e 00BF     		.align	2
  66              	.L4:
  67 0020 00040340 		.word	1073939456
  68              		.cfi_endproc
  69              	.LFE361:
  71              		.section	.text.HAL_ICACHE_DeInit,"ax",%progbits
  72              		.align	1
  73              		.global	HAL_ICACHE_DeInit
  74              		.syntax unified
  75              		.thumb
  76              		.thumb_func
  77              		.fpu fpv4-sp-d16
  79              	HAL_ICACHE_DeInit:
  80              	.LFB362:
 190:Drivers/STM32H5xx_HAL_Driver/Src/stm32h5xx_hal_icache.c **** 
 191:Drivers/STM32H5xx_HAL_Driver/Src/stm32h5xx_hal_icache.c **** /**
 192:Drivers/STM32H5xx_HAL_Driver/Src/stm32h5xx_hal_icache.c ****   * @brief  DeInitialize the Instruction Cache.
 193:Drivers/STM32H5xx_HAL_Driver/Src/stm32h5xx_hal_icache.c ****   * @retval HAL status (HAL_OK)
 194:Drivers/STM32H5xx_HAL_Driver/Src/stm32h5xx_hal_icache.c ****   */
 195:Drivers/STM32H5xx_HAL_Driver/Src/stm32h5xx_hal_icache.c **** HAL_StatusTypeDef HAL_ICACHE_DeInit(void)
 196:Drivers/STM32H5xx_HAL_Driver/Src/stm32h5xx_hal_icache.c **** {
  81              		.loc 1 196 1 is_stmt 1 view -0
  82              		.cfi_startproc
  83              		@ args = 0, pretend = 0, frame = 0
  84              		@ frame_needed = 0, uses_anonymous_args = 0
  85              		@ link register save eliminated.
 197:Drivers/STM32H5xx_HAL_Driver/Src/stm32h5xx_hal_icache.c ****   /* Reset interrupt enable value */
 198:Drivers/STM32H5xx_HAL_Driver/Src/stm32h5xx_hal_icache.c ****   WRITE_REG(ICACHE->IER, 0U);
  86              		.loc 1 198 3 view .LVU13
  87 0000 0E4B     		ldr	r3, .L7
  88 0002 0020     		movs	r0, #0
ARM GAS  /tmp/ccVU1W56.s 			page 6


  89 0004 9860     		str	r0, [r3, #8]
 199:Drivers/STM32H5xx_HAL_Driver/Src/stm32h5xx_hal_icache.c **** 
 200:Drivers/STM32H5xx_HAL_Driver/Src/stm32h5xx_hal_icache.c ****   /* Clear any pending flags */
 201:Drivers/STM32H5xx_HAL_Driver/Src/stm32h5xx_hal_icache.c ****   WRITE_REG(ICACHE->FCR, ICACHE_FCR_CBSYENDF | ICACHE_FCR_CERRF);
  90              		.loc 1 201 3 view .LVU14
  91 0006 0622     		movs	r2, #6
  92 0008 DA60     		str	r2, [r3, #12]
 202:Drivers/STM32H5xx_HAL_Driver/Src/stm32h5xx_hal_icache.c **** 
 203:Drivers/STM32H5xx_HAL_Driver/Src/stm32h5xx_hal_icache.c ****   /* Disable cache then set default associative mode value */
 204:Drivers/STM32H5xx_HAL_Driver/Src/stm32h5xx_hal_icache.c ****   CLEAR_BIT(ICACHE->CR, ICACHE_CR_EN);
  93              		.loc 1 204 3 view .LVU15
  94 000a 1A68     		ldr	r2, [r3]
  95 000c 22F00102 		bic	r2, r2, #1
  96 0010 1A60     		str	r2, [r3]
 205:Drivers/STM32H5xx_HAL_Driver/Src/stm32h5xx_hal_icache.c ****   WRITE_REG(ICACHE->CR, ICACHE_CR_WAYSEL);
  97              		.loc 1 205 3 view .LVU16
  98 0012 0422     		movs	r2, #4
  99 0014 1A60     		str	r2, [r3]
 206:Drivers/STM32H5xx_HAL_Driver/Src/stm32h5xx_hal_icache.c **** 
 207:Drivers/STM32H5xx_HAL_Driver/Src/stm32h5xx_hal_icache.c ****   /* Stop monitor and reset monitor values */
 208:Drivers/STM32H5xx_HAL_Driver/Src/stm32h5xx_hal_icache.c ****   CLEAR_BIT(ICACHE->CR, ICACHE_MONITOR_HIT_MISS);
 100              		.loc 1 208 3 view .LVU17
 101 0016 1A68     		ldr	r2, [r3]
 102 0018 22F44032 		bic	r2, r2, #196608
 103 001c 1A60     		str	r2, [r3]
 209:Drivers/STM32H5xx_HAL_Driver/Src/stm32h5xx_hal_icache.c ****   SET_BIT(ICACHE->CR, (ICACHE_MONITOR_HIT_MISS << 2U));
 104              		.loc 1 209 3 view .LVU18
 105 001e 1A68     		ldr	r2, [r3]
 106 0020 42F44022 		orr	r2, r2, #786432
 107 0024 1A60     		str	r2, [r3]
 210:Drivers/STM32H5xx_HAL_Driver/Src/stm32h5xx_hal_icache.c ****   CLEAR_BIT(ICACHE->CR, (ICACHE_MONITOR_HIT_MISS << 2U));
 108              		.loc 1 210 3 view .LVU19
 109 0026 1A68     		ldr	r2, [r3]
 110 0028 22F44022 		bic	r2, r2, #786432
 111 002c 1A60     		str	r2, [r3]
 211:Drivers/STM32H5xx_HAL_Driver/Src/stm32h5xx_hal_icache.c **** 
 212:Drivers/STM32H5xx_HAL_Driver/Src/stm32h5xx_hal_icache.c **** #if defined(ICACHE_CRRx_REN)
 213:Drivers/STM32H5xx_HAL_Driver/Src/stm32h5xx_hal_icache.c ****   /* Reset regions configuration values */
 214:Drivers/STM32H5xx_HAL_Driver/Src/stm32h5xx_hal_icache.c ****   WRITE_REG(ICACHE->CRR0, ICACHE_REGIONSIZE_2MB << ICACHE_CRRx_RSIZE_Pos);
 112              		.loc 1 214 3 view .LVU20
 113 002e 4FF40072 		mov	r2, #512
 114 0032 1A62     		str	r2, [r3, #32]
 215:Drivers/STM32H5xx_HAL_Driver/Src/stm32h5xx_hal_icache.c ****   WRITE_REG(ICACHE->CRR1, ICACHE_REGIONSIZE_2MB << ICACHE_CRRx_RSIZE_Pos);
 115              		.loc 1 215 3 view .LVU21
 116 0034 5A62     		str	r2, [r3, #36]
 216:Drivers/STM32H5xx_HAL_Driver/Src/stm32h5xx_hal_icache.c ****   WRITE_REG(ICACHE->CRR2, ICACHE_REGIONSIZE_2MB << ICACHE_CRRx_RSIZE_Pos);
 117              		.loc 1 216 3 view .LVU22
 118 0036 9A62     		str	r2, [r3, #40]
 217:Drivers/STM32H5xx_HAL_Driver/Src/stm32h5xx_hal_icache.c ****   WRITE_REG(ICACHE->CRR3, ICACHE_REGIONSIZE_2MB << ICACHE_CRRx_RSIZE_Pos);
 119              		.loc 1 217 3 view .LVU23
 120 0038 DA62     		str	r2, [r3, #44]
 218:Drivers/STM32H5xx_HAL_Driver/Src/stm32h5xx_hal_icache.c **** #endif /*  ICACHE_CRRx_REN */
 219:Drivers/STM32H5xx_HAL_Driver/Src/stm32h5xx_hal_icache.c **** 
 220:Drivers/STM32H5xx_HAL_Driver/Src/stm32h5xx_hal_icache.c ****   return HAL_OK;
 121              		.loc 1 220 3 view .LVU24
 221:Drivers/STM32H5xx_HAL_Driver/Src/stm32h5xx_hal_icache.c **** }
 122              		.loc 1 221 1 is_stmt 0 view .LVU25
ARM GAS  /tmp/ccVU1W56.s 			page 7


 123 003a 7047     		bx	lr
 124              	.L8:
 125              		.align	2
 126              	.L7:
 127 003c 00040340 		.word	1073939456
 128              		.cfi_endproc
 129              	.LFE362:
 131              		.section	.text.HAL_ICACHE_Enable,"ax",%progbits
 132              		.align	1
 133              		.global	HAL_ICACHE_Enable
 134              		.syntax unified
 135              		.thumb
 136              		.thumb_func
 137              		.fpu fpv4-sp-d16
 139              	HAL_ICACHE_Enable:
 140              	.LFB363:
 222:Drivers/STM32H5xx_HAL_Driver/Src/stm32h5xx_hal_icache.c **** 
 223:Drivers/STM32H5xx_HAL_Driver/Src/stm32h5xx_hal_icache.c **** /**
 224:Drivers/STM32H5xx_HAL_Driver/Src/stm32h5xx_hal_icache.c ****   * @brief  Enable the Instruction Cache.
 225:Drivers/STM32H5xx_HAL_Driver/Src/stm32h5xx_hal_icache.c ****   * @note   This function always returns HAL_OK even if there is any ongoing
 226:Drivers/STM32H5xx_HAL_Driver/Src/stm32h5xx_hal_icache.c ****   *         cache operation. The Instruction Cache is bypassed until the
 227:Drivers/STM32H5xx_HAL_Driver/Src/stm32h5xx_hal_icache.c ****   *         cache operation completes.
 228:Drivers/STM32H5xx_HAL_Driver/Src/stm32h5xx_hal_icache.c ****   * @retval HAL status (HAL_OK)
 229:Drivers/STM32H5xx_HAL_Driver/Src/stm32h5xx_hal_icache.c ****   */
 230:Drivers/STM32H5xx_HAL_Driver/Src/stm32h5xx_hal_icache.c **** HAL_StatusTypeDef HAL_ICACHE_Enable(void)
 231:Drivers/STM32H5xx_HAL_Driver/Src/stm32h5xx_hal_icache.c **** {
 141              		.loc 1 231 1 is_stmt 1 view -0
 142              		.cfi_startproc
 143              		@ args = 0, pretend = 0, frame = 0
 144              		@ frame_needed = 0, uses_anonymous_args = 0
 145              		@ link register save eliminated.
 232:Drivers/STM32H5xx_HAL_Driver/Src/stm32h5xx_hal_icache.c ****   SET_BIT(ICACHE->CR, ICACHE_CR_EN);
 146              		.loc 1 232 3 view .LVU27
 147 0000 034A     		ldr	r2, .L10
 148 0002 1368     		ldr	r3, [r2]
 149 0004 43F00103 		orr	r3, r3, #1
 150 0008 1360     		str	r3, [r2]
 233:Drivers/STM32H5xx_HAL_Driver/Src/stm32h5xx_hal_icache.c **** 
 234:Drivers/STM32H5xx_HAL_Driver/Src/stm32h5xx_hal_icache.c ****   return HAL_OK;
 151              		.loc 1 234 3 view .LVU28
 235:Drivers/STM32H5xx_HAL_Driver/Src/stm32h5xx_hal_icache.c **** }
 152              		.loc 1 235 1 is_stmt 0 view .LVU29
 153 000a 0020     		movs	r0, #0
 154 000c 7047     		bx	lr
 155              	.L11:
 156 000e 00BF     		.align	2
 157              	.L10:
 158 0010 00040340 		.word	1073939456
 159              		.cfi_endproc
 160              	.LFE363:
 162              		.section	.text.HAL_ICACHE_Disable,"ax",%progbits
 163              		.align	1
 164              		.global	HAL_ICACHE_Disable
 165              		.syntax unified
 166              		.thumb
 167              		.thumb_func
 168              		.fpu fpv4-sp-d16
ARM GAS  /tmp/ccVU1W56.s 			page 8


 170              	HAL_ICACHE_Disable:
 171              	.LFB364:
 236:Drivers/STM32H5xx_HAL_Driver/Src/stm32h5xx_hal_icache.c **** 
 237:Drivers/STM32H5xx_HAL_Driver/Src/stm32h5xx_hal_icache.c **** /**
 238:Drivers/STM32H5xx_HAL_Driver/Src/stm32h5xx_hal_icache.c ****   * @brief  Disable the Instruction Cache.
 239:Drivers/STM32H5xx_HAL_Driver/Src/stm32h5xx_hal_icache.c ****   * @note   This function waits for the cache being disabled but
 240:Drivers/STM32H5xx_HAL_Driver/Src/stm32h5xx_hal_icache.c ****   *         not for the end of the automatic cache invalidation procedure.
 241:Drivers/STM32H5xx_HAL_Driver/Src/stm32h5xx_hal_icache.c ****   * @retval HAL status (HAL_OK/HAL_TIMEOUT)
 242:Drivers/STM32H5xx_HAL_Driver/Src/stm32h5xx_hal_icache.c ****   */
 243:Drivers/STM32H5xx_HAL_Driver/Src/stm32h5xx_hal_icache.c **** HAL_StatusTypeDef HAL_ICACHE_Disable(void)
 244:Drivers/STM32H5xx_HAL_Driver/Src/stm32h5xx_hal_icache.c **** {
 172              		.loc 1 244 1 is_stmt 1 view -0
 173              		.cfi_startproc
 174              		@ args = 0, pretend = 0, frame = 0
 175              		@ frame_needed = 0, uses_anonymous_args = 0
 176 0000 10B5     		push	{r4, lr}
 177              	.LCFI0:
 178              		.cfi_def_cfa_offset 8
 179              		.cfi_offset 4, -8
 180              		.cfi_offset 14, -4
 245:Drivers/STM32H5xx_HAL_Driver/Src/stm32h5xx_hal_icache.c ****   HAL_StatusTypeDef status = HAL_OK;
 181              		.loc 1 245 3 view .LVU31
 182              	.LVL4:
 246:Drivers/STM32H5xx_HAL_Driver/Src/stm32h5xx_hal_icache.c ****   uint32_t tickstart;
 183              		.loc 1 246 3 view .LVU32
 247:Drivers/STM32H5xx_HAL_Driver/Src/stm32h5xx_hal_icache.c **** 
 248:Drivers/STM32H5xx_HAL_Driver/Src/stm32h5xx_hal_icache.c ****   /* Make sure BSYENDF is reset before to disable the instruction cache */
 249:Drivers/STM32H5xx_HAL_Driver/Src/stm32h5xx_hal_icache.c ****   /* as it automatically starts a cache invalidation procedure */
 250:Drivers/STM32H5xx_HAL_Driver/Src/stm32h5xx_hal_icache.c ****   WRITE_REG(ICACHE->FCR, ICACHE_FCR_CBSYENDF);
 184              		.loc 1 250 3 view .LVU33
 185 0002 0E4B     		ldr	r3, .L19
 186 0004 0222     		movs	r2, #2
 187 0006 DA60     		str	r2, [r3, #12]
 251:Drivers/STM32H5xx_HAL_Driver/Src/stm32h5xx_hal_icache.c **** 
 252:Drivers/STM32H5xx_HAL_Driver/Src/stm32h5xx_hal_icache.c ****   CLEAR_BIT(ICACHE->CR, ICACHE_CR_EN);
 188              		.loc 1 252 3 view .LVU34
 189 0008 1A68     		ldr	r2, [r3]
 190 000a 22F00102 		bic	r2, r2, #1
 191 000e 1A60     		str	r2, [r3]
 253:Drivers/STM32H5xx_HAL_Driver/Src/stm32h5xx_hal_icache.c **** 
 254:Drivers/STM32H5xx_HAL_Driver/Src/stm32h5xx_hal_icache.c ****   /* Get tick */
 255:Drivers/STM32H5xx_HAL_Driver/Src/stm32h5xx_hal_icache.c ****   tickstart = HAL_GetTick();
 192              		.loc 1 255 3 view .LVU35
 193              		.loc 1 255 15 is_stmt 0 view .LVU36
 194 0010 FFF7FEFF 		bl	HAL_GetTick
 195              	.LVL5:
 196 0014 0446     		mov	r4, r0
 197              	.LVL6:
 256:Drivers/STM32H5xx_HAL_Driver/Src/stm32h5xx_hal_icache.c **** 
 257:Drivers/STM32H5xx_HAL_Driver/Src/stm32h5xx_hal_icache.c ****   /* Wait for instruction cache being disabled */
 258:Drivers/STM32H5xx_HAL_Driver/Src/stm32h5xx_hal_icache.c ****   while (READ_BIT(ICACHE->CR, ICACHE_CR_EN) != 0U)
 198              		.loc 1 258 3 is_stmt 1 view .LVU37
 199              	.L13:
 200              		.loc 1 258 9 view .LVU38
 201              		.loc 1 258 10 is_stmt 0 view .LVU39
 202 0016 094B     		ldr	r3, .L19
 203 0018 1B68     		ldr	r3, [r3]
ARM GAS  /tmp/ccVU1W56.s 			page 9


 204              		.loc 1 258 9 view .LVU40
 205 001a 13F0010F 		tst	r3, #1
 206 001e 0BD0     		beq	.L18
 259:Drivers/STM32H5xx_HAL_Driver/Src/stm32h5xx_hal_icache.c ****   {
 260:Drivers/STM32H5xx_HAL_Driver/Src/stm32h5xx_hal_icache.c ****     if ((HAL_GetTick() - tickstart) > ICACHE_DISABLE_TIMEOUT_VALUE)
 207              		.loc 1 260 5 is_stmt 1 view .LVU41
 208              		.loc 1 260 10 is_stmt 0 view .LVU42
 209 0020 FFF7FEFF 		bl	HAL_GetTick
 210              	.LVL7:
 211              		.loc 1 260 24 view .LVU43
 212 0024 001B     		subs	r0, r0, r4
 213              		.loc 1 260 8 view .LVU44
 214 0026 0128     		cmp	r0, #1
 215 0028 F5D9     		bls	.L13
 261:Drivers/STM32H5xx_HAL_Driver/Src/stm32h5xx_hal_icache.c ****     {
 262:Drivers/STM32H5xx_HAL_Driver/Src/stm32h5xx_hal_icache.c ****       /* New check to avoid false timeout detection in case of preemption */
 263:Drivers/STM32H5xx_HAL_Driver/Src/stm32h5xx_hal_icache.c ****       if (READ_BIT(ICACHE->CR, ICACHE_CR_EN) != 0U)
 216              		.loc 1 263 7 is_stmt 1 view .LVU45
 217              		.loc 1 263 11 is_stmt 0 view .LVU46
 218 002a 044B     		ldr	r3, .L19
 219 002c 1B68     		ldr	r3, [r3]
 220              		.loc 1 263 10 view .LVU47
 221 002e 13F0010F 		tst	r3, #1
 222 0032 F0D0     		beq	.L13
 264:Drivers/STM32H5xx_HAL_Driver/Src/stm32h5xx_hal_icache.c ****       {
 265:Drivers/STM32H5xx_HAL_Driver/Src/stm32h5xx_hal_icache.c ****         status = HAL_TIMEOUT;
 223              		.loc 1 265 16 view .LVU48
 224 0034 0320     		movs	r0, #3
 225 0036 00E0     		b	.L14
 226              	.L18:
 245:Drivers/STM32H5xx_HAL_Driver/Src/stm32h5xx_hal_icache.c ****   uint32_t tickstart;
 227              		.loc 1 245 21 view .LVU49
 228 0038 0020     		movs	r0, #0
 229              	.L14:
 230              	.LVL8:
 266:Drivers/STM32H5xx_HAL_Driver/Src/stm32h5xx_hal_icache.c ****         break;
 267:Drivers/STM32H5xx_HAL_Driver/Src/stm32h5xx_hal_icache.c ****       }
 268:Drivers/STM32H5xx_HAL_Driver/Src/stm32h5xx_hal_icache.c ****     }
 269:Drivers/STM32H5xx_HAL_Driver/Src/stm32h5xx_hal_icache.c ****   }
 270:Drivers/STM32H5xx_HAL_Driver/Src/stm32h5xx_hal_icache.c **** 
 271:Drivers/STM32H5xx_HAL_Driver/Src/stm32h5xx_hal_icache.c ****   return status;
 231              		.loc 1 271 3 is_stmt 1 view .LVU50
 272:Drivers/STM32H5xx_HAL_Driver/Src/stm32h5xx_hal_icache.c **** }
 232              		.loc 1 272 1 is_stmt 0 view .LVU51
 233 003a 10BD     		pop	{r4, pc}
 234              	.LVL9:
 235              	.L20:
 236              		.loc 1 272 1 view .LVU52
 237              		.align	2
 238              	.L19:
 239 003c 00040340 		.word	1073939456
 240              		.cfi_endproc
 241              	.LFE364:
 243              		.section	.text.HAL_ICACHE_IsEnabled,"ax",%progbits
 244              		.align	1
 245              		.global	HAL_ICACHE_IsEnabled
 246              		.syntax unified
ARM GAS  /tmp/ccVU1W56.s 			page 10


 247              		.thumb
 248              		.thumb_func
 249              		.fpu fpv4-sp-d16
 251              	HAL_ICACHE_IsEnabled:
 252              	.LFB365:
 273:Drivers/STM32H5xx_HAL_Driver/Src/stm32h5xx_hal_icache.c **** 
 274:Drivers/STM32H5xx_HAL_Driver/Src/stm32h5xx_hal_icache.c **** /**
 275:Drivers/STM32H5xx_HAL_Driver/Src/stm32h5xx_hal_icache.c ****   * @brief  Check whether the Instruction Cache is enabled or not.
 276:Drivers/STM32H5xx_HAL_Driver/Src/stm32h5xx_hal_icache.c ****   * @retval Status (0: disabled, 1: enabled)
 277:Drivers/STM32H5xx_HAL_Driver/Src/stm32h5xx_hal_icache.c ****   */
 278:Drivers/STM32H5xx_HAL_Driver/Src/stm32h5xx_hal_icache.c **** uint32_t HAL_ICACHE_IsEnabled(void)
 279:Drivers/STM32H5xx_HAL_Driver/Src/stm32h5xx_hal_icache.c **** {
 253              		.loc 1 279 1 is_stmt 1 view -0
 254              		.cfi_startproc
 255              		@ args = 0, pretend = 0, frame = 0
 256              		@ frame_needed = 0, uses_anonymous_args = 0
 257              		@ link register save eliminated.
 280:Drivers/STM32H5xx_HAL_Driver/Src/stm32h5xx_hal_icache.c ****   return ((READ_BIT(ICACHE->CR, ICACHE_CR_EN) != 0U) ? 1UL : 0UL);
 258              		.loc 1 280 3 view .LVU54
 259              		.loc 1 280 12 is_stmt 0 view .LVU55
 260 0000 024B     		ldr	r3, .L22
 261 0002 1868     		ldr	r0, [r3]
 281:Drivers/STM32H5xx_HAL_Driver/Src/stm32h5xx_hal_icache.c **** }
 262              		.loc 1 281 1 view .LVU56
 263 0004 00F00100 		and	r0, r0, #1
 264 0008 7047     		bx	lr
 265              	.L23:
 266 000a 00BF     		.align	2
 267              	.L22:
 268 000c 00040340 		.word	1073939456
 269              		.cfi_endproc
 270              	.LFE365:
 272              		.section	.text.HAL_ICACHE_Invalidate_IT,"ax",%progbits
 273              		.align	1
 274              		.global	HAL_ICACHE_Invalidate_IT
 275              		.syntax unified
 276              		.thumb
 277              		.thumb_func
 278              		.fpu fpv4-sp-d16
 280              	HAL_ICACHE_Invalidate_IT:
 281              	.LFB367:
 282:Drivers/STM32H5xx_HAL_Driver/Src/stm32h5xx_hal_icache.c **** 
 283:Drivers/STM32H5xx_HAL_Driver/Src/stm32h5xx_hal_icache.c **** /**
 284:Drivers/STM32H5xx_HAL_Driver/Src/stm32h5xx_hal_icache.c ****   * @brief  Invalidate the Instruction Cache.
 285:Drivers/STM32H5xx_HAL_Driver/Src/stm32h5xx_hal_icache.c ****   * @note   This function waits for the end of cache invalidation procedure
 286:Drivers/STM32H5xx_HAL_Driver/Src/stm32h5xx_hal_icache.c ****   *         and clears the associated BSYENDF flag.
 287:Drivers/STM32H5xx_HAL_Driver/Src/stm32h5xx_hal_icache.c ****   * @retval HAL status (HAL_OK/HAL_ERROR/HAL_TIMEOUT)
 288:Drivers/STM32H5xx_HAL_Driver/Src/stm32h5xx_hal_icache.c ****   */
 289:Drivers/STM32H5xx_HAL_Driver/Src/stm32h5xx_hal_icache.c **** HAL_StatusTypeDef HAL_ICACHE_Invalidate(void)
 290:Drivers/STM32H5xx_HAL_Driver/Src/stm32h5xx_hal_icache.c **** {
 291:Drivers/STM32H5xx_HAL_Driver/Src/stm32h5xx_hal_icache.c ****   HAL_StatusTypeDef status;
 292:Drivers/STM32H5xx_HAL_Driver/Src/stm32h5xx_hal_icache.c **** 
 293:Drivers/STM32H5xx_HAL_Driver/Src/stm32h5xx_hal_icache.c ****   /* Check if no ongoing operation */
 294:Drivers/STM32H5xx_HAL_Driver/Src/stm32h5xx_hal_icache.c ****   if (READ_BIT(ICACHE->SR, ICACHE_SR_BUSYF) == 0U)
 295:Drivers/STM32H5xx_HAL_Driver/Src/stm32h5xx_hal_icache.c ****   {
 296:Drivers/STM32H5xx_HAL_Driver/Src/stm32h5xx_hal_icache.c ****     /* Launch cache invalidation */
 297:Drivers/STM32H5xx_HAL_Driver/Src/stm32h5xx_hal_icache.c ****     SET_BIT(ICACHE->CR, ICACHE_CR_CACHEINV);
ARM GAS  /tmp/ccVU1W56.s 			page 11


 298:Drivers/STM32H5xx_HAL_Driver/Src/stm32h5xx_hal_icache.c ****   }
 299:Drivers/STM32H5xx_HAL_Driver/Src/stm32h5xx_hal_icache.c **** 
 300:Drivers/STM32H5xx_HAL_Driver/Src/stm32h5xx_hal_icache.c ****   status = HAL_ICACHE_WaitForInvalidateComplete();
 301:Drivers/STM32H5xx_HAL_Driver/Src/stm32h5xx_hal_icache.c **** 
 302:Drivers/STM32H5xx_HAL_Driver/Src/stm32h5xx_hal_icache.c ****   return status;
 303:Drivers/STM32H5xx_HAL_Driver/Src/stm32h5xx_hal_icache.c **** }
 304:Drivers/STM32H5xx_HAL_Driver/Src/stm32h5xx_hal_icache.c **** 
 305:Drivers/STM32H5xx_HAL_Driver/Src/stm32h5xx_hal_icache.c **** /**
 306:Drivers/STM32H5xx_HAL_Driver/Src/stm32h5xx_hal_icache.c ****   * @brief  Invalidate the Instruction Cache with interrupt.
 307:Drivers/STM32H5xx_HAL_Driver/Src/stm32h5xx_hal_icache.c ****   * @note   This function launches cache invalidation and returns.
 308:Drivers/STM32H5xx_HAL_Driver/Src/stm32h5xx_hal_icache.c ****   *         User application shall resort to interrupt generation to check
 309:Drivers/STM32H5xx_HAL_Driver/Src/stm32h5xx_hal_icache.c ****   *         the end of the cache invalidation with the BSYENDF flag and the
 310:Drivers/STM32H5xx_HAL_Driver/Src/stm32h5xx_hal_icache.c ****   *         HAL_ICACHE_InvalidateCompleteCallback() callback.
 311:Drivers/STM32H5xx_HAL_Driver/Src/stm32h5xx_hal_icache.c ****   * @retval HAL status (HAL_OK/HAL_ERROR)
 312:Drivers/STM32H5xx_HAL_Driver/Src/stm32h5xx_hal_icache.c ****   */
 313:Drivers/STM32H5xx_HAL_Driver/Src/stm32h5xx_hal_icache.c **** HAL_StatusTypeDef HAL_ICACHE_Invalidate_IT(void)
 314:Drivers/STM32H5xx_HAL_Driver/Src/stm32h5xx_hal_icache.c **** {
 282              		.loc 1 314 1 is_stmt 1 view -0
 283              		.cfi_startproc
 284              		@ args = 0, pretend = 0, frame = 0
 285              		@ frame_needed = 0, uses_anonymous_args = 0
 286              		@ link register save eliminated.
 315:Drivers/STM32H5xx_HAL_Driver/Src/stm32h5xx_hal_icache.c ****   HAL_StatusTypeDef status = HAL_OK;
 287              		.loc 1 315 3 view .LVU58
 288              	.LVL10:
 316:Drivers/STM32H5xx_HAL_Driver/Src/stm32h5xx_hal_icache.c **** 
 317:Drivers/STM32H5xx_HAL_Driver/Src/stm32h5xx_hal_icache.c ****   /* Check no ongoing operation */
 318:Drivers/STM32H5xx_HAL_Driver/Src/stm32h5xx_hal_icache.c ****   if (READ_BIT(ICACHE->SR, ICACHE_SR_BUSYF) != 0U)
 289              		.loc 1 318 3 view .LVU59
 290              		.loc 1 318 7 is_stmt 0 view .LVU60
 291 0000 094B     		ldr	r3, .L27
 292 0002 5B68     		ldr	r3, [r3, #4]
 293              		.loc 1 318 6 view .LVU61
 294 0004 13F0010F 		tst	r3, #1
 295 0008 0CD1     		bne	.L26
 319:Drivers/STM32H5xx_HAL_Driver/Src/stm32h5xx_hal_icache.c ****   {
 320:Drivers/STM32H5xx_HAL_Driver/Src/stm32h5xx_hal_icache.c ****     status = HAL_ERROR;
 321:Drivers/STM32H5xx_HAL_Driver/Src/stm32h5xx_hal_icache.c ****   }
 322:Drivers/STM32H5xx_HAL_Driver/Src/stm32h5xx_hal_icache.c ****   else
 323:Drivers/STM32H5xx_HAL_Driver/Src/stm32h5xx_hal_icache.c ****   {
 324:Drivers/STM32H5xx_HAL_Driver/Src/stm32h5xx_hal_icache.c ****     /* Make sure BSYENDF is reset before to start cache invalidation */
 325:Drivers/STM32H5xx_HAL_Driver/Src/stm32h5xx_hal_icache.c ****     WRITE_REG(ICACHE->FCR, ICACHE_FCR_CBSYENDF);
 296              		.loc 1 325 5 is_stmt 1 view .LVU62
 297 000a 074B     		ldr	r3, .L27
 298 000c 0222     		movs	r2, #2
 299 000e DA60     		str	r2, [r3, #12]
 326:Drivers/STM32H5xx_HAL_Driver/Src/stm32h5xx_hal_icache.c **** 
 327:Drivers/STM32H5xx_HAL_Driver/Src/stm32h5xx_hal_icache.c ****     /* Enable end of cache invalidation interrupt */
 328:Drivers/STM32H5xx_HAL_Driver/Src/stm32h5xx_hal_icache.c ****     SET_BIT(ICACHE->IER, ICACHE_IER_BSYENDIE);
 300              		.loc 1 328 5 view .LVU63
 301 0010 9A68     		ldr	r2, [r3, #8]
 302 0012 42F00202 		orr	r2, r2, #2
 303 0016 9A60     		str	r2, [r3, #8]
 329:Drivers/STM32H5xx_HAL_Driver/Src/stm32h5xx_hal_icache.c **** 
 330:Drivers/STM32H5xx_HAL_Driver/Src/stm32h5xx_hal_icache.c ****     /* Launch cache invalidation */
 331:Drivers/STM32H5xx_HAL_Driver/Src/stm32h5xx_hal_icache.c ****     SET_BIT(ICACHE->CR, ICACHE_CR_CACHEINV);
 304              		.loc 1 331 5 view .LVU64
ARM GAS  /tmp/ccVU1W56.s 			page 12


 305 0018 1A68     		ldr	r2, [r3]
 306 001a 42F00202 		orr	r2, r2, #2
 307 001e 1A60     		str	r2, [r3]
 315:Drivers/STM32H5xx_HAL_Driver/Src/stm32h5xx_hal_icache.c **** 
 308              		.loc 1 315 21 is_stmt 0 view .LVU65
 309 0020 0020     		movs	r0, #0
 310 0022 7047     		bx	lr
 311              	.L26:
 320:Drivers/STM32H5xx_HAL_Driver/Src/stm32h5xx_hal_icache.c ****   }
 312              		.loc 1 320 12 view .LVU66
 313 0024 0120     		movs	r0, #1
 314              	.LVL11:
 332:Drivers/STM32H5xx_HAL_Driver/Src/stm32h5xx_hal_icache.c ****   }
 333:Drivers/STM32H5xx_HAL_Driver/Src/stm32h5xx_hal_icache.c **** 
 334:Drivers/STM32H5xx_HAL_Driver/Src/stm32h5xx_hal_icache.c ****   return status;
 315              		.loc 1 334 3 is_stmt 1 view .LVU67
 335:Drivers/STM32H5xx_HAL_Driver/Src/stm32h5xx_hal_icache.c **** }
 316              		.loc 1 335 1 is_stmt 0 view .LVU68
 317 0026 7047     		bx	lr
 318              	.L28:
 319              		.align	2
 320              	.L27:
 321 0028 00040340 		.word	1073939456
 322              		.cfi_endproc
 323              	.LFE367:
 325              		.section	.text.HAL_ICACHE_WaitForInvalidateComplete,"ax",%progbits
 326              		.align	1
 327              		.global	HAL_ICACHE_WaitForInvalidateComplete
 328              		.syntax unified
 329              		.thumb
 330              		.thumb_func
 331              		.fpu fpv4-sp-d16
 333              	HAL_ICACHE_WaitForInvalidateComplete:
 334              	.LFB368:
 336:Drivers/STM32H5xx_HAL_Driver/Src/stm32h5xx_hal_icache.c **** 
 337:Drivers/STM32H5xx_HAL_Driver/Src/stm32h5xx_hal_icache.c **** /**
 338:Drivers/STM32H5xx_HAL_Driver/Src/stm32h5xx_hal_icache.c ****   * @brief Wait for the end of the Instruction Cache invalidate procedure.
 339:Drivers/STM32H5xx_HAL_Driver/Src/stm32h5xx_hal_icache.c ****   * @note This function checks and clears the BSYENDF flag when set.
 340:Drivers/STM32H5xx_HAL_Driver/Src/stm32h5xx_hal_icache.c ****   * @retval HAL status (HAL_OK/HAL_TIMEOUT)
 341:Drivers/STM32H5xx_HAL_Driver/Src/stm32h5xx_hal_icache.c ****   */
 342:Drivers/STM32H5xx_HAL_Driver/Src/stm32h5xx_hal_icache.c **** HAL_StatusTypeDef HAL_ICACHE_WaitForInvalidateComplete(void)
 343:Drivers/STM32H5xx_HAL_Driver/Src/stm32h5xx_hal_icache.c **** {
 335              		.loc 1 343 1 is_stmt 1 view -0
 336              		.cfi_startproc
 337              		@ args = 0, pretend = 0, frame = 0
 338              		@ frame_needed = 0, uses_anonymous_args = 0
 344:Drivers/STM32H5xx_HAL_Driver/Src/stm32h5xx_hal_icache.c ****   HAL_StatusTypeDef status = HAL_OK;
 339              		.loc 1 344 3 view .LVU70
 340              	.LVL12:
 345:Drivers/STM32H5xx_HAL_Driver/Src/stm32h5xx_hal_icache.c ****   uint32_t tickstart;
 341              		.loc 1 345 3 view .LVU71
 346:Drivers/STM32H5xx_HAL_Driver/Src/stm32h5xx_hal_icache.c **** 
 347:Drivers/STM32H5xx_HAL_Driver/Src/stm32h5xx_hal_icache.c ****   /* Check if ongoing invalidation operation */
 348:Drivers/STM32H5xx_HAL_Driver/Src/stm32h5xx_hal_icache.c ****   if (READ_BIT(ICACHE->SR, ICACHE_SR_BUSYF) != 0U)
 342              		.loc 1 348 3 view .LVU72
 343              		.loc 1 348 7 is_stmt 0 view .LVU73
 344 0000 114B     		ldr	r3, .L41
ARM GAS  /tmp/ccVU1W56.s 			page 13


 345 0002 5B68     		ldr	r3, [r3, #4]
 346              		.loc 1 348 6 view .LVU74
 347 0004 13F0010F 		tst	r3, #1
 348 0008 04D1     		bne	.L39
 344:Drivers/STM32H5xx_HAL_Driver/Src/stm32h5xx_hal_icache.c ****   uint32_t tickstart;
 349              		.loc 1 344 21 view .LVU75
 350 000a 0020     		movs	r0, #0
 351              	.LVL13:
 349:Drivers/STM32H5xx_HAL_Driver/Src/stm32h5xx_hal_icache.c ****   {
 350:Drivers/STM32H5xx_HAL_Driver/Src/stm32h5xx_hal_icache.c ****     /* Get tick */
 351:Drivers/STM32H5xx_HAL_Driver/Src/stm32h5xx_hal_icache.c ****     tickstart = HAL_GetTick();
 352:Drivers/STM32H5xx_HAL_Driver/Src/stm32h5xx_hal_icache.c **** 
 353:Drivers/STM32H5xx_HAL_Driver/Src/stm32h5xx_hal_icache.c ****     /* Wait for end of cache invalidation */
 354:Drivers/STM32H5xx_HAL_Driver/Src/stm32h5xx_hal_icache.c ****     while (READ_BIT(ICACHE->SR, ICACHE_SR_BSYENDF) == 0U)
 355:Drivers/STM32H5xx_HAL_Driver/Src/stm32h5xx_hal_icache.c ****     {
 356:Drivers/STM32H5xx_HAL_Driver/Src/stm32h5xx_hal_icache.c ****       if ((HAL_GetTick() - tickstart) > ICACHE_INVALIDATE_TIMEOUT_VALUE)
 357:Drivers/STM32H5xx_HAL_Driver/Src/stm32h5xx_hal_icache.c ****       {
 358:Drivers/STM32H5xx_HAL_Driver/Src/stm32h5xx_hal_icache.c ****         /* New check to avoid false timeout detection in case of preemption */
 359:Drivers/STM32H5xx_HAL_Driver/Src/stm32h5xx_hal_icache.c ****         if (READ_BIT(ICACHE->SR, ICACHE_SR_BSYENDF) == 0U)
 360:Drivers/STM32H5xx_HAL_Driver/Src/stm32h5xx_hal_icache.c ****         {
 361:Drivers/STM32H5xx_HAL_Driver/Src/stm32h5xx_hal_icache.c ****           status = HAL_TIMEOUT;
 362:Drivers/STM32H5xx_HAL_Driver/Src/stm32h5xx_hal_icache.c ****           break;
 363:Drivers/STM32H5xx_HAL_Driver/Src/stm32h5xx_hal_icache.c ****         }
 364:Drivers/STM32H5xx_HAL_Driver/Src/stm32h5xx_hal_icache.c ****       }
 365:Drivers/STM32H5xx_HAL_Driver/Src/stm32h5xx_hal_icache.c ****     }
 366:Drivers/STM32H5xx_HAL_Driver/Src/stm32h5xx_hal_icache.c ****   }
 367:Drivers/STM32H5xx_HAL_Driver/Src/stm32h5xx_hal_icache.c **** 
 368:Drivers/STM32H5xx_HAL_Driver/Src/stm32h5xx_hal_icache.c ****   /* Clear BSYENDF */
 369:Drivers/STM32H5xx_HAL_Driver/Src/stm32h5xx_hal_icache.c ****   WRITE_REG(ICACHE->FCR, ICACHE_FCR_CBSYENDF);
 352              		.loc 1 369 3 is_stmt 1 view .LVU76
 353 000c 0E4B     		ldr	r3, .L41
 354 000e 0222     		movs	r2, #2
 355 0010 DA60     		str	r2, [r3, #12]
 370:Drivers/STM32H5xx_HAL_Driver/Src/stm32h5xx_hal_icache.c **** 
 371:Drivers/STM32H5xx_HAL_Driver/Src/stm32h5xx_hal_icache.c ****   return status;
 356              		.loc 1 371 3 view .LVU77
 372:Drivers/STM32H5xx_HAL_Driver/Src/stm32h5xx_hal_icache.c **** }
 357              		.loc 1 372 1 is_stmt 0 view .LVU78
 358 0012 7047     		bx	lr
 359              	.LVL14:
 360              	.L39:
 343:Drivers/STM32H5xx_HAL_Driver/Src/stm32h5xx_hal_icache.c ****   HAL_StatusTypeDef status = HAL_OK;
 361              		.loc 1 343 1 view .LVU79
 362 0014 10B5     		push	{r4, lr}
 363              	.LCFI1:
 364              		.cfi_def_cfa_offset 8
 365              		.cfi_offset 4, -8
 366              		.cfi_offset 14, -4
 351:Drivers/STM32H5xx_HAL_Driver/Src/stm32h5xx_hal_icache.c **** 
 367              		.loc 1 351 5 is_stmt 1 view .LVU80
 351:Drivers/STM32H5xx_HAL_Driver/Src/stm32h5xx_hal_icache.c **** 
 368              		.loc 1 351 17 is_stmt 0 view .LVU81
 369 0016 FFF7FEFF 		bl	HAL_GetTick
 370              	.LVL15:
 371 001a 0446     		mov	r4, r0
 372              	.LVL16:
 354:Drivers/STM32H5xx_HAL_Driver/Src/stm32h5xx_hal_icache.c ****     {
ARM GAS  /tmp/ccVU1W56.s 			page 14


 373              		.loc 1 354 5 is_stmt 1 view .LVU82
 374              	.L31:
 354:Drivers/STM32H5xx_HAL_Driver/Src/stm32h5xx_hal_icache.c ****     {
 375              		.loc 1 354 11 view .LVU83
 354:Drivers/STM32H5xx_HAL_Driver/Src/stm32h5xx_hal_icache.c ****     {
 376              		.loc 1 354 12 is_stmt 0 view .LVU84
 377 001c 0A4B     		ldr	r3, .L41
 378 001e 5B68     		ldr	r3, [r3, #4]
 354:Drivers/STM32H5xx_HAL_Driver/Src/stm32h5xx_hal_icache.c ****     {
 379              		.loc 1 354 11 view .LVU85
 380 0020 13F0020F 		tst	r3, #2
 381 0024 0BD1     		bne	.L40
 356:Drivers/STM32H5xx_HAL_Driver/Src/stm32h5xx_hal_icache.c ****       {
 382              		.loc 1 356 7 is_stmt 1 view .LVU86
 356:Drivers/STM32H5xx_HAL_Driver/Src/stm32h5xx_hal_icache.c ****       {
 383              		.loc 1 356 12 is_stmt 0 view .LVU87
 384 0026 FFF7FEFF 		bl	HAL_GetTick
 385              	.LVL17:
 356:Drivers/STM32H5xx_HAL_Driver/Src/stm32h5xx_hal_icache.c ****       {
 386              		.loc 1 356 26 view .LVU88
 387 002a 001B     		subs	r0, r0, r4
 356:Drivers/STM32H5xx_HAL_Driver/Src/stm32h5xx_hal_icache.c ****       {
 388              		.loc 1 356 10 view .LVU89
 389 002c 0128     		cmp	r0, #1
 390 002e F5D9     		bls	.L31
 359:Drivers/STM32H5xx_HAL_Driver/Src/stm32h5xx_hal_icache.c ****         {
 391              		.loc 1 359 9 is_stmt 1 view .LVU90
 359:Drivers/STM32H5xx_HAL_Driver/Src/stm32h5xx_hal_icache.c ****         {
 392              		.loc 1 359 13 is_stmt 0 view .LVU91
 393 0030 054B     		ldr	r3, .L41
 394 0032 5B68     		ldr	r3, [r3, #4]
 359:Drivers/STM32H5xx_HAL_Driver/Src/stm32h5xx_hal_icache.c ****         {
 395              		.loc 1 359 12 view .LVU92
 396 0034 13F0020F 		tst	r3, #2
 397 0038 F0D1     		bne	.L31
 361:Drivers/STM32H5xx_HAL_Driver/Src/stm32h5xx_hal_icache.c ****           break;
 398              		.loc 1 361 18 view .LVU93
 399 003a 0320     		movs	r0, #3
 400 003c 00E0     		b	.L30
 401              	.L40:
 344:Drivers/STM32H5xx_HAL_Driver/Src/stm32h5xx_hal_icache.c ****   uint32_t tickstart;
 402              		.loc 1 344 21 view .LVU94
 403 003e 0020     		movs	r0, #0
 404              	.L30:
 405              	.LVL18:
 369:Drivers/STM32H5xx_HAL_Driver/Src/stm32h5xx_hal_icache.c **** 
 406              		.loc 1 369 3 is_stmt 1 view .LVU95
 407 0040 014B     		ldr	r3, .L41
 408 0042 0222     		movs	r2, #2
 409 0044 DA60     		str	r2, [r3, #12]
 371:Drivers/STM32H5xx_HAL_Driver/Src/stm32h5xx_hal_icache.c **** }
 410              		.loc 1 371 3 view .LVU96
 411              		.loc 1 372 1 is_stmt 0 view .LVU97
 412 0046 10BD     		pop	{r4, pc}
 413              	.LVL19:
 414              	.L42:
 415              		.loc 1 372 1 view .LVU98
ARM GAS  /tmp/ccVU1W56.s 			page 15


 416              		.align	2
 417              	.L41:
 418 0048 00040340 		.word	1073939456
 419              		.cfi_endproc
 420              	.LFE368:
 422              		.section	.text.HAL_ICACHE_Invalidate,"ax",%progbits
 423              		.align	1
 424              		.global	HAL_ICACHE_Invalidate
 425              		.syntax unified
 426              		.thumb
 427              		.thumb_func
 428              		.fpu fpv4-sp-d16
 430              	HAL_ICACHE_Invalidate:
 431              	.LFB366:
 290:Drivers/STM32H5xx_HAL_Driver/Src/stm32h5xx_hal_icache.c ****   HAL_StatusTypeDef status;
 432              		.loc 1 290 1 is_stmt 1 view -0
 433              		.cfi_startproc
 434              		@ args = 0, pretend = 0, frame = 0
 435              		@ frame_needed = 0, uses_anonymous_args = 0
 436 0000 08B5     		push	{r3, lr}
 437              	.LCFI2:
 438              		.cfi_def_cfa_offset 8
 439              		.cfi_offset 3, -8
 440              		.cfi_offset 14, -4
 291:Drivers/STM32H5xx_HAL_Driver/Src/stm32h5xx_hal_icache.c **** 
 441              		.loc 1 291 3 view .LVU100
 294:Drivers/STM32H5xx_HAL_Driver/Src/stm32h5xx_hal_icache.c ****   {
 442              		.loc 1 294 3 view .LVU101
 294:Drivers/STM32H5xx_HAL_Driver/Src/stm32h5xx_hal_icache.c ****   {
 443              		.loc 1 294 7 is_stmt 0 view .LVU102
 444 0002 064B     		ldr	r3, .L46
 445 0004 5B68     		ldr	r3, [r3, #4]
 294:Drivers/STM32H5xx_HAL_Driver/Src/stm32h5xx_hal_icache.c ****   {
 446              		.loc 1 294 6 view .LVU103
 447 0006 13F0010F 		tst	r3, #1
 448 000a 04D1     		bne	.L44
 297:Drivers/STM32H5xx_HAL_Driver/Src/stm32h5xx_hal_icache.c ****   }
 449              		.loc 1 297 5 is_stmt 1 view .LVU104
 450 000c 034A     		ldr	r2, .L46
 451 000e 1368     		ldr	r3, [r2]
 452 0010 43F00203 		orr	r3, r3, #2
 453 0014 1360     		str	r3, [r2]
 454              	.L44:
 300:Drivers/STM32H5xx_HAL_Driver/Src/stm32h5xx_hal_icache.c **** 
 455              		.loc 1 300 3 view .LVU105
 300:Drivers/STM32H5xx_HAL_Driver/Src/stm32h5xx_hal_icache.c **** 
 456              		.loc 1 300 12 is_stmt 0 view .LVU106
 457 0016 FFF7FEFF 		bl	HAL_ICACHE_WaitForInvalidateComplete
 458              	.LVL20:
 302:Drivers/STM32H5xx_HAL_Driver/Src/stm32h5xx_hal_icache.c **** }
 459              		.loc 1 302 3 is_stmt 1 view .LVU107
 303:Drivers/STM32H5xx_HAL_Driver/Src/stm32h5xx_hal_icache.c **** 
 460              		.loc 1 303 1 is_stmt 0 view .LVU108
 461 001a 08BD     		pop	{r3, pc}
 462              	.L47:
 463              		.align	2
 464              	.L46:
ARM GAS  /tmp/ccVU1W56.s 			page 16


 465 001c 00040340 		.word	1073939456
 466              		.cfi_endproc
 467              	.LFE366:
 469              		.section	.text.HAL_ICACHE_Monitor_Start,"ax",%progbits
 470              		.align	1
 471              		.global	HAL_ICACHE_Monitor_Start
 472              		.syntax unified
 473              		.thumb
 474              		.thumb_func
 475              		.fpu fpv4-sp-d16
 477              	HAL_ICACHE_Monitor_Start:
 478              	.LVL21:
 479              	.LFB369:
 373:Drivers/STM32H5xx_HAL_Driver/Src/stm32h5xx_hal_icache.c **** 
 374:Drivers/STM32H5xx_HAL_Driver/Src/stm32h5xx_hal_icache.c **** 
 375:Drivers/STM32H5xx_HAL_Driver/Src/stm32h5xx_hal_icache.c **** /**
 376:Drivers/STM32H5xx_HAL_Driver/Src/stm32h5xx_hal_icache.c ****   * @brief  Start the Instruction Cache performance monitoring.
 377:Drivers/STM32H5xx_HAL_Driver/Src/stm32h5xx_hal_icache.c ****   * @param  MonitorType  Monitoring type
 378:Drivers/STM32H5xx_HAL_Driver/Src/stm32h5xx_hal_icache.c ****   *         This parameter can be one of the following values:
 379:Drivers/STM32H5xx_HAL_Driver/Src/stm32h5xx_hal_icache.c ****   *            @arg ICACHE_MONITOR_HIT_MISS   Hit & Miss monitoring
 380:Drivers/STM32H5xx_HAL_Driver/Src/stm32h5xx_hal_icache.c ****   *            @arg ICACHE_MONITOR_HIT        Hit monitoring
 381:Drivers/STM32H5xx_HAL_Driver/Src/stm32h5xx_hal_icache.c ****   *            @arg ICACHE_MONITOR_MISS       Miss monitoring
 382:Drivers/STM32H5xx_HAL_Driver/Src/stm32h5xx_hal_icache.c ****   * @retval HAL status (HAL_OK)
 383:Drivers/STM32H5xx_HAL_Driver/Src/stm32h5xx_hal_icache.c ****   */
 384:Drivers/STM32H5xx_HAL_Driver/Src/stm32h5xx_hal_icache.c **** HAL_StatusTypeDef HAL_ICACHE_Monitor_Start(uint32_t MonitorType)
 385:Drivers/STM32H5xx_HAL_Driver/Src/stm32h5xx_hal_icache.c **** {
 480              		.loc 1 385 1 is_stmt 1 view -0
 481              		.cfi_startproc
 482              		@ args = 0, pretend = 0, frame = 0
 483              		@ frame_needed = 0, uses_anonymous_args = 0
 484              		@ link register save eliminated.
 386:Drivers/STM32H5xx_HAL_Driver/Src/stm32h5xx_hal_icache.c ****   /* Check the parameters */
 387:Drivers/STM32H5xx_HAL_Driver/Src/stm32h5xx_hal_icache.c ****   assert_param(IS_ICACHE_MONITOR_TYPE(MonitorType));
 485              		.loc 1 387 3 view .LVU110
 388:Drivers/STM32H5xx_HAL_Driver/Src/stm32h5xx_hal_icache.c **** 
 389:Drivers/STM32H5xx_HAL_Driver/Src/stm32h5xx_hal_icache.c ****   SET_BIT(ICACHE->CR, MonitorType);
 486              		.loc 1 389 3 view .LVU111
 487 0000 024A     		ldr	r2, .L49
 488 0002 1368     		ldr	r3, [r2]
 489 0004 0343     		orrs	r3, r3, r0
 490 0006 1360     		str	r3, [r2]
 390:Drivers/STM32H5xx_HAL_Driver/Src/stm32h5xx_hal_icache.c **** 
 391:Drivers/STM32H5xx_HAL_Driver/Src/stm32h5xx_hal_icache.c ****   return HAL_OK;
 491              		.loc 1 391 3 view .LVU112
 392:Drivers/STM32H5xx_HAL_Driver/Src/stm32h5xx_hal_icache.c **** }
 492              		.loc 1 392 1 is_stmt 0 view .LVU113
 493 0008 0020     		movs	r0, #0
 494              	.LVL22:
 495              		.loc 1 392 1 view .LVU114
 496 000a 7047     		bx	lr
 497              	.L50:
 498              		.align	2
 499              	.L49:
 500 000c 00040340 		.word	1073939456
 501              		.cfi_endproc
 502              	.LFE369:
 504              		.section	.text.HAL_ICACHE_Monitor_Stop,"ax",%progbits
ARM GAS  /tmp/ccVU1W56.s 			page 17


 505              		.align	1
 506              		.global	HAL_ICACHE_Monitor_Stop
 507              		.syntax unified
 508              		.thumb
 509              		.thumb_func
 510              		.fpu fpv4-sp-d16
 512              	HAL_ICACHE_Monitor_Stop:
 513              	.LVL23:
 514              	.LFB370:
 393:Drivers/STM32H5xx_HAL_Driver/Src/stm32h5xx_hal_icache.c **** 
 394:Drivers/STM32H5xx_HAL_Driver/Src/stm32h5xx_hal_icache.c **** /**
 395:Drivers/STM32H5xx_HAL_Driver/Src/stm32h5xx_hal_icache.c ****   * @brief  Stop the Instruction Cache performance monitoring.
 396:Drivers/STM32H5xx_HAL_Driver/Src/stm32h5xx_hal_icache.c ****   * @note   Stopping the monitoring does not reset the values.
 397:Drivers/STM32H5xx_HAL_Driver/Src/stm32h5xx_hal_icache.c ****   * @param  MonitorType  Monitoring type
 398:Drivers/STM32H5xx_HAL_Driver/Src/stm32h5xx_hal_icache.c ****   *         This parameter can be one of the following values:
 399:Drivers/STM32H5xx_HAL_Driver/Src/stm32h5xx_hal_icache.c ****   *            @arg ICACHE_MONITOR_HIT_MISS   Hit & Miss monitoring
 400:Drivers/STM32H5xx_HAL_Driver/Src/stm32h5xx_hal_icache.c ****   *            @arg ICACHE_MONITOR_HIT        Hit monitoring
 401:Drivers/STM32H5xx_HAL_Driver/Src/stm32h5xx_hal_icache.c ****   *            @arg ICACHE_MONITOR_MISS       Miss monitoring
 402:Drivers/STM32H5xx_HAL_Driver/Src/stm32h5xx_hal_icache.c ****   * @retval HAL status (HAL_OK)
 403:Drivers/STM32H5xx_HAL_Driver/Src/stm32h5xx_hal_icache.c ****   */
 404:Drivers/STM32H5xx_HAL_Driver/Src/stm32h5xx_hal_icache.c **** HAL_StatusTypeDef HAL_ICACHE_Monitor_Stop(uint32_t MonitorType)
 405:Drivers/STM32H5xx_HAL_Driver/Src/stm32h5xx_hal_icache.c **** {
 515              		.loc 1 405 1 is_stmt 1 view -0
 516              		.cfi_startproc
 517              		@ args = 0, pretend = 0, frame = 0
 518              		@ frame_needed = 0, uses_anonymous_args = 0
 519              		@ link register save eliminated.
 406:Drivers/STM32H5xx_HAL_Driver/Src/stm32h5xx_hal_icache.c ****   /* Check the parameters */
 407:Drivers/STM32H5xx_HAL_Driver/Src/stm32h5xx_hal_icache.c ****   assert_param(IS_ICACHE_MONITOR_TYPE(MonitorType));
 520              		.loc 1 407 3 view .LVU116
 408:Drivers/STM32H5xx_HAL_Driver/Src/stm32h5xx_hal_icache.c **** 
 409:Drivers/STM32H5xx_HAL_Driver/Src/stm32h5xx_hal_icache.c ****   CLEAR_BIT(ICACHE->CR, MonitorType);
 521              		.loc 1 409 3 view .LVU117
 522 0000 034A     		ldr	r2, .L52
 523 0002 1368     		ldr	r3, [r2]
 524 0004 23EA0003 		bic	r3, r3, r0
 525 0008 1360     		str	r3, [r2]
 410:Drivers/STM32H5xx_HAL_Driver/Src/stm32h5xx_hal_icache.c **** 
 411:Drivers/STM32H5xx_HAL_Driver/Src/stm32h5xx_hal_icache.c ****   return HAL_OK;
 526              		.loc 1 411 3 view .LVU118
 412:Drivers/STM32H5xx_HAL_Driver/Src/stm32h5xx_hal_icache.c **** }
 527              		.loc 1 412 1 is_stmt 0 view .LVU119
 528 000a 0020     		movs	r0, #0
 529              	.LVL24:
 530              		.loc 1 412 1 view .LVU120
 531 000c 7047     		bx	lr
 532              	.L53:
 533 000e 00BF     		.align	2
 534              	.L52:
 535 0010 00040340 		.word	1073939456
 536              		.cfi_endproc
 537              	.LFE370:
 539              		.section	.text.HAL_ICACHE_Monitor_Reset,"ax",%progbits
 540              		.align	1
 541              		.global	HAL_ICACHE_Monitor_Reset
 542              		.syntax unified
 543              		.thumb
ARM GAS  /tmp/ccVU1W56.s 			page 18


 544              		.thumb_func
 545              		.fpu fpv4-sp-d16
 547              	HAL_ICACHE_Monitor_Reset:
 548              	.LVL25:
 549              	.LFB371:
 413:Drivers/STM32H5xx_HAL_Driver/Src/stm32h5xx_hal_icache.c **** 
 414:Drivers/STM32H5xx_HAL_Driver/Src/stm32h5xx_hal_icache.c **** /**
 415:Drivers/STM32H5xx_HAL_Driver/Src/stm32h5xx_hal_icache.c ****   * @brief  Reset the Instruction Cache performance monitoring values.
 416:Drivers/STM32H5xx_HAL_Driver/Src/stm32h5xx_hal_icache.c ****   * @param  MonitorType  Monitoring type
 417:Drivers/STM32H5xx_HAL_Driver/Src/stm32h5xx_hal_icache.c ****   *         This parameter can be one of the following values:
 418:Drivers/STM32H5xx_HAL_Driver/Src/stm32h5xx_hal_icache.c ****   *            @arg ICACHE_MONITOR_HIT_MISS   Hit & Miss monitoring
 419:Drivers/STM32H5xx_HAL_Driver/Src/stm32h5xx_hal_icache.c ****   *            @arg ICACHE_MONITOR_HIT        Hit monitoring
 420:Drivers/STM32H5xx_HAL_Driver/Src/stm32h5xx_hal_icache.c ****   *            @arg ICACHE_MONITOR_MISS       Miss monitoring
 421:Drivers/STM32H5xx_HAL_Driver/Src/stm32h5xx_hal_icache.c ****   * @retval HAL status (HAL_OK)
 422:Drivers/STM32H5xx_HAL_Driver/Src/stm32h5xx_hal_icache.c ****   */
 423:Drivers/STM32H5xx_HAL_Driver/Src/stm32h5xx_hal_icache.c **** HAL_StatusTypeDef HAL_ICACHE_Monitor_Reset(uint32_t MonitorType)
 424:Drivers/STM32H5xx_HAL_Driver/Src/stm32h5xx_hal_icache.c **** {
 550              		.loc 1 424 1 is_stmt 1 view -0
 551              		.cfi_startproc
 552              		@ args = 0, pretend = 0, frame = 0
 553              		@ frame_needed = 0, uses_anonymous_args = 0
 554              		@ link register save eliminated.
 425:Drivers/STM32H5xx_HAL_Driver/Src/stm32h5xx_hal_icache.c ****   /* Check the parameters */
 426:Drivers/STM32H5xx_HAL_Driver/Src/stm32h5xx_hal_icache.c ****   assert_param(IS_ICACHE_MONITOR_TYPE(MonitorType));
 555              		.loc 1 426 3 view .LVU122
 427:Drivers/STM32H5xx_HAL_Driver/Src/stm32h5xx_hal_icache.c **** 
 428:Drivers/STM32H5xx_HAL_Driver/Src/stm32h5xx_hal_icache.c ****   /* Force/Release reset */
 429:Drivers/STM32H5xx_HAL_Driver/Src/stm32h5xx_hal_icache.c ****   SET_BIT(ICACHE->CR, (MonitorType << 2U));
 556              		.loc 1 429 3 view .LVU123
 557 0000 054B     		ldr	r3, .L55
 558 0002 1968     		ldr	r1, [r3]
 559 0004 41EA8001 		orr	r1, r1, r0, lsl #2
 560 0008 1960     		str	r1, [r3]
 430:Drivers/STM32H5xx_HAL_Driver/Src/stm32h5xx_hal_icache.c ****   CLEAR_BIT(ICACHE->CR, (MonitorType << 2U));
 561              		.loc 1 430 3 view .LVU124
 562 000a 1A68     		ldr	r2, [r3]
 563 000c 22EA8002 		bic	r2, r2, r0, lsl #2
 564 0010 1A60     		str	r2, [r3]
 431:Drivers/STM32H5xx_HAL_Driver/Src/stm32h5xx_hal_icache.c **** 
 432:Drivers/STM32H5xx_HAL_Driver/Src/stm32h5xx_hal_icache.c ****   return HAL_OK;
 565              		.loc 1 432 3 view .LVU125
 433:Drivers/STM32H5xx_HAL_Driver/Src/stm32h5xx_hal_icache.c **** }
 566              		.loc 1 433 1 is_stmt 0 view .LVU126
 567 0012 0020     		movs	r0, #0
 568              	.LVL26:
 569              		.loc 1 433 1 view .LVU127
 570 0014 7047     		bx	lr
 571              	.L56:
 572 0016 00BF     		.align	2
 573              	.L55:
 574 0018 00040340 		.word	1073939456
 575              		.cfi_endproc
 576              	.LFE371:
 578              		.section	.text.HAL_ICACHE_Monitor_GetHitValue,"ax",%progbits
 579              		.align	1
 580              		.global	HAL_ICACHE_Monitor_GetHitValue
 581              		.syntax unified
ARM GAS  /tmp/ccVU1W56.s 			page 19


 582              		.thumb
 583              		.thumb_func
 584              		.fpu fpv4-sp-d16
 586              	HAL_ICACHE_Monitor_GetHitValue:
 587              	.LFB372:
 434:Drivers/STM32H5xx_HAL_Driver/Src/stm32h5xx_hal_icache.c **** 
 435:Drivers/STM32H5xx_HAL_Driver/Src/stm32h5xx_hal_icache.c **** /**
 436:Drivers/STM32H5xx_HAL_Driver/Src/stm32h5xx_hal_icache.c ****   * @brief  Get the Instruction Cache performance Hit monitoring value.
 437:Drivers/STM32H5xx_HAL_Driver/Src/stm32h5xx_hal_icache.c ****   * @note   Upon reaching the 32-bit maximum value, monitor does not wrap.
 438:Drivers/STM32H5xx_HAL_Driver/Src/stm32h5xx_hal_icache.c ****   * @retval Hit monitoring value
 439:Drivers/STM32H5xx_HAL_Driver/Src/stm32h5xx_hal_icache.c ****   */
 440:Drivers/STM32H5xx_HAL_Driver/Src/stm32h5xx_hal_icache.c **** uint32_t HAL_ICACHE_Monitor_GetHitValue(void)
 441:Drivers/STM32H5xx_HAL_Driver/Src/stm32h5xx_hal_icache.c **** {
 588              		.loc 1 441 1 is_stmt 1 view -0
 589              		.cfi_startproc
 590              		@ args = 0, pretend = 0, frame = 0
 591              		@ frame_needed = 0, uses_anonymous_args = 0
 592              		@ link register save eliminated.
 442:Drivers/STM32H5xx_HAL_Driver/Src/stm32h5xx_hal_icache.c ****   return (ICACHE->HMONR);
 593              		.loc 1 442 3 view .LVU129
 594              		.loc 1 442 17 is_stmt 0 view .LVU130
 595 0000 014B     		ldr	r3, .L58
 596 0002 1869     		ldr	r0, [r3, #16]
 443:Drivers/STM32H5xx_HAL_Driver/Src/stm32h5xx_hal_icache.c **** }
 597              		.loc 1 443 1 view .LVU131
 598 0004 7047     		bx	lr
 599              	.L59:
 600 0006 00BF     		.align	2
 601              	.L58:
 602 0008 00040340 		.word	1073939456
 603              		.cfi_endproc
 604              	.LFE372:
 606              		.section	.text.HAL_ICACHE_Monitor_GetMissValue,"ax",%progbits
 607              		.align	1
 608              		.global	HAL_ICACHE_Monitor_GetMissValue
 609              		.syntax unified
 610              		.thumb
 611              		.thumb_func
 612              		.fpu fpv4-sp-d16
 614              	HAL_ICACHE_Monitor_GetMissValue:
 615              	.LFB373:
 444:Drivers/STM32H5xx_HAL_Driver/Src/stm32h5xx_hal_icache.c **** 
 445:Drivers/STM32H5xx_HAL_Driver/Src/stm32h5xx_hal_icache.c **** /**
 446:Drivers/STM32H5xx_HAL_Driver/Src/stm32h5xx_hal_icache.c ****   * @brief  Get the Instruction Cache performance Miss monitoring value.
 447:Drivers/STM32H5xx_HAL_Driver/Src/stm32h5xx_hal_icache.c ****   * @note   Upon reaching the 32-bit maximum value, monitor does not wrap.
 448:Drivers/STM32H5xx_HAL_Driver/Src/stm32h5xx_hal_icache.c ****   * @retval Miss monitoring value
 449:Drivers/STM32H5xx_HAL_Driver/Src/stm32h5xx_hal_icache.c ****   */
 450:Drivers/STM32H5xx_HAL_Driver/Src/stm32h5xx_hal_icache.c **** uint32_t HAL_ICACHE_Monitor_GetMissValue(void)
 451:Drivers/STM32H5xx_HAL_Driver/Src/stm32h5xx_hal_icache.c **** {
 616              		.loc 1 451 1 is_stmt 1 view -0
 617              		.cfi_startproc
 618              		@ args = 0, pretend = 0, frame = 0
 619              		@ frame_needed = 0, uses_anonymous_args = 0
 620              		@ link register save eliminated.
 452:Drivers/STM32H5xx_HAL_Driver/Src/stm32h5xx_hal_icache.c ****   return (ICACHE->MMONR);
 621              		.loc 1 452 3 view .LVU133
 622              		.loc 1 452 17 is_stmt 0 view .LVU134
ARM GAS  /tmp/ccVU1W56.s 			page 20


 623 0000 014B     		ldr	r3, .L61
 624 0002 5869     		ldr	r0, [r3, #20]
 453:Drivers/STM32H5xx_HAL_Driver/Src/stm32h5xx_hal_icache.c **** }
 625              		.loc 1 453 1 view .LVU135
 626 0004 7047     		bx	lr
 627              	.L62:
 628 0006 00BF     		.align	2
 629              	.L61:
 630 0008 00040340 		.word	1073939456
 631              		.cfi_endproc
 632              	.LFE373:
 634              		.section	.text.HAL_ICACHE_InvalidateCompleteCallback,"ax",%progbits
 635              		.align	1
 636              		.weak	HAL_ICACHE_InvalidateCompleteCallback
 637              		.syntax unified
 638              		.thumb
 639              		.thumb_func
 640              		.fpu fpv4-sp-d16
 642              	HAL_ICACHE_InvalidateCompleteCallback:
 643              	.LFB375:
 454:Drivers/STM32H5xx_HAL_Driver/Src/stm32h5xx_hal_icache.c **** 
 455:Drivers/STM32H5xx_HAL_Driver/Src/stm32h5xx_hal_icache.c **** /**
 456:Drivers/STM32H5xx_HAL_Driver/Src/stm32h5xx_hal_icache.c ****   * @}
 457:Drivers/STM32H5xx_HAL_Driver/Src/stm32h5xx_hal_icache.c ****   */
 458:Drivers/STM32H5xx_HAL_Driver/Src/stm32h5xx_hal_icache.c **** 
 459:Drivers/STM32H5xx_HAL_Driver/Src/stm32h5xx_hal_icache.c **** /** @defgroup ICACHE_Exported_Functions_Group2 IRQ and callback functions
 460:Drivers/STM32H5xx_HAL_Driver/Src/stm32h5xx_hal_icache.c ****   * @brief    IRQ and callback functions
 461:Drivers/STM32H5xx_HAL_Driver/Src/stm32h5xx_hal_icache.c ****   *
 462:Drivers/STM32H5xx_HAL_Driver/Src/stm32h5xx_hal_icache.c ****   @verbatim
 463:Drivers/STM32H5xx_HAL_Driver/Src/stm32h5xx_hal_icache.c ****   ==============================================================================
 464:Drivers/STM32H5xx_HAL_Driver/Src/stm32h5xx_hal_icache.c ****             ##### IRQ and callback functions #####
 465:Drivers/STM32H5xx_HAL_Driver/Src/stm32h5xx_hal_icache.c ****   ==============================================================================
 466:Drivers/STM32H5xx_HAL_Driver/Src/stm32h5xx_hal_icache.c ****   [..]
 467:Drivers/STM32H5xx_HAL_Driver/Src/stm32h5xx_hal_icache.c ****     This section provides functions allowing to handle ICACHE global interrupt
 468:Drivers/STM32H5xx_HAL_Driver/Src/stm32h5xx_hal_icache.c ****     and the associated callback functions.
 469:Drivers/STM32H5xx_HAL_Driver/Src/stm32h5xx_hal_icache.c ****   @endverbatim
 470:Drivers/STM32H5xx_HAL_Driver/Src/stm32h5xx_hal_icache.c ****   * @{
 471:Drivers/STM32H5xx_HAL_Driver/Src/stm32h5xx_hal_icache.c ****   */
 472:Drivers/STM32H5xx_HAL_Driver/Src/stm32h5xx_hal_icache.c **** 
 473:Drivers/STM32H5xx_HAL_Driver/Src/stm32h5xx_hal_icache.c **** /**
 474:Drivers/STM32H5xx_HAL_Driver/Src/stm32h5xx_hal_icache.c ****   * @brief Handle the Instruction Cache interrupt request.
 475:Drivers/STM32H5xx_HAL_Driver/Src/stm32h5xx_hal_icache.c ****   * @note This function should be called under the ICACHE_IRQHandler().
 476:Drivers/STM32H5xx_HAL_Driver/Src/stm32h5xx_hal_icache.c ****   * @note This function respectively disables the interrupt and clears the
 477:Drivers/STM32H5xx_HAL_Driver/Src/stm32h5xx_hal_icache.c ****   *       flag of any pending flag before calling the associated user callback.
 478:Drivers/STM32H5xx_HAL_Driver/Src/stm32h5xx_hal_icache.c ****   * @retval None
 479:Drivers/STM32H5xx_HAL_Driver/Src/stm32h5xx_hal_icache.c ****   */
 480:Drivers/STM32H5xx_HAL_Driver/Src/stm32h5xx_hal_icache.c **** void HAL_ICACHE_IRQHandler(void)
 481:Drivers/STM32H5xx_HAL_Driver/Src/stm32h5xx_hal_icache.c **** {
 482:Drivers/STM32H5xx_HAL_Driver/Src/stm32h5xx_hal_icache.c ****   /* Get current interrupt flags and interrupt sources value */
 483:Drivers/STM32H5xx_HAL_Driver/Src/stm32h5xx_hal_icache.c ****   uint32_t itflags   = READ_REG(ICACHE->SR);
 484:Drivers/STM32H5xx_HAL_Driver/Src/stm32h5xx_hal_icache.c ****   uint32_t itsources = READ_REG(ICACHE->IER);
 485:Drivers/STM32H5xx_HAL_Driver/Src/stm32h5xx_hal_icache.c **** 
 486:Drivers/STM32H5xx_HAL_Driver/Src/stm32h5xx_hal_icache.c ****   /* Check Instruction cache Error interrupt flag */
 487:Drivers/STM32H5xx_HAL_Driver/Src/stm32h5xx_hal_icache.c ****   if (((itflags & itsources) & ICACHE_FLAG_ERROR) != 0U)
 488:Drivers/STM32H5xx_HAL_Driver/Src/stm32h5xx_hal_icache.c ****   {
 489:Drivers/STM32H5xx_HAL_Driver/Src/stm32h5xx_hal_icache.c ****     /* Disable error interrupt */
 490:Drivers/STM32H5xx_HAL_Driver/Src/stm32h5xx_hal_icache.c ****     CLEAR_BIT(ICACHE->IER, ICACHE_IER_ERRIE);
ARM GAS  /tmp/ccVU1W56.s 			page 21


 491:Drivers/STM32H5xx_HAL_Driver/Src/stm32h5xx_hal_icache.c **** 
 492:Drivers/STM32H5xx_HAL_Driver/Src/stm32h5xx_hal_icache.c ****     /* Clear ERR pending flag */
 493:Drivers/STM32H5xx_HAL_Driver/Src/stm32h5xx_hal_icache.c ****     WRITE_REG(ICACHE->FCR, ICACHE_FCR_CERRF);
 494:Drivers/STM32H5xx_HAL_Driver/Src/stm32h5xx_hal_icache.c **** 
 495:Drivers/STM32H5xx_HAL_Driver/Src/stm32h5xx_hal_icache.c ****     /* Instruction cache error interrupt user callback */
 496:Drivers/STM32H5xx_HAL_Driver/Src/stm32h5xx_hal_icache.c ****     HAL_ICACHE_ErrorCallback();
 497:Drivers/STM32H5xx_HAL_Driver/Src/stm32h5xx_hal_icache.c ****   }
 498:Drivers/STM32H5xx_HAL_Driver/Src/stm32h5xx_hal_icache.c **** 
 499:Drivers/STM32H5xx_HAL_Driver/Src/stm32h5xx_hal_icache.c ****   /* Check Instruction cache BusyEnd interrupt flag */
 500:Drivers/STM32H5xx_HAL_Driver/Src/stm32h5xx_hal_icache.c ****   if (((itflags & itsources) & ICACHE_FLAG_BUSYEND) != 0U)
 501:Drivers/STM32H5xx_HAL_Driver/Src/stm32h5xx_hal_icache.c ****   {
 502:Drivers/STM32H5xx_HAL_Driver/Src/stm32h5xx_hal_icache.c ****     /* Disable end of cache invalidation interrupt */
 503:Drivers/STM32H5xx_HAL_Driver/Src/stm32h5xx_hal_icache.c ****     CLEAR_BIT(ICACHE->IER, ICACHE_IER_BSYENDIE);
 504:Drivers/STM32H5xx_HAL_Driver/Src/stm32h5xx_hal_icache.c **** 
 505:Drivers/STM32H5xx_HAL_Driver/Src/stm32h5xx_hal_icache.c ****     /* Clear BSYENDF pending flag */
 506:Drivers/STM32H5xx_HAL_Driver/Src/stm32h5xx_hal_icache.c ****     WRITE_REG(ICACHE->FCR, ICACHE_FCR_CBSYENDF);
 507:Drivers/STM32H5xx_HAL_Driver/Src/stm32h5xx_hal_icache.c **** 
 508:Drivers/STM32H5xx_HAL_Driver/Src/stm32h5xx_hal_icache.c ****     /* Instruction cache busyend interrupt user callback */
 509:Drivers/STM32H5xx_HAL_Driver/Src/stm32h5xx_hal_icache.c ****     HAL_ICACHE_InvalidateCompleteCallback();
 510:Drivers/STM32H5xx_HAL_Driver/Src/stm32h5xx_hal_icache.c ****   }
 511:Drivers/STM32H5xx_HAL_Driver/Src/stm32h5xx_hal_icache.c **** }
 512:Drivers/STM32H5xx_HAL_Driver/Src/stm32h5xx_hal_icache.c **** 
 513:Drivers/STM32H5xx_HAL_Driver/Src/stm32h5xx_hal_icache.c **** /**
 514:Drivers/STM32H5xx_HAL_Driver/Src/stm32h5xx_hal_icache.c ****   * @brief  Cache invalidation complete callback.
 515:Drivers/STM32H5xx_HAL_Driver/Src/stm32h5xx_hal_icache.c ****   */
 516:Drivers/STM32H5xx_HAL_Driver/Src/stm32h5xx_hal_icache.c **** __weak void HAL_ICACHE_InvalidateCompleteCallback(void)
 517:Drivers/STM32H5xx_HAL_Driver/Src/stm32h5xx_hal_icache.c **** {
 644              		.loc 1 517 1 is_stmt 1 view -0
 645              		.cfi_startproc
 646              		@ args = 0, pretend = 0, frame = 0
 647              		@ frame_needed = 0, uses_anonymous_args = 0
 648              		@ link register save eliminated.
 518:Drivers/STM32H5xx_HAL_Driver/Src/stm32h5xx_hal_icache.c ****   /* NOTE : This function should not be modified, when the callback is needed,
 519:Drivers/STM32H5xx_HAL_Driver/Src/stm32h5xx_hal_icache.c ****             the HAL_ICACHE_InvalidateCompleteCallback() should be implemented in the user file
 520:Drivers/STM32H5xx_HAL_Driver/Src/stm32h5xx_hal_icache.c ****    */
 521:Drivers/STM32H5xx_HAL_Driver/Src/stm32h5xx_hal_icache.c **** }
 649              		.loc 1 521 1 view .LVU137
 650 0000 7047     		bx	lr
 651              		.cfi_endproc
 652              	.LFE375:
 654              		.section	.text.HAL_ICACHE_ErrorCallback,"ax",%progbits
 655              		.align	1
 656              		.weak	HAL_ICACHE_ErrorCallback
 657              		.syntax unified
 658              		.thumb
 659              		.thumb_func
 660              		.fpu fpv4-sp-d16
 662              	HAL_ICACHE_ErrorCallback:
 663              	.LFB376:
 522:Drivers/STM32H5xx_HAL_Driver/Src/stm32h5xx_hal_icache.c **** 
 523:Drivers/STM32H5xx_HAL_Driver/Src/stm32h5xx_hal_icache.c **** /**
 524:Drivers/STM32H5xx_HAL_Driver/Src/stm32h5xx_hal_icache.c ****   * @brief  Error callback.
 525:Drivers/STM32H5xx_HAL_Driver/Src/stm32h5xx_hal_icache.c ****   */
 526:Drivers/STM32H5xx_HAL_Driver/Src/stm32h5xx_hal_icache.c **** __weak void HAL_ICACHE_ErrorCallback(void)
 527:Drivers/STM32H5xx_HAL_Driver/Src/stm32h5xx_hal_icache.c **** {
 664              		.loc 1 527 1 view -0
 665              		.cfi_startproc
ARM GAS  /tmp/ccVU1W56.s 			page 22


 666              		@ args = 0, pretend = 0, frame = 0
 667              		@ frame_needed = 0, uses_anonymous_args = 0
 668              		@ link register save eliminated.
 528:Drivers/STM32H5xx_HAL_Driver/Src/stm32h5xx_hal_icache.c ****   /* NOTE : This function should not be modified, when the callback is needed,
 529:Drivers/STM32H5xx_HAL_Driver/Src/stm32h5xx_hal_icache.c ****             the HAL_ICACHE_ErrorCallback() should be implemented in the user file
 530:Drivers/STM32H5xx_HAL_Driver/Src/stm32h5xx_hal_icache.c ****    */
 531:Drivers/STM32H5xx_HAL_Driver/Src/stm32h5xx_hal_icache.c **** }
 669              		.loc 1 531 1 view .LVU139
 670 0000 7047     		bx	lr
 671              		.cfi_endproc
 672              	.LFE376:
 674              		.section	.text.HAL_ICACHE_IRQHandler,"ax",%progbits
 675              		.align	1
 676              		.global	HAL_ICACHE_IRQHandler
 677              		.syntax unified
 678              		.thumb
 679              		.thumb_func
 680              		.fpu fpv4-sp-d16
 682              	HAL_ICACHE_IRQHandler:
 683              	.LFB374:
 481:Drivers/STM32H5xx_HAL_Driver/Src/stm32h5xx_hal_icache.c ****   /* Get current interrupt flags and interrupt sources value */
 684              		.loc 1 481 1 view -0
 685              		.cfi_startproc
 686              		@ args = 0, pretend = 0, frame = 0
 687              		@ frame_needed = 0, uses_anonymous_args = 0
 688 0000 10B5     		push	{r4, lr}
 689              	.LCFI3:
 690              		.cfi_def_cfa_offset 8
 691              		.cfi_offset 4, -8
 692              		.cfi_offset 14, -4
 483:Drivers/STM32H5xx_HAL_Driver/Src/stm32h5xx_hal_icache.c ****   uint32_t itsources = READ_REG(ICACHE->IER);
 693              		.loc 1 483 3 view .LVU141
 483:Drivers/STM32H5xx_HAL_Driver/Src/stm32h5xx_hal_icache.c ****   uint32_t itsources = READ_REG(ICACHE->IER);
 694              		.loc 1 483 12 is_stmt 0 view .LVU142
 695 0002 0F4B     		ldr	r3, .L71
 696 0004 5C68     		ldr	r4, [r3, #4]
 697              	.LVL27:
 484:Drivers/STM32H5xx_HAL_Driver/Src/stm32h5xx_hal_icache.c **** 
 698              		.loc 1 484 3 is_stmt 1 view .LVU143
 484:Drivers/STM32H5xx_HAL_Driver/Src/stm32h5xx_hal_icache.c **** 
 699              		.loc 1 484 12 is_stmt 0 view .LVU144
 700 0006 9B68     		ldr	r3, [r3, #8]
 701              	.LVL28:
 487:Drivers/STM32H5xx_HAL_Driver/Src/stm32h5xx_hal_icache.c ****   {
 702              		.loc 1 487 3 is_stmt 1 view .LVU145
 487:Drivers/STM32H5xx_HAL_Driver/Src/stm32h5xx_hal_icache.c ****   {
 703              		.loc 1 487 17 is_stmt 0 view .LVU146
 704 0008 1C40     		ands	r4, r4, r3
 705              	.LVL29:
 487:Drivers/STM32H5xx_HAL_Driver/Src/stm32h5xx_hal_icache.c ****   {
 706              		.loc 1 487 6 view .LVU147
 707 000a 14F0040F 		tst	r4, #4
 708 000e 03D1     		bne	.L69
 709              	.LVL30:
 710              	.L66:
 500:Drivers/STM32H5xx_HAL_Driver/Src/stm32h5xx_hal_icache.c ****   {
 711              		.loc 1 500 3 is_stmt 1 view .LVU148
ARM GAS  /tmp/ccVU1W56.s 			page 23


 500:Drivers/STM32H5xx_HAL_Driver/Src/stm32h5xx_hal_icache.c ****   {
 712              		.loc 1 500 6 is_stmt 0 view .LVU149
 713 0010 14F0020F 		tst	r4, #2
 714 0014 0AD1     		bne	.L70
 715              	.L65:
 511:Drivers/STM32H5xx_HAL_Driver/Src/stm32h5xx_hal_icache.c **** 
 716              		.loc 1 511 1 view .LVU150
 717 0016 10BD     		pop	{r4, pc}
 718              	.LVL31:
 719              	.L69:
 490:Drivers/STM32H5xx_HAL_Driver/Src/stm32h5xx_hal_icache.c **** 
 720              		.loc 1 490 5 is_stmt 1 view .LVU151
 721 0018 094B     		ldr	r3, .L71
 722              	.LVL32:
 490:Drivers/STM32H5xx_HAL_Driver/Src/stm32h5xx_hal_icache.c **** 
 723              		.loc 1 490 5 is_stmt 0 view .LVU152
 724 001a 9A68     		ldr	r2, [r3, #8]
 725 001c 22F00402 		bic	r2, r2, #4
 726 0020 9A60     		str	r2, [r3, #8]
 493:Drivers/STM32H5xx_HAL_Driver/Src/stm32h5xx_hal_icache.c **** 
 727              		.loc 1 493 5 is_stmt 1 view .LVU153
 728 0022 0422     		movs	r2, #4
 729 0024 DA60     		str	r2, [r3, #12]
 496:Drivers/STM32H5xx_HAL_Driver/Src/stm32h5xx_hal_icache.c ****   }
 730              		.loc 1 496 5 view .LVU154
 731 0026 FFF7FEFF 		bl	HAL_ICACHE_ErrorCallback
 732              	.LVL33:
 733 002a F1E7     		b	.L66
 734              	.L70:
 503:Drivers/STM32H5xx_HAL_Driver/Src/stm32h5xx_hal_icache.c **** 
 735              		.loc 1 503 5 view .LVU155
 736 002c 044B     		ldr	r3, .L71
 737 002e 9A68     		ldr	r2, [r3, #8]
 738 0030 22F00202 		bic	r2, r2, #2
 739 0034 9A60     		str	r2, [r3, #8]
 506:Drivers/STM32H5xx_HAL_Driver/Src/stm32h5xx_hal_icache.c **** 
 740              		.loc 1 506 5 view .LVU156
 741 0036 0222     		movs	r2, #2
 742 0038 DA60     		str	r2, [r3, #12]
 509:Drivers/STM32H5xx_HAL_Driver/Src/stm32h5xx_hal_icache.c ****   }
 743              		.loc 1 509 5 view .LVU157
 744 003a FFF7FEFF 		bl	HAL_ICACHE_InvalidateCompleteCallback
 745              	.LVL34:
 511:Drivers/STM32H5xx_HAL_Driver/Src/stm32h5xx_hal_icache.c **** 
 746              		.loc 1 511 1 is_stmt 0 view .LVU158
 747 003e EAE7     		b	.L65
 748              	.L72:
 749              		.align	2
 750              	.L71:
 751 0040 00040340 		.word	1073939456
 752              		.cfi_endproc
 753              	.LFE374:
 755              		.section	.text.HAL_ICACHE_EnableRemapRegion,"ax",%progbits
 756              		.align	1
 757              		.global	HAL_ICACHE_EnableRemapRegion
 758              		.syntax unified
 759              		.thumb
ARM GAS  /tmp/ccVU1W56.s 			page 24


 760              		.thumb_func
 761              		.fpu fpv4-sp-d16
 763              	HAL_ICACHE_EnableRemapRegion:
 764              	.LVL35:
 765              	.LFB377:
 532:Drivers/STM32H5xx_HAL_Driver/Src/stm32h5xx_hal_icache.c **** 
 533:Drivers/STM32H5xx_HAL_Driver/Src/stm32h5xx_hal_icache.c **** /**
 534:Drivers/STM32H5xx_HAL_Driver/Src/stm32h5xx_hal_icache.c ****   * @}
 535:Drivers/STM32H5xx_HAL_Driver/Src/stm32h5xx_hal_icache.c ****   */
 536:Drivers/STM32H5xx_HAL_Driver/Src/stm32h5xx_hal_icache.c **** 
 537:Drivers/STM32H5xx_HAL_Driver/Src/stm32h5xx_hal_icache.c **** #if defined(ICACHE_CRRx_REN)
 538:Drivers/STM32H5xx_HAL_Driver/Src/stm32h5xx_hal_icache.c **** /** @defgroup ICACHE_Exported_Functions_Group3 Memory remapped regions functions
 539:Drivers/STM32H5xx_HAL_Driver/Src/stm32h5xx_hal_icache.c ****   * @brief    Memory remapped regions functions
 540:Drivers/STM32H5xx_HAL_Driver/Src/stm32h5xx_hal_icache.c ****   *
 541:Drivers/STM32H5xx_HAL_Driver/Src/stm32h5xx_hal_icache.c ****   @verbatim
 542:Drivers/STM32H5xx_HAL_Driver/Src/stm32h5xx_hal_icache.c ****   ==============================================================================
 543:Drivers/STM32H5xx_HAL_Driver/Src/stm32h5xx_hal_icache.c ****             ##### Memory remapped regions functions #####
 544:Drivers/STM32H5xx_HAL_Driver/Src/stm32h5xx_hal_icache.c ****   ==============================================================================
 545:Drivers/STM32H5xx_HAL_Driver/Src/stm32h5xx_hal_icache.c ****   [..]
 546:Drivers/STM32H5xx_HAL_Driver/Src/stm32h5xx_hal_icache.c ****     This section provides functions allowing to manage the remapping of
 547:Drivers/STM32H5xx_HAL_Driver/Src/stm32h5xx_hal_icache.c ****     external memories to internal Code for execution.
 548:Drivers/STM32H5xx_HAL_Driver/Src/stm32h5xx_hal_icache.c ****   @endverbatim
 549:Drivers/STM32H5xx_HAL_Driver/Src/stm32h5xx_hal_icache.c ****   * @{
 550:Drivers/STM32H5xx_HAL_Driver/Src/stm32h5xx_hal_icache.c ****   */
 551:Drivers/STM32H5xx_HAL_Driver/Src/stm32h5xx_hal_icache.c **** 
 552:Drivers/STM32H5xx_HAL_Driver/Src/stm32h5xx_hal_icache.c **** /**
 553:Drivers/STM32H5xx_HAL_Driver/Src/stm32h5xx_hal_icache.c ****   * @brief  Configure and enable a region for memory remapping.
 554:Drivers/STM32H5xx_HAL_Driver/Src/stm32h5xx_hal_icache.c ****   * @note   The Instruction Cache and the region must be disabled.
 555:Drivers/STM32H5xx_HAL_Driver/Src/stm32h5xx_hal_icache.c ****   * @param  Region   Region number
 556:Drivers/STM32H5xx_HAL_Driver/Src/stm32h5xx_hal_icache.c ****                      This parameter can be a value of @arg @ref ICACHE_Region
 557:Drivers/STM32H5xx_HAL_Driver/Src/stm32h5xx_hal_icache.c ****   * @param  pRegionConfig  Pointer to structure of ICACHE region configuration parameters
 558:Drivers/STM32H5xx_HAL_Driver/Src/stm32h5xx_hal_icache.c ****   * @retval HAL status (HAL_OK/HAL_ERROR)
 559:Drivers/STM32H5xx_HAL_Driver/Src/stm32h5xx_hal_icache.c ****   */
 560:Drivers/STM32H5xx_HAL_Driver/Src/stm32h5xx_hal_icache.c **** HAL_StatusTypeDef  HAL_ICACHE_EnableRemapRegion(uint32_t Region, const ICACHE_RegionConfigTypeDef *
 561:Drivers/STM32H5xx_HAL_Driver/Src/stm32h5xx_hal_icache.c **** {
 766              		.loc 1 561 1 is_stmt 1 view -0
 767              		.cfi_startproc
 768              		@ args = 0, pretend = 0, frame = 0
 769              		@ frame_needed = 0, uses_anonymous_args = 0
 770              		@ link register save eliminated.
 562:Drivers/STM32H5xx_HAL_Driver/Src/stm32h5xx_hal_icache.c ****   HAL_StatusTypeDef status = HAL_OK;
 771              		.loc 1 562 3 view .LVU160
 563:Drivers/STM32H5xx_HAL_Driver/Src/stm32h5xx_hal_icache.c ****   __IO uint32_t *p_reg;
 772              		.loc 1 563 3 view .LVU161
 564:Drivers/STM32H5xx_HAL_Driver/Src/stm32h5xx_hal_icache.c ****   uint32_t value;
 773              		.loc 1 564 3 view .LVU162
 565:Drivers/STM32H5xx_HAL_Driver/Src/stm32h5xx_hal_icache.c **** 
 566:Drivers/STM32H5xx_HAL_Driver/Src/stm32h5xx_hal_icache.c ****   /* Check the parameters */
 567:Drivers/STM32H5xx_HAL_Driver/Src/stm32h5xx_hal_icache.c ****   assert_param(IS_ICACHE_REGION_NUMBER(Region));
 774              		.loc 1 567 3 view .LVU163
 568:Drivers/STM32H5xx_HAL_Driver/Src/stm32h5xx_hal_icache.c ****   assert_param(IS_ICACHE_REGION_SIZE(pRegionConfig->Size));
 775              		.loc 1 568 3 view .LVU164
 569:Drivers/STM32H5xx_HAL_Driver/Src/stm32h5xx_hal_icache.c ****   assert_param(IS_ICACHE_REGION_TRAFFIC_ROUTE(pRegionConfig->TrafficRoute));
 776              		.loc 1 569 3 view .LVU165
 570:Drivers/STM32H5xx_HAL_Driver/Src/stm32h5xx_hal_icache.c ****   assert_param(IS_ICACHE_REGION_OUTPUT_BURST_TYPE(pRegionConfig->OutputBurstType));
 777              		.loc 1 570 3 view .LVU166
 571:Drivers/STM32H5xx_HAL_Driver/Src/stm32h5xx_hal_icache.c **** 
ARM GAS  /tmp/ccVU1W56.s 			page 25


 572:Drivers/STM32H5xx_HAL_Driver/Src/stm32h5xx_hal_icache.c ****   /* Check cache is not enabled */
 573:Drivers/STM32H5xx_HAL_Driver/Src/stm32h5xx_hal_icache.c ****   if (READ_BIT(ICACHE->CR, ICACHE_CR_EN) != 0U)
 778              		.loc 1 573 3 view .LVU167
 779              		.loc 1 573 7 is_stmt 0 view .LVU168
 780 0000 134B     		ldr	r3, .L81
 781 0002 1B68     		ldr	r3, [r3]
 782              		.loc 1 573 6 view .LVU169
 783 0004 13F0010F 		tst	r3, #1
 784 0008 1DD1     		bne	.L75
 561:Drivers/STM32H5xx_HAL_Driver/Src/stm32h5xx_hal_icache.c ****   HAL_StatusTypeDef status = HAL_OK;
 785              		.loc 1 561 1 view .LVU170
 786 000a 70B4     		push	{r4, r5, r6}
 787              	.LCFI4:
 788              		.cfi_def_cfa_offset 12
 789              		.cfi_offset 4, -12
 790              		.cfi_offset 5, -8
 791              		.cfi_offset 6, -4
 574:Drivers/STM32H5xx_HAL_Driver/Src/stm32h5xx_hal_icache.c ****   {
 575:Drivers/STM32H5xx_HAL_Driver/Src/stm32h5xx_hal_icache.c ****     status = HAL_ERROR;
 576:Drivers/STM32H5xx_HAL_Driver/Src/stm32h5xx_hal_icache.c ****   }
 577:Drivers/STM32H5xx_HAL_Driver/Src/stm32h5xx_hal_icache.c ****   else
 578:Drivers/STM32H5xx_HAL_Driver/Src/stm32h5xx_hal_icache.c ****   {
 579:Drivers/STM32H5xx_HAL_Driver/Src/stm32h5xx_hal_icache.c ****     /* Get region control register address */
 580:Drivers/STM32H5xx_HAL_Driver/Src/stm32h5xx_hal_icache.c ****     p_reg = &(ICACHE->CRR0) + (1U * Region);
 792              		.loc 1 580 5 is_stmt 1 view .LVU171
 793              		.loc 1 580 11 is_stmt 0 view .LVU172
 794 000c 114C     		ldr	r4, .L81+4
 795              	.LVL36:
 581:Drivers/STM32H5xx_HAL_Driver/Src/stm32h5xx_hal_icache.c **** 
 582:Drivers/STM32H5xx_HAL_Driver/Src/stm32h5xx_hal_icache.c ****     /* Check region is not already enabled */
 583:Drivers/STM32H5xx_HAL_Driver/Src/stm32h5xx_hal_icache.c ****     if ((*p_reg & ICACHE_CRRx_REN) != 0U)
 796              		.loc 1 583 5 is_stmt 1 view .LVU173
 797              		.loc 1 583 10 is_stmt 0 view .LVU174
 798 000e 54F82030 		ldr	r3, [r4, r0, lsl #2]
 799              		.loc 1 583 8 view .LVU175
 800 0012 13F4004F 		tst	r3, #32768
 801 0016 18D1     		bne	.L76
 584:Drivers/STM32H5xx_HAL_Driver/Src/stm32h5xx_hal_icache.c ****     {
 585:Drivers/STM32H5xx_HAL_Driver/Src/stm32h5xx_hal_icache.c ****       status = HAL_ERROR;
 586:Drivers/STM32H5xx_HAL_Driver/Src/stm32h5xx_hal_icache.c ****     }
 587:Drivers/STM32H5xx_HAL_Driver/Src/stm32h5xx_hal_icache.c ****     else
 588:Drivers/STM32H5xx_HAL_Driver/Src/stm32h5xx_hal_icache.c ****     {
 589:Drivers/STM32H5xx_HAL_Driver/Src/stm32h5xx_hal_icache.c ****       /* Region 2MB:   BaseAddress size 8 bits, RemapAddress size 11 bits */
 590:Drivers/STM32H5xx_HAL_Driver/Src/stm32h5xx_hal_icache.c ****       /* Region 4MB:   BaseAddress size 7 bits, RemapAddress size 10 bits */
 591:Drivers/STM32H5xx_HAL_Driver/Src/stm32h5xx_hal_icache.c ****       /* Region 8MB:   BaseAddress size 6 bits, RemapAddress size 9 bits  */
 592:Drivers/STM32H5xx_HAL_Driver/Src/stm32h5xx_hal_icache.c ****       /* Region 16MB:  BaseAddress size 5 bits, RemapAddress size 8 bits  */
 593:Drivers/STM32H5xx_HAL_Driver/Src/stm32h5xx_hal_icache.c ****       /* Region 32MB:  BaseAddress size 4 bits, RemapAddress size 7 bits  */
 594:Drivers/STM32H5xx_HAL_Driver/Src/stm32h5xx_hal_icache.c ****       /* Region 64MB:  BaseAddress size 3 bits, RemapAddress size 6 bits  */
 595:Drivers/STM32H5xx_HAL_Driver/Src/stm32h5xx_hal_icache.c ****       /* Region 128MB: BaseAddress size 2 bits, RemapAddress size 5 bits  */
 596:Drivers/STM32H5xx_HAL_Driver/Src/stm32h5xx_hal_icache.c ****       value  = ((pRegionConfig->BaseAddress & 0x1FFFFFFFU) >> 21U) & \
 802              		.loc 1 596 7 is_stmt 1 view .LVU176
 803              		.loc 1 596 31 is_stmt 0 view .LVU177
 804 0018 0B68     		ldr	r3, [r1]
 597:Drivers/STM32H5xx_HAL_Driver/Src/stm32h5xx_hal_icache.c ****                (0xFFU & ~(pRegionConfig->Size - 1U));
 805              		.loc 1 597 40 view .LVU178
 806 001a 8D68     		ldr	r5, [r1, #8]
 807              		.loc 1 597 25 view .LVU179
ARM GAS  /tmp/ccVU1W56.s 			page 26


 808 001c 6A42     		rsbs	r2, r5, #0
 596:Drivers/STM32H5xx_HAL_Driver/Src/stm32h5xx_hal_icache.c ****                (0xFFU & ~(pRegionConfig->Size - 1U));
 809              		.loc 1 596 68 view .LVU180
 810 001e 02EA5353 		and	r3, r2, r3, lsr #21
 596:Drivers/STM32H5xx_HAL_Driver/Src/stm32h5xx_hal_icache.c ****                (0xFFU & ~(pRegionConfig->Size - 1U));
 811              		.loc 1 596 14 view .LVU181
 812 0022 DBB2     		uxtb	r3, r3
 813              	.LVL37:
 598:Drivers/STM32H5xx_HAL_Driver/Src/stm32h5xx_hal_icache.c ****       value |= ((pRegionConfig->RemapAddress >> 5U) & \
 814              		.loc 1 598 7 is_stmt 1 view .LVU182
 599:Drivers/STM32H5xx_HAL_Driver/Src/stm32h5xx_hal_icache.c ****                 ((uint32_t)(0x7FFU & ~(pRegionConfig->Size - 1U)) << ICACHE_CRRx_REMAPADDR_Pos));
 815              		.loc 1 599 67 is_stmt 0 view .LVU183
 816 0024 1204     		lsls	r2, r2, #16
 598:Drivers/STM32H5xx_HAL_Driver/Src/stm32h5xx_hal_icache.c ****       value |= ((pRegionConfig->RemapAddress >> 5U) & \
 817              		.loc 1 598 53 view .LVU184
 818 0026 4E68     		ldr	r6, [r1, #4]
 819 0028 02EA5612 		and	r2, r2, r6, lsr #5
 598:Drivers/STM32H5xx_HAL_Driver/Src/stm32h5xx_hal_icache.c ****       value |= ((pRegionConfig->RemapAddress >> 5U) & \
 820              		.loc 1 598 13 view .LVU185
 821 002c 1A43     		orrs	r2, r2, r3
 822              	.LVL38:
 600:Drivers/STM32H5xx_HAL_Driver/Src/stm32h5xx_hal_icache.c ****       value |= (pRegionConfig->Size << ICACHE_CRRx_RSIZE_Pos) | pRegionConfig->TrafficRoute | \
 823              		.loc 1 600 7 is_stmt 1 view .LVU186
 824              		.loc 1 600 78 is_stmt 0 view .LVU187
 825 002e CB68     		ldr	r3, [r1, #12]
 826              		.loc 1 600 63 view .LVU188
 827 0030 43EA4523 		orr	r3, r3, r5, lsl #9
 601:Drivers/STM32H5xx_HAL_Driver/Src/stm32h5xx_hal_icache.c ****                pRegionConfig->OutputBurstType;
 828              		.loc 1 601 29 view .LVU189
 829 0034 0969     		ldr	r1, [r1, #16]
 830              	.LVL39:
 600:Drivers/STM32H5xx_HAL_Driver/Src/stm32h5xx_hal_icache.c ****       value |= (pRegionConfig->Size << ICACHE_CRRx_RSIZE_Pos) | pRegionConfig->TrafficRoute | \
 831              		.loc 1 600 93 view .LVU190
 832 0036 0B43     		orrs	r3, r3, r1
 600:Drivers/STM32H5xx_HAL_Driver/Src/stm32h5xx_hal_icache.c ****       value |= (pRegionConfig->Size << ICACHE_CRRx_RSIZE_Pos) | pRegionConfig->TrafficRoute | \
 833              		.loc 1 600 13 view .LVU191
 834 0038 1343     		orrs	r3, r3, r2
 835              	.LVL40:
 602:Drivers/STM32H5xx_HAL_Driver/Src/stm32h5xx_hal_icache.c ****       *p_reg = (value | ICACHE_CRRx_REN);
 836              		.loc 1 602 7 is_stmt 1 view .LVU192
 837              		.loc 1 602 23 is_stmt 0 view .LVU193
 838 003a 43F40043 		orr	r3, r3, #32768
 839              	.LVL41:
 840              		.loc 1 602 14 view .LVU194
 841 003e 44F82030 		str	r3, [r4, r0, lsl #2]
 842              	.LVL42:
 562:Drivers/STM32H5xx_HAL_Driver/Src/stm32h5xx_hal_icache.c ****   __IO uint32_t *p_reg;
 843              		.loc 1 562 21 view .LVU195
 844 0042 0020     		movs	r0, #0
 845              	.LVL43:
 562:Drivers/STM32H5xx_HAL_Driver/Src/stm32h5xx_hal_icache.c ****   __IO uint32_t *p_reg;
 846              		.loc 1 562 21 view .LVU196
 847 0044 02E0     		b	.L74
 848              	.LVL44:
 849              	.L75:
 850              	.LCFI5:
 851              		.cfi_def_cfa_offset 0
ARM GAS  /tmp/ccVU1W56.s 			page 27


 852              		.cfi_restore 4
 853              		.cfi_restore 5
 854              		.cfi_restore 6
 575:Drivers/STM32H5xx_HAL_Driver/Src/stm32h5xx_hal_icache.c ****   }
 855              		.loc 1 575 12 view .LVU197
 856 0046 0120     		movs	r0, #1
 857              	.LVL45:
 603:Drivers/STM32H5xx_HAL_Driver/Src/stm32h5xx_hal_icache.c ****     }
 604:Drivers/STM32H5xx_HAL_Driver/Src/stm32h5xx_hal_icache.c ****   }
 605:Drivers/STM32H5xx_HAL_Driver/Src/stm32h5xx_hal_icache.c **** 
 606:Drivers/STM32H5xx_HAL_Driver/Src/stm32h5xx_hal_icache.c ****   return status;
 858              		.loc 1 606 3 is_stmt 1 view .LVU198
 607:Drivers/STM32H5xx_HAL_Driver/Src/stm32h5xx_hal_icache.c **** }
 859              		.loc 1 607 1 is_stmt 0 view .LVU199
 860 0048 7047     		bx	lr
 861              	.LVL46:
 862              	.L76:
 863              	.LCFI6:
 864              		.cfi_def_cfa_offset 12
 865              		.cfi_offset 4, -12
 866              		.cfi_offset 5, -8
 867              		.cfi_offset 6, -4
 585:Drivers/STM32H5xx_HAL_Driver/Src/stm32h5xx_hal_icache.c ****     }
 868              		.loc 1 585 14 view .LVU200
 869 004a 0120     		movs	r0, #1
 870              	.LVL47:
 871              	.L74:
 606:Drivers/STM32H5xx_HAL_Driver/Src/stm32h5xx_hal_icache.c **** }
 872              		.loc 1 606 3 is_stmt 1 view .LVU201
 873              		.loc 1 607 1 is_stmt 0 view .LVU202
 874 004c 70BC     		pop	{r4, r5, r6}
 875              	.LCFI7:
 876              		.cfi_restore 6
 877              		.cfi_restore 5
 878              		.cfi_restore 4
 879              		.cfi_def_cfa_offset 0
 880              	.LVL48:
 881              		.loc 1 607 1 view .LVU203
 882 004e 7047     		bx	lr
 883              	.L82:
 884              		.align	2
 885              	.L81:
 886 0050 00040340 		.word	1073939456
 887 0054 20040340 		.word	1073939488
 888              		.cfi_endproc
 889              	.LFE377:
 891              		.section	.text.HAL_ICACHE_DisableRemapRegion,"ax",%progbits
 892              		.align	1
 893              		.global	HAL_ICACHE_DisableRemapRegion
 894              		.syntax unified
 895              		.thumb
 896              		.thumb_func
 897              		.fpu fpv4-sp-d16
 899              	HAL_ICACHE_DisableRemapRegion:
 900              	.LVL49:
 901              	.LFB378:
 608:Drivers/STM32H5xx_HAL_Driver/Src/stm32h5xx_hal_icache.c **** 
ARM GAS  /tmp/ccVU1W56.s 			page 28


 609:Drivers/STM32H5xx_HAL_Driver/Src/stm32h5xx_hal_icache.c **** /**
 610:Drivers/STM32H5xx_HAL_Driver/Src/stm32h5xx_hal_icache.c ****   * @brief  Disable the memory remapping for a predefined region.
 611:Drivers/STM32H5xx_HAL_Driver/Src/stm32h5xx_hal_icache.c ****   * @param  Region   Region number
 612:Drivers/STM32H5xx_HAL_Driver/Src/stm32h5xx_hal_icache.c ****                      This parameter can be a value of @arg @ref ICACHE_Region
 613:Drivers/STM32H5xx_HAL_Driver/Src/stm32h5xx_hal_icache.c ****   * @retval HAL status (HAL_OK/HAL_ERROR)
 614:Drivers/STM32H5xx_HAL_Driver/Src/stm32h5xx_hal_icache.c ****   */
 615:Drivers/STM32H5xx_HAL_Driver/Src/stm32h5xx_hal_icache.c **** HAL_StatusTypeDef  HAL_ICACHE_DisableRemapRegion(uint32_t Region)
 616:Drivers/STM32H5xx_HAL_Driver/Src/stm32h5xx_hal_icache.c **** {
 902              		.loc 1 616 1 is_stmt 1 view -0
 903              		.cfi_startproc
 904              		@ args = 0, pretend = 0, frame = 0
 905              		@ frame_needed = 0, uses_anonymous_args = 0
 906              		@ link register save eliminated.
 617:Drivers/STM32H5xx_HAL_Driver/Src/stm32h5xx_hal_icache.c ****   HAL_StatusTypeDef status = HAL_OK;
 907              		.loc 1 617 3 view .LVU205
 618:Drivers/STM32H5xx_HAL_Driver/Src/stm32h5xx_hal_icache.c ****   __IO uint32_t *p_reg;
 908              		.loc 1 618 3 view .LVU206
 619:Drivers/STM32H5xx_HAL_Driver/Src/stm32h5xx_hal_icache.c **** 
 620:Drivers/STM32H5xx_HAL_Driver/Src/stm32h5xx_hal_icache.c ****   /* Check the parameters */
 621:Drivers/STM32H5xx_HAL_Driver/Src/stm32h5xx_hal_icache.c ****   assert_param(IS_ICACHE_REGION_NUMBER(Region));
 909              		.loc 1 621 3 view .LVU207
 622:Drivers/STM32H5xx_HAL_Driver/Src/stm32h5xx_hal_icache.c **** 
 623:Drivers/STM32H5xx_HAL_Driver/Src/stm32h5xx_hal_icache.c ****   /* Check cache is not enabled */
 624:Drivers/STM32H5xx_HAL_Driver/Src/stm32h5xx_hal_icache.c ****   if (READ_BIT(ICACHE->CR, ICACHE_CR_EN) != 0U)
 910              		.loc 1 624 3 view .LVU208
 911              		.loc 1 624 7 is_stmt 0 view .LVU209
 912 0000 074B     		ldr	r3, .L86
 913 0002 1B68     		ldr	r3, [r3]
 914              		.loc 1 624 6 view .LVU210
 915 0004 13F0010F 		tst	r3, #1
 916 0008 08D1     		bne	.L85
 625:Drivers/STM32H5xx_HAL_Driver/Src/stm32h5xx_hal_icache.c ****   {
 626:Drivers/STM32H5xx_HAL_Driver/Src/stm32h5xx_hal_icache.c ****     status = HAL_ERROR;
 627:Drivers/STM32H5xx_HAL_Driver/Src/stm32h5xx_hal_icache.c ****   }
 628:Drivers/STM32H5xx_HAL_Driver/Src/stm32h5xx_hal_icache.c ****   else
 629:Drivers/STM32H5xx_HAL_Driver/Src/stm32h5xx_hal_icache.c ****   {
 630:Drivers/STM32H5xx_HAL_Driver/Src/stm32h5xx_hal_icache.c ****     /* Get region control register address */
 631:Drivers/STM32H5xx_HAL_Driver/Src/stm32h5xx_hal_icache.c ****     p_reg = &(ICACHE->CRR0) + (1U * Region);
 917              		.loc 1 631 5 is_stmt 1 view .LVU211
 918              		.loc 1 631 11 is_stmt 0 view .LVU212
 919 000a 064A     		ldr	r2, .L86+4
 920              	.LVL50:
 632:Drivers/STM32H5xx_HAL_Driver/Src/stm32h5xx_hal_icache.c **** 
 633:Drivers/STM32H5xx_HAL_Driver/Src/stm32h5xx_hal_icache.c ****     *p_reg &= ~ICACHE_CRRx_REN;
 921              		.loc 1 633 5 is_stmt 1 view .LVU213
 922              		.loc 1 633 12 is_stmt 0 view .LVU214
 923 000c 52F82030 		ldr	r3, [r2, r0, lsl #2]
 924 0010 23F40043 		bic	r3, r3, #32768
 925 0014 42F82030 		str	r3, [r2, r0, lsl #2]
 617:Drivers/STM32H5xx_HAL_Driver/Src/stm32h5xx_hal_icache.c ****   __IO uint32_t *p_reg;
 926              		.loc 1 617 21 view .LVU215
 927 0018 0020     		movs	r0, #0
 928              	.LVL51:
 617:Drivers/STM32H5xx_HAL_Driver/Src/stm32h5xx_hal_icache.c ****   __IO uint32_t *p_reg;
 929              		.loc 1 617 21 view .LVU216
 930 001a 7047     		bx	lr
 931              	.LVL52:
ARM GAS  /tmp/ccVU1W56.s 			page 29


 932              	.L85:
 626:Drivers/STM32H5xx_HAL_Driver/Src/stm32h5xx_hal_icache.c ****   }
 933              		.loc 1 626 12 view .LVU217
 934 001c 0120     		movs	r0, #1
 935              	.LVL53:
 634:Drivers/STM32H5xx_HAL_Driver/Src/stm32h5xx_hal_icache.c ****   }
 635:Drivers/STM32H5xx_HAL_Driver/Src/stm32h5xx_hal_icache.c **** 
 636:Drivers/STM32H5xx_HAL_Driver/Src/stm32h5xx_hal_icache.c ****   return status;
 936              		.loc 1 636 3 is_stmt 1 view .LVU218
 637:Drivers/STM32H5xx_HAL_Driver/Src/stm32h5xx_hal_icache.c **** }
 937              		.loc 1 637 1 is_stmt 0 view .LVU219
 938 001e 7047     		bx	lr
 939              	.L87:
 940              		.align	2
 941              	.L86:
 942 0020 00040340 		.word	1073939456
 943 0024 20040340 		.word	1073939488
 944              		.cfi_endproc
 945              	.LFE378:
 947              		.text
 948              	.Letext0:
 949              		.file 2 "Drivers/CMSIS/Device/ST/STM32H5xx/Include/stm32h533xx.h"
 950              		.file 3 "/usr/lib/gcc/arm-none-eabi/10.3.1/include/stdint.h"
 951              		.file 4 "Drivers/STM32H5xx_HAL_Driver/Inc/stm32h5xx_hal_def.h"
 952              		.file 5 "Drivers/STM32H5xx_HAL_Driver/Inc/stm32h5xx_hal_icache.h"
 953              		.file 6 "Drivers/STM32H5xx_HAL_Driver/Inc/stm32h5xx_hal.h"
ARM GAS  /tmp/ccVU1W56.s 			page 30

