ARM GAS  /tmp/ccQkXeUE.s 			page 1


   1              		.cpu cortex-m33
   2              		.eabi_attribute 27, 1
   3              		.eabi_attribute 28, 1
   4              		.eabi_attribute 20, 1
   5              		.eabi_attribute 21, 1
   6              		.eabi_attribute 23, 3
   7              		.eabi_attribute 24, 1
   8              		.eabi_attribute 25, 1
   9              		.eabi_attribute 26, 1
  10              		.eabi_attribute 30, 1
  11              		.eabi_attribute 34, 1
  12              		.eabi_attribute 18, 4
  13              		.file	"stm32h5xx_hal_dma.c"
  14              		.text
  15              	.Ltext0:
  16              		.cfi_sections	.debug_frame
  17              		.section	.text.DMA_SetConfig,"ax",%progbits
  18              		.align	1
  19              		.arch armv8-m.main
  20              		.arch_extension dsp
  21              		.syntax unified
  22              		.thumb
  23              		.thumb_func
  24              		.fpu fpv4-sp-d16
  26              	DMA_SetConfig:
  27              	.LVL0:
  28              	.LFB376:
  29              		.file 1 "Drivers/STM32H5xx_HAL_Driver/Src/stm32h5xx_hal_dma.c"
   1:Drivers/STM32H5xx_HAL_Driver/Src/stm32h5xx_hal_dma.c **** /**
   2:Drivers/STM32H5xx_HAL_Driver/Src/stm32h5xx_hal_dma.c ****   *************************************************************************************************
   3:Drivers/STM32H5xx_HAL_Driver/Src/stm32h5xx_hal_dma.c ****   * @file    stm32h5xx_hal_dma.c
   4:Drivers/STM32H5xx_HAL_Driver/Src/stm32h5xx_hal_dma.c ****   * @author  MCD Application Team
   5:Drivers/STM32H5xx_HAL_Driver/Src/stm32h5xx_hal_dma.c ****   * @brief   This file provides firmware functions to manage the following functionalities of the D
   6:Drivers/STM32H5xx_HAL_Driver/Src/stm32h5xx_hal_dma.c ****   *          (DMA) peripheral:
   7:Drivers/STM32H5xx_HAL_Driver/Src/stm32h5xx_hal_dma.c ****   *            + Initialization/De-Initialization Functions
   8:Drivers/STM32H5xx_HAL_Driver/Src/stm32h5xx_hal_dma.c ****   *            + I/O Operation Functions
   9:Drivers/STM32H5xx_HAL_Driver/Src/stm32h5xx_hal_dma.c ****   *            + State and Errors Functions
  10:Drivers/STM32H5xx_HAL_Driver/Src/stm32h5xx_hal_dma.c ****   *            + DMA Attributes Functions
  11:Drivers/STM32H5xx_HAL_Driver/Src/stm32h5xx_hal_dma.c ****   *
  12:Drivers/STM32H5xx_HAL_Driver/Src/stm32h5xx_hal_dma.c ****   *************************************************************************************************
  13:Drivers/STM32H5xx_HAL_Driver/Src/stm32h5xx_hal_dma.c ****   * @attention
  14:Drivers/STM32H5xx_HAL_Driver/Src/stm32h5xx_hal_dma.c ****   *
  15:Drivers/STM32H5xx_HAL_Driver/Src/stm32h5xx_hal_dma.c ****   * Copyright (c) 2023 STMicroelectronics.
  16:Drivers/STM32H5xx_HAL_Driver/Src/stm32h5xx_hal_dma.c ****   * All rights reserved.
  17:Drivers/STM32H5xx_HAL_Driver/Src/stm32h5xx_hal_dma.c ****   *
  18:Drivers/STM32H5xx_HAL_Driver/Src/stm32h5xx_hal_dma.c ****   * This software is licensed under terms that can be found in the LICENSE file
  19:Drivers/STM32H5xx_HAL_Driver/Src/stm32h5xx_hal_dma.c ****   * in the root directory of this software component.
  20:Drivers/STM32H5xx_HAL_Driver/Src/stm32h5xx_hal_dma.c ****   * If no LICENSE file comes with this software, it is provided AS-IS.
  21:Drivers/STM32H5xx_HAL_Driver/Src/stm32h5xx_hal_dma.c ****   *
  22:Drivers/STM32H5xx_HAL_Driver/Src/stm32h5xx_hal_dma.c ****   *************************************************************************************************
  23:Drivers/STM32H5xx_HAL_Driver/Src/stm32h5xx_hal_dma.c ****   @verbatim
  24:Drivers/STM32H5xx_HAL_Driver/Src/stm32h5xx_hal_dma.c ****   =================================================================================================
  25:Drivers/STM32H5xx_HAL_Driver/Src/stm32h5xx_hal_dma.c ****                        ##### How to use this driver #####
  26:Drivers/STM32H5xx_HAL_Driver/Src/stm32h5xx_hal_dma.c ****   =================================================================================================
  27:Drivers/STM32H5xx_HAL_Driver/Src/stm32h5xx_hal_dma.c **** 
  28:Drivers/STM32H5xx_HAL_Driver/Src/stm32h5xx_hal_dma.c **** 
  29:Drivers/STM32H5xx_HAL_Driver/Src/stm32h5xx_hal_dma.c ****     [..]
ARM GAS  /tmp/ccQkXeUE.s 			page 2


  30:Drivers/STM32H5xx_HAL_Driver/Src/stm32h5xx_hal_dma.c ****       DMA transfer modes are divided to 2 major categories :
  31:Drivers/STM32H5xx_HAL_Driver/Src/stm32h5xx_hal_dma.c ****           (+) Normal transfers (legacy)
  32:Drivers/STM32H5xx_HAL_Driver/Src/stm32h5xx_hal_dma.c ****           (+) Linked-list transfers
  33:Drivers/STM32H5xx_HAL_Driver/Src/stm32h5xx_hal_dma.c **** 
  34:Drivers/STM32H5xx_HAL_Driver/Src/stm32h5xx_hal_dma.c ****     [..]
  35:Drivers/STM32H5xx_HAL_Driver/Src/stm32h5xx_hal_dma.c ****       Normal transfers mode is initialized via the standard module and linked-list mode is configur
  36:Drivers/STM32H5xx_HAL_Driver/Src/stm32h5xx_hal_dma.c ****       module.
  37:Drivers/STM32H5xx_HAL_Driver/Src/stm32h5xx_hal_dma.c **** 
  38:Drivers/STM32H5xx_HAL_Driver/Src/stm32h5xx_hal_dma.c ****     [..]
  39:Drivers/STM32H5xx_HAL_Driver/Src/stm32h5xx_hal_dma.c ****       Additionally to linked-list capability, all advanced DMA features are managed and configured 
  40:Drivers/STM32H5xx_HAL_Driver/Src/stm32h5xx_hal_dma.c ****       module as extensions to normal mode.
  41:Drivers/STM32H5xx_HAL_Driver/Src/stm32h5xx_hal_dma.c ****       Advanced features are :
  42:Drivers/STM32H5xx_HAL_Driver/Src/stm32h5xx_hal_dma.c ****           (+) Repeated block feature.
  43:Drivers/STM32H5xx_HAL_Driver/Src/stm32h5xx_hal_dma.c ****           (+) Trigger feature.
  44:Drivers/STM32H5xx_HAL_Driver/Src/stm32h5xx_hal_dma.c ****           (+) Data handling feature.
  45:Drivers/STM32H5xx_HAL_Driver/Src/stm32h5xx_hal_dma.c **** 
  46:Drivers/STM32H5xx_HAL_Driver/Src/stm32h5xx_hal_dma.c ****     [..]
  47:Drivers/STM32H5xx_HAL_Driver/Src/stm32h5xx_hal_dma.c ****       DMA Legacy circular transfer, is replaced by circular linked-list configuration.
  48:Drivers/STM32H5xx_HAL_Driver/Src/stm32h5xx_hal_dma.c **** 
  49:Drivers/STM32H5xx_HAL_Driver/Src/stm32h5xx_hal_dma.c **** 
  50:Drivers/STM32H5xx_HAL_Driver/Src/stm32h5xx_hal_dma.c ****     *** Initialization and De-Initialization ***
  51:Drivers/STM32H5xx_HAL_Driver/Src/stm32h5xx_hal_dma.c ****     ============================================
  52:Drivers/STM32H5xx_HAL_Driver/Src/stm32h5xx_hal_dma.c ****     [..]
  53:Drivers/STM32H5xx_HAL_Driver/Src/stm32h5xx_hal_dma.c ****       For a given channel, enable and configure the peripheral to be connected to the DMA Channel (
  54:Drivers/STM32H5xx_HAL_Driver/Src/stm32h5xx_hal_dma.c ****       SRAM/FLASH memories: no initialization is necessary) please refer to Reference manual for con
  55:Drivers/STM32H5xx_HAL_Driver/Src/stm32h5xx_hal_dma.c ****       peripherals and DMA requests.
  56:Drivers/STM32H5xx_HAL_Driver/Src/stm32h5xx_hal_dma.c **** 
  57:Drivers/STM32H5xx_HAL_Driver/Src/stm32h5xx_hal_dma.c ****     [..]
  58:Drivers/STM32H5xx_HAL_Driver/Src/stm32h5xx_hal_dma.c ****       For a given channel, use HAL_DMA_Init function to program the required configuration for norm
  59:Drivers/STM32H5xx_HAL_Driver/Src/stm32h5xx_hal_dma.c ****       the following parameters:
  60:Drivers/STM32H5xx_HAL_Driver/Src/stm32h5xx_hal_dma.c **** 
  61:Drivers/STM32H5xx_HAL_Driver/Src/stm32h5xx_hal_dma.c ****           (+) Request               : Specifies the DMA channel request
  62:Drivers/STM32H5xx_HAL_Driver/Src/stm32h5xx_hal_dma.c ****               Request parameters    :
  63:Drivers/STM32H5xx_HAL_Driver/Src/stm32h5xx_hal_dma.c ****               (++) can be a value of DMA_Request_Selection
  64:Drivers/STM32H5xx_HAL_Driver/Src/stm32h5xx_hal_dma.c **** 
  65:Drivers/STM32H5xx_HAL_Driver/Src/stm32h5xx_hal_dma.c ****           (+) BlkHWRequest          : Specifies the Block hardware request mode for DMA channel
  66:Drivers/STM32H5xx_HAL_Driver/Src/stm32h5xx_hal_dma.c ****               (++) can be a value of DMA_Block_Request
  67:Drivers/STM32H5xx_HAL_Driver/Src/stm32h5xx_hal_dma.c **** 
  68:Drivers/STM32H5xx_HAL_Driver/Src/stm32h5xx_hal_dma.c ****           (+) Direction             : Specifies the transfer direction for DMA channel
  69:Drivers/STM32H5xx_HAL_Driver/Src/stm32h5xx_hal_dma.c ****               (++) can be a value of DMA_Transfer_Direction
  70:Drivers/STM32H5xx_HAL_Driver/Src/stm32h5xx_hal_dma.c **** 
  71:Drivers/STM32H5xx_HAL_Driver/Src/stm32h5xx_hal_dma.c ****           (+) SrcInc                : Specifies the source increment mode for the DMA channel
  72:Drivers/STM32H5xx_HAL_Driver/Src/stm32h5xx_hal_dma.c ****               (++) can be a value of DMA_Source_Increment_Mode
  73:Drivers/STM32H5xx_HAL_Driver/Src/stm32h5xx_hal_dma.c **** 
  74:Drivers/STM32H5xx_HAL_Driver/Src/stm32h5xx_hal_dma.c ****           (+) DestInc               : Specifies the destination increment mode for the DMA channel
  75:Drivers/STM32H5xx_HAL_Driver/Src/stm32h5xx_hal_dma.c ****               (++) can be a value of DMA_Destination_Increment_Mode
  76:Drivers/STM32H5xx_HAL_Driver/Src/stm32h5xx_hal_dma.c **** 
  77:Drivers/STM32H5xx_HAL_Driver/Src/stm32h5xx_hal_dma.c ****           (+) SrcDataWidth          : Specifies the source data width for the DMA channel
  78:Drivers/STM32H5xx_HAL_Driver/Src/stm32h5xx_hal_dma.c ****               (++) can be a value of DMA_Source_Data_Width
  79:Drivers/STM32H5xx_HAL_Driver/Src/stm32h5xx_hal_dma.c **** 
  80:Drivers/STM32H5xx_HAL_Driver/Src/stm32h5xx_hal_dma.c ****           (+) DestDataWidth         : Specifies the destination data width for the DMA channel
  81:Drivers/STM32H5xx_HAL_Driver/Src/stm32h5xx_hal_dma.c ****               (++) can be a value of DMA_Destination_Data_Width
  82:Drivers/STM32H5xx_HAL_Driver/Src/stm32h5xx_hal_dma.c **** 
  83:Drivers/STM32H5xx_HAL_Driver/Src/stm32h5xx_hal_dma.c ****           (+) Priority              : Specifies the priority for the DMA channel
  84:Drivers/STM32H5xx_HAL_Driver/Src/stm32h5xx_hal_dma.c ****               (++) can be a value of DMA_Priority_Level
  85:Drivers/STM32H5xx_HAL_Driver/Src/stm32h5xx_hal_dma.c **** 
  86:Drivers/STM32H5xx_HAL_Driver/Src/stm32h5xx_hal_dma.c ****           (+) SrcBurstLength        : Specifies the source burst length (number of beats) for the D
ARM GAS  /tmp/ccQkXeUE.s 			page 3


  87:Drivers/STM32H5xx_HAL_Driver/Src/stm32h5xx_hal_dma.c ****               (++) can be a value of between 1 and 64
  88:Drivers/STM32H5xx_HAL_Driver/Src/stm32h5xx_hal_dma.c **** 
  89:Drivers/STM32H5xx_HAL_Driver/Src/stm32h5xx_hal_dma.c ****           (+) DestBurstLength       : Specifies the destination burst length (number of beats) for 
  90:Drivers/STM32H5xx_HAL_Driver/Src/stm32h5xx_hal_dma.c ****               (++) can be a value of between 1 and 64
  91:Drivers/STM32H5xx_HAL_Driver/Src/stm32h5xx_hal_dma.c **** 
  92:Drivers/STM32H5xx_HAL_Driver/Src/stm32h5xx_hal_dma.c ****           (+) TransferAllocatedPort : Specifies the source and destination allocated ports
  93:Drivers/STM32H5xx_HAL_Driver/Src/stm32h5xx_hal_dma.c ****               (++) can be a value of DMA_Transfer_Allocated_Port
  94:Drivers/STM32H5xx_HAL_Driver/Src/stm32h5xx_hal_dma.c **** 
  95:Drivers/STM32H5xx_HAL_Driver/Src/stm32h5xx_hal_dma.c ****           (+) TransferEventMode     : Specifies the transfer event mode for the DMA channel
  96:Drivers/STM32H5xx_HAL_Driver/Src/stm32h5xx_hal_dma.c ****               (++) can be a value of DMA_Transfer_Event_Mode
  97:Drivers/STM32H5xx_HAL_Driver/Src/stm32h5xx_hal_dma.c **** 
  98:Drivers/STM32H5xx_HAL_Driver/Src/stm32h5xx_hal_dma.c ****           (+) Mode                  : Specifies the transfer mode for the DMA channel
  99:Drivers/STM32H5xx_HAL_Driver/Src/stm32h5xx_hal_dma.c ****               (++) can be one of the following modes :
 100:Drivers/STM32H5xx_HAL_Driver/Src/stm32h5xx_hal_dma.c ****                   (+++) DMA_NORMAL : Normal Mode
 101:Drivers/STM32H5xx_HAL_Driver/Src/stm32h5xx_hal_dma.c ****                   (+++) DMA_PFCTRL : Peripheral Flow Control (peripheral early termination) Mode
 102:Drivers/STM32H5xx_HAL_Driver/Src/stm32h5xx_hal_dma.c **** 
 103:Drivers/STM32H5xx_HAL_Driver/Src/stm32h5xx_hal_dma.c ****     *** Polling mode IO operation ***
 104:Drivers/STM32H5xx_HAL_Driver/Src/stm32h5xx_hal_dma.c ****     =================================
 105:Drivers/STM32H5xx_HAL_Driver/Src/stm32h5xx_hal_dma.c ****     [..]
 106:Drivers/STM32H5xx_HAL_Driver/Src/stm32h5xx_hal_dma.c ****           (+) Use HAL_DMA_Start() to start a DMA normal transfer after the configuration of source 
 107:Drivers/STM32H5xx_HAL_Driver/Src/stm32h5xx_hal_dma.c ****               address and the size of data to be transferred.
 108:Drivers/STM32H5xx_HAL_Driver/Src/stm32h5xx_hal_dma.c **** 
 109:Drivers/STM32H5xx_HAL_Driver/Src/stm32h5xx_hal_dma.c ****           (+) Use HAL_DMA_PollForTransfer() to poll for selected transfer level. In this case a fix
 110:Drivers/STM32H5xx_HAL_Driver/Src/stm32h5xx_hal_dma.c ****               configured by User depending on his application.
 111:Drivers/STM32H5xx_HAL_Driver/Src/stm32h5xx_hal_dma.c ****               Transfer level can be :
 112:Drivers/STM32H5xx_HAL_Driver/Src/stm32h5xx_hal_dma.c ****               (++) HAL_DMA_HALF_TRANSFER
 113:Drivers/STM32H5xx_HAL_Driver/Src/stm32h5xx_hal_dma.c ****               (++) HAL_DMA_FULL_TRANSFER
 114:Drivers/STM32H5xx_HAL_Driver/Src/stm32h5xx_hal_dma.c ****               For circular transfer, this API returns an HAL_ERROR with HAL_DMA_ERROR_NOT_SUPPORTED
 115:Drivers/STM32H5xx_HAL_Driver/Src/stm32h5xx_hal_dma.c **** 
 116:Drivers/STM32H5xx_HAL_Driver/Src/stm32h5xx_hal_dma.c ****           (+) Use HAL_DMA_Abort() function to abort any ongoing DMA transfer in blocking mode.
 117:Drivers/STM32H5xx_HAL_Driver/Src/stm32h5xx_hal_dma.c ****               This API returns HAL_ERROR when there is no ongoing transfer or timeout is reached wh
 118:Drivers/STM32H5xx_HAL_Driver/Src/stm32h5xx_hal_dma.c ****               channel. (This API should not be called from an interrupt service routine)
 119:Drivers/STM32H5xx_HAL_Driver/Src/stm32h5xx_hal_dma.c **** 
 120:Drivers/STM32H5xx_HAL_Driver/Src/stm32h5xx_hal_dma.c **** 
 121:Drivers/STM32H5xx_HAL_Driver/Src/stm32h5xx_hal_dma.c ****     *** Interrupt mode IO operation ***
 122:Drivers/STM32H5xx_HAL_Driver/Src/stm32h5xx_hal_dma.c ****     ===================================
 123:Drivers/STM32H5xx_HAL_Driver/Src/stm32h5xx_hal_dma.c ****     [..]
 124:Drivers/STM32H5xx_HAL_Driver/Src/stm32h5xx_hal_dma.c ****           (+) Configure the DMA interrupt priority using HAL_NVIC_SetPriority()
 125:Drivers/STM32H5xx_HAL_Driver/Src/stm32h5xx_hal_dma.c **** 
 126:Drivers/STM32H5xx_HAL_Driver/Src/stm32h5xx_hal_dma.c ****           (+) Enable the DMA IRQ handler using HAL_NVIC_EnableIRQ()
 127:Drivers/STM32H5xx_HAL_Driver/Src/stm32h5xx_hal_dma.c **** 
 128:Drivers/STM32H5xx_HAL_Driver/Src/stm32h5xx_hal_dma.c ****           (+) Use HAL_DMA_RegisterCallback() function to register user callbacks from the following
 129:Drivers/STM32H5xx_HAL_Driver/Src/stm32h5xx_hal_dma.c ****               (++) XferCpltCallback     : transfer complete callback.
 130:Drivers/STM32H5xx_HAL_Driver/Src/stm32h5xx_hal_dma.c ****               (++) XferHalfCpltCallback : half transfer complete callback.
 131:Drivers/STM32H5xx_HAL_Driver/Src/stm32h5xx_hal_dma.c ****               (++) XferErrorCallback    : transfer error callback.
 132:Drivers/STM32H5xx_HAL_Driver/Src/stm32h5xx_hal_dma.c ****               (++) XferAbortCallback    : transfer abort complete callback.
 133:Drivers/STM32H5xx_HAL_Driver/Src/stm32h5xx_hal_dma.c ****               (++) XferSuspendCallback  : transfer suspend complete callback.
 134:Drivers/STM32H5xx_HAL_Driver/Src/stm32h5xx_hal_dma.c **** 
 135:Drivers/STM32H5xx_HAL_Driver/Src/stm32h5xx_hal_dma.c ****           (+) Use HAL_DMA_Start_IT() to start the DMA transfer after the enable of DMA interrupts a
 136:Drivers/STM32H5xx_HAL_Driver/Src/stm32h5xx_hal_dma.c ****               of source address,destination address and the size of data to be transferred.
 137:Drivers/STM32H5xx_HAL_Driver/Src/stm32h5xx_hal_dma.c **** 
 138:Drivers/STM32H5xx_HAL_Driver/Src/stm32h5xx_hal_dma.c ****           (+) Use HAL_DMA_IRQHandler() called under DMA_IRQHandler() interrupt subroutine to handle
 139:Drivers/STM32H5xx_HAL_Driver/Src/stm32h5xx_hal_dma.c **** 
 140:Drivers/STM32H5xx_HAL_Driver/Src/stm32h5xx_hal_dma.c ****           (+) Use HAL_DMA_Abort_IT() function to abort any on-going DMA transfer in non-blocking mo
 141:Drivers/STM32H5xx_HAL_Driver/Src/stm32h5xx_hal_dma.c ****               This API will suspend immediately the DMA channel execution. When the transfer is eff
 142:Drivers/STM32H5xx_HAL_Driver/Src/stm32h5xx_hal_dma.c ****               an interrupt is generated and HAL_DMA_IRQHandler() will reset the channel and execute
 143:Drivers/STM32H5xx_HAL_Driver/Src/stm32h5xx_hal_dma.c ****               XferAbortCallback. (This API could be called from an interrupt service routine)
ARM GAS  /tmp/ccQkXeUE.s 			page 4


 144:Drivers/STM32H5xx_HAL_Driver/Src/stm32h5xx_hal_dma.c **** 
 145:Drivers/STM32H5xx_HAL_Driver/Src/stm32h5xx_hal_dma.c **** 
 146:Drivers/STM32H5xx_HAL_Driver/Src/stm32h5xx_hal_dma.c ****     *** State and errors ***
 147:Drivers/STM32H5xx_HAL_Driver/Src/stm32h5xx_hal_dma.c ****     ========================
 148:Drivers/STM32H5xx_HAL_Driver/Src/stm32h5xx_hal_dma.c ****     [..]
 149:Drivers/STM32H5xx_HAL_Driver/Src/stm32h5xx_hal_dma.c ****           (+) Use HAL_DMA_GetState() function to get the DMA state.
 150:Drivers/STM32H5xx_HAL_Driver/Src/stm32h5xx_hal_dma.c ****           (+) Use HAL_DMA_GetError() function to get the DMA error code.
 151:Drivers/STM32H5xx_HAL_Driver/Src/stm32h5xx_hal_dma.c **** 
 152:Drivers/STM32H5xx_HAL_Driver/Src/stm32h5xx_hal_dma.c **** 
 153:Drivers/STM32H5xx_HAL_Driver/Src/stm32h5xx_hal_dma.c ****     *** Security and privilege attributes ***
 154:Drivers/STM32H5xx_HAL_Driver/Src/stm32h5xx_hal_dma.c ****     =========================================
 155:Drivers/STM32H5xx_HAL_Driver/Src/stm32h5xx_hal_dma.c ****     [..]
 156:Drivers/STM32H5xx_HAL_Driver/Src/stm32h5xx_hal_dma.c ****           (+) Use HAL_DMA_ConfigChannelAttributes() function to configure DMA channel security and 
 157:Drivers/STM32H5xx_HAL_Driver/Src/stm32h5xx_hal_dma.c ****               (++) Security  : at channel level, at source level and at destination level.
 158:Drivers/STM32H5xx_HAL_Driver/Src/stm32h5xx_hal_dma.c ****               (++) Privilege : at channel level.
 159:Drivers/STM32H5xx_HAL_Driver/Src/stm32h5xx_hal_dma.c ****           (+) Use HAL_DMA_GetConfigChannelAttributes() function to get the DMA channel attributes.
 160:Drivers/STM32H5xx_HAL_Driver/Src/stm32h5xx_hal_dma.c ****           (+) Use HAL_DMA_LockChannelAttributes() function to lock the DMA channel security and pri
 161:Drivers/STM32H5xx_HAL_Driver/Src/stm32h5xx_hal_dma.c ****               configuration. This API can be called once after each system boot.
 162:Drivers/STM32H5xx_HAL_Driver/Src/stm32h5xx_hal_dma.c ****               If called again, HAL_DMA_ConfigChannelAttributes() API has no effect.
 163:Drivers/STM32H5xx_HAL_Driver/Src/stm32h5xx_hal_dma.c ****               Unlock is done either by a system boot or a by an RCC reset.
 164:Drivers/STM32H5xx_HAL_Driver/Src/stm32h5xx_hal_dma.c ****           (+) Use HAL_DMA_GetLockChannelAttributes() function to get the attributes lock status.
 165:Drivers/STM32H5xx_HAL_Driver/Src/stm32h5xx_hal_dma.c **** 
 166:Drivers/STM32H5xx_HAL_Driver/Src/stm32h5xx_hal_dma.c **** 
 167:Drivers/STM32H5xx_HAL_Driver/Src/stm32h5xx_hal_dma.c ****     *** DMA HAL driver macros list ***
 168:Drivers/STM32H5xx_HAL_Driver/Src/stm32h5xx_hal_dma.c ****     ==================================
 169:Drivers/STM32H5xx_HAL_Driver/Src/stm32h5xx_hal_dma.c ****     [..]
 170:Drivers/STM32H5xx_HAL_Driver/Src/stm32h5xx_hal_dma.c ****       Below the list of most used macros in DMA HAL driver.
 171:Drivers/STM32H5xx_HAL_Driver/Src/stm32h5xx_hal_dma.c **** 
 172:Drivers/STM32H5xx_HAL_Driver/Src/stm32h5xx_hal_dma.c ****           (+) __HAL_DMA_ENABLE        : Enable the specified DMA Channel.
 173:Drivers/STM32H5xx_HAL_Driver/Src/stm32h5xx_hal_dma.c ****           (+) __HAL_DMA_DISABLE       : Disable the specified DMA Channel.
 174:Drivers/STM32H5xx_HAL_Driver/Src/stm32h5xx_hal_dma.c ****           (+) __HAL_DMA_GET_FLAG      : Get the DMA Channel pending flags.
 175:Drivers/STM32H5xx_HAL_Driver/Src/stm32h5xx_hal_dma.c ****           (+) __HAL_DMA_CLEAR_FLAG    : Clear the DMA Channel pending flags.
 176:Drivers/STM32H5xx_HAL_Driver/Src/stm32h5xx_hal_dma.c ****           (+) __HAL_DMA_ENABLE_IT     : Enable the specified DMA Channel interrupts.
 177:Drivers/STM32H5xx_HAL_Driver/Src/stm32h5xx_hal_dma.c ****           (+) __HAL_DMA_DISABLE_IT    : Disable the specified DMA Channel interrupts.
 178:Drivers/STM32H5xx_HAL_Driver/Src/stm32h5xx_hal_dma.c ****           (+) __HAL_DMA_GET_IT_SOURCE : Check whether the specified DMA Channel interrupt has occur
 179:Drivers/STM32H5xx_HAL_Driver/Src/stm32h5xx_hal_dma.c **** 
 180:Drivers/STM32H5xx_HAL_Driver/Src/stm32h5xx_hal_dma.c ****     [..]
 181:Drivers/STM32H5xx_HAL_Driver/Src/stm32h5xx_hal_dma.c ****      (@) You can refer to the header file of the DMA HAL driver for more useful macros.
 182:Drivers/STM32H5xx_HAL_Driver/Src/stm32h5xx_hal_dma.c **** 
 183:Drivers/STM32H5xx_HAL_Driver/Src/stm32h5xx_hal_dma.c ****     @endverbatim
 184:Drivers/STM32H5xx_HAL_Driver/Src/stm32h5xx_hal_dma.c ****   *************************************************************************************************
 185:Drivers/STM32H5xx_HAL_Driver/Src/stm32h5xx_hal_dma.c ****   */
 186:Drivers/STM32H5xx_HAL_Driver/Src/stm32h5xx_hal_dma.c **** 
 187:Drivers/STM32H5xx_HAL_Driver/Src/stm32h5xx_hal_dma.c **** /* Includes ---------------------------------------------------------------------------------------
 188:Drivers/STM32H5xx_HAL_Driver/Src/stm32h5xx_hal_dma.c **** #include "stm32h5xx_hal.h"
 189:Drivers/STM32H5xx_HAL_Driver/Src/stm32h5xx_hal_dma.c **** 
 190:Drivers/STM32H5xx_HAL_Driver/Src/stm32h5xx_hal_dma.c **** /** @addtogroup STM32H5xx_HAL_Driver
 191:Drivers/STM32H5xx_HAL_Driver/Src/stm32h5xx_hal_dma.c ****   * @{
 192:Drivers/STM32H5xx_HAL_Driver/Src/stm32h5xx_hal_dma.c ****   */
 193:Drivers/STM32H5xx_HAL_Driver/Src/stm32h5xx_hal_dma.c **** 
 194:Drivers/STM32H5xx_HAL_Driver/Src/stm32h5xx_hal_dma.c **** /** @defgroup DMA DMA
 195:Drivers/STM32H5xx_HAL_Driver/Src/stm32h5xx_hal_dma.c ****   * @brief DMA HAL module driver
 196:Drivers/STM32H5xx_HAL_Driver/Src/stm32h5xx_hal_dma.c ****   * @{
 197:Drivers/STM32H5xx_HAL_Driver/Src/stm32h5xx_hal_dma.c ****   */
 198:Drivers/STM32H5xx_HAL_Driver/Src/stm32h5xx_hal_dma.c **** 
 199:Drivers/STM32H5xx_HAL_Driver/Src/stm32h5xx_hal_dma.c **** #ifdef HAL_DMA_MODULE_ENABLED
 200:Drivers/STM32H5xx_HAL_Driver/Src/stm32h5xx_hal_dma.c **** 
ARM GAS  /tmp/ccQkXeUE.s 			page 5


 201:Drivers/STM32H5xx_HAL_Driver/Src/stm32h5xx_hal_dma.c **** /* Private typedef --------------------------------------------------------------------------------
 202:Drivers/STM32H5xx_HAL_Driver/Src/stm32h5xx_hal_dma.c **** /* Private constants ------------------------------------------------------------------------------
 203:Drivers/STM32H5xx_HAL_Driver/Src/stm32h5xx_hal_dma.c **** /* Private macro ----------------------------------------------------------------------------------
 204:Drivers/STM32H5xx_HAL_Driver/Src/stm32h5xx_hal_dma.c **** /* Private variables ------------------------------------------------------------------------------
 205:Drivers/STM32H5xx_HAL_Driver/Src/stm32h5xx_hal_dma.c **** /* Private function prototypes --------------------------------------------------------------------
 206:Drivers/STM32H5xx_HAL_Driver/Src/stm32h5xx_hal_dma.c **** static void DMA_SetConfig(DMA_HandleTypeDef const *const hdma,
 207:Drivers/STM32H5xx_HAL_Driver/Src/stm32h5xx_hal_dma.c ****                           uint32_t SrcAddress,
 208:Drivers/STM32H5xx_HAL_Driver/Src/stm32h5xx_hal_dma.c ****                           uint32_t DstAddress,
 209:Drivers/STM32H5xx_HAL_Driver/Src/stm32h5xx_hal_dma.c ****                           uint32_t SrcDataSize);
 210:Drivers/STM32H5xx_HAL_Driver/Src/stm32h5xx_hal_dma.c **** static void DMA_Init(DMA_HandleTypeDef const *const hdma);
 211:Drivers/STM32H5xx_HAL_Driver/Src/stm32h5xx_hal_dma.c **** 
 212:Drivers/STM32H5xx_HAL_Driver/Src/stm32h5xx_hal_dma.c **** /* Exported functions -----------------------------------------------------------------------------
 213:Drivers/STM32H5xx_HAL_Driver/Src/stm32h5xx_hal_dma.c **** 
 214:Drivers/STM32H5xx_HAL_Driver/Src/stm32h5xx_hal_dma.c **** /** @addtogroup DMA_Exported_Functions DMA Exported Functions
 215:Drivers/STM32H5xx_HAL_Driver/Src/stm32h5xx_hal_dma.c ****   * @{
 216:Drivers/STM32H5xx_HAL_Driver/Src/stm32h5xx_hal_dma.c ****   */
 217:Drivers/STM32H5xx_HAL_Driver/Src/stm32h5xx_hal_dma.c **** 
 218:Drivers/STM32H5xx_HAL_Driver/Src/stm32h5xx_hal_dma.c **** /** @addtogroup DMA_Exported_Functions_Group1
 219:Drivers/STM32H5xx_HAL_Driver/Src/stm32h5xx_hal_dma.c ****   *
 220:Drivers/STM32H5xx_HAL_Driver/Src/stm32h5xx_hal_dma.c **** @verbatim
 221:Drivers/STM32H5xx_HAL_Driver/Src/stm32h5xx_hal_dma.c ****   =================================================================================================
 222:Drivers/STM32H5xx_HAL_Driver/Src/stm32h5xx_hal_dma.c ****                        ##### Initialization and de-initialization functions #####
 223:Drivers/STM32H5xx_HAL_Driver/Src/stm32h5xx_hal_dma.c ****   =================================================================================================
 224:Drivers/STM32H5xx_HAL_Driver/Src/stm32h5xx_hal_dma.c ****     [..]
 225:Drivers/STM32H5xx_HAL_Driver/Src/stm32h5xx_hal_dma.c ****       This section provides functions allowing to initialize and de-initialize the DMA channel in n
 226:Drivers/STM32H5xx_HAL_Driver/Src/stm32h5xx_hal_dma.c **** 
 227:Drivers/STM32H5xx_HAL_Driver/Src/stm32h5xx_hal_dma.c ****     [..]
 228:Drivers/STM32H5xx_HAL_Driver/Src/stm32h5xx_hal_dma.c ****       (+) The HAL_DMA_Init() function follows the DMA channel configuration procedures as described
 229:Drivers/STM32H5xx_HAL_Driver/Src/stm32h5xx_hal_dma.c ****       (+) The HAL_DMA_DeInit() function allows to de-initialize the DMA channel.
 230:Drivers/STM32H5xx_HAL_Driver/Src/stm32h5xx_hal_dma.c **** 
 231:Drivers/STM32H5xx_HAL_Driver/Src/stm32h5xx_hal_dma.c **** @endverbatim
 232:Drivers/STM32H5xx_HAL_Driver/Src/stm32h5xx_hal_dma.c ****   * @{
 233:Drivers/STM32H5xx_HAL_Driver/Src/stm32h5xx_hal_dma.c ****   */
 234:Drivers/STM32H5xx_HAL_Driver/Src/stm32h5xx_hal_dma.c **** 
 235:Drivers/STM32H5xx_HAL_Driver/Src/stm32h5xx_hal_dma.c **** /**
 236:Drivers/STM32H5xx_HAL_Driver/Src/stm32h5xx_hal_dma.c ****   * @brief  Initialize the DMA channel in normal mode according to the specified parameters in the 
 237:Drivers/STM32H5xx_HAL_Driver/Src/stm32h5xx_hal_dma.c ****   *         create the associated handle.
 238:Drivers/STM32H5xx_HAL_Driver/Src/stm32h5xx_hal_dma.c ****   * @param  hdma : Pointer to a DMA_HandleTypeDef structure that contains the configuration informa
 239:Drivers/STM32H5xx_HAL_Driver/Src/stm32h5xx_hal_dma.c ****   *                specified DMA Channel.
 240:Drivers/STM32H5xx_HAL_Driver/Src/stm32h5xx_hal_dma.c ****   * @retval HAL status.
 241:Drivers/STM32H5xx_HAL_Driver/Src/stm32h5xx_hal_dma.c ****   */
 242:Drivers/STM32H5xx_HAL_Driver/Src/stm32h5xx_hal_dma.c **** HAL_StatusTypeDef HAL_DMA_Init(DMA_HandleTypeDef *const hdma)
 243:Drivers/STM32H5xx_HAL_Driver/Src/stm32h5xx_hal_dma.c **** {
 244:Drivers/STM32H5xx_HAL_Driver/Src/stm32h5xx_hal_dma.c ****   /* Get tick number */
 245:Drivers/STM32H5xx_HAL_Driver/Src/stm32h5xx_hal_dma.c ****   uint32_t tickstart = HAL_GetTick();
 246:Drivers/STM32H5xx_HAL_Driver/Src/stm32h5xx_hal_dma.c **** 
 247:Drivers/STM32H5xx_HAL_Driver/Src/stm32h5xx_hal_dma.c ****   /* Check the DMA peripheral handle parameter */
 248:Drivers/STM32H5xx_HAL_Driver/Src/stm32h5xx_hal_dma.c ****   if (hdma == NULL)
 249:Drivers/STM32H5xx_HAL_Driver/Src/stm32h5xx_hal_dma.c ****   {
 250:Drivers/STM32H5xx_HAL_Driver/Src/stm32h5xx_hal_dma.c ****     return HAL_ERROR;
 251:Drivers/STM32H5xx_HAL_Driver/Src/stm32h5xx_hal_dma.c ****   }
 252:Drivers/STM32H5xx_HAL_Driver/Src/stm32h5xx_hal_dma.c **** 
 253:Drivers/STM32H5xx_HAL_Driver/Src/stm32h5xx_hal_dma.c ****   /* Check the parameters */
 254:Drivers/STM32H5xx_HAL_Driver/Src/stm32h5xx_hal_dma.c ****   assert_param(IS_DMA_ALL_INSTANCE(hdma->Instance));
 255:Drivers/STM32H5xx_HAL_Driver/Src/stm32h5xx_hal_dma.c ****   assert_param(IS_DMA_DIRECTION(hdma->Init.Direction));
 256:Drivers/STM32H5xx_HAL_Driver/Src/stm32h5xx_hal_dma.c ****   if (hdma->Init.Direction != DMA_MEMORY_TO_MEMORY)
 257:Drivers/STM32H5xx_HAL_Driver/Src/stm32h5xx_hal_dma.c ****   {
ARM GAS  /tmp/ccQkXeUE.s 			page 6


 258:Drivers/STM32H5xx_HAL_Driver/Src/stm32h5xx_hal_dma.c ****     assert_param(IS_DMA_REQUEST(hdma->Init.Request));
 259:Drivers/STM32H5xx_HAL_Driver/Src/stm32h5xx_hal_dma.c ****   }
 260:Drivers/STM32H5xx_HAL_Driver/Src/stm32h5xx_hal_dma.c ****   assert_param(IS_DMA_BLOCK_HW_REQUEST(hdma->Init.BlkHWRequest));
 261:Drivers/STM32H5xx_HAL_Driver/Src/stm32h5xx_hal_dma.c ****   assert_param(IS_DMA_SOURCE_INC(hdma->Init.SrcInc));
 262:Drivers/STM32H5xx_HAL_Driver/Src/stm32h5xx_hal_dma.c ****   assert_param(IS_DMA_DESTINATION_INC(hdma->Init.DestInc));
 263:Drivers/STM32H5xx_HAL_Driver/Src/stm32h5xx_hal_dma.c ****   assert_param(IS_DMA_SOURCE_DATA_WIDTH(hdma->Init.SrcDataWidth));
 264:Drivers/STM32H5xx_HAL_Driver/Src/stm32h5xx_hal_dma.c ****   assert_param(IS_DMA_DESTINATION_DATA_WIDTH(hdma->Init.DestDataWidth));
 265:Drivers/STM32H5xx_HAL_Driver/Src/stm32h5xx_hal_dma.c ****   assert_param(IS_DMA_PRIORITY(hdma->Init.Priority));
 266:Drivers/STM32H5xx_HAL_Driver/Src/stm32h5xx_hal_dma.c ****   assert_param(IS_DMA_TCEM_EVENT_MODE(hdma->Init.TransferEventMode));
 267:Drivers/STM32H5xx_HAL_Driver/Src/stm32h5xx_hal_dma.c ****   assert_param(IS_DMA_MODE(hdma->Init.Mode));
 268:Drivers/STM32H5xx_HAL_Driver/Src/stm32h5xx_hal_dma.c ****   if (hdma->Init.Mode == DMA_PFCTRL)
 269:Drivers/STM32H5xx_HAL_Driver/Src/stm32h5xx_hal_dma.c ****   {
 270:Drivers/STM32H5xx_HAL_Driver/Src/stm32h5xx_hal_dma.c ****     assert_param(IS_DMA_PFREQ_INSTANCE(hdma->Instance));
 271:Drivers/STM32H5xx_HAL_Driver/Src/stm32h5xx_hal_dma.c ****   }
 272:Drivers/STM32H5xx_HAL_Driver/Src/stm32h5xx_hal_dma.c ****   /* Check DMA channel instance */
 273:Drivers/STM32H5xx_HAL_Driver/Src/stm32h5xx_hal_dma.c ****   if (IS_GPDMA_INSTANCE(hdma->Instance) != 0U)
 274:Drivers/STM32H5xx_HAL_Driver/Src/stm32h5xx_hal_dma.c ****   {
 275:Drivers/STM32H5xx_HAL_Driver/Src/stm32h5xx_hal_dma.c ****     assert_param(IS_DMA_BURST_LENGTH(hdma->Init.SrcBurstLength));
 276:Drivers/STM32H5xx_HAL_Driver/Src/stm32h5xx_hal_dma.c ****     assert_param(IS_DMA_BURST_LENGTH(hdma->Init.DestBurstLength));
 277:Drivers/STM32H5xx_HAL_Driver/Src/stm32h5xx_hal_dma.c ****     assert_param(IS_DMA_TRANSFER_ALLOCATED_PORT(hdma->Init.TransferAllocatedPort));
 278:Drivers/STM32H5xx_HAL_Driver/Src/stm32h5xx_hal_dma.c ****   }
 279:Drivers/STM32H5xx_HAL_Driver/Src/stm32h5xx_hal_dma.c **** 
 280:Drivers/STM32H5xx_HAL_Driver/Src/stm32h5xx_hal_dma.c ****   /* Allocate lock resource */
 281:Drivers/STM32H5xx_HAL_Driver/Src/stm32h5xx_hal_dma.c ****   __HAL_UNLOCK(hdma);
 282:Drivers/STM32H5xx_HAL_Driver/Src/stm32h5xx_hal_dma.c **** 
 283:Drivers/STM32H5xx_HAL_Driver/Src/stm32h5xx_hal_dma.c ****   /* Update the DMA channel state */
 284:Drivers/STM32H5xx_HAL_Driver/Src/stm32h5xx_hal_dma.c ****   hdma->State = HAL_DMA_STATE_BUSY;
 285:Drivers/STM32H5xx_HAL_Driver/Src/stm32h5xx_hal_dma.c **** 
 286:Drivers/STM32H5xx_HAL_Driver/Src/stm32h5xx_hal_dma.c ****   /* Disable the DMA channel */
 287:Drivers/STM32H5xx_HAL_Driver/Src/stm32h5xx_hal_dma.c ****   __HAL_DMA_DISABLE(hdma);
 288:Drivers/STM32H5xx_HAL_Driver/Src/stm32h5xx_hal_dma.c **** 
 289:Drivers/STM32H5xx_HAL_Driver/Src/stm32h5xx_hal_dma.c ****   /* Check if the DMA channel is effectively disabled */
 290:Drivers/STM32H5xx_HAL_Driver/Src/stm32h5xx_hal_dma.c ****   while ((hdma->Instance->CCR & DMA_CCR_EN) != 0U)
 291:Drivers/STM32H5xx_HAL_Driver/Src/stm32h5xx_hal_dma.c ****   {
 292:Drivers/STM32H5xx_HAL_Driver/Src/stm32h5xx_hal_dma.c ****     /* Check for the Timeout */
 293:Drivers/STM32H5xx_HAL_Driver/Src/stm32h5xx_hal_dma.c ****     if ((HAL_GetTick() - tickstart) > HAL_TIMEOUT_DMA_ABORT)
 294:Drivers/STM32H5xx_HAL_Driver/Src/stm32h5xx_hal_dma.c ****     {
 295:Drivers/STM32H5xx_HAL_Driver/Src/stm32h5xx_hal_dma.c ****       /* Update the DMA channel error code */
 296:Drivers/STM32H5xx_HAL_Driver/Src/stm32h5xx_hal_dma.c ****       hdma->ErrorCode = HAL_DMA_ERROR_TIMEOUT;
 297:Drivers/STM32H5xx_HAL_Driver/Src/stm32h5xx_hal_dma.c **** 
 298:Drivers/STM32H5xx_HAL_Driver/Src/stm32h5xx_hal_dma.c ****       /* Update the DMA channel state */
 299:Drivers/STM32H5xx_HAL_Driver/Src/stm32h5xx_hal_dma.c ****       hdma->State = HAL_DMA_STATE_ERROR;
 300:Drivers/STM32H5xx_HAL_Driver/Src/stm32h5xx_hal_dma.c **** 
 301:Drivers/STM32H5xx_HAL_Driver/Src/stm32h5xx_hal_dma.c ****       return HAL_ERROR;
 302:Drivers/STM32H5xx_HAL_Driver/Src/stm32h5xx_hal_dma.c ****     }
 303:Drivers/STM32H5xx_HAL_Driver/Src/stm32h5xx_hal_dma.c ****   }
 304:Drivers/STM32H5xx_HAL_Driver/Src/stm32h5xx_hal_dma.c **** 
 305:Drivers/STM32H5xx_HAL_Driver/Src/stm32h5xx_hal_dma.c ****   /* Initialize the DMA channel registers */
 306:Drivers/STM32H5xx_HAL_Driver/Src/stm32h5xx_hal_dma.c ****   DMA_Init(hdma);
 307:Drivers/STM32H5xx_HAL_Driver/Src/stm32h5xx_hal_dma.c **** 
 308:Drivers/STM32H5xx_HAL_Driver/Src/stm32h5xx_hal_dma.c ****   /* Update DMA channel operation mode */
 309:Drivers/STM32H5xx_HAL_Driver/Src/stm32h5xx_hal_dma.c ****   hdma->Mode = hdma->Init.Mode;
 310:Drivers/STM32H5xx_HAL_Driver/Src/stm32h5xx_hal_dma.c **** 
 311:Drivers/STM32H5xx_HAL_Driver/Src/stm32h5xx_hal_dma.c ****   /* Update the DMA channel error code */
 312:Drivers/STM32H5xx_HAL_Driver/Src/stm32h5xx_hal_dma.c ****   hdma->ErrorCode = HAL_DMA_ERROR_NONE;
 313:Drivers/STM32H5xx_HAL_Driver/Src/stm32h5xx_hal_dma.c **** 
 314:Drivers/STM32H5xx_HAL_Driver/Src/stm32h5xx_hal_dma.c ****   /* Update the DMA channel state */
ARM GAS  /tmp/ccQkXeUE.s 			page 7


 315:Drivers/STM32H5xx_HAL_Driver/Src/stm32h5xx_hal_dma.c ****   hdma->State = HAL_DMA_STATE_READY;
 316:Drivers/STM32H5xx_HAL_Driver/Src/stm32h5xx_hal_dma.c **** 
 317:Drivers/STM32H5xx_HAL_Driver/Src/stm32h5xx_hal_dma.c ****   return HAL_OK;
 318:Drivers/STM32H5xx_HAL_Driver/Src/stm32h5xx_hal_dma.c **** }
 319:Drivers/STM32H5xx_HAL_Driver/Src/stm32h5xx_hal_dma.c **** 
 320:Drivers/STM32H5xx_HAL_Driver/Src/stm32h5xx_hal_dma.c **** /**
 321:Drivers/STM32H5xx_HAL_Driver/Src/stm32h5xx_hal_dma.c ****   * @brief  DeInitialize the DMA channel when it is configured in normal mode.
 322:Drivers/STM32H5xx_HAL_Driver/Src/stm32h5xx_hal_dma.c ****   * @param  hdma : Pointer to a DMA_HandleTypeDef structure that contains the configuration informa
 323:Drivers/STM32H5xx_HAL_Driver/Src/stm32h5xx_hal_dma.c ****   *                specified DMA Channel.
 324:Drivers/STM32H5xx_HAL_Driver/Src/stm32h5xx_hal_dma.c ****   * @retval HAL status.
 325:Drivers/STM32H5xx_HAL_Driver/Src/stm32h5xx_hal_dma.c ****   */
 326:Drivers/STM32H5xx_HAL_Driver/Src/stm32h5xx_hal_dma.c **** HAL_StatusTypeDef HAL_DMA_DeInit(DMA_HandleTypeDef *const hdma)
 327:Drivers/STM32H5xx_HAL_Driver/Src/stm32h5xx_hal_dma.c **** {
 328:Drivers/STM32H5xx_HAL_Driver/Src/stm32h5xx_hal_dma.c **** 
 329:Drivers/STM32H5xx_HAL_Driver/Src/stm32h5xx_hal_dma.c ****   DMA_TypeDef *p_dma_instance;
 330:Drivers/STM32H5xx_HAL_Driver/Src/stm32h5xx_hal_dma.c **** 
 331:Drivers/STM32H5xx_HAL_Driver/Src/stm32h5xx_hal_dma.c ****   uint32_t tickstart = HAL_GetTick();
 332:Drivers/STM32H5xx_HAL_Driver/Src/stm32h5xx_hal_dma.c **** 
 333:Drivers/STM32H5xx_HAL_Driver/Src/stm32h5xx_hal_dma.c ****   /* Check the DMA peripheral handle parameter */
 334:Drivers/STM32H5xx_HAL_Driver/Src/stm32h5xx_hal_dma.c ****   if (hdma == NULL)
 335:Drivers/STM32H5xx_HAL_Driver/Src/stm32h5xx_hal_dma.c ****   {
 336:Drivers/STM32H5xx_HAL_Driver/Src/stm32h5xx_hal_dma.c ****     return HAL_ERROR;
 337:Drivers/STM32H5xx_HAL_Driver/Src/stm32h5xx_hal_dma.c ****   }
 338:Drivers/STM32H5xx_HAL_Driver/Src/stm32h5xx_hal_dma.c **** 
 339:Drivers/STM32H5xx_HAL_Driver/Src/stm32h5xx_hal_dma.c ****   /* Check the parameters */
 340:Drivers/STM32H5xx_HAL_Driver/Src/stm32h5xx_hal_dma.c ****   assert_param(IS_DMA_ALL_INSTANCE(hdma->Instance));
 341:Drivers/STM32H5xx_HAL_Driver/Src/stm32h5xx_hal_dma.c **** 
 342:Drivers/STM32H5xx_HAL_Driver/Src/stm32h5xx_hal_dma.c ****   /* Get DMA instance */
 343:Drivers/STM32H5xx_HAL_Driver/Src/stm32h5xx_hal_dma.c ****   p_dma_instance = GET_DMA_INSTANCE(hdma);
 344:Drivers/STM32H5xx_HAL_Driver/Src/stm32h5xx_hal_dma.c **** 
 345:Drivers/STM32H5xx_HAL_Driver/Src/stm32h5xx_hal_dma.c ****   /* Disable the selected DMA Channel */
 346:Drivers/STM32H5xx_HAL_Driver/Src/stm32h5xx_hal_dma.c ****   __HAL_DMA_DISABLE(hdma);
 347:Drivers/STM32H5xx_HAL_Driver/Src/stm32h5xx_hal_dma.c **** 
 348:Drivers/STM32H5xx_HAL_Driver/Src/stm32h5xx_hal_dma.c ****   /* Check if the DMA channel is effectively disabled */
 349:Drivers/STM32H5xx_HAL_Driver/Src/stm32h5xx_hal_dma.c ****   while ((hdma->Instance->CCR & DMA_CCR_EN) != 0U)
 350:Drivers/STM32H5xx_HAL_Driver/Src/stm32h5xx_hal_dma.c ****   {
 351:Drivers/STM32H5xx_HAL_Driver/Src/stm32h5xx_hal_dma.c ****     /* Check for the Timeout */
 352:Drivers/STM32H5xx_HAL_Driver/Src/stm32h5xx_hal_dma.c ****     if ((HAL_GetTick() - tickstart) > HAL_TIMEOUT_DMA_ABORT)
 353:Drivers/STM32H5xx_HAL_Driver/Src/stm32h5xx_hal_dma.c ****     {
 354:Drivers/STM32H5xx_HAL_Driver/Src/stm32h5xx_hal_dma.c ****       /* Update the DMA channel error code */
 355:Drivers/STM32H5xx_HAL_Driver/Src/stm32h5xx_hal_dma.c ****       hdma->ErrorCode = HAL_DMA_ERROR_TIMEOUT;
 356:Drivers/STM32H5xx_HAL_Driver/Src/stm32h5xx_hal_dma.c **** 
 357:Drivers/STM32H5xx_HAL_Driver/Src/stm32h5xx_hal_dma.c ****       /* Update the DMA channel state */
 358:Drivers/STM32H5xx_HAL_Driver/Src/stm32h5xx_hal_dma.c ****       hdma->State = HAL_DMA_STATE_ERROR;
 359:Drivers/STM32H5xx_HAL_Driver/Src/stm32h5xx_hal_dma.c **** 
 360:Drivers/STM32H5xx_HAL_Driver/Src/stm32h5xx_hal_dma.c ****       return HAL_ERROR;
 361:Drivers/STM32H5xx_HAL_Driver/Src/stm32h5xx_hal_dma.c ****     }
 362:Drivers/STM32H5xx_HAL_Driver/Src/stm32h5xx_hal_dma.c ****   }
 363:Drivers/STM32H5xx_HAL_Driver/Src/stm32h5xx_hal_dma.c **** 
 364:Drivers/STM32H5xx_HAL_Driver/Src/stm32h5xx_hal_dma.c ****   /* Reset DMA Channel registers */
 365:Drivers/STM32H5xx_HAL_Driver/Src/stm32h5xx_hal_dma.c ****   hdma->Instance->CLBAR = 0U;
 366:Drivers/STM32H5xx_HAL_Driver/Src/stm32h5xx_hal_dma.c ****   hdma->Instance->CCR   = 0U;
 367:Drivers/STM32H5xx_HAL_Driver/Src/stm32h5xx_hal_dma.c ****   hdma->Instance->CTR1  = 0U;
 368:Drivers/STM32H5xx_HAL_Driver/Src/stm32h5xx_hal_dma.c ****   hdma->Instance->CTR2  = 0U;
 369:Drivers/STM32H5xx_HAL_Driver/Src/stm32h5xx_hal_dma.c ****   hdma->Instance->CBR1  = 0U;
 370:Drivers/STM32H5xx_HAL_Driver/Src/stm32h5xx_hal_dma.c ****   hdma->Instance->CSAR  = 0U;
 371:Drivers/STM32H5xx_HAL_Driver/Src/stm32h5xx_hal_dma.c ****   hdma->Instance->CDAR  = 0U;
ARM GAS  /tmp/ccQkXeUE.s 			page 8


 372:Drivers/STM32H5xx_HAL_Driver/Src/stm32h5xx_hal_dma.c ****   hdma->Instance->CLLR  = 0U;
 373:Drivers/STM32H5xx_HAL_Driver/Src/stm32h5xx_hal_dma.c **** 
 374:Drivers/STM32H5xx_HAL_Driver/Src/stm32h5xx_hal_dma.c ****   /* Reset 2D Addressing registers */
 375:Drivers/STM32H5xx_HAL_Driver/Src/stm32h5xx_hal_dma.c ****   if (IS_DMA_2D_ADDRESSING_INSTANCE(hdma->Instance) != 0U)
 376:Drivers/STM32H5xx_HAL_Driver/Src/stm32h5xx_hal_dma.c ****   {
 377:Drivers/STM32H5xx_HAL_Driver/Src/stm32h5xx_hal_dma.c ****     hdma->Instance->CTR3 = 0U;
 378:Drivers/STM32H5xx_HAL_Driver/Src/stm32h5xx_hal_dma.c ****     hdma->Instance->CBR2 = 0U;
 379:Drivers/STM32H5xx_HAL_Driver/Src/stm32h5xx_hal_dma.c ****   }
 380:Drivers/STM32H5xx_HAL_Driver/Src/stm32h5xx_hal_dma.c **** 
 381:Drivers/STM32H5xx_HAL_Driver/Src/stm32h5xx_hal_dma.c ****   /* Clear privilege attribute */
 382:Drivers/STM32H5xx_HAL_Driver/Src/stm32h5xx_hal_dma.c ****   CLEAR_BIT(p_dma_instance->PRIVCFGR, (1UL << (GET_DMA_CHANNEL(hdma) & 0x1FU)));
 383:Drivers/STM32H5xx_HAL_Driver/Src/stm32h5xx_hal_dma.c **** 
 384:Drivers/STM32H5xx_HAL_Driver/Src/stm32h5xx_hal_dma.c **** #if defined (__ARM_FEATURE_CMSE) && (__ARM_FEATURE_CMSE == 3U)
 385:Drivers/STM32H5xx_HAL_Driver/Src/stm32h5xx_hal_dma.c ****   /* Clear secure attribute */
 386:Drivers/STM32H5xx_HAL_Driver/Src/stm32h5xx_hal_dma.c ****   CLEAR_BIT(p_dma_instance->SECCFGR, (1UL << (GET_DMA_CHANNEL(hdma) & 0x1FU)));
 387:Drivers/STM32H5xx_HAL_Driver/Src/stm32h5xx_hal_dma.c **** #endif /* (__ARM_FEATURE_CMSE) && (__ARM_FEATURE_CMSE == 3U) */
 388:Drivers/STM32H5xx_HAL_Driver/Src/stm32h5xx_hal_dma.c **** 
 389:Drivers/STM32H5xx_HAL_Driver/Src/stm32h5xx_hal_dma.c ****   /* Clear all flags */
 390:Drivers/STM32H5xx_HAL_Driver/Src/stm32h5xx_hal_dma.c ****   __HAL_DMA_CLEAR_FLAG(hdma, (DMA_FLAG_TC | DMA_FLAG_HT | DMA_FLAG_DTE | DMA_FLAG_ULE | DMA_FLAG_US
 391:Drivers/STM32H5xx_HAL_Driver/Src/stm32h5xx_hal_dma.c ****                               DMA_FLAG_TO));
 392:Drivers/STM32H5xx_HAL_Driver/Src/stm32h5xx_hal_dma.c **** 
 393:Drivers/STM32H5xx_HAL_Driver/Src/stm32h5xx_hal_dma.c ****   /* Clean all callbacks */
 394:Drivers/STM32H5xx_HAL_Driver/Src/stm32h5xx_hal_dma.c ****   hdma->XferCpltCallback     = NULL;
 395:Drivers/STM32H5xx_HAL_Driver/Src/stm32h5xx_hal_dma.c ****   hdma->XferHalfCpltCallback = NULL;
 396:Drivers/STM32H5xx_HAL_Driver/Src/stm32h5xx_hal_dma.c ****   hdma->XferErrorCallback    = NULL;
 397:Drivers/STM32H5xx_HAL_Driver/Src/stm32h5xx_hal_dma.c ****   hdma->XferAbortCallback    = NULL;
 398:Drivers/STM32H5xx_HAL_Driver/Src/stm32h5xx_hal_dma.c ****   hdma->XferSuspendCallback  = NULL;
 399:Drivers/STM32H5xx_HAL_Driver/Src/stm32h5xx_hal_dma.c **** 
 400:Drivers/STM32H5xx_HAL_Driver/Src/stm32h5xx_hal_dma.c ****   /* Clean DMA queue */
 401:Drivers/STM32H5xx_HAL_Driver/Src/stm32h5xx_hal_dma.c ****   hdma->LinkedListQueue = NULL;
 402:Drivers/STM32H5xx_HAL_Driver/Src/stm32h5xx_hal_dma.c **** 
 403:Drivers/STM32H5xx_HAL_Driver/Src/stm32h5xx_hal_dma.c ****   /* Clean DMA parent */
 404:Drivers/STM32H5xx_HAL_Driver/Src/stm32h5xx_hal_dma.c ****   if (hdma->Parent != NULL)
 405:Drivers/STM32H5xx_HAL_Driver/Src/stm32h5xx_hal_dma.c ****   {
 406:Drivers/STM32H5xx_HAL_Driver/Src/stm32h5xx_hal_dma.c ****     hdma->Parent = NULL;
 407:Drivers/STM32H5xx_HAL_Driver/Src/stm32h5xx_hal_dma.c ****   }
 408:Drivers/STM32H5xx_HAL_Driver/Src/stm32h5xx_hal_dma.c **** 
 409:Drivers/STM32H5xx_HAL_Driver/Src/stm32h5xx_hal_dma.c ****   /* Update DMA channel operation mode */
 410:Drivers/STM32H5xx_HAL_Driver/Src/stm32h5xx_hal_dma.c ****   hdma->Mode = DMA_NORMAL;
 411:Drivers/STM32H5xx_HAL_Driver/Src/stm32h5xx_hal_dma.c **** 
 412:Drivers/STM32H5xx_HAL_Driver/Src/stm32h5xx_hal_dma.c ****   /* Update the DMA channel error code */
 413:Drivers/STM32H5xx_HAL_Driver/Src/stm32h5xx_hal_dma.c ****   hdma->ErrorCode = HAL_DMA_ERROR_NONE;
 414:Drivers/STM32H5xx_HAL_Driver/Src/stm32h5xx_hal_dma.c **** 
 415:Drivers/STM32H5xx_HAL_Driver/Src/stm32h5xx_hal_dma.c ****   /* Update the DMA channel state */
 416:Drivers/STM32H5xx_HAL_Driver/Src/stm32h5xx_hal_dma.c ****   hdma->State = HAL_DMA_STATE_RESET;
 417:Drivers/STM32H5xx_HAL_Driver/Src/stm32h5xx_hal_dma.c **** 
 418:Drivers/STM32H5xx_HAL_Driver/Src/stm32h5xx_hal_dma.c ****   /* Release Lock */
 419:Drivers/STM32H5xx_HAL_Driver/Src/stm32h5xx_hal_dma.c ****   __HAL_UNLOCK(hdma);
 420:Drivers/STM32H5xx_HAL_Driver/Src/stm32h5xx_hal_dma.c **** 
 421:Drivers/STM32H5xx_HAL_Driver/Src/stm32h5xx_hal_dma.c ****   return HAL_OK;
 422:Drivers/STM32H5xx_HAL_Driver/Src/stm32h5xx_hal_dma.c **** }
 423:Drivers/STM32H5xx_HAL_Driver/Src/stm32h5xx_hal_dma.c **** /**
 424:Drivers/STM32H5xx_HAL_Driver/Src/stm32h5xx_hal_dma.c ****   * @}
 425:Drivers/STM32H5xx_HAL_Driver/Src/stm32h5xx_hal_dma.c ****   */
 426:Drivers/STM32H5xx_HAL_Driver/Src/stm32h5xx_hal_dma.c **** 
 427:Drivers/STM32H5xx_HAL_Driver/Src/stm32h5xx_hal_dma.c **** /** @addtogroup DMA_Exported_Functions_Group2
 428:Drivers/STM32H5xx_HAL_Driver/Src/stm32h5xx_hal_dma.c ****   *
ARM GAS  /tmp/ccQkXeUE.s 			page 9


 429:Drivers/STM32H5xx_HAL_Driver/Src/stm32h5xx_hal_dma.c **** @verbatim
 430:Drivers/STM32H5xx_HAL_Driver/Src/stm32h5xx_hal_dma.c ****   =================================================================================================
 431:Drivers/STM32H5xx_HAL_Driver/Src/stm32h5xx_hal_dma.c ****                                 ##### IO operation functions #####
 432:Drivers/STM32H5xx_HAL_Driver/Src/stm32h5xx_hal_dma.c ****   =================================================================================================
 433:Drivers/STM32H5xx_HAL_Driver/Src/stm32h5xx_hal_dma.c ****     [..]
 434:Drivers/STM32H5xx_HAL_Driver/Src/stm32h5xx_hal_dma.c ****       This section provides functions allowing to :
 435:Drivers/STM32H5xx_HAL_Driver/Src/stm32h5xx_hal_dma.c ****       (+) Configure the source, destination address and data size and Start DMA transfer in normal 
 436:Drivers/STM32H5xx_HAL_Driver/Src/stm32h5xx_hal_dma.c ****       (+) Abort DMA transfer
 437:Drivers/STM32H5xx_HAL_Driver/Src/stm32h5xx_hal_dma.c ****       (+) Poll for transfer complete
 438:Drivers/STM32H5xx_HAL_Driver/Src/stm32h5xx_hal_dma.c ****       (+) Handle DMA interrupt request
 439:Drivers/STM32H5xx_HAL_Driver/Src/stm32h5xx_hal_dma.c ****       (+) Register and Unregister DMA callbacks
 440:Drivers/STM32H5xx_HAL_Driver/Src/stm32h5xx_hal_dma.c **** 
 441:Drivers/STM32H5xx_HAL_Driver/Src/stm32h5xx_hal_dma.c ****     [..]
 442:Drivers/STM32H5xx_HAL_Driver/Src/stm32h5xx_hal_dma.c ****       (+) The HAL_DMA_Start() function allows to start the DMA channel transfer in normal mode (Blo
 443:Drivers/STM32H5xx_HAL_Driver/Src/stm32h5xx_hal_dma.c ****       (+) The HAL_DMA_Start_IT() function allows to start the DMA channel transfer in normal mode (
 444:Drivers/STM32H5xx_HAL_Driver/Src/stm32h5xx_hal_dma.c ****       (+) The HAL_DMA_Abort() function allows to abort any on-going transfer (Blocking mode).
 445:Drivers/STM32H5xx_HAL_Driver/Src/stm32h5xx_hal_dma.c ****       (+) The HAL_DMA_Abort_IT() function allows to abort any on-going transfer (Non-blocking mode)
 446:Drivers/STM32H5xx_HAL_Driver/Src/stm32h5xx_hal_dma.c ****       (+) The HAL_DMA_PollForTransfer() function allows to poll on half transfer and transfer compl
 447:Drivers/STM32H5xx_HAL_Driver/Src/stm32h5xx_hal_dma.c ****           This API cannot be used for circular transfers.
 448:Drivers/STM32H5xx_HAL_Driver/Src/stm32h5xx_hal_dma.c ****       (+) The HAL_DMA_IRQHandler() function allows to handle any DMA channel interrupt (Non-blockin
 449:Drivers/STM32H5xx_HAL_Driver/Src/stm32h5xx_hal_dma.c ****       (+) The HAL_DMA_RegisterCallback() and HAL_DMA_UnRegisterCallback() functions allow respectiv
 450:Drivers/STM32H5xx_HAL_Driver/Src/stm32h5xx_hal_dma.c ****           unregister user customized callbacks.
 451:Drivers/STM32H5xx_HAL_Driver/Src/stm32h5xx_hal_dma.c ****           User callbacks are called under HAL_DMA_IRQHandler().
 452:Drivers/STM32H5xx_HAL_Driver/Src/stm32h5xx_hal_dma.c **** 
 453:Drivers/STM32H5xx_HAL_Driver/Src/stm32h5xx_hal_dma.c **** @endverbatim
 454:Drivers/STM32H5xx_HAL_Driver/Src/stm32h5xx_hal_dma.c ****   * @{
 455:Drivers/STM32H5xx_HAL_Driver/Src/stm32h5xx_hal_dma.c ****   */
 456:Drivers/STM32H5xx_HAL_Driver/Src/stm32h5xx_hal_dma.c **** 
 457:Drivers/STM32H5xx_HAL_Driver/Src/stm32h5xx_hal_dma.c **** /**
 458:Drivers/STM32H5xx_HAL_Driver/Src/stm32h5xx_hal_dma.c ****   * @brief  Start the DMA channel transfer in normal mode (Blocking mode).
 459:Drivers/STM32H5xx_HAL_Driver/Src/stm32h5xx_hal_dma.c ****   * @param  hdma        : Pointer to a DMA_HandleTypeDef structure that contains the configuration 
 460:Drivers/STM32H5xx_HAL_Driver/Src/stm32h5xx_hal_dma.c ****   *                       the specified DMA Channel.
 461:Drivers/STM32H5xx_HAL_Driver/Src/stm32h5xx_hal_dma.c ****   * @param  SrcAddress  : The source data address.
 462:Drivers/STM32H5xx_HAL_Driver/Src/stm32h5xx_hal_dma.c ****   * @param  DstAddress  : The destination data address.
 463:Drivers/STM32H5xx_HAL_Driver/Src/stm32h5xx_hal_dma.c ****   * @param  SrcDataSize : The length of data to be transferred from source to destination in bytes.
 464:Drivers/STM32H5xx_HAL_Driver/Src/stm32h5xx_hal_dma.c ****   * @retval HAL status.
 465:Drivers/STM32H5xx_HAL_Driver/Src/stm32h5xx_hal_dma.c ****   */
 466:Drivers/STM32H5xx_HAL_Driver/Src/stm32h5xx_hal_dma.c **** HAL_StatusTypeDef HAL_DMA_Start(DMA_HandleTypeDef *const hdma,
 467:Drivers/STM32H5xx_HAL_Driver/Src/stm32h5xx_hal_dma.c ****                                 uint32_t SrcAddress,
 468:Drivers/STM32H5xx_HAL_Driver/Src/stm32h5xx_hal_dma.c ****                                 uint32_t DstAddress,
 469:Drivers/STM32H5xx_HAL_Driver/Src/stm32h5xx_hal_dma.c ****                                 uint32_t SrcDataSize)
 470:Drivers/STM32H5xx_HAL_Driver/Src/stm32h5xx_hal_dma.c **** {
 471:Drivers/STM32H5xx_HAL_Driver/Src/stm32h5xx_hal_dma.c ****   /* Check the DMA peripheral handle parameter */
 472:Drivers/STM32H5xx_HAL_Driver/Src/stm32h5xx_hal_dma.c ****   if (hdma == NULL)
 473:Drivers/STM32H5xx_HAL_Driver/Src/stm32h5xx_hal_dma.c ****   {
 474:Drivers/STM32H5xx_HAL_Driver/Src/stm32h5xx_hal_dma.c ****     return HAL_ERROR;
 475:Drivers/STM32H5xx_HAL_Driver/Src/stm32h5xx_hal_dma.c ****   }
 476:Drivers/STM32H5xx_HAL_Driver/Src/stm32h5xx_hal_dma.c **** 
 477:Drivers/STM32H5xx_HAL_Driver/Src/stm32h5xx_hal_dma.c ****   /* Check the parameters */
 478:Drivers/STM32H5xx_HAL_Driver/Src/stm32h5xx_hal_dma.c ****   assert_param(IS_DMA_BLOCK_SIZE(SrcDataSize));
 479:Drivers/STM32H5xx_HAL_Driver/Src/stm32h5xx_hal_dma.c **** 
 480:Drivers/STM32H5xx_HAL_Driver/Src/stm32h5xx_hal_dma.c ****   /* Process locked */
 481:Drivers/STM32H5xx_HAL_Driver/Src/stm32h5xx_hal_dma.c ****   __HAL_LOCK(hdma);
 482:Drivers/STM32H5xx_HAL_Driver/Src/stm32h5xx_hal_dma.c **** 
 483:Drivers/STM32H5xx_HAL_Driver/Src/stm32h5xx_hal_dma.c ****   /* Check DMA channel state */
 484:Drivers/STM32H5xx_HAL_Driver/Src/stm32h5xx_hal_dma.c ****   if (hdma->State == HAL_DMA_STATE_READY)
 485:Drivers/STM32H5xx_HAL_Driver/Src/stm32h5xx_hal_dma.c ****   {
ARM GAS  /tmp/ccQkXeUE.s 			page 10


 486:Drivers/STM32H5xx_HAL_Driver/Src/stm32h5xx_hal_dma.c ****     /* Update the DMA channel state */
 487:Drivers/STM32H5xx_HAL_Driver/Src/stm32h5xx_hal_dma.c ****     hdma->State = HAL_DMA_STATE_BUSY;
 488:Drivers/STM32H5xx_HAL_Driver/Src/stm32h5xx_hal_dma.c **** 
 489:Drivers/STM32H5xx_HAL_Driver/Src/stm32h5xx_hal_dma.c ****     /* Update the DMA channel error code */
 490:Drivers/STM32H5xx_HAL_Driver/Src/stm32h5xx_hal_dma.c ****     hdma->ErrorCode = HAL_DMA_ERROR_NONE;
 491:Drivers/STM32H5xx_HAL_Driver/Src/stm32h5xx_hal_dma.c **** 
 492:Drivers/STM32H5xx_HAL_Driver/Src/stm32h5xx_hal_dma.c ****     /* Configure the source address, destination address, the data size and clear flags */
 493:Drivers/STM32H5xx_HAL_Driver/Src/stm32h5xx_hal_dma.c ****     DMA_SetConfig(hdma, SrcAddress, DstAddress, SrcDataSize);
 494:Drivers/STM32H5xx_HAL_Driver/Src/stm32h5xx_hal_dma.c **** 
 495:Drivers/STM32H5xx_HAL_Driver/Src/stm32h5xx_hal_dma.c ****     /* Enable DMA channel */
 496:Drivers/STM32H5xx_HAL_Driver/Src/stm32h5xx_hal_dma.c ****     __HAL_DMA_ENABLE(hdma);
 497:Drivers/STM32H5xx_HAL_Driver/Src/stm32h5xx_hal_dma.c ****   }
 498:Drivers/STM32H5xx_HAL_Driver/Src/stm32h5xx_hal_dma.c ****   else
 499:Drivers/STM32H5xx_HAL_Driver/Src/stm32h5xx_hal_dma.c ****   {
 500:Drivers/STM32H5xx_HAL_Driver/Src/stm32h5xx_hal_dma.c ****     /* Update the DMA channel error code */
 501:Drivers/STM32H5xx_HAL_Driver/Src/stm32h5xx_hal_dma.c ****     hdma->ErrorCode = HAL_DMA_ERROR_BUSY;
 502:Drivers/STM32H5xx_HAL_Driver/Src/stm32h5xx_hal_dma.c **** 
 503:Drivers/STM32H5xx_HAL_Driver/Src/stm32h5xx_hal_dma.c ****     /* Process unlocked */
 504:Drivers/STM32H5xx_HAL_Driver/Src/stm32h5xx_hal_dma.c ****     __HAL_UNLOCK(hdma);
 505:Drivers/STM32H5xx_HAL_Driver/Src/stm32h5xx_hal_dma.c **** 
 506:Drivers/STM32H5xx_HAL_Driver/Src/stm32h5xx_hal_dma.c ****     return HAL_ERROR;
 507:Drivers/STM32H5xx_HAL_Driver/Src/stm32h5xx_hal_dma.c ****   }
 508:Drivers/STM32H5xx_HAL_Driver/Src/stm32h5xx_hal_dma.c **** 
 509:Drivers/STM32H5xx_HAL_Driver/Src/stm32h5xx_hal_dma.c ****   return HAL_OK;
 510:Drivers/STM32H5xx_HAL_Driver/Src/stm32h5xx_hal_dma.c **** }
 511:Drivers/STM32H5xx_HAL_Driver/Src/stm32h5xx_hal_dma.c **** 
 512:Drivers/STM32H5xx_HAL_Driver/Src/stm32h5xx_hal_dma.c **** /**
 513:Drivers/STM32H5xx_HAL_Driver/Src/stm32h5xx_hal_dma.c ****   * @brief  Starts the DMA channel transfer in normal mode with interrupts enabled (Non-blocking mo
 514:Drivers/STM32H5xx_HAL_Driver/Src/stm32h5xx_hal_dma.c ****   * @param  hdma         : Pointer to a DMA_HandleTypeDef structure that contains the configuration
 515:Drivers/STM32H5xx_HAL_Driver/Src/stm32h5xx_hal_dma.c ****   *                        specified DMA Channel.
 516:Drivers/STM32H5xx_HAL_Driver/Src/stm32h5xx_hal_dma.c ****   * @param  SrcAddress   : The source data address.
 517:Drivers/STM32H5xx_HAL_Driver/Src/stm32h5xx_hal_dma.c ****   * @param  DstAddress   : The destination data address.
 518:Drivers/STM32H5xx_HAL_Driver/Src/stm32h5xx_hal_dma.c ****   * @param  SrcDataSize  : The length of data to be transferred from source to destination in bytes
 519:Drivers/STM32H5xx_HAL_Driver/Src/stm32h5xx_hal_dma.c ****   * @retval HAL status.
 520:Drivers/STM32H5xx_HAL_Driver/Src/stm32h5xx_hal_dma.c ****   */
 521:Drivers/STM32H5xx_HAL_Driver/Src/stm32h5xx_hal_dma.c **** HAL_StatusTypeDef HAL_DMA_Start_IT(DMA_HandleTypeDef *const hdma,
 522:Drivers/STM32H5xx_HAL_Driver/Src/stm32h5xx_hal_dma.c ****                                    uint32_t SrcAddress,
 523:Drivers/STM32H5xx_HAL_Driver/Src/stm32h5xx_hal_dma.c ****                                    uint32_t DstAddress,
 524:Drivers/STM32H5xx_HAL_Driver/Src/stm32h5xx_hal_dma.c ****                                    uint32_t SrcDataSize)
 525:Drivers/STM32H5xx_HAL_Driver/Src/stm32h5xx_hal_dma.c **** {
 526:Drivers/STM32H5xx_HAL_Driver/Src/stm32h5xx_hal_dma.c ****   /* Check the DMA peripheral handle parameter */
 527:Drivers/STM32H5xx_HAL_Driver/Src/stm32h5xx_hal_dma.c ****   if (hdma == NULL)
 528:Drivers/STM32H5xx_HAL_Driver/Src/stm32h5xx_hal_dma.c ****   {
 529:Drivers/STM32H5xx_HAL_Driver/Src/stm32h5xx_hal_dma.c ****     return HAL_ERROR;
 530:Drivers/STM32H5xx_HAL_Driver/Src/stm32h5xx_hal_dma.c ****   }
 531:Drivers/STM32H5xx_HAL_Driver/Src/stm32h5xx_hal_dma.c **** 
 532:Drivers/STM32H5xx_HAL_Driver/Src/stm32h5xx_hal_dma.c ****   /* Check the parameters */
 533:Drivers/STM32H5xx_HAL_Driver/Src/stm32h5xx_hal_dma.c ****   assert_param(IS_DMA_BLOCK_SIZE(SrcDataSize));
 534:Drivers/STM32H5xx_HAL_Driver/Src/stm32h5xx_hal_dma.c **** 
 535:Drivers/STM32H5xx_HAL_Driver/Src/stm32h5xx_hal_dma.c ****   /* Process locked */
 536:Drivers/STM32H5xx_HAL_Driver/Src/stm32h5xx_hal_dma.c ****   __HAL_LOCK(hdma);
 537:Drivers/STM32H5xx_HAL_Driver/Src/stm32h5xx_hal_dma.c **** 
 538:Drivers/STM32H5xx_HAL_Driver/Src/stm32h5xx_hal_dma.c ****   /* Check DMA channel state */
 539:Drivers/STM32H5xx_HAL_Driver/Src/stm32h5xx_hal_dma.c ****   if (hdma->State == HAL_DMA_STATE_READY)
 540:Drivers/STM32H5xx_HAL_Driver/Src/stm32h5xx_hal_dma.c ****   {
 541:Drivers/STM32H5xx_HAL_Driver/Src/stm32h5xx_hal_dma.c ****     /* Update the DMA channel state */
 542:Drivers/STM32H5xx_HAL_Driver/Src/stm32h5xx_hal_dma.c ****     hdma->State = HAL_DMA_STATE_BUSY;
ARM GAS  /tmp/ccQkXeUE.s 			page 11


 543:Drivers/STM32H5xx_HAL_Driver/Src/stm32h5xx_hal_dma.c **** 
 544:Drivers/STM32H5xx_HAL_Driver/Src/stm32h5xx_hal_dma.c ****     /* Update the DMA channel error code */
 545:Drivers/STM32H5xx_HAL_Driver/Src/stm32h5xx_hal_dma.c ****     hdma->ErrorCode = HAL_DMA_ERROR_NONE;
 546:Drivers/STM32H5xx_HAL_Driver/Src/stm32h5xx_hal_dma.c **** 
 547:Drivers/STM32H5xx_HAL_Driver/Src/stm32h5xx_hal_dma.c ****     /* Configure the source address, destination address, the data size and clear flags */
 548:Drivers/STM32H5xx_HAL_Driver/Src/stm32h5xx_hal_dma.c ****     DMA_SetConfig(hdma, SrcAddress, DstAddress, SrcDataSize);
 549:Drivers/STM32H5xx_HAL_Driver/Src/stm32h5xx_hal_dma.c **** 
 550:Drivers/STM32H5xx_HAL_Driver/Src/stm32h5xx_hal_dma.c ****     /* Enable common interrupts: Transfer Complete and Transfer Errors ITs */
 551:Drivers/STM32H5xx_HAL_Driver/Src/stm32h5xx_hal_dma.c ****     __HAL_DMA_ENABLE_IT(hdma, (DMA_IT_TC | DMA_IT_DTE | DMA_IT_ULE | DMA_IT_USE | DMA_IT_TO));
 552:Drivers/STM32H5xx_HAL_Driver/Src/stm32h5xx_hal_dma.c **** 
 553:Drivers/STM32H5xx_HAL_Driver/Src/stm32h5xx_hal_dma.c ****     /* Check half transfer complete callback */
 554:Drivers/STM32H5xx_HAL_Driver/Src/stm32h5xx_hal_dma.c ****     if (hdma->XferHalfCpltCallback != NULL)
 555:Drivers/STM32H5xx_HAL_Driver/Src/stm32h5xx_hal_dma.c ****     {
 556:Drivers/STM32H5xx_HAL_Driver/Src/stm32h5xx_hal_dma.c ****       /* If Half Transfer complete callback is set, enable the corresponding IT */
 557:Drivers/STM32H5xx_HAL_Driver/Src/stm32h5xx_hal_dma.c ****       __HAL_DMA_ENABLE_IT(hdma, DMA_IT_HT);
 558:Drivers/STM32H5xx_HAL_Driver/Src/stm32h5xx_hal_dma.c ****     }
 559:Drivers/STM32H5xx_HAL_Driver/Src/stm32h5xx_hal_dma.c **** 
 560:Drivers/STM32H5xx_HAL_Driver/Src/stm32h5xx_hal_dma.c ****     /* Check Half suspend callback */
 561:Drivers/STM32H5xx_HAL_Driver/Src/stm32h5xx_hal_dma.c ****     if (hdma->XferSuspendCallback != NULL)
 562:Drivers/STM32H5xx_HAL_Driver/Src/stm32h5xx_hal_dma.c ****     {
 563:Drivers/STM32H5xx_HAL_Driver/Src/stm32h5xx_hal_dma.c ****       /* If Transfer suspend callback is set, enable the corresponding IT */
 564:Drivers/STM32H5xx_HAL_Driver/Src/stm32h5xx_hal_dma.c ****       __HAL_DMA_ENABLE_IT(hdma, DMA_IT_SUSP);
 565:Drivers/STM32H5xx_HAL_Driver/Src/stm32h5xx_hal_dma.c ****     }
 566:Drivers/STM32H5xx_HAL_Driver/Src/stm32h5xx_hal_dma.c **** 
 567:Drivers/STM32H5xx_HAL_Driver/Src/stm32h5xx_hal_dma.c ****     /* Enable DMA channel */
 568:Drivers/STM32H5xx_HAL_Driver/Src/stm32h5xx_hal_dma.c ****     __HAL_DMA_ENABLE(hdma);
 569:Drivers/STM32H5xx_HAL_Driver/Src/stm32h5xx_hal_dma.c ****   }
 570:Drivers/STM32H5xx_HAL_Driver/Src/stm32h5xx_hal_dma.c ****   else
 571:Drivers/STM32H5xx_HAL_Driver/Src/stm32h5xx_hal_dma.c ****   {
 572:Drivers/STM32H5xx_HAL_Driver/Src/stm32h5xx_hal_dma.c ****     /* Update the DMA channel error code */
 573:Drivers/STM32H5xx_HAL_Driver/Src/stm32h5xx_hal_dma.c ****     hdma->ErrorCode = HAL_DMA_ERROR_BUSY;
 574:Drivers/STM32H5xx_HAL_Driver/Src/stm32h5xx_hal_dma.c **** 
 575:Drivers/STM32H5xx_HAL_Driver/Src/stm32h5xx_hal_dma.c ****     /* Process unlocked */
 576:Drivers/STM32H5xx_HAL_Driver/Src/stm32h5xx_hal_dma.c ****     __HAL_UNLOCK(hdma);
 577:Drivers/STM32H5xx_HAL_Driver/Src/stm32h5xx_hal_dma.c **** 
 578:Drivers/STM32H5xx_HAL_Driver/Src/stm32h5xx_hal_dma.c ****     return HAL_ERROR;
 579:Drivers/STM32H5xx_HAL_Driver/Src/stm32h5xx_hal_dma.c ****   }
 580:Drivers/STM32H5xx_HAL_Driver/Src/stm32h5xx_hal_dma.c **** 
 581:Drivers/STM32H5xx_HAL_Driver/Src/stm32h5xx_hal_dma.c ****   return HAL_OK;
 582:Drivers/STM32H5xx_HAL_Driver/Src/stm32h5xx_hal_dma.c **** }
 583:Drivers/STM32H5xx_HAL_Driver/Src/stm32h5xx_hal_dma.c **** 
 584:Drivers/STM32H5xx_HAL_Driver/Src/stm32h5xx_hal_dma.c **** /**
 585:Drivers/STM32H5xx_HAL_Driver/Src/stm32h5xx_hal_dma.c ****   * @brief  Abort any on-going DMA channel transfer (Blocking mode).
 586:Drivers/STM32H5xx_HAL_Driver/Src/stm32h5xx_hal_dma.c ****   * @param  hdma : Pointer to a DMA_HandleTypeDef structure that contains the configuration informa
 587:Drivers/STM32H5xx_HAL_Driver/Src/stm32h5xx_hal_dma.c ****   *                specified DMA Channel.
 588:Drivers/STM32H5xx_HAL_Driver/Src/stm32h5xx_hal_dma.c ****   * @note   After suspending a DMA channel, a wait until the DMA channel is effectively stopped is 
 589:Drivers/STM32H5xx_HAL_Driver/Src/stm32h5xx_hal_dma.c ****   *         is suspended while a data transfer is on-going, the current data will be transferred an
 590:Drivers/STM32H5xx_HAL_Driver/Src/stm32h5xx_hal_dma.c ****   *         effectively suspended only after the transfer of any on-going data is finished.
 591:Drivers/STM32H5xx_HAL_Driver/Src/stm32h5xx_hal_dma.c ****   * @retval HAL status.
 592:Drivers/STM32H5xx_HAL_Driver/Src/stm32h5xx_hal_dma.c ****   */
 593:Drivers/STM32H5xx_HAL_Driver/Src/stm32h5xx_hal_dma.c **** HAL_StatusTypeDef HAL_DMA_Abort(DMA_HandleTypeDef *const hdma)
 594:Drivers/STM32H5xx_HAL_Driver/Src/stm32h5xx_hal_dma.c **** {
 595:Drivers/STM32H5xx_HAL_Driver/Src/stm32h5xx_hal_dma.c ****   /* Get tick number */
 596:Drivers/STM32H5xx_HAL_Driver/Src/stm32h5xx_hal_dma.c ****   uint32_t tickstart =  HAL_GetTick();
 597:Drivers/STM32H5xx_HAL_Driver/Src/stm32h5xx_hal_dma.c **** 
 598:Drivers/STM32H5xx_HAL_Driver/Src/stm32h5xx_hal_dma.c ****   /* Check the DMA peripheral handle parameter */
 599:Drivers/STM32H5xx_HAL_Driver/Src/stm32h5xx_hal_dma.c ****   if (hdma == NULL)
ARM GAS  /tmp/ccQkXeUE.s 			page 12


 600:Drivers/STM32H5xx_HAL_Driver/Src/stm32h5xx_hal_dma.c ****   {
 601:Drivers/STM32H5xx_HAL_Driver/Src/stm32h5xx_hal_dma.c ****     return HAL_ERROR;
 602:Drivers/STM32H5xx_HAL_Driver/Src/stm32h5xx_hal_dma.c ****   }
 603:Drivers/STM32H5xx_HAL_Driver/Src/stm32h5xx_hal_dma.c **** 
 604:Drivers/STM32H5xx_HAL_Driver/Src/stm32h5xx_hal_dma.c ****   /* Check DMA channel state */
 605:Drivers/STM32H5xx_HAL_Driver/Src/stm32h5xx_hal_dma.c ****   if (hdma->State != HAL_DMA_STATE_BUSY)
 606:Drivers/STM32H5xx_HAL_Driver/Src/stm32h5xx_hal_dma.c ****   {
 607:Drivers/STM32H5xx_HAL_Driver/Src/stm32h5xx_hal_dma.c ****     /* Update the DMA channel error code */
 608:Drivers/STM32H5xx_HAL_Driver/Src/stm32h5xx_hal_dma.c ****     hdma->ErrorCode = HAL_DMA_ERROR_NO_XFER;
 609:Drivers/STM32H5xx_HAL_Driver/Src/stm32h5xx_hal_dma.c **** 
 610:Drivers/STM32H5xx_HAL_Driver/Src/stm32h5xx_hal_dma.c ****     /* Process Unlocked */
 611:Drivers/STM32H5xx_HAL_Driver/Src/stm32h5xx_hal_dma.c ****     __HAL_UNLOCK(hdma);
 612:Drivers/STM32H5xx_HAL_Driver/Src/stm32h5xx_hal_dma.c **** 
 613:Drivers/STM32H5xx_HAL_Driver/Src/stm32h5xx_hal_dma.c ****     return HAL_ERROR;
 614:Drivers/STM32H5xx_HAL_Driver/Src/stm32h5xx_hal_dma.c ****   }
 615:Drivers/STM32H5xx_HAL_Driver/Src/stm32h5xx_hal_dma.c ****   else
 616:Drivers/STM32H5xx_HAL_Driver/Src/stm32h5xx_hal_dma.c ****   {
 617:Drivers/STM32H5xx_HAL_Driver/Src/stm32h5xx_hal_dma.c ****     /* Suspend the channel */
 618:Drivers/STM32H5xx_HAL_Driver/Src/stm32h5xx_hal_dma.c ****     hdma->Instance->CCR |= DMA_CCR_SUSP;
 619:Drivers/STM32H5xx_HAL_Driver/Src/stm32h5xx_hal_dma.c **** 
 620:Drivers/STM32H5xx_HAL_Driver/Src/stm32h5xx_hal_dma.c ****     /* Update the DMA channel state */
 621:Drivers/STM32H5xx_HAL_Driver/Src/stm32h5xx_hal_dma.c ****     hdma->State = HAL_DMA_STATE_SUSPEND;
 622:Drivers/STM32H5xx_HAL_Driver/Src/stm32h5xx_hal_dma.c **** 
 623:Drivers/STM32H5xx_HAL_Driver/Src/stm32h5xx_hal_dma.c ****     /* Check if the DMA Channel is suspended */
 624:Drivers/STM32H5xx_HAL_Driver/Src/stm32h5xx_hal_dma.c ****     while ((hdma->Instance->CSR & DMA_CSR_SUSPF) == 0U)
 625:Drivers/STM32H5xx_HAL_Driver/Src/stm32h5xx_hal_dma.c ****     {
 626:Drivers/STM32H5xx_HAL_Driver/Src/stm32h5xx_hal_dma.c ****       /* Check for the Timeout */
 627:Drivers/STM32H5xx_HAL_Driver/Src/stm32h5xx_hal_dma.c ****       if ((HAL_GetTick() - tickstart) > HAL_TIMEOUT_DMA_ABORT)
 628:Drivers/STM32H5xx_HAL_Driver/Src/stm32h5xx_hal_dma.c ****       {
 629:Drivers/STM32H5xx_HAL_Driver/Src/stm32h5xx_hal_dma.c ****         /* Update the DMA channel error code */
 630:Drivers/STM32H5xx_HAL_Driver/Src/stm32h5xx_hal_dma.c ****         hdma->ErrorCode |= HAL_DMA_ERROR_TIMEOUT;
 631:Drivers/STM32H5xx_HAL_Driver/Src/stm32h5xx_hal_dma.c **** 
 632:Drivers/STM32H5xx_HAL_Driver/Src/stm32h5xx_hal_dma.c ****         /* Update the DMA channel state */
 633:Drivers/STM32H5xx_HAL_Driver/Src/stm32h5xx_hal_dma.c ****         hdma->State = HAL_DMA_STATE_ERROR;
 634:Drivers/STM32H5xx_HAL_Driver/Src/stm32h5xx_hal_dma.c **** 
 635:Drivers/STM32H5xx_HAL_Driver/Src/stm32h5xx_hal_dma.c ****         /* Check DMA channel transfer mode */
 636:Drivers/STM32H5xx_HAL_Driver/Src/stm32h5xx_hal_dma.c ****         if ((hdma->Mode & DMA_LINKEDLIST) == DMA_LINKEDLIST)
 637:Drivers/STM32H5xx_HAL_Driver/Src/stm32h5xx_hal_dma.c ****         {
 638:Drivers/STM32H5xx_HAL_Driver/Src/stm32h5xx_hal_dma.c ****           /* Update the linked-list queue state */
 639:Drivers/STM32H5xx_HAL_Driver/Src/stm32h5xx_hal_dma.c ****           hdma->LinkedListQueue->State = HAL_DMA_QUEUE_STATE_READY;
 640:Drivers/STM32H5xx_HAL_Driver/Src/stm32h5xx_hal_dma.c ****         }
 641:Drivers/STM32H5xx_HAL_Driver/Src/stm32h5xx_hal_dma.c **** 
 642:Drivers/STM32H5xx_HAL_Driver/Src/stm32h5xx_hal_dma.c ****         /* Process Unlocked */
 643:Drivers/STM32H5xx_HAL_Driver/Src/stm32h5xx_hal_dma.c ****         __HAL_UNLOCK(hdma);
 644:Drivers/STM32H5xx_HAL_Driver/Src/stm32h5xx_hal_dma.c **** 
 645:Drivers/STM32H5xx_HAL_Driver/Src/stm32h5xx_hal_dma.c ****         return HAL_ERROR;
 646:Drivers/STM32H5xx_HAL_Driver/Src/stm32h5xx_hal_dma.c ****       }
 647:Drivers/STM32H5xx_HAL_Driver/Src/stm32h5xx_hal_dma.c ****     }
 648:Drivers/STM32H5xx_HAL_Driver/Src/stm32h5xx_hal_dma.c **** 
 649:Drivers/STM32H5xx_HAL_Driver/Src/stm32h5xx_hal_dma.c ****     /* Reset the channel */
 650:Drivers/STM32H5xx_HAL_Driver/Src/stm32h5xx_hal_dma.c ****     hdma->Instance->CCR |= DMA_CCR_RESET;
 651:Drivers/STM32H5xx_HAL_Driver/Src/stm32h5xx_hal_dma.c **** 
 652:Drivers/STM32H5xx_HAL_Driver/Src/stm32h5xx_hal_dma.c ****     /* Update the DMA channel state */
 653:Drivers/STM32H5xx_HAL_Driver/Src/stm32h5xx_hal_dma.c ****     hdma->State = HAL_DMA_STATE_ABORT;
 654:Drivers/STM32H5xx_HAL_Driver/Src/stm32h5xx_hal_dma.c **** 
 655:Drivers/STM32H5xx_HAL_Driver/Src/stm32h5xx_hal_dma.c ****     /* Clear all status flags */
 656:Drivers/STM32H5xx_HAL_Driver/Src/stm32h5xx_hal_dma.c ****     __HAL_DMA_CLEAR_FLAG(hdma, (DMA_FLAG_TC | DMA_FLAG_HT | DMA_FLAG_DTE | DMA_FLAG_ULE | DMA_FLAG_
ARM GAS  /tmp/ccQkXeUE.s 			page 13


 657:Drivers/STM32H5xx_HAL_Driver/Src/stm32h5xx_hal_dma.c ****                                 DMA_FLAG_TO));
 658:Drivers/STM32H5xx_HAL_Driver/Src/stm32h5xx_hal_dma.c **** 
 659:Drivers/STM32H5xx_HAL_Driver/Src/stm32h5xx_hal_dma.c ****     /* Update the DMA channel state */
 660:Drivers/STM32H5xx_HAL_Driver/Src/stm32h5xx_hal_dma.c ****     hdma->State = HAL_DMA_STATE_READY;
 661:Drivers/STM32H5xx_HAL_Driver/Src/stm32h5xx_hal_dma.c **** 
 662:Drivers/STM32H5xx_HAL_Driver/Src/stm32h5xx_hal_dma.c ****     /* Check DMA channel transfer mode */
 663:Drivers/STM32H5xx_HAL_Driver/Src/stm32h5xx_hal_dma.c ****     if ((hdma->Mode & DMA_LINKEDLIST) == DMA_LINKEDLIST)
 664:Drivers/STM32H5xx_HAL_Driver/Src/stm32h5xx_hal_dma.c ****     {
 665:Drivers/STM32H5xx_HAL_Driver/Src/stm32h5xx_hal_dma.c ****       /* Update the linked-list queue state */
 666:Drivers/STM32H5xx_HAL_Driver/Src/stm32h5xx_hal_dma.c ****       hdma->LinkedListQueue->State = HAL_DMA_QUEUE_STATE_READY;
 667:Drivers/STM32H5xx_HAL_Driver/Src/stm32h5xx_hal_dma.c **** 
 668:Drivers/STM32H5xx_HAL_Driver/Src/stm32h5xx_hal_dma.c ****       /* Clear remaining data size to ensure loading linked-list from memory next start */
 669:Drivers/STM32H5xx_HAL_Driver/Src/stm32h5xx_hal_dma.c ****       hdma->Instance->CBR1 = 0U;
 670:Drivers/STM32H5xx_HAL_Driver/Src/stm32h5xx_hal_dma.c ****     }
 671:Drivers/STM32H5xx_HAL_Driver/Src/stm32h5xx_hal_dma.c **** 
 672:Drivers/STM32H5xx_HAL_Driver/Src/stm32h5xx_hal_dma.c ****     /* Process Unlocked */
 673:Drivers/STM32H5xx_HAL_Driver/Src/stm32h5xx_hal_dma.c ****     __HAL_UNLOCK(hdma);
 674:Drivers/STM32H5xx_HAL_Driver/Src/stm32h5xx_hal_dma.c ****   }
 675:Drivers/STM32H5xx_HAL_Driver/Src/stm32h5xx_hal_dma.c **** 
 676:Drivers/STM32H5xx_HAL_Driver/Src/stm32h5xx_hal_dma.c ****   return HAL_OK;
 677:Drivers/STM32H5xx_HAL_Driver/Src/stm32h5xx_hal_dma.c **** }
 678:Drivers/STM32H5xx_HAL_Driver/Src/stm32h5xx_hal_dma.c **** 
 679:Drivers/STM32H5xx_HAL_Driver/Src/stm32h5xx_hal_dma.c **** /**
 680:Drivers/STM32H5xx_HAL_Driver/Src/stm32h5xx_hal_dma.c ****   * @brief  Abort any on-going DMA channel transfer in interrupt mode (Non-blocking mode).
 681:Drivers/STM32H5xx_HAL_Driver/Src/stm32h5xx_hal_dma.c ****   * @param  hdma : Pointer to a DMA_HandleTypeDef structure that contains the configuration informa
 682:Drivers/STM32H5xx_HAL_Driver/Src/stm32h5xx_hal_dma.c ****   *                specified DMA Channel.
 683:Drivers/STM32H5xx_HAL_Driver/Src/stm32h5xx_hal_dma.c ****   * @retval HAL status.
 684:Drivers/STM32H5xx_HAL_Driver/Src/stm32h5xx_hal_dma.c ****   */
 685:Drivers/STM32H5xx_HAL_Driver/Src/stm32h5xx_hal_dma.c **** HAL_StatusTypeDef HAL_DMA_Abort_IT(DMA_HandleTypeDef *const hdma)
 686:Drivers/STM32H5xx_HAL_Driver/Src/stm32h5xx_hal_dma.c **** {
 687:Drivers/STM32H5xx_HAL_Driver/Src/stm32h5xx_hal_dma.c ****   /* Check the DMA peripheral handle parameter */
 688:Drivers/STM32H5xx_HAL_Driver/Src/stm32h5xx_hal_dma.c ****   if (hdma == NULL)
 689:Drivers/STM32H5xx_HAL_Driver/Src/stm32h5xx_hal_dma.c ****   {
 690:Drivers/STM32H5xx_HAL_Driver/Src/stm32h5xx_hal_dma.c ****     return HAL_ERROR;
 691:Drivers/STM32H5xx_HAL_Driver/Src/stm32h5xx_hal_dma.c ****   }
 692:Drivers/STM32H5xx_HAL_Driver/Src/stm32h5xx_hal_dma.c **** 
 693:Drivers/STM32H5xx_HAL_Driver/Src/stm32h5xx_hal_dma.c ****   /* Check DMA channel state */
 694:Drivers/STM32H5xx_HAL_Driver/Src/stm32h5xx_hal_dma.c ****   if (hdma->State != HAL_DMA_STATE_BUSY)
 695:Drivers/STM32H5xx_HAL_Driver/Src/stm32h5xx_hal_dma.c ****   {
 696:Drivers/STM32H5xx_HAL_Driver/Src/stm32h5xx_hal_dma.c ****     /* Update the DMA channel error code */
 697:Drivers/STM32H5xx_HAL_Driver/Src/stm32h5xx_hal_dma.c ****     hdma->ErrorCode = HAL_DMA_ERROR_NO_XFER;
 698:Drivers/STM32H5xx_HAL_Driver/Src/stm32h5xx_hal_dma.c **** 
 699:Drivers/STM32H5xx_HAL_Driver/Src/stm32h5xx_hal_dma.c ****     return HAL_ERROR;
 700:Drivers/STM32H5xx_HAL_Driver/Src/stm32h5xx_hal_dma.c ****   }
 701:Drivers/STM32H5xx_HAL_Driver/Src/stm32h5xx_hal_dma.c ****   else
 702:Drivers/STM32H5xx_HAL_Driver/Src/stm32h5xx_hal_dma.c ****   {
 703:Drivers/STM32H5xx_HAL_Driver/Src/stm32h5xx_hal_dma.c ****     /* Update the DMA channel state */
 704:Drivers/STM32H5xx_HAL_Driver/Src/stm32h5xx_hal_dma.c ****     hdma->State = HAL_DMA_STATE_ABORT;
 705:Drivers/STM32H5xx_HAL_Driver/Src/stm32h5xx_hal_dma.c **** 
 706:Drivers/STM32H5xx_HAL_Driver/Src/stm32h5xx_hal_dma.c ****     /* Suspend the channel and activate suspend interrupt */
 707:Drivers/STM32H5xx_HAL_Driver/Src/stm32h5xx_hal_dma.c ****     hdma->Instance->CCR |= (DMA_CCR_SUSP | DMA_CCR_SUSPIE);
 708:Drivers/STM32H5xx_HAL_Driver/Src/stm32h5xx_hal_dma.c ****   }
 709:Drivers/STM32H5xx_HAL_Driver/Src/stm32h5xx_hal_dma.c **** 
 710:Drivers/STM32H5xx_HAL_Driver/Src/stm32h5xx_hal_dma.c ****   return HAL_OK;
 711:Drivers/STM32H5xx_HAL_Driver/Src/stm32h5xx_hal_dma.c **** }
 712:Drivers/STM32H5xx_HAL_Driver/Src/stm32h5xx_hal_dma.c **** 
 713:Drivers/STM32H5xx_HAL_Driver/Src/stm32h5xx_hal_dma.c **** /**
ARM GAS  /tmp/ccQkXeUE.s 			page 14


 714:Drivers/STM32H5xx_HAL_Driver/Src/stm32h5xx_hal_dma.c ****   * @brief  Polling for transfer status (Blocking mode).
 715:Drivers/STM32H5xx_HAL_Driver/Src/stm32h5xx_hal_dma.c ****   * @param  hdma          : Pointer to a DMA_HandleTypeDef structure that contains the configuratio
 716:Drivers/STM32H5xx_HAL_Driver/Src/stm32h5xx_hal_dma.c ****   *                         specified DMA Channel.
 717:Drivers/STM32H5xx_HAL_Driver/Src/stm32h5xx_hal_dma.c ****   * @param  CompleteLevel : Specifies the DMA level complete.
 718:Drivers/STM32H5xx_HAL_Driver/Src/stm32h5xx_hal_dma.c ****   * @param  Timeout       : Timeout duration.
 719:Drivers/STM32H5xx_HAL_Driver/Src/stm32h5xx_hal_dma.c ****   * @retval HAL status
 720:Drivers/STM32H5xx_HAL_Driver/Src/stm32h5xx_hal_dma.c ****   */
 721:Drivers/STM32H5xx_HAL_Driver/Src/stm32h5xx_hal_dma.c **** HAL_StatusTypeDef HAL_DMA_PollForTransfer(DMA_HandleTypeDef *const hdma,
 722:Drivers/STM32H5xx_HAL_Driver/Src/stm32h5xx_hal_dma.c ****                                           HAL_DMA_LevelCompleteTypeDef CompleteLevel,
 723:Drivers/STM32H5xx_HAL_Driver/Src/stm32h5xx_hal_dma.c ****                                           uint32_t Timeout)
 724:Drivers/STM32H5xx_HAL_Driver/Src/stm32h5xx_hal_dma.c **** {
 725:Drivers/STM32H5xx_HAL_Driver/Src/stm32h5xx_hal_dma.c ****   /* Get tick number */
 726:Drivers/STM32H5xx_HAL_Driver/Src/stm32h5xx_hal_dma.c ****   uint32_t tickstart = HAL_GetTick();
 727:Drivers/STM32H5xx_HAL_Driver/Src/stm32h5xx_hal_dma.c ****   uint32_t level_flag;
 728:Drivers/STM32H5xx_HAL_Driver/Src/stm32h5xx_hal_dma.c ****   uint32_t tmp_csr;
 729:Drivers/STM32H5xx_HAL_Driver/Src/stm32h5xx_hal_dma.c **** 
 730:Drivers/STM32H5xx_HAL_Driver/Src/stm32h5xx_hal_dma.c ****   /* Check the DMA peripheral handle parameter */
 731:Drivers/STM32H5xx_HAL_Driver/Src/stm32h5xx_hal_dma.c ****   if (hdma == NULL)
 732:Drivers/STM32H5xx_HAL_Driver/Src/stm32h5xx_hal_dma.c ****   {
 733:Drivers/STM32H5xx_HAL_Driver/Src/stm32h5xx_hal_dma.c ****     return HAL_ERROR;
 734:Drivers/STM32H5xx_HAL_Driver/Src/stm32h5xx_hal_dma.c ****   }
 735:Drivers/STM32H5xx_HAL_Driver/Src/stm32h5xx_hal_dma.c **** 
 736:Drivers/STM32H5xx_HAL_Driver/Src/stm32h5xx_hal_dma.c ****   /* Check the parameters */
 737:Drivers/STM32H5xx_HAL_Driver/Src/stm32h5xx_hal_dma.c ****   assert_param(IS_DMA_LEVEL_COMPLETE(CompleteLevel));
 738:Drivers/STM32H5xx_HAL_Driver/Src/stm32h5xx_hal_dma.c **** 
 739:Drivers/STM32H5xx_HAL_Driver/Src/stm32h5xx_hal_dma.c ****   /* Check DMA channel state */
 740:Drivers/STM32H5xx_HAL_Driver/Src/stm32h5xx_hal_dma.c ****   if (hdma->State != HAL_DMA_STATE_BUSY)
 741:Drivers/STM32H5xx_HAL_Driver/Src/stm32h5xx_hal_dma.c ****   {
 742:Drivers/STM32H5xx_HAL_Driver/Src/stm32h5xx_hal_dma.c ****     /* Update the DMA channel error code */
 743:Drivers/STM32H5xx_HAL_Driver/Src/stm32h5xx_hal_dma.c ****     hdma->ErrorCode = HAL_DMA_ERROR_NO_XFER;
 744:Drivers/STM32H5xx_HAL_Driver/Src/stm32h5xx_hal_dma.c **** 
 745:Drivers/STM32H5xx_HAL_Driver/Src/stm32h5xx_hal_dma.c ****     /* Process Unlocked */
 746:Drivers/STM32H5xx_HAL_Driver/Src/stm32h5xx_hal_dma.c ****     __HAL_UNLOCK(hdma);
 747:Drivers/STM32H5xx_HAL_Driver/Src/stm32h5xx_hal_dma.c **** 
 748:Drivers/STM32H5xx_HAL_Driver/Src/stm32h5xx_hal_dma.c ****     return HAL_ERROR;
 749:Drivers/STM32H5xx_HAL_Driver/Src/stm32h5xx_hal_dma.c ****   }
 750:Drivers/STM32H5xx_HAL_Driver/Src/stm32h5xx_hal_dma.c **** 
 751:Drivers/STM32H5xx_HAL_Driver/Src/stm32h5xx_hal_dma.c ****   /* Polling mode is not supported in circular mode */
 752:Drivers/STM32H5xx_HAL_Driver/Src/stm32h5xx_hal_dma.c ****   if ((hdma->Mode & DMA_LINKEDLIST_CIRCULAR) == DMA_LINKEDLIST_CIRCULAR)
 753:Drivers/STM32H5xx_HAL_Driver/Src/stm32h5xx_hal_dma.c ****   {
 754:Drivers/STM32H5xx_HAL_Driver/Src/stm32h5xx_hal_dma.c ****     /* Update the DMA channel error code */
 755:Drivers/STM32H5xx_HAL_Driver/Src/stm32h5xx_hal_dma.c ****     hdma->ErrorCode = HAL_DMA_ERROR_NOT_SUPPORTED;
 756:Drivers/STM32H5xx_HAL_Driver/Src/stm32h5xx_hal_dma.c **** 
 757:Drivers/STM32H5xx_HAL_Driver/Src/stm32h5xx_hal_dma.c ****     return HAL_ERROR;
 758:Drivers/STM32H5xx_HAL_Driver/Src/stm32h5xx_hal_dma.c ****   }
 759:Drivers/STM32H5xx_HAL_Driver/Src/stm32h5xx_hal_dma.c **** 
 760:Drivers/STM32H5xx_HAL_Driver/Src/stm32h5xx_hal_dma.c ****   /* Get the level transfer complete flag */
 761:Drivers/STM32H5xx_HAL_Driver/Src/stm32h5xx_hal_dma.c ****   level_flag = ((CompleteLevel == HAL_DMA_FULL_TRANSFER) ? DMA_FLAG_IDLE : DMA_FLAG_HT);
 762:Drivers/STM32H5xx_HAL_Driver/Src/stm32h5xx_hal_dma.c **** 
 763:Drivers/STM32H5xx_HAL_Driver/Src/stm32h5xx_hal_dma.c ****   /* Get DMA channel status */
 764:Drivers/STM32H5xx_HAL_Driver/Src/stm32h5xx_hal_dma.c ****   tmp_csr = hdma->Instance->CSR;
 765:Drivers/STM32H5xx_HAL_Driver/Src/stm32h5xx_hal_dma.c **** 
 766:Drivers/STM32H5xx_HAL_Driver/Src/stm32h5xx_hal_dma.c ****   while ((tmp_csr & level_flag) == 0U)
 767:Drivers/STM32H5xx_HAL_Driver/Src/stm32h5xx_hal_dma.c ****   {
 768:Drivers/STM32H5xx_HAL_Driver/Src/stm32h5xx_hal_dma.c ****     /* Check for the timeout */
 769:Drivers/STM32H5xx_HAL_Driver/Src/stm32h5xx_hal_dma.c ****     if (Timeout != HAL_MAX_DELAY)
 770:Drivers/STM32H5xx_HAL_Driver/Src/stm32h5xx_hal_dma.c ****     {
ARM GAS  /tmp/ccQkXeUE.s 			page 15


 771:Drivers/STM32H5xx_HAL_Driver/Src/stm32h5xx_hal_dma.c ****       if (((HAL_GetTick() - tickstart) > Timeout) || (Timeout == 0U))
 772:Drivers/STM32H5xx_HAL_Driver/Src/stm32h5xx_hal_dma.c ****       {
 773:Drivers/STM32H5xx_HAL_Driver/Src/stm32h5xx_hal_dma.c ****         /* Update the DMA channel error code */
 774:Drivers/STM32H5xx_HAL_Driver/Src/stm32h5xx_hal_dma.c ****         hdma->ErrorCode |= HAL_DMA_ERROR_TIMEOUT;
 775:Drivers/STM32H5xx_HAL_Driver/Src/stm32h5xx_hal_dma.c **** 
 776:Drivers/STM32H5xx_HAL_Driver/Src/stm32h5xx_hal_dma.c ****         /*
 777:Drivers/STM32H5xx_HAL_Driver/Src/stm32h5xx_hal_dma.c ****           If timeout, abort the current transfer.
 778:Drivers/STM32H5xx_HAL_Driver/Src/stm32h5xx_hal_dma.c ****           Note that the Abort function will
 779:Drivers/STM32H5xx_HAL_Driver/Src/stm32h5xx_hal_dma.c ****           - Clear all transfer flags.
 780:Drivers/STM32H5xx_HAL_Driver/Src/stm32h5xx_hal_dma.c ****           - Unlock.
 781:Drivers/STM32H5xx_HAL_Driver/Src/stm32h5xx_hal_dma.c ****           - Set the State.
 782:Drivers/STM32H5xx_HAL_Driver/Src/stm32h5xx_hal_dma.c ****         */
 783:Drivers/STM32H5xx_HAL_Driver/Src/stm32h5xx_hal_dma.c ****         (void)HAL_DMA_Abort(hdma);
 784:Drivers/STM32H5xx_HAL_Driver/Src/stm32h5xx_hal_dma.c **** 
 785:Drivers/STM32H5xx_HAL_Driver/Src/stm32h5xx_hal_dma.c ****         return HAL_ERROR;
 786:Drivers/STM32H5xx_HAL_Driver/Src/stm32h5xx_hal_dma.c ****       }
 787:Drivers/STM32H5xx_HAL_Driver/Src/stm32h5xx_hal_dma.c ****     }
 788:Drivers/STM32H5xx_HAL_Driver/Src/stm32h5xx_hal_dma.c **** 
 789:Drivers/STM32H5xx_HAL_Driver/Src/stm32h5xx_hal_dma.c ****     /* Get a newer CSR register value */
 790:Drivers/STM32H5xx_HAL_Driver/Src/stm32h5xx_hal_dma.c ****     tmp_csr = hdma->Instance->CSR;
 791:Drivers/STM32H5xx_HAL_Driver/Src/stm32h5xx_hal_dma.c ****   }
 792:Drivers/STM32H5xx_HAL_Driver/Src/stm32h5xx_hal_dma.c **** 
 793:Drivers/STM32H5xx_HAL_Driver/Src/stm32h5xx_hal_dma.c ****   /* Check trigger overrun flag */
 794:Drivers/STM32H5xx_HAL_Driver/Src/stm32h5xx_hal_dma.c ****   if ((tmp_csr & DMA_FLAG_TO) != 0U)
 795:Drivers/STM32H5xx_HAL_Driver/Src/stm32h5xx_hal_dma.c ****   {
 796:Drivers/STM32H5xx_HAL_Driver/Src/stm32h5xx_hal_dma.c ****     /* Update the DMA channel error code */
 797:Drivers/STM32H5xx_HAL_Driver/Src/stm32h5xx_hal_dma.c ****     hdma->ErrorCode |= HAL_DMA_ERROR_TO;
 798:Drivers/STM32H5xx_HAL_Driver/Src/stm32h5xx_hal_dma.c **** 
 799:Drivers/STM32H5xx_HAL_Driver/Src/stm32h5xx_hal_dma.c ****     /* Clear the error flag */
 800:Drivers/STM32H5xx_HAL_Driver/Src/stm32h5xx_hal_dma.c ****     __HAL_DMA_CLEAR_FLAG(hdma, DMA_FLAG_TO);
 801:Drivers/STM32H5xx_HAL_Driver/Src/stm32h5xx_hal_dma.c ****   }
 802:Drivers/STM32H5xx_HAL_Driver/Src/stm32h5xx_hal_dma.c **** 
 803:Drivers/STM32H5xx_HAL_Driver/Src/stm32h5xx_hal_dma.c ****   /* Check error flags */
 804:Drivers/STM32H5xx_HAL_Driver/Src/stm32h5xx_hal_dma.c ****   if ((tmp_csr & (DMA_FLAG_DTE | DMA_FLAG_ULE | DMA_FLAG_USE)) != 0U)
 805:Drivers/STM32H5xx_HAL_Driver/Src/stm32h5xx_hal_dma.c ****   {
 806:Drivers/STM32H5xx_HAL_Driver/Src/stm32h5xx_hal_dma.c ****     /* Check the data transfer error flag */
 807:Drivers/STM32H5xx_HAL_Driver/Src/stm32h5xx_hal_dma.c ****     if ((tmp_csr & DMA_FLAG_DTE) != 0U)
 808:Drivers/STM32H5xx_HAL_Driver/Src/stm32h5xx_hal_dma.c ****     {
 809:Drivers/STM32H5xx_HAL_Driver/Src/stm32h5xx_hal_dma.c ****       /* Update the DMA channel error code */
 810:Drivers/STM32H5xx_HAL_Driver/Src/stm32h5xx_hal_dma.c ****       hdma->ErrorCode |= HAL_DMA_ERROR_DTE;
 811:Drivers/STM32H5xx_HAL_Driver/Src/stm32h5xx_hal_dma.c **** 
 812:Drivers/STM32H5xx_HAL_Driver/Src/stm32h5xx_hal_dma.c ****       /* Clear the error flag */
 813:Drivers/STM32H5xx_HAL_Driver/Src/stm32h5xx_hal_dma.c ****       __HAL_DMA_CLEAR_FLAG(hdma, DMA_FLAG_DTE);
 814:Drivers/STM32H5xx_HAL_Driver/Src/stm32h5xx_hal_dma.c ****     }
 815:Drivers/STM32H5xx_HAL_Driver/Src/stm32h5xx_hal_dma.c **** 
 816:Drivers/STM32H5xx_HAL_Driver/Src/stm32h5xx_hal_dma.c ****     /* Check the update link error flag */
 817:Drivers/STM32H5xx_HAL_Driver/Src/stm32h5xx_hal_dma.c ****     if ((tmp_csr & DMA_FLAG_ULE) != 0U)
 818:Drivers/STM32H5xx_HAL_Driver/Src/stm32h5xx_hal_dma.c ****     {
 819:Drivers/STM32H5xx_HAL_Driver/Src/stm32h5xx_hal_dma.c ****       /* Update the DMA channel error code */
 820:Drivers/STM32H5xx_HAL_Driver/Src/stm32h5xx_hal_dma.c ****       hdma->ErrorCode |= HAL_DMA_ERROR_ULE;
 821:Drivers/STM32H5xx_HAL_Driver/Src/stm32h5xx_hal_dma.c **** 
 822:Drivers/STM32H5xx_HAL_Driver/Src/stm32h5xx_hal_dma.c ****       /* Clear the error flag */
 823:Drivers/STM32H5xx_HAL_Driver/Src/stm32h5xx_hal_dma.c ****       __HAL_DMA_CLEAR_FLAG(hdma, DMA_FLAG_ULE);
 824:Drivers/STM32H5xx_HAL_Driver/Src/stm32h5xx_hal_dma.c ****     }
 825:Drivers/STM32H5xx_HAL_Driver/Src/stm32h5xx_hal_dma.c **** 
 826:Drivers/STM32H5xx_HAL_Driver/Src/stm32h5xx_hal_dma.c ****     /* Check the user setting error flag */
 827:Drivers/STM32H5xx_HAL_Driver/Src/stm32h5xx_hal_dma.c ****     if ((tmp_csr & DMA_FLAG_USE) != 0U)
ARM GAS  /tmp/ccQkXeUE.s 			page 16


 828:Drivers/STM32H5xx_HAL_Driver/Src/stm32h5xx_hal_dma.c ****     {
 829:Drivers/STM32H5xx_HAL_Driver/Src/stm32h5xx_hal_dma.c ****       /* Update the DMA channel error code */
 830:Drivers/STM32H5xx_HAL_Driver/Src/stm32h5xx_hal_dma.c ****       hdma->ErrorCode |= HAL_DMA_ERROR_USE;
 831:Drivers/STM32H5xx_HAL_Driver/Src/stm32h5xx_hal_dma.c **** 
 832:Drivers/STM32H5xx_HAL_Driver/Src/stm32h5xx_hal_dma.c ****       /* Clear the error flag */
 833:Drivers/STM32H5xx_HAL_Driver/Src/stm32h5xx_hal_dma.c ****       __HAL_DMA_CLEAR_FLAG(hdma, DMA_FLAG_USE);
 834:Drivers/STM32H5xx_HAL_Driver/Src/stm32h5xx_hal_dma.c ****     }
 835:Drivers/STM32H5xx_HAL_Driver/Src/stm32h5xx_hal_dma.c **** 
 836:Drivers/STM32H5xx_HAL_Driver/Src/stm32h5xx_hal_dma.c ****     /* Reset the channel */
 837:Drivers/STM32H5xx_HAL_Driver/Src/stm32h5xx_hal_dma.c ****     hdma->Instance->CCR |= DMA_CCR_RESET;
 838:Drivers/STM32H5xx_HAL_Driver/Src/stm32h5xx_hal_dma.c **** 
 839:Drivers/STM32H5xx_HAL_Driver/Src/stm32h5xx_hal_dma.c ****     /* Update the DMA channel state */
 840:Drivers/STM32H5xx_HAL_Driver/Src/stm32h5xx_hal_dma.c ****     hdma->State = HAL_DMA_STATE_READY;
 841:Drivers/STM32H5xx_HAL_Driver/Src/stm32h5xx_hal_dma.c **** 
 842:Drivers/STM32H5xx_HAL_Driver/Src/stm32h5xx_hal_dma.c ****     /* Check DMA channel transfer mode */
 843:Drivers/STM32H5xx_HAL_Driver/Src/stm32h5xx_hal_dma.c ****     if ((hdma->Mode & DMA_LINKEDLIST) == DMA_LINKEDLIST)
 844:Drivers/STM32H5xx_HAL_Driver/Src/stm32h5xx_hal_dma.c ****     {
 845:Drivers/STM32H5xx_HAL_Driver/Src/stm32h5xx_hal_dma.c ****       /* Update the linked-list queue state */
 846:Drivers/STM32H5xx_HAL_Driver/Src/stm32h5xx_hal_dma.c ****       hdma->LinkedListQueue->State = HAL_DMA_QUEUE_STATE_READY;
 847:Drivers/STM32H5xx_HAL_Driver/Src/stm32h5xx_hal_dma.c ****     }
 848:Drivers/STM32H5xx_HAL_Driver/Src/stm32h5xx_hal_dma.c **** 
 849:Drivers/STM32H5xx_HAL_Driver/Src/stm32h5xx_hal_dma.c ****     /* Process Unlocked */
 850:Drivers/STM32H5xx_HAL_Driver/Src/stm32h5xx_hal_dma.c ****     __HAL_UNLOCK(hdma);
 851:Drivers/STM32H5xx_HAL_Driver/Src/stm32h5xx_hal_dma.c **** 
 852:Drivers/STM32H5xx_HAL_Driver/Src/stm32h5xx_hal_dma.c ****     return HAL_ERROR;
 853:Drivers/STM32H5xx_HAL_Driver/Src/stm32h5xx_hal_dma.c ****   }
 854:Drivers/STM32H5xx_HAL_Driver/Src/stm32h5xx_hal_dma.c **** 
 855:Drivers/STM32H5xx_HAL_Driver/Src/stm32h5xx_hal_dma.c ****   /* Clear the transfer level flag */
 856:Drivers/STM32H5xx_HAL_Driver/Src/stm32h5xx_hal_dma.c ****   if (CompleteLevel == HAL_DMA_HALF_TRANSFER)
 857:Drivers/STM32H5xx_HAL_Driver/Src/stm32h5xx_hal_dma.c ****   {
 858:Drivers/STM32H5xx_HAL_Driver/Src/stm32h5xx_hal_dma.c ****     /* Clear the Half Transfer flag */
 859:Drivers/STM32H5xx_HAL_Driver/Src/stm32h5xx_hal_dma.c ****     __HAL_DMA_CLEAR_FLAG(hdma, DMA_FLAG_HT);
 860:Drivers/STM32H5xx_HAL_Driver/Src/stm32h5xx_hal_dma.c ****   }
 861:Drivers/STM32H5xx_HAL_Driver/Src/stm32h5xx_hal_dma.c ****   else if (CompleteLevel == HAL_DMA_FULL_TRANSFER)
 862:Drivers/STM32H5xx_HAL_Driver/Src/stm32h5xx_hal_dma.c ****   {
 863:Drivers/STM32H5xx_HAL_Driver/Src/stm32h5xx_hal_dma.c ****     /* Clear the transfer flags */
 864:Drivers/STM32H5xx_HAL_Driver/Src/stm32h5xx_hal_dma.c ****     __HAL_DMA_CLEAR_FLAG(hdma, (DMA_FLAG_TC | DMA_FLAG_HT));
 865:Drivers/STM32H5xx_HAL_Driver/Src/stm32h5xx_hal_dma.c **** 
 866:Drivers/STM32H5xx_HAL_Driver/Src/stm32h5xx_hal_dma.c ****     /* Update the DMA channel state */
 867:Drivers/STM32H5xx_HAL_Driver/Src/stm32h5xx_hal_dma.c ****     hdma->State = HAL_DMA_STATE_READY;
 868:Drivers/STM32H5xx_HAL_Driver/Src/stm32h5xx_hal_dma.c **** 
 869:Drivers/STM32H5xx_HAL_Driver/Src/stm32h5xx_hal_dma.c ****     /* Check DMA channel transfer mode */
 870:Drivers/STM32H5xx_HAL_Driver/Src/stm32h5xx_hal_dma.c ****     if ((hdma->Mode & DMA_LINKEDLIST) == DMA_LINKEDLIST)
 871:Drivers/STM32H5xx_HAL_Driver/Src/stm32h5xx_hal_dma.c ****     {
 872:Drivers/STM32H5xx_HAL_Driver/Src/stm32h5xx_hal_dma.c ****       /* Update the linked-list queue state */
 873:Drivers/STM32H5xx_HAL_Driver/Src/stm32h5xx_hal_dma.c ****       hdma->LinkedListQueue->State = HAL_DMA_QUEUE_STATE_READY;
 874:Drivers/STM32H5xx_HAL_Driver/Src/stm32h5xx_hal_dma.c ****     }
 875:Drivers/STM32H5xx_HAL_Driver/Src/stm32h5xx_hal_dma.c **** 
 876:Drivers/STM32H5xx_HAL_Driver/Src/stm32h5xx_hal_dma.c ****     /* Process unlocked */
 877:Drivers/STM32H5xx_HAL_Driver/Src/stm32h5xx_hal_dma.c ****     __HAL_UNLOCK(hdma);
 878:Drivers/STM32H5xx_HAL_Driver/Src/stm32h5xx_hal_dma.c ****   }
 879:Drivers/STM32H5xx_HAL_Driver/Src/stm32h5xx_hal_dma.c ****   else
 880:Drivers/STM32H5xx_HAL_Driver/Src/stm32h5xx_hal_dma.c ****   {
 881:Drivers/STM32H5xx_HAL_Driver/Src/stm32h5xx_hal_dma.c ****     return HAL_ERROR;
 882:Drivers/STM32H5xx_HAL_Driver/Src/stm32h5xx_hal_dma.c ****   }
 883:Drivers/STM32H5xx_HAL_Driver/Src/stm32h5xx_hal_dma.c **** 
 884:Drivers/STM32H5xx_HAL_Driver/Src/stm32h5xx_hal_dma.c ****   return HAL_OK;
ARM GAS  /tmp/ccQkXeUE.s 			page 17


 885:Drivers/STM32H5xx_HAL_Driver/Src/stm32h5xx_hal_dma.c **** }
 886:Drivers/STM32H5xx_HAL_Driver/Src/stm32h5xx_hal_dma.c **** 
 887:Drivers/STM32H5xx_HAL_Driver/Src/stm32h5xx_hal_dma.c **** /**
 888:Drivers/STM32H5xx_HAL_Driver/Src/stm32h5xx_hal_dma.c ****   * @brief  Handle DMA interrupt request (Non-blocking mode).
 889:Drivers/STM32H5xx_HAL_Driver/Src/stm32h5xx_hal_dma.c ****   * @param  hdma : Pointer to a DMA_HandleTypeDef structure that contains the configuration informa
 890:Drivers/STM32H5xx_HAL_Driver/Src/stm32h5xx_hal_dma.c ****   *                specified DMA Channel.
 891:Drivers/STM32H5xx_HAL_Driver/Src/stm32h5xx_hal_dma.c ****   * @retval None.
 892:Drivers/STM32H5xx_HAL_Driver/Src/stm32h5xx_hal_dma.c ****   */
 893:Drivers/STM32H5xx_HAL_Driver/Src/stm32h5xx_hal_dma.c **** void HAL_DMA_IRQHandler(DMA_HandleTypeDef *const hdma)
 894:Drivers/STM32H5xx_HAL_Driver/Src/stm32h5xx_hal_dma.c **** {
 895:Drivers/STM32H5xx_HAL_Driver/Src/stm32h5xx_hal_dma.c ****   const DMA_TypeDef *p_dma_instance = GET_DMA_INSTANCE(hdma);
 896:Drivers/STM32H5xx_HAL_Driver/Src/stm32h5xx_hal_dma.c ****   uint32_t global_it_flag =  1UL << (GET_DMA_CHANNEL(hdma) & 0x1FU);
 897:Drivers/STM32H5xx_HAL_Driver/Src/stm32h5xx_hal_dma.c ****   uint32_t global_active_flag_ns = IS_DMA_GLOBAL_ACTIVE_FLAG_NS(p_dma_instance, global_it_flag);
 898:Drivers/STM32H5xx_HAL_Driver/Src/stm32h5xx_hal_dma.c **** #if defined (__ARM_FEATURE_CMSE) && (__ARM_FEATURE_CMSE == 3U)
 899:Drivers/STM32H5xx_HAL_Driver/Src/stm32h5xx_hal_dma.c ****   uint32_t global_active_flag_s = IS_DMA_GLOBAL_ACTIVE_FLAG_S(p_dma_instance, global_it_flag);
 900:Drivers/STM32H5xx_HAL_Driver/Src/stm32h5xx_hal_dma.c **** #endif /* (__ARM_FEATURE_CMSE) && (__ARM_FEATURE_CMSE == 3U) */
 901:Drivers/STM32H5xx_HAL_Driver/Src/stm32h5xx_hal_dma.c **** 
 902:Drivers/STM32H5xx_HAL_Driver/Src/stm32h5xx_hal_dma.c ****   /* Global Interrupt Flag management *************************************************************
 903:Drivers/STM32H5xx_HAL_Driver/Src/stm32h5xx_hal_dma.c **** #if defined (__ARM_FEATURE_CMSE) && (__ARM_FEATURE_CMSE == 3U)
 904:Drivers/STM32H5xx_HAL_Driver/Src/stm32h5xx_hal_dma.c ****   if ((global_active_flag_s == 0U) && (global_active_flag_ns == 0U))
 905:Drivers/STM32H5xx_HAL_Driver/Src/stm32h5xx_hal_dma.c **** #else
 906:Drivers/STM32H5xx_HAL_Driver/Src/stm32h5xx_hal_dma.c ****   if (global_active_flag_ns == 0U)
 907:Drivers/STM32H5xx_HAL_Driver/Src/stm32h5xx_hal_dma.c **** #endif /* (__ARM_FEATURE_CMSE) && (__ARM_FEATURE_CMSE == 3U) */
 908:Drivers/STM32H5xx_HAL_Driver/Src/stm32h5xx_hal_dma.c ****   {
 909:Drivers/STM32H5xx_HAL_Driver/Src/stm32h5xx_hal_dma.c ****     return; /* the global interrupt flag for the current channel is down , nothing to do */
 910:Drivers/STM32H5xx_HAL_Driver/Src/stm32h5xx_hal_dma.c ****   }
 911:Drivers/STM32H5xx_HAL_Driver/Src/stm32h5xx_hal_dma.c **** 
 912:Drivers/STM32H5xx_HAL_Driver/Src/stm32h5xx_hal_dma.c ****   /* Data Transfer Error Interrupt management *****************************************************
 913:Drivers/STM32H5xx_HAL_Driver/Src/stm32h5xx_hal_dma.c ****   if ((__HAL_DMA_GET_FLAG(hdma, DMA_FLAG_DTE) != 0U))
 914:Drivers/STM32H5xx_HAL_Driver/Src/stm32h5xx_hal_dma.c ****   {
 915:Drivers/STM32H5xx_HAL_Driver/Src/stm32h5xx_hal_dma.c ****     /* Check if interrupt source is enabled */
 916:Drivers/STM32H5xx_HAL_Driver/Src/stm32h5xx_hal_dma.c ****     if (__HAL_DMA_GET_IT_SOURCE(hdma, DMA_IT_DTE) != 0U)
 917:Drivers/STM32H5xx_HAL_Driver/Src/stm32h5xx_hal_dma.c ****     {
 918:Drivers/STM32H5xx_HAL_Driver/Src/stm32h5xx_hal_dma.c ****       /* Clear the transfer error flag */
 919:Drivers/STM32H5xx_HAL_Driver/Src/stm32h5xx_hal_dma.c ****       __HAL_DMA_CLEAR_FLAG(hdma, DMA_FLAG_DTE);
 920:Drivers/STM32H5xx_HAL_Driver/Src/stm32h5xx_hal_dma.c **** 
 921:Drivers/STM32H5xx_HAL_Driver/Src/stm32h5xx_hal_dma.c ****       /* Update the DMA channel error code */
 922:Drivers/STM32H5xx_HAL_Driver/Src/stm32h5xx_hal_dma.c ****       hdma->ErrorCode |= HAL_DMA_ERROR_DTE;
 923:Drivers/STM32H5xx_HAL_Driver/Src/stm32h5xx_hal_dma.c ****     }
 924:Drivers/STM32H5xx_HAL_Driver/Src/stm32h5xx_hal_dma.c ****   }
 925:Drivers/STM32H5xx_HAL_Driver/Src/stm32h5xx_hal_dma.c **** 
 926:Drivers/STM32H5xx_HAL_Driver/Src/stm32h5xx_hal_dma.c ****   /* Update Linked-list Error Interrupt management ************************************************
 927:Drivers/STM32H5xx_HAL_Driver/Src/stm32h5xx_hal_dma.c ****   if ((__HAL_DMA_GET_FLAG(hdma, DMA_FLAG_ULE) != 0U))
 928:Drivers/STM32H5xx_HAL_Driver/Src/stm32h5xx_hal_dma.c ****   {
 929:Drivers/STM32H5xx_HAL_Driver/Src/stm32h5xx_hal_dma.c ****     /* Check if interrupt source is enabled */
 930:Drivers/STM32H5xx_HAL_Driver/Src/stm32h5xx_hal_dma.c ****     if (__HAL_DMA_GET_IT_SOURCE(hdma, DMA_IT_ULE) != 0U)
 931:Drivers/STM32H5xx_HAL_Driver/Src/stm32h5xx_hal_dma.c ****     {
 932:Drivers/STM32H5xx_HAL_Driver/Src/stm32h5xx_hal_dma.c ****       /* Clear the update linked-list error flag */
 933:Drivers/STM32H5xx_HAL_Driver/Src/stm32h5xx_hal_dma.c ****       __HAL_DMA_CLEAR_FLAG(hdma, DMA_FLAG_ULE);
 934:Drivers/STM32H5xx_HAL_Driver/Src/stm32h5xx_hal_dma.c **** 
 935:Drivers/STM32H5xx_HAL_Driver/Src/stm32h5xx_hal_dma.c ****       /* Update the DMA channel error code */
 936:Drivers/STM32H5xx_HAL_Driver/Src/stm32h5xx_hal_dma.c ****       hdma->ErrorCode |= HAL_DMA_ERROR_ULE;
 937:Drivers/STM32H5xx_HAL_Driver/Src/stm32h5xx_hal_dma.c ****     }
 938:Drivers/STM32H5xx_HAL_Driver/Src/stm32h5xx_hal_dma.c ****   }
 939:Drivers/STM32H5xx_HAL_Driver/Src/stm32h5xx_hal_dma.c **** 
 940:Drivers/STM32H5xx_HAL_Driver/Src/stm32h5xx_hal_dma.c ****   /* User Setting Error Interrupt management ******************************************************
 941:Drivers/STM32H5xx_HAL_Driver/Src/stm32h5xx_hal_dma.c ****   if ((__HAL_DMA_GET_FLAG(hdma, DMA_FLAG_USE) != 0U))
ARM GAS  /tmp/ccQkXeUE.s 			page 18


 942:Drivers/STM32H5xx_HAL_Driver/Src/stm32h5xx_hal_dma.c ****   {
 943:Drivers/STM32H5xx_HAL_Driver/Src/stm32h5xx_hal_dma.c ****     /* Check if interrupt source is enabled */
 944:Drivers/STM32H5xx_HAL_Driver/Src/stm32h5xx_hal_dma.c ****     if (__HAL_DMA_GET_IT_SOURCE(hdma, DMA_IT_USE) != 0U)
 945:Drivers/STM32H5xx_HAL_Driver/Src/stm32h5xx_hal_dma.c ****     {
 946:Drivers/STM32H5xx_HAL_Driver/Src/stm32h5xx_hal_dma.c ****       /* Clear the user setting error flag */
 947:Drivers/STM32H5xx_HAL_Driver/Src/stm32h5xx_hal_dma.c ****       __HAL_DMA_CLEAR_FLAG(hdma, DMA_FLAG_USE);
 948:Drivers/STM32H5xx_HAL_Driver/Src/stm32h5xx_hal_dma.c **** 
 949:Drivers/STM32H5xx_HAL_Driver/Src/stm32h5xx_hal_dma.c ****       /* Update the DMA channel error code */
 950:Drivers/STM32H5xx_HAL_Driver/Src/stm32h5xx_hal_dma.c ****       hdma->ErrorCode |= HAL_DMA_ERROR_USE;
 951:Drivers/STM32H5xx_HAL_Driver/Src/stm32h5xx_hal_dma.c ****     }
 952:Drivers/STM32H5xx_HAL_Driver/Src/stm32h5xx_hal_dma.c ****   }
 953:Drivers/STM32H5xx_HAL_Driver/Src/stm32h5xx_hal_dma.c **** 
 954:Drivers/STM32H5xx_HAL_Driver/Src/stm32h5xx_hal_dma.c ****   /* Trigger Overrun Interrupt management *********************************************************
 955:Drivers/STM32H5xx_HAL_Driver/Src/stm32h5xx_hal_dma.c ****   if ((__HAL_DMA_GET_FLAG(hdma, DMA_FLAG_TO) != 0U))
 956:Drivers/STM32H5xx_HAL_Driver/Src/stm32h5xx_hal_dma.c ****   {
 957:Drivers/STM32H5xx_HAL_Driver/Src/stm32h5xx_hal_dma.c ****     /* Check if interrupt source is enabled */
 958:Drivers/STM32H5xx_HAL_Driver/Src/stm32h5xx_hal_dma.c ****     if (__HAL_DMA_GET_IT_SOURCE(hdma, DMA_IT_TO) != 0U)
 959:Drivers/STM32H5xx_HAL_Driver/Src/stm32h5xx_hal_dma.c ****     {
 960:Drivers/STM32H5xx_HAL_Driver/Src/stm32h5xx_hal_dma.c ****       /* Clear the trigger overrun flag */
 961:Drivers/STM32H5xx_HAL_Driver/Src/stm32h5xx_hal_dma.c ****       __HAL_DMA_CLEAR_FLAG(hdma, DMA_FLAG_TO);
 962:Drivers/STM32H5xx_HAL_Driver/Src/stm32h5xx_hal_dma.c **** 
 963:Drivers/STM32H5xx_HAL_Driver/Src/stm32h5xx_hal_dma.c ****       /* Update the DMA channel error code */
 964:Drivers/STM32H5xx_HAL_Driver/Src/stm32h5xx_hal_dma.c ****       hdma->ErrorCode |= HAL_DMA_ERROR_TO;
 965:Drivers/STM32H5xx_HAL_Driver/Src/stm32h5xx_hal_dma.c ****     }
 966:Drivers/STM32H5xx_HAL_Driver/Src/stm32h5xx_hal_dma.c ****   }
 967:Drivers/STM32H5xx_HAL_Driver/Src/stm32h5xx_hal_dma.c **** 
 968:Drivers/STM32H5xx_HAL_Driver/Src/stm32h5xx_hal_dma.c ****   /* Half Transfer Complete Interrupt management **************************************************
 969:Drivers/STM32H5xx_HAL_Driver/Src/stm32h5xx_hal_dma.c ****   if ((__HAL_DMA_GET_FLAG(hdma, DMA_FLAG_HT) != 0U))
 970:Drivers/STM32H5xx_HAL_Driver/Src/stm32h5xx_hal_dma.c ****   {
 971:Drivers/STM32H5xx_HAL_Driver/Src/stm32h5xx_hal_dma.c ****     /* Check if interrupt source is enabled */
 972:Drivers/STM32H5xx_HAL_Driver/Src/stm32h5xx_hal_dma.c ****     if (__HAL_DMA_GET_IT_SOURCE(hdma, DMA_IT_HT) != 0U)
 973:Drivers/STM32H5xx_HAL_Driver/Src/stm32h5xx_hal_dma.c ****     {
 974:Drivers/STM32H5xx_HAL_Driver/Src/stm32h5xx_hal_dma.c ****       /* Clear the half transfer flag */
 975:Drivers/STM32H5xx_HAL_Driver/Src/stm32h5xx_hal_dma.c ****       __HAL_DMA_CLEAR_FLAG(hdma, DMA_FLAG_HT);
 976:Drivers/STM32H5xx_HAL_Driver/Src/stm32h5xx_hal_dma.c **** 
 977:Drivers/STM32H5xx_HAL_Driver/Src/stm32h5xx_hal_dma.c ****       /* Check half transfer complete callback */
 978:Drivers/STM32H5xx_HAL_Driver/Src/stm32h5xx_hal_dma.c ****       if (hdma->XferHalfCpltCallback != NULL)
 979:Drivers/STM32H5xx_HAL_Driver/Src/stm32h5xx_hal_dma.c ****       {
 980:Drivers/STM32H5xx_HAL_Driver/Src/stm32h5xx_hal_dma.c ****         /* Half transfer callback */
 981:Drivers/STM32H5xx_HAL_Driver/Src/stm32h5xx_hal_dma.c ****         hdma->XferHalfCpltCallback(hdma);
 982:Drivers/STM32H5xx_HAL_Driver/Src/stm32h5xx_hal_dma.c ****       }
 983:Drivers/STM32H5xx_HAL_Driver/Src/stm32h5xx_hal_dma.c ****     }
 984:Drivers/STM32H5xx_HAL_Driver/Src/stm32h5xx_hal_dma.c ****   }
 985:Drivers/STM32H5xx_HAL_Driver/Src/stm32h5xx_hal_dma.c **** 
 986:Drivers/STM32H5xx_HAL_Driver/Src/stm32h5xx_hal_dma.c ****   /* Suspend Transfer Interrupt management ********************************************************
 987:Drivers/STM32H5xx_HAL_Driver/Src/stm32h5xx_hal_dma.c ****   if ((__HAL_DMA_GET_FLAG(hdma, DMA_FLAG_SUSP) != 0U))
 988:Drivers/STM32H5xx_HAL_Driver/Src/stm32h5xx_hal_dma.c ****   {
 989:Drivers/STM32H5xx_HAL_Driver/Src/stm32h5xx_hal_dma.c ****     /* Check if interrupt source is enabled */
 990:Drivers/STM32H5xx_HAL_Driver/Src/stm32h5xx_hal_dma.c ****     if (__HAL_DMA_GET_IT_SOURCE(hdma, DMA_IT_SUSP) != 0U)
 991:Drivers/STM32H5xx_HAL_Driver/Src/stm32h5xx_hal_dma.c ****     {
 992:Drivers/STM32H5xx_HAL_Driver/Src/stm32h5xx_hal_dma.c ****       /* Clear the block transfer complete flag */
 993:Drivers/STM32H5xx_HAL_Driver/Src/stm32h5xx_hal_dma.c ****       __HAL_DMA_CLEAR_FLAG(hdma, DMA_FLAG_SUSP);
 994:Drivers/STM32H5xx_HAL_Driver/Src/stm32h5xx_hal_dma.c **** 
 995:Drivers/STM32H5xx_HAL_Driver/Src/stm32h5xx_hal_dma.c ****       /* Check DMA channel state */
 996:Drivers/STM32H5xx_HAL_Driver/Src/stm32h5xx_hal_dma.c ****       if (hdma->State == HAL_DMA_STATE_ABORT)
 997:Drivers/STM32H5xx_HAL_Driver/Src/stm32h5xx_hal_dma.c ****       {
 998:Drivers/STM32H5xx_HAL_Driver/Src/stm32h5xx_hal_dma.c ****         /* Disable the suspend transfer interrupt */
ARM GAS  /tmp/ccQkXeUE.s 			page 19


 999:Drivers/STM32H5xx_HAL_Driver/Src/stm32h5xx_hal_dma.c ****         __HAL_DMA_DISABLE_IT(hdma, DMA_IT_SUSP);
1000:Drivers/STM32H5xx_HAL_Driver/Src/stm32h5xx_hal_dma.c **** 
1001:Drivers/STM32H5xx_HAL_Driver/Src/stm32h5xx_hal_dma.c ****         /* Reset the channel internal state and reset the FIFO */
1002:Drivers/STM32H5xx_HAL_Driver/Src/stm32h5xx_hal_dma.c ****         hdma->Instance->CCR |= DMA_CCR_RESET;
1003:Drivers/STM32H5xx_HAL_Driver/Src/stm32h5xx_hal_dma.c **** 
1004:Drivers/STM32H5xx_HAL_Driver/Src/stm32h5xx_hal_dma.c ****         /* Update the DMA channel state */
1005:Drivers/STM32H5xx_HAL_Driver/Src/stm32h5xx_hal_dma.c ****         hdma->State = HAL_DMA_STATE_READY;
1006:Drivers/STM32H5xx_HAL_Driver/Src/stm32h5xx_hal_dma.c **** 
1007:Drivers/STM32H5xx_HAL_Driver/Src/stm32h5xx_hal_dma.c ****         /* Check DMA channel transfer mode */
1008:Drivers/STM32H5xx_HAL_Driver/Src/stm32h5xx_hal_dma.c ****         if ((hdma->Mode & DMA_LINKEDLIST) == DMA_LINKEDLIST)
1009:Drivers/STM32H5xx_HAL_Driver/Src/stm32h5xx_hal_dma.c ****         {
1010:Drivers/STM32H5xx_HAL_Driver/Src/stm32h5xx_hal_dma.c ****           /* Update the linked-list queue state */
1011:Drivers/STM32H5xx_HAL_Driver/Src/stm32h5xx_hal_dma.c ****           hdma->LinkedListQueue->State = HAL_DMA_QUEUE_STATE_READY;
1012:Drivers/STM32H5xx_HAL_Driver/Src/stm32h5xx_hal_dma.c **** 
1013:Drivers/STM32H5xx_HAL_Driver/Src/stm32h5xx_hal_dma.c ****           /* Clear remaining data size to ensure loading linked-list from memory next start */
1014:Drivers/STM32H5xx_HAL_Driver/Src/stm32h5xx_hal_dma.c ****           hdma->Instance->CBR1 = 0U;
1015:Drivers/STM32H5xx_HAL_Driver/Src/stm32h5xx_hal_dma.c ****         }
1016:Drivers/STM32H5xx_HAL_Driver/Src/stm32h5xx_hal_dma.c **** 
1017:Drivers/STM32H5xx_HAL_Driver/Src/stm32h5xx_hal_dma.c ****         /* Process Unlocked */
1018:Drivers/STM32H5xx_HAL_Driver/Src/stm32h5xx_hal_dma.c ****         __HAL_UNLOCK(hdma);
1019:Drivers/STM32H5xx_HAL_Driver/Src/stm32h5xx_hal_dma.c **** 
1020:Drivers/STM32H5xx_HAL_Driver/Src/stm32h5xx_hal_dma.c ****         /* Check transfer abort callback */
1021:Drivers/STM32H5xx_HAL_Driver/Src/stm32h5xx_hal_dma.c ****         if (hdma->XferAbortCallback != NULL)
1022:Drivers/STM32H5xx_HAL_Driver/Src/stm32h5xx_hal_dma.c ****         {
1023:Drivers/STM32H5xx_HAL_Driver/Src/stm32h5xx_hal_dma.c ****           /* Transfer abort callback */
1024:Drivers/STM32H5xx_HAL_Driver/Src/stm32h5xx_hal_dma.c ****           hdma->XferAbortCallback(hdma);
1025:Drivers/STM32H5xx_HAL_Driver/Src/stm32h5xx_hal_dma.c ****         }
1026:Drivers/STM32H5xx_HAL_Driver/Src/stm32h5xx_hal_dma.c **** 
1027:Drivers/STM32H5xx_HAL_Driver/Src/stm32h5xx_hal_dma.c ****         return;
1028:Drivers/STM32H5xx_HAL_Driver/Src/stm32h5xx_hal_dma.c ****       }
1029:Drivers/STM32H5xx_HAL_Driver/Src/stm32h5xx_hal_dma.c ****       else
1030:Drivers/STM32H5xx_HAL_Driver/Src/stm32h5xx_hal_dma.c ****       {
1031:Drivers/STM32H5xx_HAL_Driver/Src/stm32h5xx_hal_dma.c ****         /* Update the DMA channel state */
1032:Drivers/STM32H5xx_HAL_Driver/Src/stm32h5xx_hal_dma.c ****         hdma->State = HAL_DMA_STATE_SUSPEND;
1033:Drivers/STM32H5xx_HAL_Driver/Src/stm32h5xx_hal_dma.c **** 
1034:Drivers/STM32H5xx_HAL_Driver/Src/stm32h5xx_hal_dma.c ****         /* Check transfer suspend callback */
1035:Drivers/STM32H5xx_HAL_Driver/Src/stm32h5xx_hal_dma.c ****         if (hdma->XferSuspendCallback != NULL)
1036:Drivers/STM32H5xx_HAL_Driver/Src/stm32h5xx_hal_dma.c ****         {
1037:Drivers/STM32H5xx_HAL_Driver/Src/stm32h5xx_hal_dma.c ****           /* Transfer suspend callback */
1038:Drivers/STM32H5xx_HAL_Driver/Src/stm32h5xx_hal_dma.c ****           hdma->XferSuspendCallback(hdma);
1039:Drivers/STM32H5xx_HAL_Driver/Src/stm32h5xx_hal_dma.c ****         }
1040:Drivers/STM32H5xx_HAL_Driver/Src/stm32h5xx_hal_dma.c ****       }
1041:Drivers/STM32H5xx_HAL_Driver/Src/stm32h5xx_hal_dma.c ****     }
1042:Drivers/STM32H5xx_HAL_Driver/Src/stm32h5xx_hal_dma.c ****   }
1043:Drivers/STM32H5xx_HAL_Driver/Src/stm32h5xx_hal_dma.c **** 
1044:Drivers/STM32H5xx_HAL_Driver/Src/stm32h5xx_hal_dma.c ****   /* Transfer Complete Interrupt management *******************************************************
1045:Drivers/STM32H5xx_HAL_Driver/Src/stm32h5xx_hal_dma.c ****   if ((__HAL_DMA_GET_FLAG(hdma, DMA_FLAG_TC) != 0U))
1046:Drivers/STM32H5xx_HAL_Driver/Src/stm32h5xx_hal_dma.c ****   {
1047:Drivers/STM32H5xx_HAL_Driver/Src/stm32h5xx_hal_dma.c ****     /* Check if interrupt source is enabled */
1048:Drivers/STM32H5xx_HAL_Driver/Src/stm32h5xx_hal_dma.c ****     if (__HAL_DMA_GET_IT_SOURCE(hdma, DMA_IT_TC) != 0U)
1049:Drivers/STM32H5xx_HAL_Driver/Src/stm32h5xx_hal_dma.c ****     {
1050:Drivers/STM32H5xx_HAL_Driver/Src/stm32h5xx_hal_dma.c ****       /* Check DMA channel transfer mode */
1051:Drivers/STM32H5xx_HAL_Driver/Src/stm32h5xx_hal_dma.c ****       if ((hdma->Mode & DMA_LINKEDLIST) == DMA_LINKEDLIST)
1052:Drivers/STM32H5xx_HAL_Driver/Src/stm32h5xx_hal_dma.c ****       {
1053:Drivers/STM32H5xx_HAL_Driver/Src/stm32h5xx_hal_dma.c ****         /* If linked-list transfer */
1054:Drivers/STM32H5xx_HAL_Driver/Src/stm32h5xx_hal_dma.c ****         if (hdma->Instance->CLLR == 0U)
1055:Drivers/STM32H5xx_HAL_Driver/Src/stm32h5xx_hal_dma.c ****         {
ARM GAS  /tmp/ccQkXeUE.s 			page 20


1056:Drivers/STM32H5xx_HAL_Driver/Src/stm32h5xx_hal_dma.c ****           if (hdma->Instance->CBR1 == 0U)
1057:Drivers/STM32H5xx_HAL_Driver/Src/stm32h5xx_hal_dma.c ****           {
1058:Drivers/STM32H5xx_HAL_Driver/Src/stm32h5xx_hal_dma.c ****             /* Update the DMA channel state */
1059:Drivers/STM32H5xx_HAL_Driver/Src/stm32h5xx_hal_dma.c ****             hdma->State = HAL_DMA_STATE_READY;
1060:Drivers/STM32H5xx_HAL_Driver/Src/stm32h5xx_hal_dma.c **** 
1061:Drivers/STM32H5xx_HAL_Driver/Src/stm32h5xx_hal_dma.c ****             /* Update the linked-list queue state */
1062:Drivers/STM32H5xx_HAL_Driver/Src/stm32h5xx_hal_dma.c ****             hdma->LinkedListQueue->State = HAL_DMA_QUEUE_STATE_READY;
1063:Drivers/STM32H5xx_HAL_Driver/Src/stm32h5xx_hal_dma.c ****           }
1064:Drivers/STM32H5xx_HAL_Driver/Src/stm32h5xx_hal_dma.c ****         }
1065:Drivers/STM32H5xx_HAL_Driver/Src/stm32h5xx_hal_dma.c ****       }
1066:Drivers/STM32H5xx_HAL_Driver/Src/stm32h5xx_hal_dma.c ****       else
1067:Drivers/STM32H5xx_HAL_Driver/Src/stm32h5xx_hal_dma.c ****       {
1068:Drivers/STM32H5xx_HAL_Driver/Src/stm32h5xx_hal_dma.c ****         /* If normal transfer */
1069:Drivers/STM32H5xx_HAL_Driver/Src/stm32h5xx_hal_dma.c ****         if (hdma->Instance->CBR1 == 0U)
1070:Drivers/STM32H5xx_HAL_Driver/Src/stm32h5xx_hal_dma.c ****         {
1071:Drivers/STM32H5xx_HAL_Driver/Src/stm32h5xx_hal_dma.c ****           /* Update the DMA channel state */
1072:Drivers/STM32H5xx_HAL_Driver/Src/stm32h5xx_hal_dma.c ****           hdma->State = HAL_DMA_STATE_READY;
1073:Drivers/STM32H5xx_HAL_Driver/Src/stm32h5xx_hal_dma.c ****         }
1074:Drivers/STM32H5xx_HAL_Driver/Src/stm32h5xx_hal_dma.c ****       }
1075:Drivers/STM32H5xx_HAL_Driver/Src/stm32h5xx_hal_dma.c **** 
1076:Drivers/STM32H5xx_HAL_Driver/Src/stm32h5xx_hal_dma.c ****       /* Clear TC and HT transfer flags */
1077:Drivers/STM32H5xx_HAL_Driver/Src/stm32h5xx_hal_dma.c ****       __HAL_DMA_CLEAR_FLAG(hdma, (DMA_FLAG_TC | DMA_FLAG_HT));
1078:Drivers/STM32H5xx_HAL_Driver/Src/stm32h5xx_hal_dma.c **** 
1079:Drivers/STM32H5xx_HAL_Driver/Src/stm32h5xx_hal_dma.c ****       /* Process Unlocked */
1080:Drivers/STM32H5xx_HAL_Driver/Src/stm32h5xx_hal_dma.c ****       __HAL_UNLOCK(hdma);
1081:Drivers/STM32H5xx_HAL_Driver/Src/stm32h5xx_hal_dma.c **** 
1082:Drivers/STM32H5xx_HAL_Driver/Src/stm32h5xx_hal_dma.c ****       /* Check transfer complete callback */
1083:Drivers/STM32H5xx_HAL_Driver/Src/stm32h5xx_hal_dma.c ****       if (hdma->XferCpltCallback != NULL)
1084:Drivers/STM32H5xx_HAL_Driver/Src/stm32h5xx_hal_dma.c ****       {
1085:Drivers/STM32H5xx_HAL_Driver/Src/stm32h5xx_hal_dma.c ****         /* Channel Transfer Complete callback */
1086:Drivers/STM32H5xx_HAL_Driver/Src/stm32h5xx_hal_dma.c ****         hdma->XferCpltCallback(hdma);
1087:Drivers/STM32H5xx_HAL_Driver/Src/stm32h5xx_hal_dma.c ****       }
1088:Drivers/STM32H5xx_HAL_Driver/Src/stm32h5xx_hal_dma.c ****     }
1089:Drivers/STM32H5xx_HAL_Driver/Src/stm32h5xx_hal_dma.c ****   }
1090:Drivers/STM32H5xx_HAL_Driver/Src/stm32h5xx_hal_dma.c **** 
1091:Drivers/STM32H5xx_HAL_Driver/Src/stm32h5xx_hal_dma.c ****   /* Manage error case ****************************************************************************
1092:Drivers/STM32H5xx_HAL_Driver/Src/stm32h5xx_hal_dma.c ****   if (hdma->ErrorCode != HAL_DMA_ERROR_NONE)
1093:Drivers/STM32H5xx_HAL_Driver/Src/stm32h5xx_hal_dma.c ****   {
1094:Drivers/STM32H5xx_HAL_Driver/Src/stm32h5xx_hal_dma.c ****     /* Reset the channel internal state and reset the FIFO */
1095:Drivers/STM32H5xx_HAL_Driver/Src/stm32h5xx_hal_dma.c ****     hdma->Instance->CCR |= DMA_CCR_RESET;
1096:Drivers/STM32H5xx_HAL_Driver/Src/stm32h5xx_hal_dma.c **** 
1097:Drivers/STM32H5xx_HAL_Driver/Src/stm32h5xx_hal_dma.c ****     /* Update the DMA channel state */
1098:Drivers/STM32H5xx_HAL_Driver/Src/stm32h5xx_hal_dma.c ****     hdma->State = HAL_DMA_STATE_READY;
1099:Drivers/STM32H5xx_HAL_Driver/Src/stm32h5xx_hal_dma.c **** 
1100:Drivers/STM32H5xx_HAL_Driver/Src/stm32h5xx_hal_dma.c ****     /* Check DMA channel transfer mode */
1101:Drivers/STM32H5xx_HAL_Driver/Src/stm32h5xx_hal_dma.c ****     if ((hdma->Mode & DMA_LINKEDLIST) == DMA_LINKEDLIST)
1102:Drivers/STM32H5xx_HAL_Driver/Src/stm32h5xx_hal_dma.c ****     {
1103:Drivers/STM32H5xx_HAL_Driver/Src/stm32h5xx_hal_dma.c ****       /* Update the linked-list queue state */
1104:Drivers/STM32H5xx_HAL_Driver/Src/stm32h5xx_hal_dma.c ****       hdma->LinkedListQueue->State = HAL_DMA_QUEUE_STATE_READY;
1105:Drivers/STM32H5xx_HAL_Driver/Src/stm32h5xx_hal_dma.c ****     }
1106:Drivers/STM32H5xx_HAL_Driver/Src/stm32h5xx_hal_dma.c **** 
1107:Drivers/STM32H5xx_HAL_Driver/Src/stm32h5xx_hal_dma.c ****     /* Process Unlocked */
1108:Drivers/STM32H5xx_HAL_Driver/Src/stm32h5xx_hal_dma.c ****     __HAL_UNLOCK(hdma);
1109:Drivers/STM32H5xx_HAL_Driver/Src/stm32h5xx_hal_dma.c **** 
1110:Drivers/STM32H5xx_HAL_Driver/Src/stm32h5xx_hal_dma.c ****     /* Check transfer error callback */
1111:Drivers/STM32H5xx_HAL_Driver/Src/stm32h5xx_hal_dma.c ****     if (hdma->XferErrorCallback != NULL)
1112:Drivers/STM32H5xx_HAL_Driver/Src/stm32h5xx_hal_dma.c ****     {
ARM GAS  /tmp/ccQkXeUE.s 			page 21


1113:Drivers/STM32H5xx_HAL_Driver/Src/stm32h5xx_hal_dma.c ****       /* Transfer error callback */
1114:Drivers/STM32H5xx_HAL_Driver/Src/stm32h5xx_hal_dma.c ****       hdma->XferErrorCallback(hdma);
1115:Drivers/STM32H5xx_HAL_Driver/Src/stm32h5xx_hal_dma.c ****     }
1116:Drivers/STM32H5xx_HAL_Driver/Src/stm32h5xx_hal_dma.c ****   }
1117:Drivers/STM32H5xx_HAL_Driver/Src/stm32h5xx_hal_dma.c **** }
1118:Drivers/STM32H5xx_HAL_Driver/Src/stm32h5xx_hal_dma.c **** 
1119:Drivers/STM32H5xx_HAL_Driver/Src/stm32h5xx_hal_dma.c **** /**
1120:Drivers/STM32H5xx_HAL_Driver/Src/stm32h5xx_hal_dma.c ****   * @brief  Register callback according to specified ID.
1121:Drivers/STM32H5xx_HAL_Driver/Src/stm32h5xx_hal_dma.c ****   * @note   The HAL_DMA_RegisterCallback() may be called before HAL_DMA_Init() in HAL_DMA_STATE_RES
1122:Drivers/STM32H5xx_HAL_Driver/Src/stm32h5xx_hal_dma.c ****   *         to register callbacks for HAL_DMA_MSPINIT_CB_ID and HAL_DMA_MSPDEINIT_CB_ID.
1123:Drivers/STM32H5xx_HAL_Driver/Src/stm32h5xx_hal_dma.c ****   * @param  hdma       : Pointer to a DMA_HandleTypeDef structure that contains the configuration i
1124:Drivers/STM32H5xx_HAL_Driver/Src/stm32h5xx_hal_dma.c ****   *                      specified DMA Channel.
1125:Drivers/STM32H5xx_HAL_Driver/Src/stm32h5xx_hal_dma.c ****   * @param  CallbackID : User Callback identifier which could be a value of HAL_DMA_CallbackIDTypeD
1126:Drivers/STM32H5xx_HAL_Driver/Src/stm32h5xx_hal_dma.c ****   * @param  pCallback  : Pointer to private callback function.
1127:Drivers/STM32H5xx_HAL_Driver/Src/stm32h5xx_hal_dma.c ****   * @retval HAL status.
1128:Drivers/STM32H5xx_HAL_Driver/Src/stm32h5xx_hal_dma.c ****   */
1129:Drivers/STM32H5xx_HAL_Driver/Src/stm32h5xx_hal_dma.c **** HAL_StatusTypeDef HAL_DMA_RegisterCallback(DMA_HandleTypeDef *const hdma,
1130:Drivers/STM32H5xx_HAL_Driver/Src/stm32h5xx_hal_dma.c ****                                            HAL_DMA_CallbackIDTypeDef CallbackID,
1131:Drivers/STM32H5xx_HAL_Driver/Src/stm32h5xx_hal_dma.c ****                                            void (*const pCallback)(DMA_HandleTypeDef *const _hdma))
1132:Drivers/STM32H5xx_HAL_Driver/Src/stm32h5xx_hal_dma.c **** {
1133:Drivers/STM32H5xx_HAL_Driver/Src/stm32h5xx_hal_dma.c ****   HAL_StatusTypeDef status = HAL_OK;
1134:Drivers/STM32H5xx_HAL_Driver/Src/stm32h5xx_hal_dma.c **** 
1135:Drivers/STM32H5xx_HAL_Driver/Src/stm32h5xx_hal_dma.c ****   /* Check the DMA peripheral handle parameter */
1136:Drivers/STM32H5xx_HAL_Driver/Src/stm32h5xx_hal_dma.c ****   if (hdma == NULL)
1137:Drivers/STM32H5xx_HAL_Driver/Src/stm32h5xx_hal_dma.c ****   {
1138:Drivers/STM32H5xx_HAL_Driver/Src/stm32h5xx_hal_dma.c ****     return HAL_ERROR;
1139:Drivers/STM32H5xx_HAL_Driver/Src/stm32h5xx_hal_dma.c ****   }
1140:Drivers/STM32H5xx_HAL_Driver/Src/stm32h5xx_hal_dma.c **** 
1141:Drivers/STM32H5xx_HAL_Driver/Src/stm32h5xx_hal_dma.c ****   /* Check DMA channel state */
1142:Drivers/STM32H5xx_HAL_Driver/Src/stm32h5xx_hal_dma.c ****   if (hdma->State == HAL_DMA_STATE_READY)
1143:Drivers/STM32H5xx_HAL_Driver/Src/stm32h5xx_hal_dma.c ****   {
1144:Drivers/STM32H5xx_HAL_Driver/Src/stm32h5xx_hal_dma.c ****     /* Check callback ID */
1145:Drivers/STM32H5xx_HAL_Driver/Src/stm32h5xx_hal_dma.c ****     switch (CallbackID)
1146:Drivers/STM32H5xx_HAL_Driver/Src/stm32h5xx_hal_dma.c ****     {
1147:Drivers/STM32H5xx_HAL_Driver/Src/stm32h5xx_hal_dma.c ****       case HAL_DMA_XFER_CPLT_CB_ID:
1148:Drivers/STM32H5xx_HAL_Driver/Src/stm32h5xx_hal_dma.c ****       {
1149:Drivers/STM32H5xx_HAL_Driver/Src/stm32h5xx_hal_dma.c ****         /* Register transfer complete callback */
1150:Drivers/STM32H5xx_HAL_Driver/Src/stm32h5xx_hal_dma.c ****         hdma->XferCpltCallback = pCallback;
1151:Drivers/STM32H5xx_HAL_Driver/Src/stm32h5xx_hal_dma.c ****         break;
1152:Drivers/STM32H5xx_HAL_Driver/Src/stm32h5xx_hal_dma.c ****       }
1153:Drivers/STM32H5xx_HAL_Driver/Src/stm32h5xx_hal_dma.c **** 
1154:Drivers/STM32H5xx_HAL_Driver/Src/stm32h5xx_hal_dma.c ****       case HAL_DMA_XFER_HALFCPLT_CB_ID:
1155:Drivers/STM32H5xx_HAL_Driver/Src/stm32h5xx_hal_dma.c ****       {
1156:Drivers/STM32H5xx_HAL_Driver/Src/stm32h5xx_hal_dma.c ****         /* Register half transfer callback */
1157:Drivers/STM32H5xx_HAL_Driver/Src/stm32h5xx_hal_dma.c ****         hdma->XferHalfCpltCallback = pCallback;
1158:Drivers/STM32H5xx_HAL_Driver/Src/stm32h5xx_hal_dma.c ****         break;
1159:Drivers/STM32H5xx_HAL_Driver/Src/stm32h5xx_hal_dma.c ****       }
1160:Drivers/STM32H5xx_HAL_Driver/Src/stm32h5xx_hal_dma.c **** 
1161:Drivers/STM32H5xx_HAL_Driver/Src/stm32h5xx_hal_dma.c ****       case HAL_DMA_XFER_ERROR_CB_ID:
1162:Drivers/STM32H5xx_HAL_Driver/Src/stm32h5xx_hal_dma.c ****       {
1163:Drivers/STM32H5xx_HAL_Driver/Src/stm32h5xx_hal_dma.c ****         /* Register transfer error callback */
1164:Drivers/STM32H5xx_HAL_Driver/Src/stm32h5xx_hal_dma.c ****         hdma->XferErrorCallback = pCallback;
1165:Drivers/STM32H5xx_HAL_Driver/Src/stm32h5xx_hal_dma.c ****         break;
1166:Drivers/STM32H5xx_HAL_Driver/Src/stm32h5xx_hal_dma.c ****       }
1167:Drivers/STM32H5xx_HAL_Driver/Src/stm32h5xx_hal_dma.c **** 
1168:Drivers/STM32H5xx_HAL_Driver/Src/stm32h5xx_hal_dma.c ****       case HAL_DMA_XFER_ABORT_CB_ID:
1169:Drivers/STM32H5xx_HAL_Driver/Src/stm32h5xx_hal_dma.c ****       {
ARM GAS  /tmp/ccQkXeUE.s 			page 22


1170:Drivers/STM32H5xx_HAL_Driver/Src/stm32h5xx_hal_dma.c ****         /* Register abort callback */
1171:Drivers/STM32H5xx_HAL_Driver/Src/stm32h5xx_hal_dma.c ****         hdma->XferAbortCallback = pCallback;
1172:Drivers/STM32H5xx_HAL_Driver/Src/stm32h5xx_hal_dma.c ****         break;
1173:Drivers/STM32H5xx_HAL_Driver/Src/stm32h5xx_hal_dma.c ****       }
1174:Drivers/STM32H5xx_HAL_Driver/Src/stm32h5xx_hal_dma.c **** 
1175:Drivers/STM32H5xx_HAL_Driver/Src/stm32h5xx_hal_dma.c ****       case HAL_DMA_XFER_SUSPEND_CB_ID:
1176:Drivers/STM32H5xx_HAL_Driver/Src/stm32h5xx_hal_dma.c ****       {
1177:Drivers/STM32H5xx_HAL_Driver/Src/stm32h5xx_hal_dma.c ****         /* Register suspend callback */
1178:Drivers/STM32H5xx_HAL_Driver/Src/stm32h5xx_hal_dma.c ****         hdma->XferSuspendCallback = pCallback;
1179:Drivers/STM32H5xx_HAL_Driver/Src/stm32h5xx_hal_dma.c ****         break;
1180:Drivers/STM32H5xx_HAL_Driver/Src/stm32h5xx_hal_dma.c ****       }
1181:Drivers/STM32H5xx_HAL_Driver/Src/stm32h5xx_hal_dma.c **** 
1182:Drivers/STM32H5xx_HAL_Driver/Src/stm32h5xx_hal_dma.c ****       default:
1183:Drivers/STM32H5xx_HAL_Driver/Src/stm32h5xx_hal_dma.c ****       {
1184:Drivers/STM32H5xx_HAL_Driver/Src/stm32h5xx_hal_dma.c ****         /* Update error status */
1185:Drivers/STM32H5xx_HAL_Driver/Src/stm32h5xx_hal_dma.c ****         status = HAL_ERROR;
1186:Drivers/STM32H5xx_HAL_Driver/Src/stm32h5xx_hal_dma.c ****         break;
1187:Drivers/STM32H5xx_HAL_Driver/Src/stm32h5xx_hal_dma.c ****       }
1188:Drivers/STM32H5xx_HAL_Driver/Src/stm32h5xx_hal_dma.c ****     }
1189:Drivers/STM32H5xx_HAL_Driver/Src/stm32h5xx_hal_dma.c ****   }
1190:Drivers/STM32H5xx_HAL_Driver/Src/stm32h5xx_hal_dma.c ****   else
1191:Drivers/STM32H5xx_HAL_Driver/Src/stm32h5xx_hal_dma.c ****   {
1192:Drivers/STM32H5xx_HAL_Driver/Src/stm32h5xx_hal_dma.c ****     /* Update error status */
1193:Drivers/STM32H5xx_HAL_Driver/Src/stm32h5xx_hal_dma.c ****     status =  HAL_ERROR;
1194:Drivers/STM32H5xx_HAL_Driver/Src/stm32h5xx_hal_dma.c ****   }
1195:Drivers/STM32H5xx_HAL_Driver/Src/stm32h5xx_hal_dma.c **** 
1196:Drivers/STM32H5xx_HAL_Driver/Src/stm32h5xx_hal_dma.c ****   return status;
1197:Drivers/STM32H5xx_HAL_Driver/Src/stm32h5xx_hal_dma.c **** }
1198:Drivers/STM32H5xx_HAL_Driver/Src/stm32h5xx_hal_dma.c **** 
1199:Drivers/STM32H5xx_HAL_Driver/Src/stm32h5xx_hal_dma.c **** /**
1200:Drivers/STM32H5xx_HAL_Driver/Src/stm32h5xx_hal_dma.c ****   * @brief  Unregister callback according to specified ID.
1201:Drivers/STM32H5xx_HAL_Driver/Src/stm32h5xx_hal_dma.c ****   * @note   The HAL_DMA_UnRegisterCallback() may be called before HAL_DMA_Init() in HAL_DMA_STATE_R
1202:Drivers/STM32H5xx_HAL_Driver/Src/stm32h5xx_hal_dma.c ****   *         to un-register callbacks for HAL_DMA_MSPINIT_CB_ID and HAL_DMA_MSPDEINIT_CB_ID.
1203:Drivers/STM32H5xx_HAL_Driver/Src/stm32h5xx_hal_dma.c ****   * @param  hdma       : Pointer to a DMA_HandleTypeDef structure that contains the configuration i
1204:Drivers/STM32H5xx_HAL_Driver/Src/stm32h5xx_hal_dma.c ****   *                      specified DMA Channel.
1205:Drivers/STM32H5xx_HAL_Driver/Src/stm32h5xx_hal_dma.c ****   * @param  CallbackID : User Callback identifier which could be a value of HAL_DMA_CallbackIDTypeD
1206:Drivers/STM32H5xx_HAL_Driver/Src/stm32h5xx_hal_dma.c ****   * @retval HAL status.
1207:Drivers/STM32H5xx_HAL_Driver/Src/stm32h5xx_hal_dma.c ****   */
1208:Drivers/STM32H5xx_HAL_Driver/Src/stm32h5xx_hal_dma.c **** HAL_StatusTypeDef HAL_DMA_UnRegisterCallback(DMA_HandleTypeDef *const hdma,
1209:Drivers/STM32H5xx_HAL_Driver/Src/stm32h5xx_hal_dma.c ****                                              HAL_DMA_CallbackIDTypeDef CallbackID)
1210:Drivers/STM32H5xx_HAL_Driver/Src/stm32h5xx_hal_dma.c **** {
1211:Drivers/STM32H5xx_HAL_Driver/Src/stm32h5xx_hal_dma.c ****   HAL_StatusTypeDef status = HAL_OK;
1212:Drivers/STM32H5xx_HAL_Driver/Src/stm32h5xx_hal_dma.c **** 
1213:Drivers/STM32H5xx_HAL_Driver/Src/stm32h5xx_hal_dma.c ****   /* Check the DMA peripheral handle parameter */
1214:Drivers/STM32H5xx_HAL_Driver/Src/stm32h5xx_hal_dma.c ****   if (hdma == NULL)
1215:Drivers/STM32H5xx_HAL_Driver/Src/stm32h5xx_hal_dma.c ****   {
1216:Drivers/STM32H5xx_HAL_Driver/Src/stm32h5xx_hal_dma.c ****     return HAL_ERROR;
1217:Drivers/STM32H5xx_HAL_Driver/Src/stm32h5xx_hal_dma.c ****   }
1218:Drivers/STM32H5xx_HAL_Driver/Src/stm32h5xx_hal_dma.c **** 
1219:Drivers/STM32H5xx_HAL_Driver/Src/stm32h5xx_hal_dma.c ****   /* Check DMA channel state */
1220:Drivers/STM32H5xx_HAL_Driver/Src/stm32h5xx_hal_dma.c ****   if (hdma->State == HAL_DMA_STATE_READY)
1221:Drivers/STM32H5xx_HAL_Driver/Src/stm32h5xx_hal_dma.c ****   {
1222:Drivers/STM32H5xx_HAL_Driver/Src/stm32h5xx_hal_dma.c ****     /* Check callback ID */
1223:Drivers/STM32H5xx_HAL_Driver/Src/stm32h5xx_hal_dma.c ****     switch (CallbackID)
1224:Drivers/STM32H5xx_HAL_Driver/Src/stm32h5xx_hal_dma.c ****     {
1225:Drivers/STM32H5xx_HAL_Driver/Src/stm32h5xx_hal_dma.c ****       case HAL_DMA_XFER_CPLT_CB_ID:
1226:Drivers/STM32H5xx_HAL_Driver/Src/stm32h5xx_hal_dma.c ****       {
ARM GAS  /tmp/ccQkXeUE.s 			page 23


1227:Drivers/STM32H5xx_HAL_Driver/Src/stm32h5xx_hal_dma.c ****         /* UnRegister transfer complete callback */
1228:Drivers/STM32H5xx_HAL_Driver/Src/stm32h5xx_hal_dma.c ****         hdma->XferCpltCallback = NULL;
1229:Drivers/STM32H5xx_HAL_Driver/Src/stm32h5xx_hal_dma.c ****         break;
1230:Drivers/STM32H5xx_HAL_Driver/Src/stm32h5xx_hal_dma.c ****       }
1231:Drivers/STM32H5xx_HAL_Driver/Src/stm32h5xx_hal_dma.c **** 
1232:Drivers/STM32H5xx_HAL_Driver/Src/stm32h5xx_hal_dma.c ****       case HAL_DMA_XFER_HALFCPLT_CB_ID:
1233:Drivers/STM32H5xx_HAL_Driver/Src/stm32h5xx_hal_dma.c ****       {
1234:Drivers/STM32H5xx_HAL_Driver/Src/stm32h5xx_hal_dma.c ****         /* UnRegister half transfer callback */
1235:Drivers/STM32H5xx_HAL_Driver/Src/stm32h5xx_hal_dma.c ****         hdma->XferHalfCpltCallback = NULL;
1236:Drivers/STM32H5xx_HAL_Driver/Src/stm32h5xx_hal_dma.c ****         break;
1237:Drivers/STM32H5xx_HAL_Driver/Src/stm32h5xx_hal_dma.c ****       }
1238:Drivers/STM32H5xx_HAL_Driver/Src/stm32h5xx_hal_dma.c **** 
1239:Drivers/STM32H5xx_HAL_Driver/Src/stm32h5xx_hal_dma.c ****       case HAL_DMA_XFER_ERROR_CB_ID:
1240:Drivers/STM32H5xx_HAL_Driver/Src/stm32h5xx_hal_dma.c ****       {
1241:Drivers/STM32H5xx_HAL_Driver/Src/stm32h5xx_hal_dma.c ****         /* UnRegister transfer error callback */
1242:Drivers/STM32H5xx_HAL_Driver/Src/stm32h5xx_hal_dma.c ****         hdma->XferErrorCallback = NULL;
1243:Drivers/STM32H5xx_HAL_Driver/Src/stm32h5xx_hal_dma.c ****         break;
1244:Drivers/STM32H5xx_HAL_Driver/Src/stm32h5xx_hal_dma.c ****       }
1245:Drivers/STM32H5xx_HAL_Driver/Src/stm32h5xx_hal_dma.c **** 
1246:Drivers/STM32H5xx_HAL_Driver/Src/stm32h5xx_hal_dma.c ****       case HAL_DMA_XFER_ABORT_CB_ID:
1247:Drivers/STM32H5xx_HAL_Driver/Src/stm32h5xx_hal_dma.c ****       {
1248:Drivers/STM32H5xx_HAL_Driver/Src/stm32h5xx_hal_dma.c ****         /* UnRegister abort callback */
1249:Drivers/STM32H5xx_HAL_Driver/Src/stm32h5xx_hal_dma.c ****         hdma->XferAbortCallback = NULL;
1250:Drivers/STM32H5xx_HAL_Driver/Src/stm32h5xx_hal_dma.c ****         break;
1251:Drivers/STM32H5xx_HAL_Driver/Src/stm32h5xx_hal_dma.c ****       }
1252:Drivers/STM32H5xx_HAL_Driver/Src/stm32h5xx_hal_dma.c **** 
1253:Drivers/STM32H5xx_HAL_Driver/Src/stm32h5xx_hal_dma.c ****       case HAL_DMA_XFER_SUSPEND_CB_ID:
1254:Drivers/STM32H5xx_HAL_Driver/Src/stm32h5xx_hal_dma.c ****       {
1255:Drivers/STM32H5xx_HAL_Driver/Src/stm32h5xx_hal_dma.c ****         /* UnRegister suspend callback */
1256:Drivers/STM32H5xx_HAL_Driver/Src/stm32h5xx_hal_dma.c ****         hdma->XferSuspendCallback = NULL;
1257:Drivers/STM32H5xx_HAL_Driver/Src/stm32h5xx_hal_dma.c ****         break;
1258:Drivers/STM32H5xx_HAL_Driver/Src/stm32h5xx_hal_dma.c ****       }
1259:Drivers/STM32H5xx_HAL_Driver/Src/stm32h5xx_hal_dma.c **** 
1260:Drivers/STM32H5xx_HAL_Driver/Src/stm32h5xx_hal_dma.c ****       case HAL_DMA_XFER_ALL_CB_ID:
1261:Drivers/STM32H5xx_HAL_Driver/Src/stm32h5xx_hal_dma.c ****       {
1262:Drivers/STM32H5xx_HAL_Driver/Src/stm32h5xx_hal_dma.c ****         /* UnRegister all available callbacks */
1263:Drivers/STM32H5xx_HAL_Driver/Src/stm32h5xx_hal_dma.c ****         hdma->XferCpltCallback     = NULL;
1264:Drivers/STM32H5xx_HAL_Driver/Src/stm32h5xx_hal_dma.c ****         hdma->XferHalfCpltCallback = NULL;
1265:Drivers/STM32H5xx_HAL_Driver/Src/stm32h5xx_hal_dma.c ****         hdma->XferErrorCallback    = NULL;
1266:Drivers/STM32H5xx_HAL_Driver/Src/stm32h5xx_hal_dma.c ****         hdma->XferAbortCallback    = NULL;
1267:Drivers/STM32H5xx_HAL_Driver/Src/stm32h5xx_hal_dma.c ****         hdma->XferSuspendCallback  = NULL;
1268:Drivers/STM32H5xx_HAL_Driver/Src/stm32h5xx_hal_dma.c ****         break;
1269:Drivers/STM32H5xx_HAL_Driver/Src/stm32h5xx_hal_dma.c ****       }
1270:Drivers/STM32H5xx_HAL_Driver/Src/stm32h5xx_hal_dma.c **** 
1271:Drivers/STM32H5xx_HAL_Driver/Src/stm32h5xx_hal_dma.c ****       default:
1272:Drivers/STM32H5xx_HAL_Driver/Src/stm32h5xx_hal_dma.c ****       {
1273:Drivers/STM32H5xx_HAL_Driver/Src/stm32h5xx_hal_dma.c ****         /* Update error status */
1274:Drivers/STM32H5xx_HAL_Driver/Src/stm32h5xx_hal_dma.c ****         status = HAL_ERROR;
1275:Drivers/STM32H5xx_HAL_Driver/Src/stm32h5xx_hal_dma.c ****         break;
1276:Drivers/STM32H5xx_HAL_Driver/Src/stm32h5xx_hal_dma.c ****       }
1277:Drivers/STM32H5xx_HAL_Driver/Src/stm32h5xx_hal_dma.c ****     }
1278:Drivers/STM32H5xx_HAL_Driver/Src/stm32h5xx_hal_dma.c ****   }
1279:Drivers/STM32H5xx_HAL_Driver/Src/stm32h5xx_hal_dma.c ****   else
1280:Drivers/STM32H5xx_HAL_Driver/Src/stm32h5xx_hal_dma.c ****   {
1281:Drivers/STM32H5xx_HAL_Driver/Src/stm32h5xx_hal_dma.c ****     /* Update error status */
1282:Drivers/STM32H5xx_HAL_Driver/Src/stm32h5xx_hal_dma.c ****     status = HAL_ERROR;
1283:Drivers/STM32H5xx_HAL_Driver/Src/stm32h5xx_hal_dma.c ****   }
ARM GAS  /tmp/ccQkXeUE.s 			page 24


1284:Drivers/STM32H5xx_HAL_Driver/Src/stm32h5xx_hal_dma.c **** 
1285:Drivers/STM32H5xx_HAL_Driver/Src/stm32h5xx_hal_dma.c ****   return status;
1286:Drivers/STM32H5xx_HAL_Driver/Src/stm32h5xx_hal_dma.c **** }
1287:Drivers/STM32H5xx_HAL_Driver/Src/stm32h5xx_hal_dma.c **** /**
1288:Drivers/STM32H5xx_HAL_Driver/Src/stm32h5xx_hal_dma.c ****   * @}
1289:Drivers/STM32H5xx_HAL_Driver/Src/stm32h5xx_hal_dma.c ****   */
1290:Drivers/STM32H5xx_HAL_Driver/Src/stm32h5xx_hal_dma.c **** 
1291:Drivers/STM32H5xx_HAL_Driver/Src/stm32h5xx_hal_dma.c **** /** @addtogroup DMA_Exported_Functions_Group3
1292:Drivers/STM32H5xx_HAL_Driver/Src/stm32h5xx_hal_dma.c ****   *
1293:Drivers/STM32H5xx_HAL_Driver/Src/stm32h5xx_hal_dma.c **** @verbatim
1294:Drivers/STM32H5xx_HAL_Driver/Src/stm32h5xx_hal_dma.c ****   =================================================================================================
1295:Drivers/STM32H5xx_HAL_Driver/Src/stm32h5xx_hal_dma.c ****                               ##### State and Errors functions #####
1296:Drivers/STM32H5xx_HAL_Driver/Src/stm32h5xx_hal_dma.c ****   =================================================================================================
1297:Drivers/STM32H5xx_HAL_Driver/Src/stm32h5xx_hal_dma.c ****     [..]
1298:Drivers/STM32H5xx_HAL_Driver/Src/stm32h5xx_hal_dma.c ****       This section provides functions allowing to :
1299:Drivers/STM32H5xx_HAL_Driver/Src/stm32h5xx_hal_dma.c ****       (+) Check the DMA state
1300:Drivers/STM32H5xx_HAL_Driver/Src/stm32h5xx_hal_dma.c ****       (+) Get error code
1301:Drivers/STM32H5xx_HAL_Driver/Src/stm32h5xx_hal_dma.c **** 
1302:Drivers/STM32H5xx_HAL_Driver/Src/stm32h5xx_hal_dma.c ****     [..]
1303:Drivers/STM32H5xx_HAL_Driver/Src/stm32h5xx_hal_dma.c ****       (+) The HAL_DMA_GetState() function allows to get the DMA channel state.
1304:Drivers/STM32H5xx_HAL_Driver/Src/stm32h5xx_hal_dma.c ****       (+) The HAL_DMA_DeInit() function allows to get the DMA channel error code.
1305:Drivers/STM32H5xx_HAL_Driver/Src/stm32h5xx_hal_dma.c **** 
1306:Drivers/STM32H5xx_HAL_Driver/Src/stm32h5xx_hal_dma.c **** @endverbatim
1307:Drivers/STM32H5xx_HAL_Driver/Src/stm32h5xx_hal_dma.c ****   * @{
1308:Drivers/STM32H5xx_HAL_Driver/Src/stm32h5xx_hal_dma.c ****   */
1309:Drivers/STM32H5xx_HAL_Driver/Src/stm32h5xx_hal_dma.c **** 
1310:Drivers/STM32H5xx_HAL_Driver/Src/stm32h5xx_hal_dma.c **** /**
1311:Drivers/STM32H5xx_HAL_Driver/Src/stm32h5xx_hal_dma.c ****   * @brief  Returns the DMA channel state.
1312:Drivers/STM32H5xx_HAL_Driver/Src/stm32h5xx_hal_dma.c ****   * @param  hdma : Pointer to a DMA_HandleTypeDef structure that contains the configuration informa
1313:Drivers/STM32H5xx_HAL_Driver/Src/stm32h5xx_hal_dma.c ****   *                specified DMA Channel.
1314:Drivers/STM32H5xx_HAL_Driver/Src/stm32h5xx_hal_dma.c ****   * @retval DMA state.
1315:Drivers/STM32H5xx_HAL_Driver/Src/stm32h5xx_hal_dma.c ****   */
1316:Drivers/STM32H5xx_HAL_Driver/Src/stm32h5xx_hal_dma.c **** HAL_DMA_StateTypeDef HAL_DMA_GetState(DMA_HandleTypeDef const *const hdma)
1317:Drivers/STM32H5xx_HAL_Driver/Src/stm32h5xx_hal_dma.c **** {
1318:Drivers/STM32H5xx_HAL_Driver/Src/stm32h5xx_hal_dma.c ****   /* Return the DMA channel state */
1319:Drivers/STM32H5xx_HAL_Driver/Src/stm32h5xx_hal_dma.c ****   return hdma->State;
1320:Drivers/STM32H5xx_HAL_Driver/Src/stm32h5xx_hal_dma.c **** }
1321:Drivers/STM32H5xx_HAL_Driver/Src/stm32h5xx_hal_dma.c **** 
1322:Drivers/STM32H5xx_HAL_Driver/Src/stm32h5xx_hal_dma.c **** /**
1323:Drivers/STM32H5xx_HAL_Driver/Src/stm32h5xx_hal_dma.c ****   * @brief  Return the DMA channel error code.
1324:Drivers/STM32H5xx_HAL_Driver/Src/stm32h5xx_hal_dma.c ****   * @param  hdma : Pointer to a DMA_HandleTypeDef structure that contains the configuration informa
1325:Drivers/STM32H5xx_HAL_Driver/Src/stm32h5xx_hal_dma.c ****   *                specified DMA Channel.
1326:Drivers/STM32H5xx_HAL_Driver/Src/stm32h5xx_hal_dma.c ****   * @retval DMA Error Code.
1327:Drivers/STM32H5xx_HAL_Driver/Src/stm32h5xx_hal_dma.c ****   */
1328:Drivers/STM32H5xx_HAL_Driver/Src/stm32h5xx_hal_dma.c **** uint32_t HAL_DMA_GetError(DMA_HandleTypeDef const *const hdma)
1329:Drivers/STM32H5xx_HAL_Driver/Src/stm32h5xx_hal_dma.c **** {
1330:Drivers/STM32H5xx_HAL_Driver/Src/stm32h5xx_hal_dma.c ****   /* Return the DMA channel error code */
1331:Drivers/STM32H5xx_HAL_Driver/Src/stm32h5xx_hal_dma.c ****   return hdma->ErrorCode;
1332:Drivers/STM32H5xx_HAL_Driver/Src/stm32h5xx_hal_dma.c **** }
1333:Drivers/STM32H5xx_HAL_Driver/Src/stm32h5xx_hal_dma.c **** /**
1334:Drivers/STM32H5xx_HAL_Driver/Src/stm32h5xx_hal_dma.c ****   * @}
1335:Drivers/STM32H5xx_HAL_Driver/Src/stm32h5xx_hal_dma.c ****   */
1336:Drivers/STM32H5xx_HAL_Driver/Src/stm32h5xx_hal_dma.c **** 
1337:Drivers/STM32H5xx_HAL_Driver/Src/stm32h5xx_hal_dma.c **** /** @addtogroup DMA_Exported_Functions_Group4
1338:Drivers/STM32H5xx_HAL_Driver/Src/stm32h5xx_hal_dma.c ****   *
1339:Drivers/STM32H5xx_HAL_Driver/Src/stm32h5xx_hal_dma.c **** @verbatim
1340:Drivers/STM32H5xx_HAL_Driver/Src/stm32h5xx_hal_dma.c ****   =================================================================================================
ARM GAS  /tmp/ccQkXeUE.s 			page 25


1341:Drivers/STM32H5xx_HAL_Driver/Src/stm32h5xx_hal_dma.c ****                            ##### DMA Attributes functions #####
1342:Drivers/STM32H5xx_HAL_Driver/Src/stm32h5xx_hal_dma.c ****   =================================================================================================
1343:Drivers/STM32H5xx_HAL_Driver/Src/stm32h5xx_hal_dma.c ****     [..]
1344:Drivers/STM32H5xx_HAL_Driver/Src/stm32h5xx_hal_dma.c ****       This section provides functions allowing to :
1345:Drivers/STM32H5xx_HAL_Driver/Src/stm32h5xx_hal_dma.c ****       (+) Configure DMA channel secure and privilege attributes.
1346:Drivers/STM32H5xx_HAL_Driver/Src/stm32h5xx_hal_dma.c ****       (+) Get DMA channel secure and privilege attributes.
1347:Drivers/STM32H5xx_HAL_Driver/Src/stm32h5xx_hal_dma.c ****       (+) Lock DMA channel secure and privilege attributes configuration.
1348:Drivers/STM32H5xx_HAL_Driver/Src/stm32h5xx_hal_dma.c ****       (+) Check whether DMA channel secure and privilege attributes configuration is locked or not.
1349:Drivers/STM32H5xx_HAL_Driver/Src/stm32h5xx_hal_dma.c **** 
1350:Drivers/STM32H5xx_HAL_Driver/Src/stm32h5xx_hal_dma.c ****     [..]
1351:Drivers/STM32H5xx_HAL_Driver/Src/stm32h5xx_hal_dma.c ****       (+) The HAL_DMA_ConfigChannelAttributes() function allows to configure DMA channel security a
1352:Drivers/STM32H5xx_HAL_Driver/Src/stm32h5xx_hal_dma.c ****           attributes.
1353:Drivers/STM32H5xx_HAL_Driver/Src/stm32h5xx_hal_dma.c ****       (+) The HAL_DMA_GetConfigChannelAttributes() function allows to get DMA channel security and 
1354:Drivers/STM32H5xx_HAL_Driver/Src/stm32h5xx_hal_dma.c ****           configuration.
1355:Drivers/STM32H5xx_HAL_Driver/Src/stm32h5xx_hal_dma.c ****       (+) The HAL_DMA_LockChannelAttributes() function allows to lock the DMA channel security and 
1356:Drivers/STM32H5xx_HAL_Driver/Src/stm32h5xx_hal_dma.c ****       (+) The HAL_DMA_GetLockChannelAttributes() function allows to get the DMA channel security an
1357:Drivers/STM32H5xx_HAL_Driver/Src/stm32h5xx_hal_dma.c ****           attributes lock status.
1358:Drivers/STM32H5xx_HAL_Driver/Src/stm32h5xx_hal_dma.c **** 
1359:Drivers/STM32H5xx_HAL_Driver/Src/stm32h5xx_hal_dma.c **** @endverbatim
1360:Drivers/STM32H5xx_HAL_Driver/Src/stm32h5xx_hal_dma.c ****   * @{
1361:Drivers/STM32H5xx_HAL_Driver/Src/stm32h5xx_hal_dma.c ****   */
1362:Drivers/STM32H5xx_HAL_Driver/Src/stm32h5xx_hal_dma.c **** 
1363:Drivers/STM32H5xx_HAL_Driver/Src/stm32h5xx_hal_dma.c **** /**
1364:Drivers/STM32H5xx_HAL_Driver/Src/stm32h5xx_hal_dma.c ****   * @brief  Configure the DMA channel security and privilege attribute(s).
1365:Drivers/STM32H5xx_HAL_Driver/Src/stm32h5xx_hal_dma.c ****   * @note   These attributes cannot be modified when the corresponding lock state is enabled.
1366:Drivers/STM32H5xx_HAL_Driver/Src/stm32h5xx_hal_dma.c ****   * @param  hdma              : Pointer to a DMA_HandleTypeDef structure that contains the configur
1367:Drivers/STM32H5xx_HAL_Driver/Src/stm32h5xx_hal_dma.c ****   *                             the specified DMA Channel.
1368:Drivers/STM32H5xx_HAL_Driver/Src/stm32h5xx_hal_dma.c ****   * @param  ChannelAttributes : Specifies the DMA channel secure/privilege attributes.
1369:Drivers/STM32H5xx_HAL_Driver/Src/stm32h5xx_hal_dma.c ****   *                             This parameter can be a one or a combination of @ref DMA_Channel_At
1370:Drivers/STM32H5xx_HAL_Driver/Src/stm32h5xx_hal_dma.c ****   * @retval HAL Status.
1371:Drivers/STM32H5xx_HAL_Driver/Src/stm32h5xx_hal_dma.c ****   */
1372:Drivers/STM32H5xx_HAL_Driver/Src/stm32h5xx_hal_dma.c **** HAL_StatusTypeDef HAL_DMA_ConfigChannelAttributes(DMA_HandleTypeDef *const hdma, uint32_t ChannelAt
1373:Drivers/STM32H5xx_HAL_Driver/Src/stm32h5xx_hal_dma.c **** {
1374:Drivers/STM32H5xx_HAL_Driver/Src/stm32h5xx_hal_dma.c ****   DMA_TypeDef *p_dma_instance;
1375:Drivers/STM32H5xx_HAL_Driver/Src/stm32h5xx_hal_dma.c ****   uint32_t channel_idx;
1376:Drivers/STM32H5xx_HAL_Driver/Src/stm32h5xx_hal_dma.c **** 
1377:Drivers/STM32H5xx_HAL_Driver/Src/stm32h5xx_hal_dma.c ****   /* Check the DMA peripheral handle parameter */
1378:Drivers/STM32H5xx_HAL_Driver/Src/stm32h5xx_hal_dma.c ****   if (hdma == NULL)
1379:Drivers/STM32H5xx_HAL_Driver/Src/stm32h5xx_hal_dma.c ****   {
1380:Drivers/STM32H5xx_HAL_Driver/Src/stm32h5xx_hal_dma.c ****     return HAL_ERROR;
1381:Drivers/STM32H5xx_HAL_Driver/Src/stm32h5xx_hal_dma.c ****   }
1382:Drivers/STM32H5xx_HAL_Driver/Src/stm32h5xx_hal_dma.c **** 
1383:Drivers/STM32H5xx_HAL_Driver/Src/stm32h5xx_hal_dma.c ****   /* Check the parameters */
1384:Drivers/STM32H5xx_HAL_Driver/Src/stm32h5xx_hal_dma.c ****   assert_param(IS_DMA_ATTRIBUTES(ChannelAttributes));
1385:Drivers/STM32H5xx_HAL_Driver/Src/stm32h5xx_hal_dma.c **** 
1386:Drivers/STM32H5xx_HAL_Driver/Src/stm32h5xx_hal_dma.c ****   /* Get DMA instance */
1387:Drivers/STM32H5xx_HAL_Driver/Src/stm32h5xx_hal_dma.c ****   p_dma_instance = GET_DMA_INSTANCE(hdma);
1388:Drivers/STM32H5xx_HAL_Driver/Src/stm32h5xx_hal_dma.c **** 
1389:Drivers/STM32H5xx_HAL_Driver/Src/stm32h5xx_hal_dma.c ****   /* Get channel index */
1390:Drivers/STM32H5xx_HAL_Driver/Src/stm32h5xx_hal_dma.c ****   channel_idx = 1UL << (GET_DMA_CHANNEL(hdma) & 0x1FU);
1391:Drivers/STM32H5xx_HAL_Driver/Src/stm32h5xx_hal_dma.c **** 
1392:Drivers/STM32H5xx_HAL_Driver/Src/stm32h5xx_hal_dma.c ****   /* Check DMA channel privilege attribute management */
1393:Drivers/STM32H5xx_HAL_Driver/Src/stm32h5xx_hal_dma.c ****   if ((ChannelAttributes & DMA_CHANNEL_ATTR_PRIV_MASK) == DMA_CHANNEL_ATTR_PRIV_MASK)
1394:Drivers/STM32H5xx_HAL_Driver/Src/stm32h5xx_hal_dma.c ****   {
1395:Drivers/STM32H5xx_HAL_Driver/Src/stm32h5xx_hal_dma.c ****     /* Configure DMA channel privilege attribute */
1396:Drivers/STM32H5xx_HAL_Driver/Src/stm32h5xx_hal_dma.c ****     if ((ChannelAttributes & DMA_CHANNEL_PRIV) == DMA_CHANNEL_PRIV)
1397:Drivers/STM32H5xx_HAL_Driver/Src/stm32h5xx_hal_dma.c ****     {
ARM GAS  /tmp/ccQkXeUE.s 			page 26


1398:Drivers/STM32H5xx_HAL_Driver/Src/stm32h5xx_hal_dma.c ****       p_dma_instance->PRIVCFGR |= channel_idx;
1399:Drivers/STM32H5xx_HAL_Driver/Src/stm32h5xx_hal_dma.c ****     }
1400:Drivers/STM32H5xx_HAL_Driver/Src/stm32h5xx_hal_dma.c ****     else
1401:Drivers/STM32H5xx_HAL_Driver/Src/stm32h5xx_hal_dma.c ****     {
1402:Drivers/STM32H5xx_HAL_Driver/Src/stm32h5xx_hal_dma.c ****       p_dma_instance->PRIVCFGR &= (~channel_idx);
1403:Drivers/STM32H5xx_HAL_Driver/Src/stm32h5xx_hal_dma.c ****     }
1404:Drivers/STM32H5xx_HAL_Driver/Src/stm32h5xx_hal_dma.c ****   }
1405:Drivers/STM32H5xx_HAL_Driver/Src/stm32h5xx_hal_dma.c **** 
1406:Drivers/STM32H5xx_HAL_Driver/Src/stm32h5xx_hal_dma.c **** #if defined (__ARM_FEATURE_CMSE) && (__ARM_FEATURE_CMSE == 3U)
1407:Drivers/STM32H5xx_HAL_Driver/Src/stm32h5xx_hal_dma.c ****   /* Check DMA channel security attribute management */
1408:Drivers/STM32H5xx_HAL_Driver/Src/stm32h5xx_hal_dma.c ****   if ((ChannelAttributes & DMA_CHANNEL_ATTR_SEC_MASK) == DMA_CHANNEL_ATTR_SEC_MASK)
1409:Drivers/STM32H5xx_HAL_Driver/Src/stm32h5xx_hal_dma.c ****   {
1410:Drivers/STM32H5xx_HAL_Driver/Src/stm32h5xx_hal_dma.c ****     /* Configure DMA channel security attribute */
1411:Drivers/STM32H5xx_HAL_Driver/Src/stm32h5xx_hal_dma.c ****     if ((ChannelAttributes & DMA_CHANNEL_SEC) == DMA_CHANNEL_SEC)
1412:Drivers/STM32H5xx_HAL_Driver/Src/stm32h5xx_hal_dma.c ****     {
1413:Drivers/STM32H5xx_HAL_Driver/Src/stm32h5xx_hal_dma.c ****       p_dma_instance->SECCFGR |= channel_idx;
1414:Drivers/STM32H5xx_HAL_Driver/Src/stm32h5xx_hal_dma.c ****     }
1415:Drivers/STM32H5xx_HAL_Driver/Src/stm32h5xx_hal_dma.c ****     else
1416:Drivers/STM32H5xx_HAL_Driver/Src/stm32h5xx_hal_dma.c ****     {
1417:Drivers/STM32H5xx_HAL_Driver/Src/stm32h5xx_hal_dma.c ****       p_dma_instance->SECCFGR &= (~channel_idx);
1418:Drivers/STM32H5xx_HAL_Driver/Src/stm32h5xx_hal_dma.c ****     }
1419:Drivers/STM32H5xx_HAL_Driver/Src/stm32h5xx_hal_dma.c ****   }
1420:Drivers/STM32H5xx_HAL_Driver/Src/stm32h5xx_hal_dma.c **** 
1421:Drivers/STM32H5xx_HAL_Driver/Src/stm32h5xx_hal_dma.c ****   /* Channel source security attribute management */
1422:Drivers/STM32H5xx_HAL_Driver/Src/stm32h5xx_hal_dma.c ****   if ((ChannelAttributes & DMA_CHANNEL_ATTR_SEC_SRC_MASK) == DMA_CHANNEL_ATTR_SEC_SRC_MASK)
1423:Drivers/STM32H5xx_HAL_Driver/Src/stm32h5xx_hal_dma.c ****   {
1424:Drivers/STM32H5xx_HAL_Driver/Src/stm32h5xx_hal_dma.c ****     /* Configure DMA channel source security attribute */
1425:Drivers/STM32H5xx_HAL_Driver/Src/stm32h5xx_hal_dma.c ****     if ((ChannelAttributes & DMA_CHANNEL_SRC_SEC) == DMA_CHANNEL_SRC_SEC)
1426:Drivers/STM32H5xx_HAL_Driver/Src/stm32h5xx_hal_dma.c ****     {
1427:Drivers/STM32H5xx_HAL_Driver/Src/stm32h5xx_hal_dma.c ****       hdma->Instance->CTR1 |= DMA_CTR1_SSEC;
1428:Drivers/STM32H5xx_HAL_Driver/Src/stm32h5xx_hal_dma.c ****     }
1429:Drivers/STM32H5xx_HAL_Driver/Src/stm32h5xx_hal_dma.c ****     else
1430:Drivers/STM32H5xx_HAL_Driver/Src/stm32h5xx_hal_dma.c ****     {
1431:Drivers/STM32H5xx_HAL_Driver/Src/stm32h5xx_hal_dma.c ****       hdma->Instance->CTR1 &= (~DMA_CTR1_SSEC);
1432:Drivers/STM32H5xx_HAL_Driver/Src/stm32h5xx_hal_dma.c ****     }
1433:Drivers/STM32H5xx_HAL_Driver/Src/stm32h5xx_hal_dma.c ****   }
1434:Drivers/STM32H5xx_HAL_Driver/Src/stm32h5xx_hal_dma.c **** 
1435:Drivers/STM32H5xx_HAL_Driver/Src/stm32h5xx_hal_dma.c ****   /* Channel destination security attribute management */
1436:Drivers/STM32H5xx_HAL_Driver/Src/stm32h5xx_hal_dma.c ****   if ((ChannelAttributes & DMA_CHANNEL_ATTR_SEC_DEST_MASK) == DMA_CHANNEL_ATTR_SEC_DEST_MASK)
1437:Drivers/STM32H5xx_HAL_Driver/Src/stm32h5xx_hal_dma.c ****   {
1438:Drivers/STM32H5xx_HAL_Driver/Src/stm32h5xx_hal_dma.c ****     /* Configure DMA channel destination security attribute */
1439:Drivers/STM32H5xx_HAL_Driver/Src/stm32h5xx_hal_dma.c ****     if ((ChannelAttributes & DMA_CHANNEL_DEST_SEC) == DMA_CHANNEL_DEST_SEC)
1440:Drivers/STM32H5xx_HAL_Driver/Src/stm32h5xx_hal_dma.c ****     {
1441:Drivers/STM32H5xx_HAL_Driver/Src/stm32h5xx_hal_dma.c ****       hdma->Instance->CTR1 |= DMA_CTR1_DSEC;
1442:Drivers/STM32H5xx_HAL_Driver/Src/stm32h5xx_hal_dma.c ****     }
1443:Drivers/STM32H5xx_HAL_Driver/Src/stm32h5xx_hal_dma.c ****     else
1444:Drivers/STM32H5xx_HAL_Driver/Src/stm32h5xx_hal_dma.c ****     {
1445:Drivers/STM32H5xx_HAL_Driver/Src/stm32h5xx_hal_dma.c ****       hdma->Instance->CTR1 &= (~DMA_CTR1_DSEC);
1446:Drivers/STM32H5xx_HAL_Driver/Src/stm32h5xx_hal_dma.c ****     }
1447:Drivers/STM32H5xx_HAL_Driver/Src/stm32h5xx_hal_dma.c ****   }
1448:Drivers/STM32H5xx_HAL_Driver/Src/stm32h5xx_hal_dma.c **** #endif /* (__ARM_FEATURE_CMSE) && (__ARM_FEATURE_CMSE == 3U) */
1449:Drivers/STM32H5xx_HAL_Driver/Src/stm32h5xx_hal_dma.c **** 
1450:Drivers/STM32H5xx_HAL_Driver/Src/stm32h5xx_hal_dma.c ****   return HAL_OK;
1451:Drivers/STM32H5xx_HAL_Driver/Src/stm32h5xx_hal_dma.c **** }
1452:Drivers/STM32H5xx_HAL_Driver/Src/stm32h5xx_hal_dma.c **** 
1453:Drivers/STM32H5xx_HAL_Driver/Src/stm32h5xx_hal_dma.c **** /**
1454:Drivers/STM32H5xx_HAL_Driver/Src/stm32h5xx_hal_dma.c ****   * @brief  Get the DMA channel security and privilege attributes.
ARM GAS  /tmp/ccQkXeUE.s 			page 27


1455:Drivers/STM32H5xx_HAL_Driver/Src/stm32h5xx_hal_dma.c ****   * @param  hdma               : Pointer to a DMA_HandleTypeDef structure that contains the configu
1456:Drivers/STM32H5xx_HAL_Driver/Src/stm32h5xx_hal_dma.c ****   *                              for the specified DMA Channel.
1457:Drivers/STM32H5xx_HAL_Driver/Src/stm32h5xx_hal_dma.c ****   * @param  pChannelAttributes : Pointer to the returned attributes.
1458:Drivers/STM32H5xx_HAL_Driver/Src/stm32h5xx_hal_dma.c ****   * @retval HAL Status.
1459:Drivers/STM32H5xx_HAL_Driver/Src/stm32h5xx_hal_dma.c ****   */
1460:Drivers/STM32H5xx_HAL_Driver/Src/stm32h5xx_hal_dma.c **** HAL_StatusTypeDef HAL_DMA_GetConfigChannelAttributes(DMA_HandleTypeDef const *const hdma,
1461:Drivers/STM32H5xx_HAL_Driver/Src/stm32h5xx_hal_dma.c ****                                                      uint32_t *const pChannelAttributes)
1462:Drivers/STM32H5xx_HAL_Driver/Src/stm32h5xx_hal_dma.c **** {
1463:Drivers/STM32H5xx_HAL_Driver/Src/stm32h5xx_hal_dma.c ****   const DMA_TypeDef *p_dma_instance;
1464:Drivers/STM32H5xx_HAL_Driver/Src/stm32h5xx_hal_dma.c ****   uint32_t attributes;
1465:Drivers/STM32H5xx_HAL_Driver/Src/stm32h5xx_hal_dma.c ****   uint32_t channel_idx;
1466:Drivers/STM32H5xx_HAL_Driver/Src/stm32h5xx_hal_dma.c **** 
1467:Drivers/STM32H5xx_HAL_Driver/Src/stm32h5xx_hal_dma.c ****   /* Check the DMA peripheral handle and channel attributes parameters */
1468:Drivers/STM32H5xx_HAL_Driver/Src/stm32h5xx_hal_dma.c ****   if ((hdma == NULL) || (pChannelAttributes == NULL))
1469:Drivers/STM32H5xx_HAL_Driver/Src/stm32h5xx_hal_dma.c ****   {
1470:Drivers/STM32H5xx_HAL_Driver/Src/stm32h5xx_hal_dma.c ****     return HAL_ERROR;
1471:Drivers/STM32H5xx_HAL_Driver/Src/stm32h5xx_hal_dma.c ****   }
1472:Drivers/STM32H5xx_HAL_Driver/Src/stm32h5xx_hal_dma.c **** 
1473:Drivers/STM32H5xx_HAL_Driver/Src/stm32h5xx_hal_dma.c ****   /* Get DMA instance */
1474:Drivers/STM32H5xx_HAL_Driver/Src/stm32h5xx_hal_dma.c ****   p_dma_instance = GET_DMA_INSTANCE(hdma);
1475:Drivers/STM32H5xx_HAL_Driver/Src/stm32h5xx_hal_dma.c **** 
1476:Drivers/STM32H5xx_HAL_Driver/Src/stm32h5xx_hal_dma.c ****   /* Get channel index */
1477:Drivers/STM32H5xx_HAL_Driver/Src/stm32h5xx_hal_dma.c ****   channel_idx = 1UL << (GET_DMA_CHANNEL(hdma) & 0x1FU);
1478:Drivers/STM32H5xx_HAL_Driver/Src/stm32h5xx_hal_dma.c **** 
1479:Drivers/STM32H5xx_HAL_Driver/Src/stm32h5xx_hal_dma.c ****   /* Get DMA channel privilege attribute */
1480:Drivers/STM32H5xx_HAL_Driver/Src/stm32h5xx_hal_dma.c ****   attributes = ((p_dma_instance->PRIVCFGR & channel_idx) == 0U) ? DMA_CHANNEL_NPRIV : DMA_CHANNEL_P
1481:Drivers/STM32H5xx_HAL_Driver/Src/stm32h5xx_hal_dma.c **** 
1482:Drivers/STM32H5xx_HAL_Driver/Src/stm32h5xx_hal_dma.c **** #if defined (DMA_SECCFGR_SEC0)
1483:Drivers/STM32H5xx_HAL_Driver/Src/stm32h5xx_hal_dma.c ****   /* Get DMA channel security attribute */
1484:Drivers/STM32H5xx_HAL_Driver/Src/stm32h5xx_hal_dma.c ****   attributes |= ((p_dma_instance->SECCFGR & channel_idx) == 0U) ? DMA_CHANNEL_NSEC : DMA_CHANNEL_SE
1485:Drivers/STM32H5xx_HAL_Driver/Src/stm32h5xx_hal_dma.c **** 
1486:Drivers/STM32H5xx_HAL_Driver/Src/stm32h5xx_hal_dma.c ****   /* Get DMA channel source security attribute */
1487:Drivers/STM32H5xx_HAL_Driver/Src/stm32h5xx_hal_dma.c ****   attributes |= ((hdma->Instance->CTR1 & DMA_CTR1_SSEC) == 0U) ? DMA_CHANNEL_SRC_NSEC : DMA_CHANNEL
1488:Drivers/STM32H5xx_HAL_Driver/Src/stm32h5xx_hal_dma.c **** 
1489:Drivers/STM32H5xx_HAL_Driver/Src/stm32h5xx_hal_dma.c ****   /* Get DMA channel destination security attribute */
1490:Drivers/STM32H5xx_HAL_Driver/Src/stm32h5xx_hal_dma.c ****   attributes |= ((hdma->Instance->CTR1 & DMA_CTR1_DSEC) == 0U) ? DMA_CHANNEL_DEST_NSEC : DMA_CHANNE
1491:Drivers/STM32H5xx_HAL_Driver/Src/stm32h5xx_hal_dma.c **** #endif /* DMA_SECCFGR_SEC0 */
1492:Drivers/STM32H5xx_HAL_Driver/Src/stm32h5xx_hal_dma.c **** 
1493:Drivers/STM32H5xx_HAL_Driver/Src/stm32h5xx_hal_dma.c ****   /* return value */
1494:Drivers/STM32H5xx_HAL_Driver/Src/stm32h5xx_hal_dma.c ****   *pChannelAttributes = attributes;
1495:Drivers/STM32H5xx_HAL_Driver/Src/stm32h5xx_hal_dma.c **** 
1496:Drivers/STM32H5xx_HAL_Driver/Src/stm32h5xx_hal_dma.c ****   return HAL_OK;
1497:Drivers/STM32H5xx_HAL_Driver/Src/stm32h5xx_hal_dma.c **** }
1498:Drivers/STM32H5xx_HAL_Driver/Src/stm32h5xx_hal_dma.c **** 
1499:Drivers/STM32H5xx_HAL_Driver/Src/stm32h5xx_hal_dma.c **** 
1500:Drivers/STM32H5xx_HAL_Driver/Src/stm32h5xx_hal_dma.c **** #if defined (DMA_RCFGLOCKR_LOCK0)
1501:Drivers/STM32H5xx_HAL_Driver/Src/stm32h5xx_hal_dma.c **** #if defined (__ARM_FEATURE_CMSE) && (__ARM_FEATURE_CMSE == 3U)
1502:Drivers/STM32H5xx_HAL_Driver/Src/stm32h5xx_hal_dma.c **** /**
1503:Drivers/STM32H5xx_HAL_Driver/Src/stm32h5xx_hal_dma.c ****   * @brief  Lock the DMA channel security and privilege attribute(s).
1504:Drivers/STM32H5xx_HAL_Driver/Src/stm32h5xx_hal_dma.c ****   * @param  hdma : Pointer to a DMA_HandleTypeDef structure that contains the configuration informa
1505:Drivers/STM32H5xx_HAL_Driver/Src/stm32h5xx_hal_dma.c ****   *                specified DMA Channel.
1506:Drivers/STM32H5xx_HAL_Driver/Src/stm32h5xx_hal_dma.c ****   * @retval HAL Status.
1507:Drivers/STM32H5xx_HAL_Driver/Src/stm32h5xx_hal_dma.c ****   */
1508:Drivers/STM32H5xx_HAL_Driver/Src/stm32h5xx_hal_dma.c **** HAL_StatusTypeDef HAL_DMA_LockChannelAttributes(DMA_HandleTypeDef const *const hdma)
1509:Drivers/STM32H5xx_HAL_Driver/Src/stm32h5xx_hal_dma.c **** {
1510:Drivers/STM32H5xx_HAL_Driver/Src/stm32h5xx_hal_dma.c ****   DMA_TypeDef *p_dma_instance;
1511:Drivers/STM32H5xx_HAL_Driver/Src/stm32h5xx_hal_dma.c ****   uint32_t channel_idx;
ARM GAS  /tmp/ccQkXeUE.s 			page 28


1512:Drivers/STM32H5xx_HAL_Driver/Src/stm32h5xx_hal_dma.c **** 
1513:Drivers/STM32H5xx_HAL_Driver/Src/stm32h5xx_hal_dma.c ****   /* Check the DMA peripheral handle parameter */
1514:Drivers/STM32H5xx_HAL_Driver/Src/stm32h5xx_hal_dma.c ****   if (hdma == NULL)
1515:Drivers/STM32H5xx_HAL_Driver/Src/stm32h5xx_hal_dma.c ****   {
1516:Drivers/STM32H5xx_HAL_Driver/Src/stm32h5xx_hal_dma.c ****     return HAL_ERROR;
1517:Drivers/STM32H5xx_HAL_Driver/Src/stm32h5xx_hal_dma.c ****   }
1518:Drivers/STM32H5xx_HAL_Driver/Src/stm32h5xx_hal_dma.c **** 
1519:Drivers/STM32H5xx_HAL_Driver/Src/stm32h5xx_hal_dma.c ****   /* Get DMA instance */
1520:Drivers/STM32H5xx_HAL_Driver/Src/stm32h5xx_hal_dma.c ****   p_dma_instance = GET_DMA_INSTANCE(hdma);
1521:Drivers/STM32H5xx_HAL_Driver/Src/stm32h5xx_hal_dma.c **** 
1522:Drivers/STM32H5xx_HAL_Driver/Src/stm32h5xx_hal_dma.c ****   /* Get channel index */
1523:Drivers/STM32H5xx_HAL_Driver/Src/stm32h5xx_hal_dma.c ****   channel_idx = 1UL << (GET_DMA_CHANNEL(hdma) & 0x1FU);
1524:Drivers/STM32H5xx_HAL_Driver/Src/stm32h5xx_hal_dma.c **** 
1525:Drivers/STM32H5xx_HAL_Driver/Src/stm32h5xx_hal_dma.c ****   /* Lock the DMA channel privilege and security attributes */
1526:Drivers/STM32H5xx_HAL_Driver/Src/stm32h5xx_hal_dma.c ****   p_dma_instance->RCFGLOCKR |= channel_idx;
1527:Drivers/STM32H5xx_HAL_Driver/Src/stm32h5xx_hal_dma.c **** 
1528:Drivers/STM32H5xx_HAL_Driver/Src/stm32h5xx_hal_dma.c ****   return HAL_OK;
1529:Drivers/STM32H5xx_HAL_Driver/Src/stm32h5xx_hal_dma.c **** }
1530:Drivers/STM32H5xx_HAL_Driver/Src/stm32h5xx_hal_dma.c **** #endif /* (__ARM_FEATURE_CMSE) && (__ARM_FEATURE_CMSE == 3U) */
1531:Drivers/STM32H5xx_HAL_Driver/Src/stm32h5xx_hal_dma.c **** 
1532:Drivers/STM32H5xx_HAL_Driver/Src/stm32h5xx_hal_dma.c **** /**
1533:Drivers/STM32H5xx_HAL_Driver/Src/stm32h5xx_hal_dma.c ****   * @brief  Get the security and privilege attribute lock state of a DMA channel.
1534:Drivers/STM32H5xx_HAL_Driver/Src/stm32h5xx_hal_dma.c ****   * @param  hdma       : Pointer to a DMA_HandleTypeDef structure that contains the configuration i
1535:Drivers/STM32H5xx_HAL_Driver/Src/stm32h5xx_hal_dma.c ****   *                      specified DMA Channel.
1536:Drivers/STM32H5xx_HAL_Driver/Src/stm32h5xx_hal_dma.c ****   * @param  pLockState : Pointer to lock state (returned value can be DMA_CHANNEL_ATTRIBUTE_UNLOCKE
1537:Drivers/STM32H5xx_HAL_Driver/Src/stm32h5xx_hal_dma.c ****   *                      DMA_CHANNEL_ATTRIBUTE_LOCKED).
1538:Drivers/STM32H5xx_HAL_Driver/Src/stm32h5xx_hal_dma.c ****   * @retval HAL status.
1539:Drivers/STM32H5xx_HAL_Driver/Src/stm32h5xx_hal_dma.c ****   */
1540:Drivers/STM32H5xx_HAL_Driver/Src/stm32h5xx_hal_dma.c **** HAL_StatusTypeDef HAL_DMA_GetLockChannelAttributes(DMA_HandleTypeDef const *const hdma, uint32_t *c
1541:Drivers/STM32H5xx_HAL_Driver/Src/stm32h5xx_hal_dma.c **** {
1542:Drivers/STM32H5xx_HAL_Driver/Src/stm32h5xx_hal_dma.c ****   DMA_TypeDef *p_dma_instance;
1543:Drivers/STM32H5xx_HAL_Driver/Src/stm32h5xx_hal_dma.c ****   uint32_t channel_idx;
1544:Drivers/STM32H5xx_HAL_Driver/Src/stm32h5xx_hal_dma.c **** 
1545:Drivers/STM32H5xx_HAL_Driver/Src/stm32h5xx_hal_dma.c ****   /* Check the DMA peripheral handle and lock state parameters */
1546:Drivers/STM32H5xx_HAL_Driver/Src/stm32h5xx_hal_dma.c ****   if ((hdma == NULL) || (pLockState == NULL))
1547:Drivers/STM32H5xx_HAL_Driver/Src/stm32h5xx_hal_dma.c ****   {
1548:Drivers/STM32H5xx_HAL_Driver/Src/stm32h5xx_hal_dma.c ****     return HAL_ERROR;
1549:Drivers/STM32H5xx_HAL_Driver/Src/stm32h5xx_hal_dma.c ****   }
1550:Drivers/STM32H5xx_HAL_Driver/Src/stm32h5xx_hal_dma.c **** 
1551:Drivers/STM32H5xx_HAL_Driver/Src/stm32h5xx_hal_dma.c ****   /* Get DMA instance */
1552:Drivers/STM32H5xx_HAL_Driver/Src/stm32h5xx_hal_dma.c ****   p_dma_instance = GET_DMA_INSTANCE(hdma);
1553:Drivers/STM32H5xx_HAL_Driver/Src/stm32h5xx_hal_dma.c **** 
1554:Drivers/STM32H5xx_HAL_Driver/Src/stm32h5xx_hal_dma.c ****   /* Get channel index */
1555:Drivers/STM32H5xx_HAL_Driver/Src/stm32h5xx_hal_dma.c ****   channel_idx = 1UL << (GET_DMA_CHANNEL(hdma) & 0x1FU);
1556:Drivers/STM32H5xx_HAL_Driver/Src/stm32h5xx_hal_dma.c **** 
1557:Drivers/STM32H5xx_HAL_Driver/Src/stm32h5xx_hal_dma.c ****   /* Get channel lock attribute state */
1558:Drivers/STM32H5xx_HAL_Driver/Src/stm32h5xx_hal_dma.c ****   *pLockState = ((p_dma_instance->RCFGLOCKR & channel_idx) == 0U) ? DMA_CHANNEL_ATTRIBUTE_UNLOCKED 
1559:Drivers/STM32H5xx_HAL_Driver/Src/stm32h5xx_hal_dma.c ****                 DMA_CHANNEL_ATTRIBUTE_LOCKED;
1560:Drivers/STM32H5xx_HAL_Driver/Src/stm32h5xx_hal_dma.c **** 
1561:Drivers/STM32H5xx_HAL_Driver/Src/stm32h5xx_hal_dma.c ****   return HAL_OK;
1562:Drivers/STM32H5xx_HAL_Driver/Src/stm32h5xx_hal_dma.c **** }
1563:Drivers/STM32H5xx_HAL_Driver/Src/stm32h5xx_hal_dma.c **** #endif /* DMA_RCFGLOCKR_LOCK0 */
1564:Drivers/STM32H5xx_HAL_Driver/Src/stm32h5xx_hal_dma.c **** /**
1565:Drivers/STM32H5xx_HAL_Driver/Src/stm32h5xx_hal_dma.c ****   * @}
1566:Drivers/STM32H5xx_HAL_Driver/Src/stm32h5xx_hal_dma.c ****   */
1567:Drivers/STM32H5xx_HAL_Driver/Src/stm32h5xx_hal_dma.c **** 
1568:Drivers/STM32H5xx_HAL_Driver/Src/stm32h5xx_hal_dma.c **** /**
ARM GAS  /tmp/ccQkXeUE.s 			page 29


1569:Drivers/STM32H5xx_HAL_Driver/Src/stm32h5xx_hal_dma.c ****   * @}
1570:Drivers/STM32H5xx_HAL_Driver/Src/stm32h5xx_hal_dma.c ****   */
1571:Drivers/STM32H5xx_HAL_Driver/Src/stm32h5xx_hal_dma.c **** 
1572:Drivers/STM32H5xx_HAL_Driver/Src/stm32h5xx_hal_dma.c **** 
1573:Drivers/STM32H5xx_HAL_Driver/Src/stm32h5xx_hal_dma.c **** /* Private functions ------------------------------------------------------------------------------
1574:Drivers/STM32H5xx_HAL_Driver/Src/stm32h5xx_hal_dma.c **** /** @defgroup DMA_Private_Functions DMA Private Functions
1575:Drivers/STM32H5xx_HAL_Driver/Src/stm32h5xx_hal_dma.c ****   * @brief    DMA Private Functions
1576:Drivers/STM32H5xx_HAL_Driver/Src/stm32h5xx_hal_dma.c ****   * @{
1577:Drivers/STM32H5xx_HAL_Driver/Src/stm32h5xx_hal_dma.c ****   */
1578:Drivers/STM32H5xx_HAL_Driver/Src/stm32h5xx_hal_dma.c **** 
1579:Drivers/STM32H5xx_HAL_Driver/Src/stm32h5xx_hal_dma.c **** /**
1580:Drivers/STM32H5xx_HAL_Driver/Src/stm32h5xx_hal_dma.c ****   * @brief  Set the DMA channel normal transfer parameters.
1581:Drivers/STM32H5xx_HAL_Driver/Src/stm32h5xx_hal_dma.c ****   * @param  hdma        : Pointer to a DMA_HandleTypeDef structure that contains the configuration 
1582:Drivers/STM32H5xx_HAL_Driver/Src/stm32h5xx_hal_dma.c ****   *                       specified DMA Channel.
1583:Drivers/STM32H5xx_HAL_Driver/Src/stm32h5xx_hal_dma.c ****   * @param  SrcAddress  : The source data address.
1584:Drivers/STM32H5xx_HAL_Driver/Src/stm32h5xx_hal_dma.c ****   * @param  DstAddress  : The destination data address.
1585:Drivers/STM32H5xx_HAL_Driver/Src/stm32h5xx_hal_dma.c ****   * @param  SrcDataSize : The length of data to be transferred from source to destination in bytes.
1586:Drivers/STM32H5xx_HAL_Driver/Src/stm32h5xx_hal_dma.c ****   * @retval None.
1587:Drivers/STM32H5xx_HAL_Driver/Src/stm32h5xx_hal_dma.c ****   */
1588:Drivers/STM32H5xx_HAL_Driver/Src/stm32h5xx_hal_dma.c **** static void DMA_SetConfig(DMA_HandleTypeDef const *const hdma,
1589:Drivers/STM32H5xx_HAL_Driver/Src/stm32h5xx_hal_dma.c ****                           uint32_t SrcAddress,
1590:Drivers/STM32H5xx_HAL_Driver/Src/stm32h5xx_hal_dma.c ****                           uint32_t DstAddress,
1591:Drivers/STM32H5xx_HAL_Driver/Src/stm32h5xx_hal_dma.c ****                           uint32_t SrcDataSize)
1592:Drivers/STM32H5xx_HAL_Driver/Src/stm32h5xx_hal_dma.c **** {
  30              		.loc 1 1592 1 view -0
  31              		.cfi_startproc
  32              		@ args = 0, pretend = 0, frame = 0
  33              		@ frame_needed = 0, uses_anonymous_args = 0
  34              		@ link register save eliminated.
  35              		.loc 1 1592 1 is_stmt 0 view .LVU1
  36 0000 30B4     		push	{r4, r5}
  37              	.LCFI0:
  38              		.cfi_def_cfa_offset 8
  39              		.cfi_offset 4, -8
  40              		.cfi_offset 5, -4
1593:Drivers/STM32H5xx_HAL_Driver/Src/stm32h5xx_hal_dma.c ****   /* Configure the DMA channel data size */
1594:Drivers/STM32H5xx_HAL_Driver/Src/stm32h5xx_hal_dma.c ****   MODIFY_REG(hdma->Instance->CBR1, DMA_CBR1_BNDT, (SrcDataSize & DMA_CBR1_BNDT));
  41              		.loc 1 1594 3 is_stmt 1 view .LVU2
  42 0002 0568     		ldr	r5, [r0]
  43 0004 AC6C     		ldr	r4, [r5, #72]
  44 0006 4FEA144C 		lsr	ip, r4, #16
  45 000a 4FEA0C4C 		lsl	ip, ip, #16
  46 000e 9BB2     		uxth	r3, r3
  47              	.LVL1:
  48              		.loc 1 1594 3 is_stmt 0 view .LVU3
  49 0010 4CEA0303 		orr	r3, ip, r3
  50 0014 AB64     		str	r3, [r5, #72]
1595:Drivers/STM32H5xx_HAL_Driver/Src/stm32h5xx_hal_dma.c **** 
1596:Drivers/STM32H5xx_HAL_Driver/Src/stm32h5xx_hal_dma.c ****   /* Clear all interrupt flags */
1597:Drivers/STM32H5xx_HAL_Driver/Src/stm32h5xx_hal_dma.c ****   __HAL_DMA_CLEAR_FLAG(hdma, DMA_FLAG_TC | DMA_FLAG_HT | DMA_FLAG_DTE | DMA_FLAG_ULE | DMA_FLAG_USE
  51              		.loc 1 1597 3 is_stmt 1 view .LVU4
  52 0016 0368     		ldr	r3, [r0]
  53 0018 4FF4FE44 		mov	r4, #32512
  54 001c DC60     		str	r4, [r3, #12]
1598:Drivers/STM32H5xx_HAL_Driver/Src/stm32h5xx_hal_dma.c ****                        DMA_FLAG_TO);
1599:Drivers/STM32H5xx_HAL_Driver/Src/stm32h5xx_hal_dma.c **** 
1600:Drivers/STM32H5xx_HAL_Driver/Src/stm32h5xx_hal_dma.c ****   /* Configure DMA channel source address */
ARM GAS  /tmp/ccQkXeUE.s 			page 30


1601:Drivers/STM32H5xx_HAL_Driver/Src/stm32h5xx_hal_dma.c ****   hdma->Instance->CSAR = SrcAddress;
  55              		.loc 1 1601 3 view .LVU5
  56              		.loc 1 1601 7 is_stmt 0 view .LVU6
  57 001e 0368     		ldr	r3, [r0]
  58              		.loc 1 1601 24 view .LVU7
  59 0020 D964     		str	r1, [r3, #76]
1602:Drivers/STM32H5xx_HAL_Driver/Src/stm32h5xx_hal_dma.c **** 
1603:Drivers/STM32H5xx_HAL_Driver/Src/stm32h5xx_hal_dma.c ****   /* Configure DMA channel destination address */
1604:Drivers/STM32H5xx_HAL_Driver/Src/stm32h5xx_hal_dma.c ****   hdma->Instance->CDAR = DstAddress;
  60              		.loc 1 1604 3 is_stmt 1 view .LVU8
  61              		.loc 1 1604 7 is_stmt 0 view .LVU9
  62 0022 0368     		ldr	r3, [r0]
  63              		.loc 1 1604 24 view .LVU10
  64 0024 1A65     		str	r2, [r3, #80]
1605:Drivers/STM32H5xx_HAL_Driver/Src/stm32h5xx_hal_dma.c **** }
  65              		.loc 1 1605 1 view .LVU11
  66 0026 30BC     		pop	{r4, r5}
  67              	.LCFI1:
  68              		.cfi_restore 5
  69              		.cfi_restore 4
  70              		.cfi_def_cfa_offset 0
  71 0028 7047     		bx	lr
  72              		.cfi_endproc
  73              	.LFE376:
  75              		.section	.text.DMA_Init,"ax",%progbits
  76              		.align	1
  77              		.syntax unified
  78              		.thumb
  79              		.thumb_func
  80              		.fpu fpv4-sp-d16
  82              	DMA_Init:
  83              	.LVL2:
  84              	.LFB377:
1606:Drivers/STM32H5xx_HAL_Driver/Src/stm32h5xx_hal_dma.c **** 
1607:Drivers/STM32H5xx_HAL_Driver/Src/stm32h5xx_hal_dma.c **** /**
1608:Drivers/STM32H5xx_HAL_Driver/Src/stm32h5xx_hal_dma.c ****   * @brief  Initialize the DMA channel in normal mode according to the specified parameters in the 
1609:Drivers/STM32H5xx_HAL_Driver/Src/stm32h5xx_hal_dma.c ****   * @param  hdma : pointer to a DMA_HandleTypeDef structure that contains the configuration informa
1610:Drivers/STM32H5xx_HAL_Driver/Src/stm32h5xx_hal_dma.c ****   *                specified DMA Channel.
1611:Drivers/STM32H5xx_HAL_Driver/Src/stm32h5xx_hal_dma.c ****   * @retval None.
1612:Drivers/STM32H5xx_HAL_Driver/Src/stm32h5xx_hal_dma.c ****   */
1613:Drivers/STM32H5xx_HAL_Driver/Src/stm32h5xx_hal_dma.c **** static void DMA_Init(DMA_HandleTypeDef const *const hdma)
1614:Drivers/STM32H5xx_HAL_Driver/Src/stm32h5xx_hal_dma.c **** {
  85              		.loc 1 1614 1 is_stmt 1 view -0
  86              		.cfi_startproc
  87              		@ args = 0, pretend = 0, frame = 0
  88              		@ frame_needed = 0, uses_anonymous_args = 0
  89              		@ link register save eliminated.
  90              		.loc 1 1614 1 is_stmt 0 view .LVU13
  91 0000 10B4     		push	{r4}
  92              	.LCFI2:
  93              		.cfi_def_cfa_offset 4
  94              		.cfi_offset 4, -4
1615:Drivers/STM32H5xx_HAL_Driver/Src/stm32h5xx_hal_dma.c ****   uint32_t tmpreg;
  95              		.loc 1 1615 3 is_stmt 1 view .LVU14
1616:Drivers/STM32H5xx_HAL_Driver/Src/stm32h5xx_hal_dma.c **** 
1617:Drivers/STM32H5xx_HAL_Driver/Src/stm32h5xx_hal_dma.c ****   /* Prepare DMA Channel Control Register (CCR) value *********************************************
1618:Drivers/STM32H5xx_HAL_Driver/Src/stm32h5xx_hal_dma.c ****   tmpreg = hdma->Init.Priority;
ARM GAS  /tmp/ccQkXeUE.s 			page 31


  96              		.loc 1 1618 3 view .LVU15
  97              		.loc 1 1618 10 is_stmt 0 view .LVU16
  98 0002 016A     		ldr	r1, [r0, #32]
  99              	.LVL3:
1619:Drivers/STM32H5xx_HAL_Driver/Src/stm32h5xx_hal_dma.c **** 
1620:Drivers/STM32H5xx_HAL_Driver/Src/stm32h5xx_hal_dma.c ****   /* Write DMA Channel Control Register (CCR) */
1621:Drivers/STM32H5xx_HAL_Driver/Src/stm32h5xx_hal_dma.c ****   MODIFY_REG(hdma->Instance->CCR, DMA_CCR_PRIO | DMA_CCR_LAP | DMA_CCR_LSM, tmpreg);
 100              		.loc 1 1621 3 is_stmt 1 view .LVU17
 101 0004 0268     		ldr	r2, [r0]
 102 0006 5369     		ldr	r3, [r2, #20]
 103 0008 23F44303 		bic	r3, r3, #12779520
 104 000c 0B43     		orrs	r3, r3, r1
 105 000e 5361     		str	r3, [r2, #20]
1622:Drivers/STM32H5xx_HAL_Driver/Src/stm32h5xx_hal_dma.c **** 
1623:Drivers/STM32H5xx_HAL_Driver/Src/stm32h5xx_hal_dma.c ****   /* Prepare DMA Channel Transfer Register (CTR1) value *******************************************
1624:Drivers/STM32H5xx_HAL_Driver/Src/stm32h5xx_hal_dma.c ****   tmpreg = hdma->Init.DestInc | hdma->Init.DestDataWidth | hdma->Init.SrcInc | hdma->Init.SrcDataWi
 106              		.loc 1 1624 3 view .LVU18
 107              		.loc 1 1624 22 is_stmt 0 view .LVU19
 108 0010 4369     		ldr	r3, [r0, #20]
 109              		.loc 1 1624 43 view .LVU20
 110 0012 C269     		ldr	r2, [r0, #28]
 111              		.loc 1 1624 31 view .LVU21
 112 0014 1343     		orrs	r3, r3, r2
 113              		.loc 1 1624 70 view .LVU22
 114 0016 0269     		ldr	r2, [r0, #16]
 115              		.loc 1 1624 58 view .LVU23
 116 0018 1343     		orrs	r3, r3, r2
 117              		.loc 1 1624 90 view .LVU24
 118 001a 8269     		ldr	r2, [r0, #24]
 119              		.loc 1 1624 10 view .LVU25
 120 001c 1343     		orrs	r3, r3, r2
 121              	.LVL4:
1625:Drivers/STM32H5xx_HAL_Driver/Src/stm32h5xx_hal_dma.c **** 
1626:Drivers/STM32H5xx_HAL_Driver/Src/stm32h5xx_hal_dma.c ****   /* Add parameters specific to GPDMA */
1627:Drivers/STM32H5xx_HAL_Driver/Src/stm32h5xx_hal_dma.c ****   if (IS_GPDMA_INSTANCE(hdma->Instance) != 0U)
 122              		.loc 1 1627 3 is_stmt 1 view .LVU26
 123              		.loc 1 1627 7 is_stmt 0 view .LVU27
 124 001e 0168     		ldr	r1, [r0]
 125 0020 794A     		ldr	r2, .L14
 126 0022 9142     		cmp	r1, r2
 127 0024 00F08E80 		beq	.L4
 128              		.loc 1 1627 7 discriminator 2 view .LVU28
 129 0028 02F18052 		add	r2, r2, #268435456
 130 002c 9142     		cmp	r1, r2
 131 002e 00F08980 		beq	.L4
 132              		.loc 1 1627 7 discriminator 4 view .LVU29
 133 0032 02F17042 		add	r2, r2, #-268435456
 134 0036 8032     		adds	r2, r2, #128
 135 0038 9142     		cmp	r1, r2
 136 003a 00F08380 		beq	.L4
 137              		.loc 1 1627 7 discriminator 6 view .LVU30
 138 003e 02F18052 		add	r2, r2, #268435456
 139 0042 9142     		cmp	r1, r2
 140 0044 7ED0     		beq	.L4
 141              		.loc 1 1627 7 discriminator 8 view .LVU31
 142 0046 02F17042 		add	r2, r2, #-268435456
 143 004a 8032     		adds	r2, r2, #128
ARM GAS  /tmp/ccQkXeUE.s 			page 32


 144 004c 9142     		cmp	r1, r2
 145 004e 79D0     		beq	.L4
 146              		.loc 1 1627 7 discriminator 10 view .LVU32
 147 0050 02F18052 		add	r2, r2, #268435456
 148 0054 9142     		cmp	r1, r2
 149 0056 75D0     		beq	.L4
 150              		.loc 1 1627 7 discriminator 12 view .LVU33
 151 0058 02F17042 		add	r2, r2, #-268435456
 152 005c 8032     		adds	r2, r2, #128
 153 005e 9142     		cmp	r1, r2
 154 0060 70D0     		beq	.L4
 155              		.loc 1 1627 7 discriminator 14 view .LVU34
 156 0062 02F18052 		add	r2, r2, #268435456
 157 0066 9142     		cmp	r1, r2
 158 0068 6CD0     		beq	.L4
 159              		.loc 1 1627 7 discriminator 16 view .LVU35
 160 006a 02F17042 		add	r2, r2, #-268435456
 161 006e 8032     		adds	r2, r2, #128
 162 0070 9142     		cmp	r1, r2
 163 0072 67D0     		beq	.L4
 164              		.loc 1 1627 7 discriminator 18 view .LVU36
 165 0074 02F18052 		add	r2, r2, #268435456
 166 0078 9142     		cmp	r1, r2
 167 007a 63D0     		beq	.L4
 168              		.loc 1 1627 7 discriminator 20 view .LVU37
 169 007c 02F17042 		add	r2, r2, #-268435456
 170 0080 8032     		adds	r2, r2, #128
 171 0082 9142     		cmp	r1, r2
 172 0084 5ED0     		beq	.L4
 173              		.loc 1 1627 7 discriminator 22 view .LVU38
 174 0086 02F18052 		add	r2, r2, #268435456
 175 008a 9142     		cmp	r1, r2
 176 008c 5AD0     		beq	.L4
 177              		.loc 1 1627 7 discriminator 24 view .LVU39
 178 008e 02F17042 		add	r2, r2, #-268435456
 179 0092 8032     		adds	r2, r2, #128
 180 0094 9142     		cmp	r1, r2
 181 0096 55D0     		beq	.L4
 182              		.loc 1 1627 7 discriminator 26 view .LVU40
 183 0098 02F18052 		add	r2, r2, #268435456
 184 009c 9142     		cmp	r1, r2
 185 009e 51D0     		beq	.L4
 186              		.loc 1 1627 7 discriminator 28 view .LVU41
 187 00a0 02F17042 		add	r2, r2, #-268435456
 188 00a4 8032     		adds	r2, r2, #128
 189 00a6 9142     		cmp	r1, r2
 190 00a8 4CD0     		beq	.L4
 191              		.loc 1 1627 7 discriminator 30 view .LVU42
 192 00aa 02F18052 		add	r2, r2, #268435456
 193 00ae 9142     		cmp	r1, r2
 194 00b0 48D0     		beq	.L4
 195              		.loc 1 1627 7 discriminator 32 view .LVU43
 196 00b2 02F17042 		add	r2, r2, #-268435456
 197 00b6 02F54862 		add	r2, r2, #3200
 198 00ba 9142     		cmp	r1, r2
 199 00bc 42D0     		beq	.L4
 200              		.loc 1 1627 7 discriminator 34 view .LVU44
ARM GAS  /tmp/ccQkXeUE.s 			page 33


 201 00be 02F18052 		add	r2, r2, #268435456
 202 00c2 9142     		cmp	r1, r2
 203 00c4 3ED0     		beq	.L4
 204              		.loc 1 1627 7 discriminator 36 view .LVU45
 205 00c6 02F17042 		add	r2, r2, #-268435456
 206 00ca 8032     		adds	r2, r2, #128
 207 00cc 9142     		cmp	r1, r2
 208 00ce 39D0     		beq	.L4
 209              		.loc 1 1627 7 discriminator 38 view .LVU46
 210 00d0 02F18052 		add	r2, r2, #268435456
 211 00d4 9142     		cmp	r1, r2
 212 00d6 35D0     		beq	.L4
 213              		.loc 1 1627 7 discriminator 40 view .LVU47
 214 00d8 02F17042 		add	r2, r2, #-268435456
 215 00dc 8032     		adds	r2, r2, #128
 216 00de 9142     		cmp	r1, r2
 217 00e0 30D0     		beq	.L4
 218              		.loc 1 1627 7 discriminator 42 view .LVU48
 219 00e2 02F18052 		add	r2, r2, #268435456
 220 00e6 9142     		cmp	r1, r2
 221 00e8 2CD0     		beq	.L4
 222              		.loc 1 1627 7 discriminator 44 view .LVU49
 223 00ea 02F17042 		add	r2, r2, #-268435456
 224 00ee 8032     		adds	r2, r2, #128
 225 00f0 9142     		cmp	r1, r2
 226 00f2 27D0     		beq	.L4
 227              		.loc 1 1627 7 discriminator 46 view .LVU50
 228 00f4 02F18052 		add	r2, r2, #268435456
 229 00f8 9142     		cmp	r1, r2
 230 00fa 23D0     		beq	.L4
 231              		.loc 1 1627 7 discriminator 48 view .LVU51
 232 00fc 02F17042 		add	r2, r2, #-268435456
 233 0100 8032     		adds	r2, r2, #128
 234 0102 9142     		cmp	r1, r2
 235 0104 1ED0     		beq	.L4
 236              		.loc 1 1627 7 discriminator 50 view .LVU52
 237 0106 02F18052 		add	r2, r2, #268435456
 238 010a 9142     		cmp	r1, r2
 239 010c 1AD0     		beq	.L4
 240              		.loc 1 1627 7 discriminator 52 view .LVU53
 241 010e 02F17042 		add	r2, r2, #-268435456
 242 0112 8032     		adds	r2, r2, #128
 243 0114 9142     		cmp	r1, r2
 244 0116 15D0     		beq	.L4
 245              		.loc 1 1627 7 discriminator 54 view .LVU54
 246 0118 02F18052 		add	r2, r2, #268435456
 247 011c 9142     		cmp	r1, r2
 248 011e 11D0     		beq	.L4
 249              		.loc 1 1627 7 discriminator 56 view .LVU55
 250 0120 02F17042 		add	r2, r2, #-268435456
 251 0124 8032     		adds	r2, r2, #128
 252 0126 9142     		cmp	r1, r2
 253 0128 0CD0     		beq	.L4
 254              		.loc 1 1627 7 discriminator 58 view .LVU56
 255 012a 02F18052 		add	r2, r2, #268435456
 256 012e 9142     		cmp	r1, r2
 257 0130 08D0     		beq	.L4
ARM GAS  /tmp/ccQkXeUE.s 			page 34


 258              		.loc 1 1627 7 discriminator 60 view .LVU57
 259 0132 02F17042 		add	r2, r2, #-268435456
 260 0136 8032     		adds	r2, r2, #128
 261 0138 9142     		cmp	r1, r2
 262 013a 03D0     		beq	.L4
 263              		.loc 1 1627 7 discriminator 62 view .LVU58
 264 013c 02F18052 		add	r2, r2, #268435456
 265 0140 9142     		cmp	r1, r2
 266 0142 0FD1     		bne	.L5
 267              	.L4:
1628:Drivers/STM32H5xx_HAL_Driver/Src/stm32h5xx_hal_dma.c ****   {
1629:Drivers/STM32H5xx_HAL_Driver/Src/stm32h5xx_hal_dma.c ****     tmpreg |= (hdma->Init.TransferAllocatedPort                                             |
 268              		.loc 1 1629 5 is_stmt 1 view .LVU59
1630:Drivers/STM32H5xx_HAL_Driver/Src/stm32h5xx_hal_dma.c ****                (((hdma->Init.DestBurstLength - 1U) << DMA_CTR1_DBL_1_Pos) & DMA_CTR1_DBL_1) |
 269              		.loc 1 1630 29 is_stmt 0 view .LVU60
 270 0144 826A     		ldr	r2, [r0, #40]
 271              		.loc 1 1630 46 view .LVU61
 272 0146 013A     		subs	r2, r2, #1
 273              		.loc 1 1630 52 view .LVU62
 274 0148 1205     		lsls	r2, r2, #20
 275              		.loc 1 1630 75 view .LVU63
 276 014a 02F07C72 		and	r2, r2, #66060288
1629:Drivers/STM32H5xx_HAL_Driver/Src/stm32h5xx_hal_dma.c ****                (((hdma->Init.DestBurstLength - 1U) << DMA_CTR1_DBL_1_Pos) & DMA_CTR1_DBL_1) |
 277              		.loc 1 1629 93 view .LVU64
 278 014e C46A     		ldr	r4, [r0, #44]
 279 0150 44EA020C 		orr	ip, r4, r2
1631:Drivers/STM32H5xx_HAL_Driver/Src/stm32h5xx_hal_dma.c ****                (((hdma->Init.SrcBurstLength - 1U) << DMA_CTR1_SBL_1_Pos) & DMA_CTR1_SBL_1));
 280              		.loc 1 1631 29 view .LVU65
 281 0154 426A     		ldr	r2, [r0, #36]
 282              		.loc 1 1631 45 view .LVU66
 283 0156 013A     		subs	r2, r2, #1
 284              		.loc 1 1631 51 view .LVU67
 285 0158 1201     		lsls	r2, r2, #4
 286              		.loc 1 1631 74 view .LVU68
 287 015a 02F47C72 		and	r2, r2, #1008
1630:Drivers/STM32H5xx_HAL_Driver/Src/stm32h5xx_hal_dma.c ****                (((hdma->Init.DestBurstLength - 1U) << DMA_CTR1_DBL_1_Pos) & DMA_CTR1_DBL_1) |
 288              		.loc 1 1630 93 view .LVU69
 289 015e 4CEA0202 		orr	r2, ip, r2
1629:Drivers/STM32H5xx_HAL_Driver/Src/stm32h5xx_hal_dma.c ****                (((hdma->Init.DestBurstLength - 1U) << DMA_CTR1_DBL_1_Pos) & DMA_CTR1_DBL_1) |
 290              		.loc 1 1629 12 view .LVU70
 291 0162 1343     		orrs	r3, r3, r2
 292              	.LVL5:
 293              	.L5:
1632:Drivers/STM32H5xx_HAL_Driver/Src/stm32h5xx_hal_dma.c ****   }
1633:Drivers/STM32H5xx_HAL_Driver/Src/stm32h5xx_hal_dma.c **** 
1634:Drivers/STM32H5xx_HAL_Driver/Src/stm32h5xx_hal_dma.c ****   /* Write DMA Channel Transfer Register 1 (CTR1) */
1635:Drivers/STM32H5xx_HAL_Driver/Src/stm32h5xx_hal_dma.c **** #if defined (DMA_CTR1_SSEC)
1636:Drivers/STM32H5xx_HAL_Driver/Src/stm32h5xx_hal_dma.c ****   MODIFY_REG(hdma->Instance->CTR1, ~(DMA_CTR1_SSEC | DMA_CTR1_DSEC), tmpreg);
 294              		.loc 1 1636 3 is_stmt 1 view .LVU71
 295 0164 0A6C     		ldr	r2, [r1, #64]
 296 0166 02F08022 		and	r2, r2, #-2147450880
 297 016a 1343     		orrs	r3, r3, r2
 298              	.LVL6:
 299              		.loc 1 1636 3 is_stmt 0 view .LVU72
 300 016c 0B64     		str	r3, [r1, #64]
1637:Drivers/STM32H5xx_HAL_Driver/Src/stm32h5xx_hal_dma.c **** #else
1638:Drivers/STM32H5xx_HAL_Driver/Src/stm32h5xx_hal_dma.c ****   WRITE_REG(hdma->Instance->CTR1, tmpreg);
ARM GAS  /tmp/ccQkXeUE.s 			page 35


1639:Drivers/STM32H5xx_HAL_Driver/Src/stm32h5xx_hal_dma.c **** #endif /* DMA_CTR1_SSEC */
1640:Drivers/STM32H5xx_HAL_Driver/Src/stm32h5xx_hal_dma.c **** 
1641:Drivers/STM32H5xx_HAL_Driver/Src/stm32h5xx_hal_dma.c ****   /* Prepare DMA Channel Transfer Register 2 (CTR2) value *****************************************
1642:Drivers/STM32H5xx_HAL_Driver/Src/stm32h5xx_hal_dma.c ****   tmpreg = hdma->Init.BlkHWRequest | (hdma->Init.Request & DMA_CTR2_REQSEL) | hdma->Init.TransferEv
 301              		.loc 1 1642 3 is_stmt 1 view .LVU73
 302              		.loc 1 1642 22 is_stmt 0 view .LVU74
 303 016e 8368     		ldr	r3, [r0, #8]
 304              		.loc 1 1642 58 view .LVU75
 305 0170 0279     		ldrb	r2, [r0, #4]	@ zero_extendqisi2
 306              		.loc 1 1642 36 view .LVU76
 307 0172 1343     		orrs	r3, r3, r2
 308              		.loc 1 1642 89 view .LVU77
 309 0174 026B     		ldr	r2, [r0, #48]
 310              		.loc 1 1642 10 view .LVU78
 311 0176 1343     		orrs	r3, r3, r2
 312              	.LVL7:
1643:Drivers/STM32H5xx_HAL_Driver/Src/stm32h5xx_hal_dma.c **** 
1644:Drivers/STM32H5xx_HAL_Driver/Src/stm32h5xx_hal_dma.c ****   /* Memory to Peripheral Transfer */
1645:Drivers/STM32H5xx_HAL_Driver/Src/stm32h5xx_hal_dma.c ****   if ((hdma->Init.Direction) == DMA_MEMORY_TO_PERIPH)
 313              		.loc 1 1645 3 is_stmt 1 view .LVU79
 314              		.loc 1 1645 18 is_stmt 0 view .LVU80
 315 0178 C268     		ldr	r2, [r0, #12]
 316              		.loc 1 1645 6 view .LVU81
 317 017a B2F5806F 		cmp	r2, #1024
 318 017e 47D0     		beq	.L12
1646:Drivers/STM32H5xx_HAL_Driver/Src/stm32h5xx_hal_dma.c ****   {
1647:Drivers/STM32H5xx_HAL_Driver/Src/stm32h5xx_hal_dma.c ****     if (IS_GPDMA_INSTANCE(hdma->Instance) != 0U)
1648:Drivers/STM32H5xx_HAL_Driver/Src/stm32h5xx_hal_dma.c ****     {
1649:Drivers/STM32H5xx_HAL_Driver/Src/stm32h5xx_hal_dma.c ****       tmpreg |= DMA_CTR2_DREQ;
1650:Drivers/STM32H5xx_HAL_Driver/Src/stm32h5xx_hal_dma.c ****     }
1651:Drivers/STM32H5xx_HAL_Driver/Src/stm32h5xx_hal_dma.c ****   }
1652:Drivers/STM32H5xx_HAL_Driver/Src/stm32h5xx_hal_dma.c ****   /* Memory to Memory Transfer */
1653:Drivers/STM32H5xx_HAL_Driver/Src/stm32h5xx_hal_dma.c ****   else if ((hdma->Init.Direction) == DMA_MEMORY_TO_MEMORY)
 319              		.loc 1 1653 8 is_stmt 1 view .LVU82
 320              		.loc 1 1653 11 is_stmt 0 view .LVU83
 321 0180 B2F5007F 		cmp	r2, #512
 322 0184 00F0DB80 		beq	.L13
 323              	.L8:
1654:Drivers/STM32H5xx_HAL_Driver/Src/stm32h5xx_hal_dma.c ****   {
1655:Drivers/STM32H5xx_HAL_Driver/Src/stm32h5xx_hal_dma.c ****     tmpreg |= DMA_CTR2_SWREQ;
1656:Drivers/STM32H5xx_HAL_Driver/Src/stm32h5xx_hal_dma.c ****   }
1657:Drivers/STM32H5xx_HAL_Driver/Src/stm32h5xx_hal_dma.c ****   else
1658:Drivers/STM32H5xx_HAL_Driver/Src/stm32h5xx_hal_dma.c ****   {
1659:Drivers/STM32H5xx_HAL_Driver/Src/stm32h5xx_hal_dma.c ****     /* Nothing to do */
1660:Drivers/STM32H5xx_HAL_Driver/Src/stm32h5xx_hal_dma.c ****   }
 324              		.loc 1 1660 3 is_stmt 1 view .LVU84
1661:Drivers/STM32H5xx_HAL_Driver/Src/stm32h5xx_hal_dma.c **** 
1662:Drivers/STM32H5xx_HAL_Driver/Src/stm32h5xx_hal_dma.c ****   /* Set DMA channel operation mode */
1663:Drivers/STM32H5xx_HAL_Driver/Src/stm32h5xx_hal_dma.c ****   tmpreg |= hdma->Init.Mode;
 325              		.loc 1 1663 3 view .LVU85
 326              		.loc 1 1663 23 is_stmt 0 view .LVU86
 327 0188 426B     		ldr	r2, [r0, #52]
 328              		.loc 1 1663 10 view .LVU87
 329 018a 1A43     		orrs	r2, r2, r3
 330              	.LVL8:
1664:Drivers/STM32H5xx_HAL_Driver/Src/stm32h5xx_hal_dma.c **** 
1665:Drivers/STM32H5xx_HAL_Driver/Src/stm32h5xx_hal_dma.c ****   /* Write DMA Channel Transfer Register 2 (CTR2) */
ARM GAS  /tmp/ccQkXeUE.s 			page 36


1666:Drivers/STM32H5xx_HAL_Driver/Src/stm32h5xx_hal_dma.c ****   MODIFY_REG(hdma->Instance->CTR2, (DMA_CTR2_TCEM  | DMA_CTR2_TRIGPOL | DMA_CTR2_TRIGSEL | DMA_CTR2
 331              		.loc 1 1666 3 is_stmt 1 view .LVU88
 332 018c 0168     		ldr	r1, [r0]
 333 018e 4B6C     		ldr	r3, [r1, #68]
 334 0190 23F04343 		bic	r3, r3, #-1023410176
 335 0194 23F47F13 		bic	r3, r3, #4177920
 336 0198 23F4F753 		bic	r3, r3, #7904
 337 019c 23F01F03 		bic	r3, r3, #31
 338 01a0 1343     		orrs	r3, r3, r2
 339 01a2 4B64     		str	r3, [r1, #68]
1667:Drivers/STM32H5xx_HAL_Driver/Src/stm32h5xx_hal_dma.c ****                                     DMA_CTR2_PFREQ | DMA_CTR2_BREQ  | DMA_CTR2_DREQ    | DMA_CTR2_S
1668:Drivers/STM32H5xx_HAL_Driver/Src/stm32h5xx_hal_dma.c ****                                     DMA_CTR2_REQSEL), tmpreg);
1669:Drivers/STM32H5xx_HAL_Driver/Src/stm32h5xx_hal_dma.c **** 
1670:Drivers/STM32H5xx_HAL_Driver/Src/stm32h5xx_hal_dma.c **** 
1671:Drivers/STM32H5xx_HAL_Driver/Src/stm32h5xx_hal_dma.c ****   /* Write DMA Channel Block Register 1 (CBR1) ****************************************************
1672:Drivers/STM32H5xx_HAL_Driver/Src/stm32h5xx_hal_dma.c ****   WRITE_REG(hdma->Instance->CBR1, 0U);
 340              		.loc 1 1672 3 view .LVU89
 341 01a4 0368     		ldr	r3, [r0]
 342 01a6 0022     		movs	r2, #0
 343              	.LVL9:
 344              		.loc 1 1672 3 is_stmt 0 view .LVU90
 345 01a8 9A64     		str	r2, [r3, #72]
1673:Drivers/STM32H5xx_HAL_Driver/Src/stm32h5xx_hal_dma.c **** 
1674:Drivers/STM32H5xx_HAL_Driver/Src/stm32h5xx_hal_dma.c ****   /* If 2D Addressing is supported by current channel */
1675:Drivers/STM32H5xx_HAL_Driver/Src/stm32h5xx_hal_dma.c ****   if (IS_DMA_2D_ADDRESSING_INSTANCE(hdma->Instance) != 0U)
 346              		.loc 1 1675 3 is_stmt 1 view .LVU91
 347              		.loc 1 1675 7 is_stmt 0 view .LVU92
 348 01aa 0368     		ldr	r3, [r0]
 349 01ac 174A     		ldr	r2, .L14+4
 350 01ae 9342     		cmp	r3, r2
 351 01b0 1FD0     		beq	.L9
 352              		.loc 1 1675 7 discriminator 2 view .LVU93
 353 01b2 02F18052 		add	r2, r2, #268435456
 354 01b6 9342     		cmp	r3, r2
 355 01b8 1BD0     		beq	.L9
 356              		.loc 1 1675 7 discriminator 4 view .LVU94
 357 01ba 02F17042 		add	r2, r2, #-268435456
 358 01be 8032     		adds	r2, r2, #128
 359 01c0 9342     		cmp	r3, r2
 360 01c2 16D0     		beq	.L9
 361              		.loc 1 1675 7 discriminator 6 view .LVU95
 362 01c4 02F18052 		add	r2, r2, #268435456
 363 01c8 9342     		cmp	r3, r2
 364 01ca 12D0     		beq	.L9
 365              		.loc 1 1675 7 discriminator 8 view .LVU96
 366 01cc 02F17042 		add	r2, r2, #-268435456
 367 01d0 02F57862 		add	r2, r2, #3968
 368 01d4 9342     		cmp	r3, r2
 369 01d6 0CD0     		beq	.L9
 370              		.loc 1 1675 7 discriminator 10 view .LVU97
 371 01d8 02F18052 		add	r2, r2, #268435456
 372 01dc 9342     		cmp	r3, r2
 373 01de 08D0     		beq	.L9
 374              		.loc 1 1675 7 discriminator 12 view .LVU98
 375 01e0 02F17042 		add	r2, r2, #-268435456
 376 01e4 8032     		adds	r2, r2, #128
 377 01e6 9342     		cmp	r3, r2
ARM GAS  /tmp/ccQkXeUE.s 			page 37


 378 01e8 03D0     		beq	.L9
 379              		.loc 1 1675 7 discriminator 14 view .LVU99
 380 01ea 02F18052 		add	r2, r2, #268435456
 381 01ee 9342     		cmp	r3, r2
 382 01f0 03D1     		bne	.L10
 383              	.L9:
1676:Drivers/STM32H5xx_HAL_Driver/Src/stm32h5xx_hal_dma.c ****   {
1677:Drivers/STM32H5xx_HAL_Driver/Src/stm32h5xx_hal_dma.c ****     /* Write DMA Channel Transfer Register 3 (CTR3) ***********************************************
1678:Drivers/STM32H5xx_HAL_Driver/Src/stm32h5xx_hal_dma.c ****     WRITE_REG(hdma->Instance->CTR3, 0U);
 384              		.loc 1 1678 5 is_stmt 1 view .LVU100
 385 01f2 0022     		movs	r2, #0
 386 01f4 5A65     		str	r2, [r3, #84]
1679:Drivers/STM32H5xx_HAL_Driver/Src/stm32h5xx_hal_dma.c **** 
1680:Drivers/STM32H5xx_HAL_Driver/Src/stm32h5xx_hal_dma.c ****     /* Write DMA Channel Block Register 2 (CBR2) **************************************************
1681:Drivers/STM32H5xx_HAL_Driver/Src/stm32h5xx_hal_dma.c ****     WRITE_REG(hdma->Instance->CBR2, 0U);
 387              		.loc 1 1681 5 view .LVU101
 388 01f6 0368     		ldr	r3, [r0]
 389 01f8 9A65     		str	r2, [r3, #88]
 390              	.L10:
1682:Drivers/STM32H5xx_HAL_Driver/Src/stm32h5xx_hal_dma.c ****   }
1683:Drivers/STM32H5xx_HAL_Driver/Src/stm32h5xx_hal_dma.c **** 
1684:Drivers/STM32H5xx_HAL_Driver/Src/stm32h5xx_hal_dma.c ****   /* Write DMA Channel linked-list address register (CLLR) ****************************************
1685:Drivers/STM32H5xx_HAL_Driver/Src/stm32h5xx_hal_dma.c ****   WRITE_REG(hdma->Instance->CLLR, 0U);
 391              		.loc 1 1685 3 view .LVU102
 392 01fa 0368     		ldr	r3, [r0]
 393 01fc 0022     		movs	r2, #0
 394 01fe DA67     		str	r2, [r3, #124]
1686:Drivers/STM32H5xx_HAL_Driver/Src/stm32h5xx_hal_dma.c **** }
 395              		.loc 1 1686 1 is_stmt 0 view .LVU103
 396 0200 5DF8044B 		ldr	r4, [sp], #4
 397              	.LCFI3:
 398              		.cfi_remember_state
 399              		.cfi_restore 4
 400              		.cfi_def_cfa_offset 0
 401 0204 7047     		bx	lr
 402              	.L15:
 403 0206 00BF     		.align	2
 404              	.L14:
 405 0208 50000240 		.word	1073872976
 406 020c 50030240 		.word	1073873744
 407              	.LVL10:
 408              	.L12:
 409              	.LCFI4:
 410              		.cfi_restore_state
1647:Drivers/STM32H5xx_HAL_Driver/Src/stm32h5xx_hal_dma.c ****     {
 411              		.loc 1 1647 5 is_stmt 1 view .LVU104
1647:Drivers/STM32H5xx_HAL_Driver/Src/stm32h5xx_hal_dma.c ****     {
 412              		.loc 1 1647 9 is_stmt 0 view .LVU105
 413 0210 0268     		ldr	r2, [r0]
 414 0212 4C49     		ldr	r1, .L16
 415 0214 8A42     		cmp	r2, r1
 416 0216 00F08F80 		beq	.L7
1647:Drivers/STM32H5xx_HAL_Driver/Src/stm32h5xx_hal_dma.c ****     {
 417              		.loc 1 1647 9 discriminator 2 view .LVU106
 418 021a 01F18051 		add	r1, r1, #268435456
 419 021e 8A42     		cmp	r2, r1
 420 0220 00F08A80 		beq	.L7
ARM GAS  /tmp/ccQkXeUE.s 			page 38


1647:Drivers/STM32H5xx_HAL_Driver/Src/stm32h5xx_hal_dma.c ****     {
 421              		.loc 1 1647 9 discriminator 4 view .LVU107
 422 0224 01F17041 		add	r1, r1, #-268435456
 423 0228 8031     		adds	r1, r1, #128
 424 022a 8A42     		cmp	r2, r1
 425 022c 00F08480 		beq	.L7
1647:Drivers/STM32H5xx_HAL_Driver/Src/stm32h5xx_hal_dma.c ****     {
 426              		.loc 1 1647 9 discriminator 6 view .LVU108
 427 0230 01F18051 		add	r1, r1, #268435456
 428 0234 8A42     		cmp	r2, r1
 429 0236 7FD0     		beq	.L7
1647:Drivers/STM32H5xx_HAL_Driver/Src/stm32h5xx_hal_dma.c ****     {
 430              		.loc 1 1647 9 discriminator 8 view .LVU109
 431 0238 01F17041 		add	r1, r1, #-268435456
 432 023c 8031     		adds	r1, r1, #128
 433 023e 8A42     		cmp	r2, r1
 434 0240 7AD0     		beq	.L7
1647:Drivers/STM32H5xx_HAL_Driver/Src/stm32h5xx_hal_dma.c ****     {
 435              		.loc 1 1647 9 discriminator 10 view .LVU110
 436 0242 01F18051 		add	r1, r1, #268435456
 437 0246 8A42     		cmp	r2, r1
 438 0248 76D0     		beq	.L7
1647:Drivers/STM32H5xx_HAL_Driver/Src/stm32h5xx_hal_dma.c ****     {
 439              		.loc 1 1647 9 discriminator 12 view .LVU111
 440 024a 01F17041 		add	r1, r1, #-268435456
 441 024e 8031     		adds	r1, r1, #128
 442 0250 8A42     		cmp	r2, r1
 443 0252 71D0     		beq	.L7
1647:Drivers/STM32H5xx_HAL_Driver/Src/stm32h5xx_hal_dma.c ****     {
 444              		.loc 1 1647 9 discriminator 14 view .LVU112
 445 0254 01F18051 		add	r1, r1, #268435456
 446 0258 8A42     		cmp	r2, r1
 447 025a 6DD0     		beq	.L7
1647:Drivers/STM32H5xx_HAL_Driver/Src/stm32h5xx_hal_dma.c ****     {
 448              		.loc 1 1647 9 discriminator 16 view .LVU113
 449 025c 01F17041 		add	r1, r1, #-268435456
 450 0260 8031     		adds	r1, r1, #128
 451 0262 8A42     		cmp	r2, r1
 452 0264 68D0     		beq	.L7
1647:Drivers/STM32H5xx_HAL_Driver/Src/stm32h5xx_hal_dma.c ****     {
 453              		.loc 1 1647 9 discriminator 18 view .LVU114
 454 0266 01F18051 		add	r1, r1, #268435456
 455 026a 8A42     		cmp	r2, r1
 456 026c 64D0     		beq	.L7
1647:Drivers/STM32H5xx_HAL_Driver/Src/stm32h5xx_hal_dma.c ****     {
 457              		.loc 1 1647 9 discriminator 20 view .LVU115
 458 026e 01F17041 		add	r1, r1, #-268435456
 459 0272 8031     		adds	r1, r1, #128
 460 0274 8A42     		cmp	r2, r1
 461 0276 5FD0     		beq	.L7
1647:Drivers/STM32H5xx_HAL_Driver/Src/stm32h5xx_hal_dma.c ****     {
 462              		.loc 1 1647 9 discriminator 22 view .LVU116
 463 0278 01F18051 		add	r1, r1, #268435456
 464 027c 8A42     		cmp	r2, r1
 465 027e 5BD0     		beq	.L7
1647:Drivers/STM32H5xx_HAL_Driver/Src/stm32h5xx_hal_dma.c ****     {
 466              		.loc 1 1647 9 discriminator 24 view .LVU117
ARM GAS  /tmp/ccQkXeUE.s 			page 39


 467 0280 01F17041 		add	r1, r1, #-268435456
 468 0284 8031     		adds	r1, r1, #128
 469 0286 8A42     		cmp	r2, r1
 470 0288 56D0     		beq	.L7
1647:Drivers/STM32H5xx_HAL_Driver/Src/stm32h5xx_hal_dma.c ****     {
 471              		.loc 1 1647 9 discriminator 26 view .LVU118
 472 028a 01F18051 		add	r1, r1, #268435456
 473 028e 8A42     		cmp	r2, r1
 474 0290 52D0     		beq	.L7
1647:Drivers/STM32H5xx_HAL_Driver/Src/stm32h5xx_hal_dma.c ****     {
 475              		.loc 1 1647 9 discriminator 28 view .LVU119
 476 0292 01F17041 		add	r1, r1, #-268435456
 477 0296 8031     		adds	r1, r1, #128
 478 0298 8A42     		cmp	r2, r1
 479 029a 4DD0     		beq	.L7
1647:Drivers/STM32H5xx_HAL_Driver/Src/stm32h5xx_hal_dma.c ****     {
 480              		.loc 1 1647 9 discriminator 30 view .LVU120
 481 029c 01F18051 		add	r1, r1, #268435456
 482 02a0 8A42     		cmp	r2, r1
 483 02a2 49D0     		beq	.L7
1647:Drivers/STM32H5xx_HAL_Driver/Src/stm32h5xx_hal_dma.c ****     {
 484              		.loc 1 1647 9 discriminator 32 view .LVU121
 485 02a4 01F17041 		add	r1, r1, #-268435456
 486 02a8 01F54861 		add	r1, r1, #3200
 487 02ac 8A42     		cmp	r2, r1
 488 02ae 43D0     		beq	.L7
1647:Drivers/STM32H5xx_HAL_Driver/Src/stm32h5xx_hal_dma.c ****     {
 489              		.loc 1 1647 9 discriminator 34 view .LVU122
 490 02b0 01F18051 		add	r1, r1, #268435456
 491 02b4 8A42     		cmp	r2, r1
 492 02b6 3FD0     		beq	.L7
1647:Drivers/STM32H5xx_HAL_Driver/Src/stm32h5xx_hal_dma.c ****     {
 493              		.loc 1 1647 9 discriminator 36 view .LVU123
 494 02b8 01F17041 		add	r1, r1, #-268435456
 495 02bc 8031     		adds	r1, r1, #128
 496 02be 8A42     		cmp	r2, r1
 497 02c0 3AD0     		beq	.L7
1647:Drivers/STM32H5xx_HAL_Driver/Src/stm32h5xx_hal_dma.c ****     {
 498              		.loc 1 1647 9 discriminator 38 view .LVU124
 499 02c2 01F18051 		add	r1, r1, #268435456
 500 02c6 8A42     		cmp	r2, r1
 501 02c8 36D0     		beq	.L7
1647:Drivers/STM32H5xx_HAL_Driver/Src/stm32h5xx_hal_dma.c ****     {
 502              		.loc 1 1647 9 discriminator 40 view .LVU125
 503 02ca 01F17041 		add	r1, r1, #-268435456
 504 02ce 8031     		adds	r1, r1, #128
 505 02d0 8A42     		cmp	r2, r1
 506 02d2 31D0     		beq	.L7
1647:Drivers/STM32H5xx_HAL_Driver/Src/stm32h5xx_hal_dma.c ****     {
 507              		.loc 1 1647 9 discriminator 42 view .LVU126
 508 02d4 01F18051 		add	r1, r1, #268435456
 509 02d8 8A42     		cmp	r2, r1
 510 02da 2DD0     		beq	.L7
1647:Drivers/STM32H5xx_HAL_Driver/Src/stm32h5xx_hal_dma.c ****     {
 511              		.loc 1 1647 9 discriminator 44 view .LVU127
 512 02dc 01F17041 		add	r1, r1, #-268435456
 513 02e0 8031     		adds	r1, r1, #128
ARM GAS  /tmp/ccQkXeUE.s 			page 40


 514 02e2 8A42     		cmp	r2, r1
 515 02e4 28D0     		beq	.L7
1647:Drivers/STM32H5xx_HAL_Driver/Src/stm32h5xx_hal_dma.c ****     {
 516              		.loc 1 1647 9 discriminator 46 view .LVU128
 517 02e6 01F18051 		add	r1, r1, #268435456
 518 02ea 8A42     		cmp	r2, r1
 519 02ec 24D0     		beq	.L7
1647:Drivers/STM32H5xx_HAL_Driver/Src/stm32h5xx_hal_dma.c ****     {
 520              		.loc 1 1647 9 discriminator 48 view .LVU129
 521 02ee 01F17041 		add	r1, r1, #-268435456
 522 02f2 8031     		adds	r1, r1, #128
 523 02f4 8A42     		cmp	r2, r1
 524 02f6 1FD0     		beq	.L7
1647:Drivers/STM32H5xx_HAL_Driver/Src/stm32h5xx_hal_dma.c ****     {
 525              		.loc 1 1647 9 discriminator 50 view .LVU130
 526 02f8 01F18051 		add	r1, r1, #268435456
 527 02fc 8A42     		cmp	r2, r1
 528 02fe 1BD0     		beq	.L7
1647:Drivers/STM32H5xx_HAL_Driver/Src/stm32h5xx_hal_dma.c ****     {
 529              		.loc 1 1647 9 discriminator 52 view .LVU131
 530 0300 01F17041 		add	r1, r1, #-268435456
 531 0304 8031     		adds	r1, r1, #128
 532 0306 8A42     		cmp	r2, r1
 533 0308 16D0     		beq	.L7
1647:Drivers/STM32H5xx_HAL_Driver/Src/stm32h5xx_hal_dma.c ****     {
 534              		.loc 1 1647 9 discriminator 54 view .LVU132
 535 030a 01F18051 		add	r1, r1, #268435456
 536 030e 8A42     		cmp	r2, r1
 537 0310 12D0     		beq	.L7
1647:Drivers/STM32H5xx_HAL_Driver/Src/stm32h5xx_hal_dma.c ****     {
 538              		.loc 1 1647 9 discriminator 56 view .LVU133
 539 0312 01F17041 		add	r1, r1, #-268435456
 540 0316 8031     		adds	r1, r1, #128
 541 0318 8A42     		cmp	r2, r1
 542 031a 0DD0     		beq	.L7
1647:Drivers/STM32H5xx_HAL_Driver/Src/stm32h5xx_hal_dma.c ****     {
 543              		.loc 1 1647 9 discriminator 58 view .LVU134
 544 031c 01F18051 		add	r1, r1, #268435456
 545 0320 8A42     		cmp	r2, r1
 546 0322 09D0     		beq	.L7
1647:Drivers/STM32H5xx_HAL_Driver/Src/stm32h5xx_hal_dma.c ****     {
 547              		.loc 1 1647 9 discriminator 60 view .LVU135
 548 0324 01F17041 		add	r1, r1, #-268435456
 549 0328 8031     		adds	r1, r1, #128
 550 032a 8A42     		cmp	r2, r1
 551 032c 04D0     		beq	.L7
1647:Drivers/STM32H5xx_HAL_Driver/Src/stm32h5xx_hal_dma.c ****     {
 552              		.loc 1 1647 9 discriminator 62 view .LVU136
 553 032e 01F18051 		add	r1, r1, #268435456
 554 0332 8A42     		cmp	r2, r1
 555 0334 7FF428AF 		bne	.L8
 556              	.L7:
1649:Drivers/STM32H5xx_HAL_Driver/Src/stm32h5xx_hal_dma.c ****     }
 557              		.loc 1 1649 7 is_stmt 1 view .LVU137
1649:Drivers/STM32H5xx_HAL_Driver/Src/stm32h5xx_hal_dma.c ****     }
 558              		.loc 1 1649 14 is_stmt 0 view .LVU138
 559 0338 43F48063 		orr	r3, r3, #1024
ARM GAS  /tmp/ccQkXeUE.s 			page 41


 560              	.LVL11:
1649:Drivers/STM32H5xx_HAL_Driver/Src/stm32h5xx_hal_dma.c ****     }
 561              		.loc 1 1649 14 view .LVU139
 562 033c 24E7     		b	.L8
 563              	.L13:
1655:Drivers/STM32H5xx_HAL_Driver/Src/stm32h5xx_hal_dma.c ****   }
 564              		.loc 1 1655 5 is_stmt 1 view .LVU140
1655:Drivers/STM32H5xx_HAL_Driver/Src/stm32h5xx_hal_dma.c ****   }
 565              		.loc 1 1655 12 is_stmt 0 view .LVU141
 566 033e 43F40073 		orr	r3, r3, #512
 567              	.LVL12:
1655:Drivers/STM32H5xx_HAL_Driver/Src/stm32h5xx_hal_dma.c ****   }
 568              		.loc 1 1655 12 view .LVU142
 569 0342 21E7     		b	.L8
 570              	.L17:
 571              		.align	2
 572              	.L16:
 573 0344 50000240 		.word	1073872976
 574              		.cfi_endproc
 575              	.LFE377:
 577              		.section	.text.HAL_DMA_Init,"ax",%progbits
 578              		.align	1
 579              		.global	HAL_DMA_Init
 580              		.syntax unified
 581              		.thumb
 582              		.thumb_func
 583              		.fpu fpv4-sp-d16
 585              	HAL_DMA_Init:
 586              	.LVL13:
 587              	.LFB361:
 243:Drivers/STM32H5xx_HAL_Driver/Src/stm32h5xx_hal_dma.c ****   /* Get tick number */
 588              		.loc 1 243 1 is_stmt 1 view -0
 589              		.cfi_startproc
 590              		@ args = 0, pretend = 0, frame = 0
 591              		@ frame_needed = 0, uses_anonymous_args = 0
 243:Drivers/STM32H5xx_HAL_Driver/Src/stm32h5xx_hal_dma.c ****   /* Get tick number */
 592              		.loc 1 243 1 is_stmt 0 view .LVU144
 593 0000 38B5     		push	{r3, r4, r5, lr}
 594              	.LCFI5:
 595              		.cfi_def_cfa_offset 16
 596              		.cfi_offset 3, -16
 597              		.cfi_offset 4, -12
 598              		.cfi_offset 5, -8
 599              		.cfi_offset 14, -4
 600 0002 0446     		mov	r4, r0
 245:Drivers/STM32H5xx_HAL_Driver/Src/stm32h5xx_hal_dma.c **** 
 601              		.loc 1 245 3 is_stmt 1 view .LVU145
 245:Drivers/STM32H5xx_HAL_Driver/Src/stm32h5xx_hal_dma.c **** 
 602              		.loc 1 245 24 is_stmt 0 view .LVU146
 603 0004 FFF7FEFF 		bl	HAL_GetTick
 604              	.LVL14:
 248:Drivers/STM32H5xx_HAL_Driver/Src/stm32h5xx_hal_dma.c ****   {
 605              		.loc 1 248 3 is_stmt 1 view .LVU147
 248:Drivers/STM32H5xx_HAL_Driver/Src/stm32h5xx_hal_dma.c ****   {
 606              		.loc 1 248 6 is_stmt 0 view .LVU148
 607 0008 3CB3     		cbz	r4, .L22
 608 000a 0546     		mov	r5, r0
ARM GAS  /tmp/ccQkXeUE.s 			page 42


 254:Drivers/STM32H5xx_HAL_Driver/Src/stm32h5xx_hal_dma.c ****   assert_param(IS_DMA_DIRECTION(hdma->Init.Direction));
 609              		.loc 1 254 3 is_stmt 1 view .LVU149
 255:Drivers/STM32H5xx_HAL_Driver/Src/stm32h5xx_hal_dma.c ****   if (hdma->Init.Direction != DMA_MEMORY_TO_MEMORY)
 610              		.loc 1 255 3 view .LVU150
 256:Drivers/STM32H5xx_HAL_Driver/Src/stm32h5xx_hal_dma.c ****   {
 611              		.loc 1 256 3 view .LVU151
 258:Drivers/STM32H5xx_HAL_Driver/Src/stm32h5xx_hal_dma.c ****   }
 612              		.loc 1 258 5 view .LVU152
 260:Drivers/STM32H5xx_HAL_Driver/Src/stm32h5xx_hal_dma.c ****   assert_param(IS_DMA_SOURCE_INC(hdma->Init.SrcInc));
 613              		.loc 1 260 3 view .LVU153
 261:Drivers/STM32H5xx_HAL_Driver/Src/stm32h5xx_hal_dma.c ****   assert_param(IS_DMA_DESTINATION_INC(hdma->Init.DestInc));
 614              		.loc 1 261 3 view .LVU154
 262:Drivers/STM32H5xx_HAL_Driver/Src/stm32h5xx_hal_dma.c ****   assert_param(IS_DMA_SOURCE_DATA_WIDTH(hdma->Init.SrcDataWidth));
 615              		.loc 1 262 3 view .LVU155
 263:Drivers/STM32H5xx_HAL_Driver/Src/stm32h5xx_hal_dma.c ****   assert_param(IS_DMA_DESTINATION_DATA_WIDTH(hdma->Init.DestDataWidth));
 616              		.loc 1 263 3 view .LVU156
 264:Drivers/STM32H5xx_HAL_Driver/Src/stm32h5xx_hal_dma.c ****   assert_param(IS_DMA_PRIORITY(hdma->Init.Priority));
 617              		.loc 1 264 3 view .LVU157
 265:Drivers/STM32H5xx_HAL_Driver/Src/stm32h5xx_hal_dma.c ****   assert_param(IS_DMA_TCEM_EVENT_MODE(hdma->Init.TransferEventMode));
 618              		.loc 1 265 3 view .LVU158
 266:Drivers/STM32H5xx_HAL_Driver/Src/stm32h5xx_hal_dma.c ****   assert_param(IS_DMA_MODE(hdma->Init.Mode));
 619              		.loc 1 266 3 view .LVU159
 267:Drivers/STM32H5xx_HAL_Driver/Src/stm32h5xx_hal_dma.c ****   if (hdma->Init.Mode == DMA_PFCTRL)
 620              		.loc 1 267 3 view .LVU160
 268:Drivers/STM32H5xx_HAL_Driver/Src/stm32h5xx_hal_dma.c ****   {
 621              		.loc 1 268 3 view .LVU161
 270:Drivers/STM32H5xx_HAL_Driver/Src/stm32h5xx_hal_dma.c ****   }
 622              		.loc 1 270 5 view .LVU162
 273:Drivers/STM32H5xx_HAL_Driver/Src/stm32h5xx_hal_dma.c ****   {
 623              		.loc 1 273 3 view .LVU163
 273:Drivers/STM32H5xx_HAL_Driver/Src/stm32h5xx_hal_dma.c ****   {
 624              		.loc 1 273 7 is_stmt 0 view .LVU164
 625 000c 2268     		ldr	r2, [r4]
 275:Drivers/STM32H5xx_HAL_Driver/Src/stm32h5xx_hal_dma.c ****     assert_param(IS_DMA_BURST_LENGTH(hdma->Init.DestBurstLength));
 626              		.loc 1 275 5 is_stmt 1 view .LVU165
 276:Drivers/STM32H5xx_HAL_Driver/Src/stm32h5xx_hal_dma.c ****     assert_param(IS_DMA_TRANSFER_ALLOCATED_PORT(hdma->Init.TransferAllocatedPort));
 627              		.loc 1 276 5 view .LVU166
 277:Drivers/STM32H5xx_HAL_Driver/Src/stm32h5xx_hal_dma.c ****   }
 628              		.loc 1 277 5 view .LVU167
 281:Drivers/STM32H5xx_HAL_Driver/Src/stm32h5xx_hal_dma.c **** 
 629              		.loc 1 281 3 view .LVU168
 281:Drivers/STM32H5xx_HAL_Driver/Src/stm32h5xx_hal_dma.c **** 
 630              		.loc 1 281 3 view .LVU169
 631 000e 0023     		movs	r3, #0
 632 0010 84F84C30 		strb	r3, [r4, #76]
 281:Drivers/STM32H5xx_HAL_Driver/Src/stm32h5xx_hal_dma.c **** 
 633              		.loc 1 281 3 view .LVU170
 284:Drivers/STM32H5xx_HAL_Driver/Src/stm32h5xx_hal_dma.c **** 
 634              		.loc 1 284 3 view .LVU171
 284:Drivers/STM32H5xx_HAL_Driver/Src/stm32h5xx_hal_dma.c **** 
 635              		.loc 1 284 15 is_stmt 0 view .LVU172
 636 0014 0223     		movs	r3, #2
 637 0016 84F85430 		strb	r3, [r4, #84]
 287:Drivers/STM32H5xx_HAL_Driver/Src/stm32h5xx_hal_dma.c **** 
 638              		.loc 1 287 3 is_stmt 1 view .LVU173
 639 001a 5369     		ldr	r3, [r2, #20]
 640 001c 43F00603 		orr	r3, r3, #6
ARM GAS  /tmp/ccQkXeUE.s 			page 43


 641 0020 5361     		str	r3, [r2, #20]
 290:Drivers/STM32H5xx_HAL_Driver/Src/stm32h5xx_hal_dma.c ****   {
 642              		.loc 1 290 3 view .LVU174
 643              	.LVL15:
 644              	.L20:
 290:Drivers/STM32H5xx_HAL_Driver/Src/stm32h5xx_hal_dma.c ****   {
 645              		.loc 1 290 9 view .LVU175
 290:Drivers/STM32H5xx_HAL_Driver/Src/stm32h5xx_hal_dma.c ****   {
 646              		.loc 1 290 15 is_stmt 0 view .LVU176
 647 0022 2368     		ldr	r3, [r4]
 290:Drivers/STM32H5xx_HAL_Driver/Src/stm32h5xx_hal_dma.c ****   {
 648              		.loc 1 290 25 view .LVU177
 649 0024 5B69     		ldr	r3, [r3, #20]
 290:Drivers/STM32H5xx_HAL_Driver/Src/stm32h5xx_hal_dma.c ****   {
 650              		.loc 1 290 9 view .LVU178
 651 0026 13F0010F 		tst	r3, #1
 652 002a 0BD0     		beq	.L24
 293:Drivers/STM32H5xx_HAL_Driver/Src/stm32h5xx_hal_dma.c ****     {
 653              		.loc 1 293 5 is_stmt 1 view .LVU179
 293:Drivers/STM32H5xx_HAL_Driver/Src/stm32h5xx_hal_dma.c ****     {
 654              		.loc 1 293 10 is_stmt 0 view .LVU180
 655 002c FFF7FEFF 		bl	HAL_GetTick
 656              	.LVL16:
 293:Drivers/STM32H5xx_HAL_Driver/Src/stm32h5xx_hal_dma.c ****     {
 657              		.loc 1 293 24 view .LVU181
 658 0030 431B     		subs	r3, r0, r5
 293:Drivers/STM32H5xx_HAL_Driver/Src/stm32h5xx_hal_dma.c ****     {
 659              		.loc 1 293 8 view .LVU182
 660 0032 052B     		cmp	r3, #5
 661 0034 F5D9     		bls	.L20
 296:Drivers/STM32H5xx_HAL_Driver/Src/stm32h5xx_hal_dma.c **** 
 662              		.loc 1 296 7 is_stmt 1 view .LVU183
 296:Drivers/STM32H5xx_HAL_Driver/Src/stm32h5xx_hal_dma.c **** 
 663              		.loc 1 296 23 is_stmt 0 view .LVU184
 664 0036 1023     		movs	r3, #16
 665 0038 A365     		str	r3, [r4, #88]
 299:Drivers/STM32H5xx_HAL_Driver/Src/stm32h5xx_hal_dma.c **** 
 666              		.loc 1 299 7 is_stmt 1 view .LVU185
 299:Drivers/STM32H5xx_HAL_Driver/Src/stm32h5xx_hal_dma.c **** 
 667              		.loc 1 299 19 is_stmt 0 view .LVU186
 668 003a 0323     		movs	r3, #3
 669 003c 84F85430 		strb	r3, [r4, #84]
 301:Drivers/STM32H5xx_HAL_Driver/Src/stm32h5xx_hal_dma.c ****     }
 670              		.loc 1 301 7 is_stmt 1 view .LVU187
 301:Drivers/STM32H5xx_HAL_Driver/Src/stm32h5xx_hal_dma.c ****     }
 671              		.loc 1 301 14 is_stmt 0 view .LVU188
 672 0040 0120     		movs	r0, #1
 673 0042 09E0     		b	.L19
 674              	.L24:
 306:Drivers/STM32H5xx_HAL_Driver/Src/stm32h5xx_hal_dma.c **** 
 675              		.loc 1 306 3 is_stmt 1 view .LVU189
 676 0044 2046     		mov	r0, r4
 677 0046 FFF7FEFF 		bl	DMA_Init
 678              	.LVL17:
 309:Drivers/STM32H5xx_HAL_Driver/Src/stm32h5xx_hal_dma.c **** 
 679              		.loc 1 309 3 view .LVU190
 309:Drivers/STM32H5xx_HAL_Driver/Src/stm32h5xx_hal_dma.c **** 
ARM GAS  /tmp/ccQkXeUE.s 			page 44


 680              		.loc 1 309 26 is_stmt 0 view .LVU191
 681 004a 636B     		ldr	r3, [r4, #52]
 309:Drivers/STM32H5xx_HAL_Driver/Src/stm32h5xx_hal_dma.c **** 
 682              		.loc 1 309 14 view .LVU192
 683 004c 2365     		str	r3, [r4, #80]
 312:Drivers/STM32H5xx_HAL_Driver/Src/stm32h5xx_hal_dma.c **** 
 684              		.loc 1 312 3 is_stmt 1 view .LVU193
 312:Drivers/STM32H5xx_HAL_Driver/Src/stm32h5xx_hal_dma.c **** 
 685              		.loc 1 312 19 is_stmt 0 view .LVU194
 686 004e 0020     		movs	r0, #0
 687 0050 A065     		str	r0, [r4, #88]
 315:Drivers/STM32H5xx_HAL_Driver/Src/stm32h5xx_hal_dma.c **** 
 688              		.loc 1 315 3 is_stmt 1 view .LVU195
 315:Drivers/STM32H5xx_HAL_Driver/Src/stm32h5xx_hal_dma.c **** 
 689              		.loc 1 315 15 is_stmt 0 view .LVU196
 690 0052 0123     		movs	r3, #1
 691 0054 84F85430 		strb	r3, [r4, #84]
 317:Drivers/STM32H5xx_HAL_Driver/Src/stm32h5xx_hal_dma.c **** }
 692              		.loc 1 317 3 is_stmt 1 view .LVU197
 693              	.LVL18:
 694              	.L19:
 318:Drivers/STM32H5xx_HAL_Driver/Src/stm32h5xx_hal_dma.c **** 
 695              		.loc 1 318 1 is_stmt 0 view .LVU198
 696 0058 38BD     		pop	{r3, r4, r5, pc}
 697              	.LVL19:
 698              	.L22:
 250:Drivers/STM32H5xx_HAL_Driver/Src/stm32h5xx_hal_dma.c ****   }
 699              		.loc 1 250 12 view .LVU199
 700 005a 0120     		movs	r0, #1
 701              	.LVL20:
 250:Drivers/STM32H5xx_HAL_Driver/Src/stm32h5xx_hal_dma.c ****   }
 702              		.loc 1 250 12 view .LVU200
 703 005c FCE7     		b	.L19
 704              		.cfi_endproc
 705              	.LFE361:
 707              		.section	.text.HAL_DMA_DeInit,"ax",%progbits
 708              		.align	1
 709              		.global	HAL_DMA_DeInit
 710              		.syntax unified
 711              		.thumb
 712              		.thumb_func
 713              		.fpu fpv4-sp-d16
 715              	HAL_DMA_DeInit:
 716              	.LVL21:
 717              	.LFB362:
 327:Drivers/STM32H5xx_HAL_Driver/Src/stm32h5xx_hal_dma.c **** 
 718              		.loc 1 327 1 is_stmt 1 view -0
 719              		.cfi_startproc
 720              		@ args = 0, pretend = 0, frame = 0
 721              		@ frame_needed = 0, uses_anonymous_args = 0
 327:Drivers/STM32H5xx_HAL_Driver/Src/stm32h5xx_hal_dma.c **** 
 722              		.loc 1 327 1 is_stmt 0 view .LVU202
 723 0000 70B5     		push	{r4, r5, r6, lr}
 724              	.LCFI6:
 725              		.cfi_def_cfa_offset 16
 726              		.cfi_offset 4, -16
 727              		.cfi_offset 5, -12
ARM GAS  /tmp/ccQkXeUE.s 			page 45


 728              		.cfi_offset 6, -8
 729              		.cfi_offset 14, -4
 730 0002 0446     		mov	r4, r0
 329:Drivers/STM32H5xx_HAL_Driver/Src/stm32h5xx_hal_dma.c **** 
 731              		.loc 1 329 3 is_stmt 1 view .LVU203
 331:Drivers/STM32H5xx_HAL_Driver/Src/stm32h5xx_hal_dma.c **** 
 732              		.loc 1 331 3 view .LVU204
 331:Drivers/STM32H5xx_HAL_Driver/Src/stm32h5xx_hal_dma.c **** 
 733              		.loc 1 331 24 is_stmt 0 view .LVU205
 734 0004 FFF7FEFF 		bl	HAL_GetTick
 735              	.LVL22:
 334:Drivers/STM32H5xx_HAL_Driver/Src/stm32h5xx_hal_dma.c ****   {
 736              		.loc 1 334 3 is_stmt 1 view .LVU206
 334:Drivers/STM32H5xx_HAL_Driver/Src/stm32h5xx_hal_dma.c ****   {
 737              		.loc 1 334 6 is_stmt 0 view .LVU207
 738 0008 002C     		cmp	r4, #0
 739 000a 76D0     		beq	.L32
 740 000c 0546     		mov	r5, r0
 340:Drivers/STM32H5xx_HAL_Driver/Src/stm32h5xx_hal_dma.c **** 
 741              		.loc 1 340 3 is_stmt 1 view .LVU208
 343:Drivers/STM32H5xx_HAL_Driver/Src/stm32h5xx_hal_dma.c **** 
 742              		.loc 1 343 3 view .LVU209
 343:Drivers/STM32H5xx_HAL_Driver/Src/stm32h5xx_hal_dma.c **** 
 743              		.loc 1 343 20 is_stmt 0 view .LVU210
 744 000e 2368     		ldr	r3, [r4]
 745 0010 23F47F66 		bic	r6, r3, #4080
 746 0014 26F00F06 		bic	r6, r6, #15
 747              	.LVL23:
 346:Drivers/STM32H5xx_HAL_Driver/Src/stm32h5xx_hal_dma.c **** 
 748              		.loc 1 346 3 is_stmt 1 view .LVU211
 749 0018 5A69     		ldr	r2, [r3, #20]
 750 001a 42F00602 		orr	r2, r2, #6
 751 001e 5A61     		str	r2, [r3, #20]
 349:Drivers/STM32H5xx_HAL_Driver/Src/stm32h5xx_hal_dma.c ****   {
 752              		.loc 1 349 3 view .LVU212
 753              	.LVL24:
 754              	.L27:
 349:Drivers/STM32H5xx_HAL_Driver/Src/stm32h5xx_hal_dma.c ****   {
 755              		.loc 1 349 9 view .LVU213
 349:Drivers/STM32H5xx_HAL_Driver/Src/stm32h5xx_hal_dma.c ****   {
 756              		.loc 1 349 15 is_stmt 0 view .LVU214
 757 0020 2368     		ldr	r3, [r4]
 349:Drivers/STM32H5xx_HAL_Driver/Src/stm32h5xx_hal_dma.c ****   {
 758              		.loc 1 349 25 view .LVU215
 759 0022 5A69     		ldr	r2, [r3, #20]
 349:Drivers/STM32H5xx_HAL_Driver/Src/stm32h5xx_hal_dma.c ****   {
 760              		.loc 1 349 9 view .LVU216
 761 0024 12F0010F 		tst	r2, #1
 762 0028 0BD0     		beq	.L34
 352:Drivers/STM32H5xx_HAL_Driver/Src/stm32h5xx_hal_dma.c ****     {
 763              		.loc 1 352 5 is_stmt 1 view .LVU217
 352:Drivers/STM32H5xx_HAL_Driver/Src/stm32h5xx_hal_dma.c ****     {
 764              		.loc 1 352 10 is_stmt 0 view .LVU218
 765 002a FFF7FEFF 		bl	HAL_GetTick
 766              	.LVL25:
 352:Drivers/STM32H5xx_HAL_Driver/Src/stm32h5xx_hal_dma.c ****     {
 767              		.loc 1 352 24 view .LVU219
ARM GAS  /tmp/ccQkXeUE.s 			page 46


 768 002e 431B     		subs	r3, r0, r5
 352:Drivers/STM32H5xx_HAL_Driver/Src/stm32h5xx_hal_dma.c ****     {
 769              		.loc 1 352 8 view .LVU220
 770 0030 052B     		cmp	r3, #5
 771 0032 F5D9     		bls	.L27
 355:Drivers/STM32H5xx_HAL_Driver/Src/stm32h5xx_hal_dma.c **** 
 772              		.loc 1 355 7 is_stmt 1 view .LVU221
 355:Drivers/STM32H5xx_HAL_Driver/Src/stm32h5xx_hal_dma.c **** 
 773              		.loc 1 355 23 is_stmt 0 view .LVU222
 774 0034 1023     		movs	r3, #16
 775 0036 A365     		str	r3, [r4, #88]
 358:Drivers/STM32H5xx_HAL_Driver/Src/stm32h5xx_hal_dma.c **** 
 776              		.loc 1 358 7 is_stmt 1 view .LVU223
 358:Drivers/STM32H5xx_HAL_Driver/Src/stm32h5xx_hal_dma.c **** 
 777              		.loc 1 358 19 is_stmt 0 view .LVU224
 778 0038 0323     		movs	r3, #3
 779 003a 84F85430 		strb	r3, [r4, #84]
 360:Drivers/STM32H5xx_HAL_Driver/Src/stm32h5xx_hal_dma.c ****     }
 780              		.loc 1 360 7 is_stmt 1 view .LVU225
 360:Drivers/STM32H5xx_HAL_Driver/Src/stm32h5xx_hal_dma.c ****     }
 781              		.loc 1 360 14 is_stmt 0 view .LVU226
 782 003e 0120     		movs	r0, #1
 783 0040 5AE0     		b	.L26
 784              	.L34:
 365:Drivers/STM32H5xx_HAL_Driver/Src/stm32h5xx_hal_dma.c ****   hdma->Instance->CCR   = 0U;
 785              		.loc 1 365 3 is_stmt 1 view .LVU227
 365:Drivers/STM32H5xx_HAL_Driver/Src/stm32h5xx_hal_dma.c ****   hdma->Instance->CCR   = 0U;
 786              		.loc 1 365 25 is_stmt 0 view .LVU228
 787 0042 0022     		movs	r2, #0
 788 0044 1A60     		str	r2, [r3]
 366:Drivers/STM32H5xx_HAL_Driver/Src/stm32h5xx_hal_dma.c ****   hdma->Instance->CTR1  = 0U;
 789              		.loc 1 366 3 is_stmt 1 view .LVU229
 366:Drivers/STM32H5xx_HAL_Driver/Src/stm32h5xx_hal_dma.c ****   hdma->Instance->CTR1  = 0U;
 790              		.loc 1 366 7 is_stmt 0 view .LVU230
 791 0046 2368     		ldr	r3, [r4]
 366:Drivers/STM32H5xx_HAL_Driver/Src/stm32h5xx_hal_dma.c ****   hdma->Instance->CTR1  = 0U;
 792              		.loc 1 366 25 view .LVU231
 793 0048 5A61     		str	r2, [r3, #20]
 367:Drivers/STM32H5xx_HAL_Driver/Src/stm32h5xx_hal_dma.c ****   hdma->Instance->CTR2  = 0U;
 794              		.loc 1 367 3 is_stmt 1 view .LVU232
 367:Drivers/STM32H5xx_HAL_Driver/Src/stm32h5xx_hal_dma.c ****   hdma->Instance->CTR2  = 0U;
 795              		.loc 1 367 7 is_stmt 0 view .LVU233
 796 004a 2368     		ldr	r3, [r4]
 367:Drivers/STM32H5xx_HAL_Driver/Src/stm32h5xx_hal_dma.c ****   hdma->Instance->CTR2  = 0U;
 797              		.loc 1 367 25 view .LVU234
 798 004c 1A64     		str	r2, [r3, #64]
 368:Drivers/STM32H5xx_HAL_Driver/Src/stm32h5xx_hal_dma.c ****   hdma->Instance->CBR1  = 0U;
 799              		.loc 1 368 3 is_stmt 1 view .LVU235
 368:Drivers/STM32H5xx_HAL_Driver/Src/stm32h5xx_hal_dma.c ****   hdma->Instance->CBR1  = 0U;
 800              		.loc 1 368 7 is_stmt 0 view .LVU236
 801 004e 2368     		ldr	r3, [r4]
 368:Drivers/STM32H5xx_HAL_Driver/Src/stm32h5xx_hal_dma.c ****   hdma->Instance->CBR1  = 0U;
 802              		.loc 1 368 25 view .LVU237
 803 0050 5A64     		str	r2, [r3, #68]
 369:Drivers/STM32H5xx_HAL_Driver/Src/stm32h5xx_hal_dma.c ****   hdma->Instance->CSAR  = 0U;
 804              		.loc 1 369 3 is_stmt 1 view .LVU238
 369:Drivers/STM32H5xx_HAL_Driver/Src/stm32h5xx_hal_dma.c ****   hdma->Instance->CSAR  = 0U;
ARM GAS  /tmp/ccQkXeUE.s 			page 47


 805              		.loc 1 369 7 is_stmt 0 view .LVU239
 806 0052 2368     		ldr	r3, [r4]
 369:Drivers/STM32H5xx_HAL_Driver/Src/stm32h5xx_hal_dma.c ****   hdma->Instance->CSAR  = 0U;
 807              		.loc 1 369 25 view .LVU240
 808 0054 9A64     		str	r2, [r3, #72]
 370:Drivers/STM32H5xx_HAL_Driver/Src/stm32h5xx_hal_dma.c ****   hdma->Instance->CDAR  = 0U;
 809              		.loc 1 370 3 is_stmt 1 view .LVU241
 370:Drivers/STM32H5xx_HAL_Driver/Src/stm32h5xx_hal_dma.c ****   hdma->Instance->CDAR  = 0U;
 810              		.loc 1 370 7 is_stmt 0 view .LVU242
 811 0056 2368     		ldr	r3, [r4]
 370:Drivers/STM32H5xx_HAL_Driver/Src/stm32h5xx_hal_dma.c ****   hdma->Instance->CDAR  = 0U;
 812              		.loc 1 370 25 view .LVU243
 813 0058 DA64     		str	r2, [r3, #76]
 371:Drivers/STM32H5xx_HAL_Driver/Src/stm32h5xx_hal_dma.c ****   hdma->Instance->CLLR  = 0U;
 814              		.loc 1 371 3 is_stmt 1 view .LVU244
 371:Drivers/STM32H5xx_HAL_Driver/Src/stm32h5xx_hal_dma.c ****   hdma->Instance->CLLR  = 0U;
 815              		.loc 1 371 7 is_stmt 0 view .LVU245
 816 005a 2368     		ldr	r3, [r4]
 371:Drivers/STM32H5xx_HAL_Driver/Src/stm32h5xx_hal_dma.c ****   hdma->Instance->CLLR  = 0U;
 817              		.loc 1 371 25 view .LVU246
 818 005c 1A65     		str	r2, [r3, #80]
 372:Drivers/STM32H5xx_HAL_Driver/Src/stm32h5xx_hal_dma.c **** 
 819              		.loc 1 372 3 is_stmt 1 view .LVU247
 372:Drivers/STM32H5xx_HAL_Driver/Src/stm32h5xx_hal_dma.c **** 
 820              		.loc 1 372 7 is_stmt 0 view .LVU248
 821 005e 2368     		ldr	r3, [r4]
 372:Drivers/STM32H5xx_HAL_Driver/Src/stm32h5xx_hal_dma.c **** 
 822              		.loc 1 372 25 view .LVU249
 823 0060 DA67     		str	r2, [r3, #124]
 375:Drivers/STM32H5xx_HAL_Driver/Src/stm32h5xx_hal_dma.c ****   {
 824              		.loc 1 375 3 is_stmt 1 view .LVU250
 375:Drivers/STM32H5xx_HAL_Driver/Src/stm32h5xx_hal_dma.c ****   {
 825              		.loc 1 375 7 is_stmt 0 view .LVU251
 826 0062 2368     		ldr	r3, [r4]
 827 0064 264A     		ldr	r2, .L35
 828 0066 9342     		cmp	r3, r2
 829 0068 1FD0     		beq	.L29
 375:Drivers/STM32H5xx_HAL_Driver/Src/stm32h5xx_hal_dma.c ****   {
 830              		.loc 1 375 7 discriminator 2 view .LVU252
 831 006a 02F18052 		add	r2, r2, #268435456
 832 006e 9342     		cmp	r3, r2
 833 0070 1BD0     		beq	.L29
 375:Drivers/STM32H5xx_HAL_Driver/Src/stm32h5xx_hal_dma.c ****   {
 834              		.loc 1 375 7 discriminator 4 view .LVU253
 835 0072 02F17042 		add	r2, r2, #-268435456
 836 0076 8032     		adds	r2, r2, #128
 837 0078 9342     		cmp	r3, r2
 838 007a 16D0     		beq	.L29
 375:Drivers/STM32H5xx_HAL_Driver/Src/stm32h5xx_hal_dma.c ****   {
 839              		.loc 1 375 7 discriminator 6 view .LVU254
 840 007c 02F18052 		add	r2, r2, #268435456
 841 0080 9342     		cmp	r3, r2
 842 0082 12D0     		beq	.L29
 375:Drivers/STM32H5xx_HAL_Driver/Src/stm32h5xx_hal_dma.c ****   {
 843              		.loc 1 375 7 discriminator 8 view .LVU255
 844 0084 02F17042 		add	r2, r2, #-268435456
 845 0088 02F57862 		add	r2, r2, #3968
ARM GAS  /tmp/ccQkXeUE.s 			page 48


 846 008c 9342     		cmp	r3, r2
 847 008e 0CD0     		beq	.L29
 375:Drivers/STM32H5xx_HAL_Driver/Src/stm32h5xx_hal_dma.c ****   {
 848              		.loc 1 375 7 discriminator 10 view .LVU256
 849 0090 02F18052 		add	r2, r2, #268435456
 850 0094 9342     		cmp	r3, r2
 851 0096 08D0     		beq	.L29
 375:Drivers/STM32H5xx_HAL_Driver/Src/stm32h5xx_hal_dma.c ****   {
 852              		.loc 1 375 7 discriminator 12 view .LVU257
 853 0098 02F17042 		add	r2, r2, #-268435456
 854 009c 8032     		adds	r2, r2, #128
 855 009e 9342     		cmp	r3, r2
 856 00a0 03D0     		beq	.L29
 375:Drivers/STM32H5xx_HAL_Driver/Src/stm32h5xx_hal_dma.c ****   {
 857              		.loc 1 375 7 discriminator 14 view .LVU258
 858 00a2 02F18052 		add	r2, r2, #268435456
 859 00a6 9342     		cmp	r3, r2
 860 00a8 03D1     		bne	.L30
 861              	.L29:
 377:Drivers/STM32H5xx_HAL_Driver/Src/stm32h5xx_hal_dma.c ****     hdma->Instance->CBR2 = 0U;
 862              		.loc 1 377 5 is_stmt 1 view .LVU259
 377:Drivers/STM32H5xx_HAL_Driver/Src/stm32h5xx_hal_dma.c ****     hdma->Instance->CBR2 = 0U;
 863              		.loc 1 377 26 is_stmt 0 view .LVU260
 864 00aa 0022     		movs	r2, #0
 865 00ac 5A65     		str	r2, [r3, #84]
 378:Drivers/STM32H5xx_HAL_Driver/Src/stm32h5xx_hal_dma.c ****   }
 866              		.loc 1 378 5 is_stmt 1 view .LVU261
 378:Drivers/STM32H5xx_HAL_Driver/Src/stm32h5xx_hal_dma.c ****   }
 867              		.loc 1 378 9 is_stmt 0 view .LVU262
 868 00ae 2368     		ldr	r3, [r4]
 378:Drivers/STM32H5xx_HAL_Driver/Src/stm32h5xx_hal_dma.c ****   }
 869              		.loc 1 378 26 view .LVU263
 870 00b0 9A65     		str	r2, [r3, #88]
 871              	.L30:
 382:Drivers/STM32H5xx_HAL_Driver/Src/stm32h5xx_hal_dma.c **** 
 872              		.loc 1 382 3 is_stmt 1 view .LVU264
 873 00b2 7268     		ldr	r2, [r6, #4]
 874 00b4 2368     		ldr	r3, [r4]
 875 00b6 C3F30B03 		ubfx	r3, r3, #0, #12
 876 00ba 503B     		subs	r3, r3, #80
 877 00bc C3F3C413 		ubfx	r3, r3, #7, #5
 878 00c0 0121     		movs	r1, #1
 879 00c2 01FA03F3 		lsl	r3, r1, r3
 880 00c6 22EA0303 		bic	r3, r2, r3
 881 00ca 7360     		str	r3, [r6, #4]
 390:Drivers/STM32H5xx_HAL_Driver/Src/stm32h5xx_hal_dma.c ****                               DMA_FLAG_TO));
 882              		.loc 1 390 3 view .LVU265
 883 00cc 2368     		ldr	r3, [r4]
 884 00ce 4FF4FE42 		mov	r2, #32512
 885 00d2 DA60     		str	r2, [r3, #12]
 394:Drivers/STM32H5xx_HAL_Driver/Src/stm32h5xx_hal_dma.c ****   hdma->XferHalfCpltCallback = NULL;
 886              		.loc 1 394 3 view .LVU266
 394:Drivers/STM32H5xx_HAL_Driver/Src/stm32h5xx_hal_dma.c ****   hdma->XferHalfCpltCallback = NULL;
 887              		.loc 1 394 30 is_stmt 0 view .LVU267
 888 00d4 0023     		movs	r3, #0
 889 00d6 2366     		str	r3, [r4, #96]
 395:Drivers/STM32H5xx_HAL_Driver/Src/stm32h5xx_hal_dma.c ****   hdma->XferErrorCallback    = NULL;
ARM GAS  /tmp/ccQkXeUE.s 			page 49


 890              		.loc 1 395 3 is_stmt 1 view .LVU268
 395:Drivers/STM32H5xx_HAL_Driver/Src/stm32h5xx_hal_dma.c ****   hdma->XferErrorCallback    = NULL;
 891              		.loc 1 395 30 is_stmt 0 view .LVU269
 892 00d8 6366     		str	r3, [r4, #100]
 396:Drivers/STM32H5xx_HAL_Driver/Src/stm32h5xx_hal_dma.c ****   hdma->XferAbortCallback    = NULL;
 893              		.loc 1 396 3 is_stmt 1 view .LVU270
 396:Drivers/STM32H5xx_HAL_Driver/Src/stm32h5xx_hal_dma.c ****   hdma->XferAbortCallback    = NULL;
 894              		.loc 1 396 30 is_stmt 0 view .LVU271
 895 00da A366     		str	r3, [r4, #104]
 397:Drivers/STM32H5xx_HAL_Driver/Src/stm32h5xx_hal_dma.c ****   hdma->XferSuspendCallback  = NULL;
 896              		.loc 1 397 3 is_stmt 1 view .LVU272
 397:Drivers/STM32H5xx_HAL_Driver/Src/stm32h5xx_hal_dma.c ****   hdma->XferSuspendCallback  = NULL;
 897              		.loc 1 397 30 is_stmt 0 view .LVU273
 898 00dc E366     		str	r3, [r4, #108]
 398:Drivers/STM32H5xx_HAL_Driver/Src/stm32h5xx_hal_dma.c **** 
 899              		.loc 1 398 3 is_stmt 1 view .LVU274
 398:Drivers/STM32H5xx_HAL_Driver/Src/stm32h5xx_hal_dma.c **** 
 900              		.loc 1 398 30 is_stmt 0 view .LVU275
 901 00de 2367     		str	r3, [r4, #112]
 401:Drivers/STM32H5xx_HAL_Driver/Src/stm32h5xx_hal_dma.c **** 
 902              		.loc 1 401 3 is_stmt 1 view .LVU276
 401:Drivers/STM32H5xx_HAL_Driver/Src/stm32h5xx_hal_dma.c **** 
 903              		.loc 1 401 25 is_stmt 0 view .LVU277
 904 00e0 6367     		str	r3, [r4, #116]
 404:Drivers/STM32H5xx_HAL_Driver/Src/stm32h5xx_hal_dma.c ****   {
 905              		.loc 1 404 3 is_stmt 1 view .LVU278
 404:Drivers/STM32H5xx_HAL_Driver/Src/stm32h5xx_hal_dma.c ****   {
 906              		.loc 1 404 11 is_stmt 0 view .LVU279
 907 00e2 E36D     		ldr	r3, [r4, #92]
 404:Drivers/STM32H5xx_HAL_Driver/Src/stm32h5xx_hal_dma.c ****   {
 908              		.loc 1 404 6 view .LVU280
 909 00e4 0BB1     		cbz	r3, .L31
 406:Drivers/STM32H5xx_HAL_Driver/Src/stm32h5xx_hal_dma.c ****   }
 910              		.loc 1 406 5 is_stmt 1 view .LVU281
 406:Drivers/STM32H5xx_HAL_Driver/Src/stm32h5xx_hal_dma.c ****   }
 911              		.loc 1 406 18 is_stmt 0 view .LVU282
 912 00e6 0023     		movs	r3, #0
 913 00e8 E365     		str	r3, [r4, #92]
 914              	.L31:
 410:Drivers/STM32H5xx_HAL_Driver/Src/stm32h5xx_hal_dma.c **** 
 915              		.loc 1 410 3 is_stmt 1 view .LVU283
 410:Drivers/STM32H5xx_HAL_Driver/Src/stm32h5xx_hal_dma.c **** 
 916              		.loc 1 410 14 is_stmt 0 view .LVU284
 917 00ea 0020     		movs	r0, #0
 918 00ec 2065     		str	r0, [r4, #80]
 413:Drivers/STM32H5xx_HAL_Driver/Src/stm32h5xx_hal_dma.c **** 
 919              		.loc 1 413 3 is_stmt 1 view .LVU285
 413:Drivers/STM32H5xx_HAL_Driver/Src/stm32h5xx_hal_dma.c **** 
 920              		.loc 1 413 19 is_stmt 0 view .LVU286
 921 00ee A065     		str	r0, [r4, #88]
 416:Drivers/STM32H5xx_HAL_Driver/Src/stm32h5xx_hal_dma.c **** 
 922              		.loc 1 416 3 is_stmt 1 view .LVU287
 416:Drivers/STM32H5xx_HAL_Driver/Src/stm32h5xx_hal_dma.c **** 
 923              		.loc 1 416 15 is_stmt 0 view .LVU288
 924 00f0 84F85400 		strb	r0, [r4, #84]
 419:Drivers/STM32H5xx_HAL_Driver/Src/stm32h5xx_hal_dma.c **** 
 925              		.loc 1 419 3 is_stmt 1 view .LVU289
ARM GAS  /tmp/ccQkXeUE.s 			page 50


 419:Drivers/STM32H5xx_HAL_Driver/Src/stm32h5xx_hal_dma.c **** 
 926              		.loc 1 419 3 view .LVU290
 927 00f4 84F84C00 		strb	r0, [r4, #76]
 419:Drivers/STM32H5xx_HAL_Driver/Src/stm32h5xx_hal_dma.c **** 
 928              		.loc 1 419 3 view .LVU291
 421:Drivers/STM32H5xx_HAL_Driver/Src/stm32h5xx_hal_dma.c **** }
 929              		.loc 1 421 3 view .LVU292
 930              	.LVL26:
 931              	.L26:
 422:Drivers/STM32H5xx_HAL_Driver/Src/stm32h5xx_hal_dma.c **** /**
 932              		.loc 1 422 1 is_stmt 0 view .LVU293
 933 00f8 70BD     		pop	{r4, r5, r6, pc}
 934              	.LVL27:
 935              	.L32:
 336:Drivers/STM32H5xx_HAL_Driver/Src/stm32h5xx_hal_dma.c ****   }
 936              		.loc 1 336 12 view .LVU294
 937 00fa 0120     		movs	r0, #1
 938              	.LVL28:
 336:Drivers/STM32H5xx_HAL_Driver/Src/stm32h5xx_hal_dma.c ****   }
 939              		.loc 1 336 12 view .LVU295
 940 00fc FCE7     		b	.L26
 941              	.L36:
 942 00fe 00BF     		.align	2
 943              	.L35:
 944 0100 50030240 		.word	1073873744
 945              		.cfi_endproc
 946              	.LFE362:
 948              		.section	.text.HAL_DMA_Start,"ax",%progbits
 949              		.align	1
 950              		.global	HAL_DMA_Start
 951              		.syntax unified
 952              		.thumb
 953              		.thumb_func
 954              		.fpu fpv4-sp-d16
 956              	HAL_DMA_Start:
 957              	.LVL29:
 958              	.LFB363:
 470:Drivers/STM32H5xx_HAL_Driver/Src/stm32h5xx_hal_dma.c ****   /* Check the DMA peripheral handle parameter */
 959              		.loc 1 470 1 is_stmt 1 view -0
 960              		.cfi_startproc
 961              		@ args = 0, pretend = 0, frame = 0
 962              		@ frame_needed = 0, uses_anonymous_args = 0
 472:Drivers/STM32H5xx_HAL_Driver/Src/stm32h5xx_hal_dma.c ****   {
 963              		.loc 1 472 3 view .LVU297
 472:Drivers/STM32H5xx_HAL_Driver/Src/stm32h5xx_hal_dma.c ****   {
 964              		.loc 1 472 6 is_stmt 0 view .LVU298
 965 0000 18B3     		cbz	r0, .L40
 470:Drivers/STM32H5xx_HAL_Driver/Src/stm32h5xx_hal_dma.c ****   /* Check the DMA peripheral handle parameter */
 966              		.loc 1 470 1 view .LVU299
 967 0002 38B5     		push	{r3, r4, r5, lr}
 968              	.LCFI7:
 969              		.cfi_def_cfa_offset 16
 970              		.cfi_offset 3, -16
 971              		.cfi_offset 4, -12
 972              		.cfi_offset 5, -8
 973              		.cfi_offset 14, -4
 974 0004 0446     		mov	r4, r0
ARM GAS  /tmp/ccQkXeUE.s 			page 51


 478:Drivers/STM32H5xx_HAL_Driver/Src/stm32h5xx_hal_dma.c **** 
 975              		.loc 1 478 3 is_stmt 1 view .LVU300
 481:Drivers/STM32H5xx_HAL_Driver/Src/stm32h5xx_hal_dma.c **** 
 976              		.loc 1 481 3 view .LVU301
 481:Drivers/STM32H5xx_HAL_Driver/Src/stm32h5xx_hal_dma.c **** 
 977              		.loc 1 481 3 view .LVU302
 978 0006 90F84C00 		ldrb	r0, [r0, #76]	@ zero_extendqisi2
 979              	.LVL30:
 481:Drivers/STM32H5xx_HAL_Driver/Src/stm32h5xx_hal_dma.c **** 
 980              		.loc 1 481 3 is_stmt 0 view .LVU303
 981 000a 0128     		cmp	r0, #1
 982 000c 1FD0     		beq	.L41
 481:Drivers/STM32H5xx_HAL_Driver/Src/stm32h5xx_hal_dma.c **** 
 983              		.loc 1 481 3 is_stmt 1 discriminator 2 view .LVU304
 984 000e 0120     		movs	r0, #1
 985 0010 84F84C00 		strb	r0, [r4, #76]
 481:Drivers/STM32H5xx_HAL_Driver/Src/stm32h5xx_hal_dma.c **** 
 986              		.loc 1 481 3 discriminator 2 view .LVU305
 484:Drivers/STM32H5xx_HAL_Driver/Src/stm32h5xx_hal_dma.c ****   {
 987              		.loc 1 484 3 discriminator 2 view .LVU306
 484:Drivers/STM32H5xx_HAL_Driver/Src/stm32h5xx_hal_dma.c ****   {
 988              		.loc 1 484 11 is_stmt 0 discriminator 2 view .LVU307
 989 0014 94F85400 		ldrb	r0, [r4, #84]	@ zero_extendqisi2
 990 0018 C0B2     		uxtb	r0, r0
 484:Drivers/STM32H5xx_HAL_Driver/Src/stm32h5xx_hal_dma.c ****   {
 991              		.loc 1 484 6 discriminator 2 view .LVU308
 992 001a 0128     		cmp	r0, #1
 993 001c 06D0     		beq	.L46
 501:Drivers/STM32H5xx_HAL_Driver/Src/stm32h5xx_hal_dma.c **** 
 994              		.loc 1 501 5 is_stmt 1 view .LVU309
 501:Drivers/STM32H5xx_HAL_Driver/Src/stm32h5xx_hal_dma.c **** 
 995              		.loc 1 501 21 is_stmt 0 view .LVU310
 996 001e 4023     		movs	r3, #64
 997              	.LVL31:
 501:Drivers/STM32H5xx_HAL_Driver/Src/stm32h5xx_hal_dma.c **** 
 998              		.loc 1 501 21 view .LVU311
 999 0020 A365     		str	r3, [r4, #88]
 504:Drivers/STM32H5xx_HAL_Driver/Src/stm32h5xx_hal_dma.c **** 
 1000              		.loc 1 504 5 is_stmt 1 view .LVU312
 504:Drivers/STM32H5xx_HAL_Driver/Src/stm32h5xx_hal_dma.c **** 
 1001              		.loc 1 504 5 view .LVU313
 1002 0022 0023     		movs	r3, #0
 1003 0024 84F84C30 		strb	r3, [r4, #76]
 504:Drivers/STM32H5xx_HAL_Driver/Src/stm32h5xx_hal_dma.c **** 
 1004              		.loc 1 504 5 view .LVU314
 506:Drivers/STM32H5xx_HAL_Driver/Src/stm32h5xx_hal_dma.c ****   }
 1005              		.loc 1 506 5 view .LVU315
 506:Drivers/STM32H5xx_HAL_Driver/Src/stm32h5xx_hal_dma.c ****   }
 1006              		.loc 1 506 12 is_stmt 0 view .LVU316
 1007 0028 0120     		movs	r0, #1
 1008              	.LVL32:
 1009              	.L38:
 510:Drivers/STM32H5xx_HAL_Driver/Src/stm32h5xx_hal_dma.c **** 
 1010              		.loc 1 510 1 view .LVU317
 1011 002a 38BD     		pop	{r3, r4, r5, pc}
 1012              	.LVL33:
 1013              	.L46:
ARM GAS  /tmp/ccQkXeUE.s 			page 52


 487:Drivers/STM32H5xx_HAL_Driver/Src/stm32h5xx_hal_dma.c **** 
 1014              		.loc 1 487 5 is_stmt 1 view .LVU318
 487:Drivers/STM32H5xx_HAL_Driver/Src/stm32h5xx_hal_dma.c **** 
 1015              		.loc 1 487 17 is_stmt 0 view .LVU319
 1016 002c 0220     		movs	r0, #2
 1017 002e 84F85400 		strb	r0, [r4, #84]
 490:Drivers/STM32H5xx_HAL_Driver/Src/stm32h5xx_hal_dma.c **** 
 1018              		.loc 1 490 5 is_stmt 1 view .LVU320
 490:Drivers/STM32H5xx_HAL_Driver/Src/stm32h5xx_hal_dma.c **** 
 1019              		.loc 1 490 21 is_stmt 0 view .LVU321
 1020 0032 0025     		movs	r5, #0
 1021 0034 A565     		str	r5, [r4, #88]
 493:Drivers/STM32H5xx_HAL_Driver/Src/stm32h5xx_hal_dma.c **** 
 1022              		.loc 1 493 5 is_stmt 1 view .LVU322
 1023 0036 2046     		mov	r0, r4
 1024 0038 FFF7FEFF 		bl	DMA_SetConfig
 1025              	.LVL34:
 496:Drivers/STM32H5xx_HAL_Driver/Src/stm32h5xx_hal_dma.c ****   }
 1026              		.loc 1 496 5 view .LVU323
 1027 003c 2268     		ldr	r2, [r4]
 1028 003e 5369     		ldr	r3, [r2, #20]
 1029 0040 43F00103 		orr	r3, r3, #1
 1030 0044 5361     		str	r3, [r2, #20]
 509:Drivers/STM32H5xx_HAL_Driver/Src/stm32h5xx_hal_dma.c **** }
 1031              		.loc 1 509 3 view .LVU324
 509:Drivers/STM32H5xx_HAL_Driver/Src/stm32h5xx_hal_dma.c **** }
 1032              		.loc 1 509 10 is_stmt 0 view .LVU325
 1033 0046 2846     		mov	r0, r5
 1034 0048 EFE7     		b	.L38
 1035              	.LVL35:
 1036              	.L40:
 1037              	.LCFI8:
 1038              		.cfi_def_cfa_offset 0
 1039              		.cfi_restore 3
 1040              		.cfi_restore 4
 1041              		.cfi_restore 5
 1042              		.cfi_restore 14
 474:Drivers/STM32H5xx_HAL_Driver/Src/stm32h5xx_hal_dma.c ****   }
 1043              		.loc 1 474 12 view .LVU326
 1044 004a 0120     		movs	r0, #1
 1045              	.LVL36:
 510:Drivers/STM32H5xx_HAL_Driver/Src/stm32h5xx_hal_dma.c **** 
 1046              		.loc 1 510 1 view .LVU327
 1047 004c 7047     		bx	lr
 1048              	.LVL37:
 1049              	.L41:
 1050              	.LCFI9:
 1051              		.cfi_def_cfa_offset 16
 1052              		.cfi_offset 3, -16
 1053              		.cfi_offset 4, -12
 1054              		.cfi_offset 5, -8
 1055              		.cfi_offset 14, -4
 481:Drivers/STM32H5xx_HAL_Driver/Src/stm32h5xx_hal_dma.c **** 
 1056              		.loc 1 481 3 view .LVU328
 1057 004e 0220     		movs	r0, #2
 1058 0050 EBE7     		b	.L38
 1059              		.cfi_endproc
ARM GAS  /tmp/ccQkXeUE.s 			page 53


 1060              	.LFE363:
 1062              		.section	.text.HAL_DMA_Start_IT,"ax",%progbits
 1063              		.align	1
 1064              		.global	HAL_DMA_Start_IT
 1065              		.syntax unified
 1066              		.thumb
 1067              		.thumb_func
 1068              		.fpu fpv4-sp-d16
 1070              	HAL_DMA_Start_IT:
 1071              	.LVL38:
 1072              	.LFB364:
 525:Drivers/STM32H5xx_HAL_Driver/Src/stm32h5xx_hal_dma.c ****   /* Check the DMA peripheral handle parameter */
 1073              		.loc 1 525 1 is_stmt 1 view -0
 1074              		.cfi_startproc
 1075              		@ args = 0, pretend = 0, frame = 0
 1076              		@ frame_needed = 0, uses_anonymous_args = 0
 527:Drivers/STM32H5xx_HAL_Driver/Src/stm32h5xx_hal_dma.c ****   {
 1077              		.loc 1 527 3 view .LVU330
 527:Drivers/STM32H5xx_HAL_Driver/Src/stm32h5xx_hal_dma.c ****   {
 1078              		.loc 1 527 6 is_stmt 0 view .LVU331
 1079 0000 0028     		cmp	r0, #0
 1080 0002 36D0     		beq	.L52
 525:Drivers/STM32H5xx_HAL_Driver/Src/stm32h5xx_hal_dma.c ****   /* Check the DMA peripheral handle parameter */
 1081              		.loc 1 525 1 view .LVU332
 1082 0004 10B5     		push	{r4, lr}
 1083              	.LCFI10:
 1084              		.cfi_def_cfa_offset 8
 1085              		.cfi_offset 4, -8
 1086              		.cfi_offset 14, -4
 1087 0006 0446     		mov	r4, r0
 533:Drivers/STM32H5xx_HAL_Driver/Src/stm32h5xx_hal_dma.c **** 
 1088              		.loc 1 533 3 is_stmt 1 view .LVU333
 536:Drivers/STM32H5xx_HAL_Driver/Src/stm32h5xx_hal_dma.c **** 
 1089              		.loc 1 536 3 view .LVU334
 536:Drivers/STM32H5xx_HAL_Driver/Src/stm32h5xx_hal_dma.c **** 
 1090              		.loc 1 536 3 view .LVU335
 1091 0008 90F84C00 		ldrb	r0, [r0, #76]	@ zero_extendqisi2
 1092              	.LVL39:
 536:Drivers/STM32H5xx_HAL_Driver/Src/stm32h5xx_hal_dma.c **** 
 1093              		.loc 1 536 3 is_stmt 0 view .LVU336
 1094 000c 0128     		cmp	r0, #1
 1095 000e 32D0     		beq	.L53
 536:Drivers/STM32H5xx_HAL_Driver/Src/stm32h5xx_hal_dma.c **** 
 1096              		.loc 1 536 3 is_stmt 1 discriminator 2 view .LVU337
 1097 0010 0120     		movs	r0, #1
 1098 0012 84F84C00 		strb	r0, [r4, #76]
 536:Drivers/STM32H5xx_HAL_Driver/Src/stm32h5xx_hal_dma.c **** 
 1099              		.loc 1 536 3 discriminator 2 view .LVU338
 539:Drivers/STM32H5xx_HAL_Driver/Src/stm32h5xx_hal_dma.c ****   {
 1100              		.loc 1 539 3 discriminator 2 view .LVU339
 539:Drivers/STM32H5xx_HAL_Driver/Src/stm32h5xx_hal_dma.c ****   {
 1101              		.loc 1 539 11 is_stmt 0 discriminator 2 view .LVU340
 1102 0016 94F85400 		ldrb	r0, [r4, #84]	@ zero_extendqisi2
 1103 001a C0B2     		uxtb	r0, r0
 539:Drivers/STM32H5xx_HAL_Driver/Src/stm32h5xx_hal_dma.c ****   {
 1104              		.loc 1 539 6 discriminator 2 view .LVU341
 1105 001c 0128     		cmp	r0, #1
ARM GAS  /tmp/ccQkXeUE.s 			page 54


 1106 001e 06D0     		beq	.L58
 573:Drivers/STM32H5xx_HAL_Driver/Src/stm32h5xx_hal_dma.c **** 
 1107              		.loc 1 573 5 is_stmt 1 view .LVU342
 573:Drivers/STM32H5xx_HAL_Driver/Src/stm32h5xx_hal_dma.c **** 
 1108              		.loc 1 573 21 is_stmt 0 view .LVU343
 1109 0020 4023     		movs	r3, #64
 1110              	.LVL40:
 573:Drivers/STM32H5xx_HAL_Driver/Src/stm32h5xx_hal_dma.c **** 
 1111              		.loc 1 573 21 view .LVU344
 1112 0022 A365     		str	r3, [r4, #88]
 576:Drivers/STM32H5xx_HAL_Driver/Src/stm32h5xx_hal_dma.c **** 
 1113              		.loc 1 576 5 is_stmt 1 view .LVU345
 576:Drivers/STM32H5xx_HAL_Driver/Src/stm32h5xx_hal_dma.c **** 
 1114              		.loc 1 576 5 view .LVU346
 1115 0024 0023     		movs	r3, #0
 1116 0026 84F84C30 		strb	r3, [r4, #76]
 576:Drivers/STM32H5xx_HAL_Driver/Src/stm32h5xx_hal_dma.c **** 
 1117              		.loc 1 576 5 view .LVU347
 578:Drivers/STM32H5xx_HAL_Driver/Src/stm32h5xx_hal_dma.c ****   }
 1118              		.loc 1 578 5 view .LVU348
 578:Drivers/STM32H5xx_HAL_Driver/Src/stm32h5xx_hal_dma.c ****   }
 1119              		.loc 1 578 12 is_stmt 0 view .LVU349
 1120 002a 0120     		movs	r0, #1
 1121              	.LVL41:
 1122              	.L48:
 582:Drivers/STM32H5xx_HAL_Driver/Src/stm32h5xx_hal_dma.c **** 
 1123              		.loc 1 582 1 view .LVU350
 1124 002c 10BD     		pop	{r4, pc}
 1125              	.LVL42:
 1126              	.L58:
 542:Drivers/STM32H5xx_HAL_Driver/Src/stm32h5xx_hal_dma.c **** 
 1127              		.loc 1 542 5 is_stmt 1 view .LVU351
 542:Drivers/STM32H5xx_HAL_Driver/Src/stm32h5xx_hal_dma.c **** 
 1128              		.loc 1 542 17 is_stmt 0 view .LVU352
 1129 002e 0220     		movs	r0, #2
 1130 0030 84F85400 		strb	r0, [r4, #84]
 545:Drivers/STM32H5xx_HAL_Driver/Src/stm32h5xx_hal_dma.c **** 
 1131              		.loc 1 545 5 is_stmt 1 view .LVU353
 545:Drivers/STM32H5xx_HAL_Driver/Src/stm32h5xx_hal_dma.c **** 
 1132              		.loc 1 545 21 is_stmt 0 view .LVU354
 1133 0034 0020     		movs	r0, #0
 1134 0036 A065     		str	r0, [r4, #88]
 548:Drivers/STM32H5xx_HAL_Driver/Src/stm32h5xx_hal_dma.c **** 
 1135              		.loc 1 548 5 is_stmt 1 view .LVU355
 1136 0038 2046     		mov	r0, r4
 1137 003a FFF7FEFF 		bl	DMA_SetConfig
 1138              	.LVL43:
 551:Drivers/STM32H5xx_HAL_Driver/Src/stm32h5xx_hal_dma.c **** 
 1139              		.loc 1 551 5 view .LVU356
 1140 003e 2268     		ldr	r2, [r4]
 1141 0040 5369     		ldr	r3, [r2, #20]
 1142 0042 43F4BA43 		orr	r3, r3, #23808
 1143 0046 5361     		str	r3, [r2, #20]
 554:Drivers/STM32H5xx_HAL_Driver/Src/stm32h5xx_hal_dma.c ****     {
 1144              		.loc 1 554 5 view .LVU357
 554:Drivers/STM32H5xx_HAL_Driver/Src/stm32h5xx_hal_dma.c ****     {
 1145              		.loc 1 554 13 is_stmt 0 view .LVU358
ARM GAS  /tmp/ccQkXeUE.s 			page 55


 1146 0048 636E     		ldr	r3, [r4, #100]
 554:Drivers/STM32H5xx_HAL_Driver/Src/stm32h5xx_hal_dma.c ****     {
 1147              		.loc 1 554 8 view .LVU359
 1148 004a 23B1     		cbz	r3, .L50
 557:Drivers/STM32H5xx_HAL_Driver/Src/stm32h5xx_hal_dma.c ****     }
 1149              		.loc 1 557 7 is_stmt 1 view .LVU360
 1150 004c 2268     		ldr	r2, [r4]
 1151 004e 5369     		ldr	r3, [r2, #20]
 1152 0050 43F40073 		orr	r3, r3, #512
 1153 0054 5361     		str	r3, [r2, #20]
 1154              	.L50:
 561:Drivers/STM32H5xx_HAL_Driver/Src/stm32h5xx_hal_dma.c ****     {
 1155              		.loc 1 561 5 view .LVU361
 561:Drivers/STM32H5xx_HAL_Driver/Src/stm32h5xx_hal_dma.c ****     {
 1156              		.loc 1 561 13 is_stmt 0 view .LVU362
 1157 0056 236F     		ldr	r3, [r4, #112]
 561:Drivers/STM32H5xx_HAL_Driver/Src/stm32h5xx_hal_dma.c ****     {
 1158              		.loc 1 561 8 view .LVU363
 1159 0058 23B1     		cbz	r3, .L51
 564:Drivers/STM32H5xx_HAL_Driver/Src/stm32h5xx_hal_dma.c ****     }
 1160              		.loc 1 564 7 is_stmt 1 view .LVU364
 1161 005a 2268     		ldr	r2, [r4]
 1162 005c 5369     		ldr	r3, [r2, #20]
 1163 005e 43F40053 		orr	r3, r3, #8192
 1164 0062 5361     		str	r3, [r2, #20]
 1165              	.L51:
 568:Drivers/STM32H5xx_HAL_Driver/Src/stm32h5xx_hal_dma.c ****   }
 1166              		.loc 1 568 5 view .LVU365
 1167 0064 2268     		ldr	r2, [r4]
 1168 0066 5369     		ldr	r3, [r2, #20]
 1169 0068 43F00103 		orr	r3, r3, #1
 1170 006c 5361     		str	r3, [r2, #20]
 581:Drivers/STM32H5xx_HAL_Driver/Src/stm32h5xx_hal_dma.c **** }
 1171              		.loc 1 581 3 view .LVU366
 581:Drivers/STM32H5xx_HAL_Driver/Src/stm32h5xx_hal_dma.c **** }
 1172              		.loc 1 581 10 is_stmt 0 view .LVU367
 1173 006e 0020     		movs	r0, #0
 1174 0070 DCE7     		b	.L48
 1175              	.LVL44:
 1176              	.L52:
 1177              	.LCFI11:
 1178              		.cfi_def_cfa_offset 0
 1179              		.cfi_restore 4
 1180              		.cfi_restore 14
 529:Drivers/STM32H5xx_HAL_Driver/Src/stm32h5xx_hal_dma.c ****   }
 1181              		.loc 1 529 12 view .LVU368
 1182 0072 0120     		movs	r0, #1
 1183              	.LVL45:
 582:Drivers/STM32H5xx_HAL_Driver/Src/stm32h5xx_hal_dma.c **** 
 1184              		.loc 1 582 1 view .LVU369
 1185 0074 7047     		bx	lr
 1186              	.LVL46:
 1187              	.L53:
 1188              	.LCFI12:
 1189              		.cfi_def_cfa_offset 8
 1190              		.cfi_offset 4, -8
 1191              		.cfi_offset 14, -4
ARM GAS  /tmp/ccQkXeUE.s 			page 56


 536:Drivers/STM32H5xx_HAL_Driver/Src/stm32h5xx_hal_dma.c **** 
 1192              		.loc 1 536 3 view .LVU370
 1193 0076 0220     		movs	r0, #2
 1194 0078 D8E7     		b	.L48
 1195              		.cfi_endproc
 1196              	.LFE364:
 1198              		.section	.text.HAL_DMA_Abort,"ax",%progbits
 1199              		.align	1
 1200              		.global	HAL_DMA_Abort
 1201              		.syntax unified
 1202              		.thumb
 1203              		.thumb_func
 1204              		.fpu fpv4-sp-d16
 1206              	HAL_DMA_Abort:
 1207              	.LVL47:
 1208              	.LFB365:
 594:Drivers/STM32H5xx_HAL_Driver/Src/stm32h5xx_hal_dma.c ****   /* Get tick number */
 1209              		.loc 1 594 1 is_stmt 1 view -0
 1210              		.cfi_startproc
 1211              		@ args = 0, pretend = 0, frame = 0
 1212              		@ frame_needed = 0, uses_anonymous_args = 0
 594:Drivers/STM32H5xx_HAL_Driver/Src/stm32h5xx_hal_dma.c ****   /* Get tick number */
 1213              		.loc 1 594 1 is_stmt 0 view .LVU372
 1214 0000 38B5     		push	{r3, r4, r5, lr}
 1215              	.LCFI13:
 1216              		.cfi_def_cfa_offset 16
 1217              		.cfi_offset 3, -16
 1218              		.cfi_offset 4, -12
 1219              		.cfi_offset 5, -8
 1220              		.cfi_offset 14, -4
 1221 0002 0446     		mov	r4, r0
 596:Drivers/STM32H5xx_HAL_Driver/Src/stm32h5xx_hal_dma.c **** 
 1222              		.loc 1 596 3 is_stmt 1 view .LVU373
 596:Drivers/STM32H5xx_HAL_Driver/Src/stm32h5xx_hal_dma.c **** 
 1223              		.loc 1 596 25 is_stmt 0 view .LVU374
 1224 0004 FFF7FEFF 		bl	HAL_GetTick
 1225              	.LVL48:
 599:Drivers/STM32H5xx_HAL_Driver/Src/stm32h5xx_hal_dma.c ****   {
 1226              		.loc 1 599 3 is_stmt 1 view .LVU375
 599:Drivers/STM32H5xx_HAL_Driver/Src/stm32h5xx_hal_dma.c ****   {
 1227              		.loc 1 599 6 is_stmt 0 view .LVU376
 1228 0008 002C     		cmp	r4, #0
 1229 000a 4DD0     		beq	.L66
 1230 000c 0546     		mov	r5, r0
 605:Drivers/STM32H5xx_HAL_Driver/Src/stm32h5xx_hal_dma.c ****   {
 1231              		.loc 1 605 3 is_stmt 1 view .LVU377
 605:Drivers/STM32H5xx_HAL_Driver/Src/stm32h5xx_hal_dma.c ****   {
 1232              		.loc 1 605 11 is_stmt 0 view .LVU378
 1233 000e 94F85430 		ldrb	r3, [r4, #84]	@ zero_extendqisi2
 1234 0012 DBB2     		uxtb	r3, r3
 605:Drivers/STM32H5xx_HAL_Driver/Src/stm32h5xx_hal_dma.c ****   {
 1235              		.loc 1 605 6 view .LVU379
 1236 0014 022B     		cmp	r3, #2
 1237 0016 06D0     		beq	.L61
 608:Drivers/STM32H5xx_HAL_Driver/Src/stm32h5xx_hal_dma.c **** 
 1238              		.loc 1 608 5 is_stmt 1 view .LVU380
 608:Drivers/STM32H5xx_HAL_Driver/Src/stm32h5xx_hal_dma.c **** 
ARM GAS  /tmp/ccQkXeUE.s 			page 57


 1239              		.loc 1 608 21 is_stmt 0 view .LVU381
 1240 0018 2023     		movs	r3, #32
 1241 001a A365     		str	r3, [r4, #88]
 611:Drivers/STM32H5xx_HAL_Driver/Src/stm32h5xx_hal_dma.c **** 
 1242              		.loc 1 611 5 is_stmt 1 view .LVU382
 611:Drivers/STM32H5xx_HAL_Driver/Src/stm32h5xx_hal_dma.c **** 
 1243              		.loc 1 611 5 view .LVU383
 1244 001c 0023     		movs	r3, #0
 1245 001e 84F84C30 		strb	r3, [r4, #76]
 611:Drivers/STM32H5xx_HAL_Driver/Src/stm32h5xx_hal_dma.c **** 
 1246              		.loc 1 611 5 view .LVU384
 613:Drivers/STM32H5xx_HAL_Driver/Src/stm32h5xx_hal_dma.c ****   }
 1247              		.loc 1 613 5 view .LVU385
 613:Drivers/STM32H5xx_HAL_Driver/Src/stm32h5xx_hal_dma.c ****   }
 1248              		.loc 1 613 12 is_stmt 0 view .LVU386
 1249 0022 0120     		movs	r0, #1
 1250              	.LVL49:
 1251              	.L60:
 677:Drivers/STM32H5xx_HAL_Driver/Src/stm32h5xx_hal_dma.c **** 
 1252              		.loc 1 677 1 view .LVU387
 1253 0024 38BD     		pop	{r3, r4, r5, pc}
 1254              	.LVL50:
 1255              	.L61:
 618:Drivers/STM32H5xx_HAL_Driver/Src/stm32h5xx_hal_dma.c **** 
 1256              		.loc 1 618 5 is_stmt 1 view .LVU388
 618:Drivers/STM32H5xx_HAL_Driver/Src/stm32h5xx_hal_dma.c **** 
 1257              		.loc 1 618 9 is_stmt 0 view .LVU389
 1258 0026 2268     		ldr	r2, [r4]
 618:Drivers/STM32H5xx_HAL_Driver/Src/stm32h5xx_hal_dma.c **** 
 1259              		.loc 1 618 25 view .LVU390
 1260 0028 5369     		ldr	r3, [r2, #20]
 1261 002a 43F00403 		orr	r3, r3, #4
 1262 002e 5361     		str	r3, [r2, #20]
 621:Drivers/STM32H5xx_HAL_Driver/Src/stm32h5xx_hal_dma.c **** 
 1263              		.loc 1 621 5 is_stmt 1 view .LVU391
 621:Drivers/STM32H5xx_HAL_Driver/Src/stm32h5xx_hal_dma.c **** 
 1264              		.loc 1 621 17 is_stmt 0 view .LVU392
 1265 0030 0523     		movs	r3, #5
 1266 0032 84F85430 		strb	r3, [r4, #84]
 624:Drivers/STM32H5xx_HAL_Driver/Src/stm32h5xx_hal_dma.c ****     {
 1267              		.loc 1 624 5 is_stmt 1 view .LVU393
 1268              	.LVL51:
 1269              	.L62:
 624:Drivers/STM32H5xx_HAL_Driver/Src/stm32h5xx_hal_dma.c ****     {
 1270              		.loc 1 624 11 view .LVU394
 624:Drivers/STM32H5xx_HAL_Driver/Src/stm32h5xx_hal_dma.c ****     {
 1271              		.loc 1 624 17 is_stmt 0 view .LVU395
 1272 0036 2368     		ldr	r3, [r4]
 624:Drivers/STM32H5xx_HAL_Driver/Src/stm32h5xx_hal_dma.c ****     {
 1273              		.loc 1 624 27 view .LVU396
 1274 0038 1A69     		ldr	r2, [r3, #16]
 624:Drivers/STM32H5xx_HAL_Driver/Src/stm32h5xx_hal_dma.c ****     {
 1275              		.loc 1 624 11 view .LVU397
 1276 003a 12F4005F 		tst	r2, #8192
 1277 003e 17D1     		bne	.L68
 627:Drivers/STM32H5xx_HAL_Driver/Src/stm32h5xx_hal_dma.c ****       {
 1278              		.loc 1 627 7 is_stmt 1 view .LVU398
ARM GAS  /tmp/ccQkXeUE.s 			page 58


 627:Drivers/STM32H5xx_HAL_Driver/Src/stm32h5xx_hal_dma.c ****       {
 1279              		.loc 1 627 12 is_stmt 0 view .LVU399
 1280 0040 FFF7FEFF 		bl	HAL_GetTick
 1281              	.LVL52:
 627:Drivers/STM32H5xx_HAL_Driver/Src/stm32h5xx_hal_dma.c ****       {
 1282              		.loc 1 627 26 view .LVU400
 1283 0044 431B     		subs	r3, r0, r5
 627:Drivers/STM32H5xx_HAL_Driver/Src/stm32h5xx_hal_dma.c ****       {
 1284              		.loc 1 627 10 view .LVU401
 1285 0046 052B     		cmp	r3, #5
 1286 0048 F5D9     		bls	.L62
 630:Drivers/STM32H5xx_HAL_Driver/Src/stm32h5xx_hal_dma.c **** 
 1287              		.loc 1 630 9 is_stmt 1 view .LVU402
 630:Drivers/STM32H5xx_HAL_Driver/Src/stm32h5xx_hal_dma.c **** 
 1288              		.loc 1 630 25 is_stmt 0 view .LVU403
 1289 004a A36D     		ldr	r3, [r4, #88]
 1290 004c 43F01003 		orr	r3, r3, #16
 1291 0050 A365     		str	r3, [r4, #88]
 633:Drivers/STM32H5xx_HAL_Driver/Src/stm32h5xx_hal_dma.c **** 
 1292              		.loc 1 633 9 is_stmt 1 view .LVU404
 633:Drivers/STM32H5xx_HAL_Driver/Src/stm32h5xx_hal_dma.c **** 
 1293              		.loc 1 633 21 is_stmt 0 view .LVU405
 1294 0052 0323     		movs	r3, #3
 1295 0054 84F85430 		strb	r3, [r4, #84]
 636:Drivers/STM32H5xx_HAL_Driver/Src/stm32h5xx_hal_dma.c ****         {
 1296              		.loc 1 636 9 is_stmt 1 view .LVU406
 636:Drivers/STM32H5xx_HAL_Driver/Src/stm32h5xx_hal_dma.c ****         {
 1297              		.loc 1 636 18 is_stmt 0 view .LVU407
 1298 0058 236D     		ldr	r3, [r4, #80]
 636:Drivers/STM32H5xx_HAL_Driver/Src/stm32h5xx_hal_dma.c ****         {
 1299              		.loc 1 636 12 view .LVU408
 1300 005a 13F0800F 		tst	r3, #128
 1301 005e 02D0     		beq	.L63
 639:Drivers/STM32H5xx_HAL_Driver/Src/stm32h5xx_hal_dma.c ****         }
 1302              		.loc 1 639 11 is_stmt 1 view .LVU409
 639:Drivers/STM32H5xx_HAL_Driver/Src/stm32h5xx_hal_dma.c ****         }
 1303              		.loc 1 639 15 is_stmt 0 view .LVU410
 1304 0060 636F     		ldr	r3, [r4, #116]
 639:Drivers/STM32H5xx_HAL_Driver/Src/stm32h5xx_hal_dma.c ****         }
 1305              		.loc 1 639 40 view .LVU411
 1306 0062 0122     		movs	r2, #1
 1307 0064 1A73     		strb	r2, [r3, #12]
 1308              	.L63:
 643:Drivers/STM32H5xx_HAL_Driver/Src/stm32h5xx_hal_dma.c **** 
 1309              		.loc 1 643 9 is_stmt 1 view .LVU412
 643:Drivers/STM32H5xx_HAL_Driver/Src/stm32h5xx_hal_dma.c **** 
 1310              		.loc 1 643 9 view .LVU413
 1311 0066 0023     		movs	r3, #0
 1312 0068 84F84C30 		strb	r3, [r4, #76]
 643:Drivers/STM32H5xx_HAL_Driver/Src/stm32h5xx_hal_dma.c **** 
 1313              		.loc 1 643 9 view .LVU414
 645:Drivers/STM32H5xx_HAL_Driver/Src/stm32h5xx_hal_dma.c ****       }
 1314              		.loc 1 645 9 view .LVU415
 645:Drivers/STM32H5xx_HAL_Driver/Src/stm32h5xx_hal_dma.c ****       }
 1315              		.loc 1 645 16 is_stmt 0 view .LVU416
 1316 006c 0120     		movs	r0, #1
 1317 006e D9E7     		b	.L60
ARM GAS  /tmp/ccQkXeUE.s 			page 59


 1318              	.L68:
 650:Drivers/STM32H5xx_HAL_Driver/Src/stm32h5xx_hal_dma.c **** 
 1319              		.loc 1 650 5 is_stmt 1 view .LVU417
 650:Drivers/STM32H5xx_HAL_Driver/Src/stm32h5xx_hal_dma.c **** 
 1320              		.loc 1 650 25 is_stmt 0 view .LVU418
 1321 0070 5A69     		ldr	r2, [r3, #20]
 1322 0072 42F00202 		orr	r2, r2, #2
 1323 0076 5A61     		str	r2, [r3, #20]
 653:Drivers/STM32H5xx_HAL_Driver/Src/stm32h5xx_hal_dma.c **** 
 1324              		.loc 1 653 5 is_stmt 1 view .LVU419
 653:Drivers/STM32H5xx_HAL_Driver/Src/stm32h5xx_hal_dma.c **** 
 1325              		.loc 1 653 17 is_stmt 0 view .LVU420
 1326 0078 0423     		movs	r3, #4
 1327 007a 84F85430 		strb	r3, [r4, #84]
 656:Drivers/STM32H5xx_HAL_Driver/Src/stm32h5xx_hal_dma.c ****                                 DMA_FLAG_TO));
 1328              		.loc 1 656 5 is_stmt 1 view .LVU421
 1329 007e 2368     		ldr	r3, [r4]
 1330 0080 4FF4FE42 		mov	r2, #32512
 1331 0084 DA60     		str	r2, [r3, #12]
 660:Drivers/STM32H5xx_HAL_Driver/Src/stm32h5xx_hal_dma.c **** 
 1332              		.loc 1 660 5 view .LVU422
 660:Drivers/STM32H5xx_HAL_Driver/Src/stm32h5xx_hal_dma.c **** 
 1333              		.loc 1 660 17 is_stmt 0 view .LVU423
 1334 0086 0123     		movs	r3, #1
 1335 0088 84F85430 		strb	r3, [r4, #84]
 663:Drivers/STM32H5xx_HAL_Driver/Src/stm32h5xx_hal_dma.c ****     {
 1336              		.loc 1 663 5 is_stmt 1 view .LVU424
 663:Drivers/STM32H5xx_HAL_Driver/Src/stm32h5xx_hal_dma.c ****     {
 1337              		.loc 1 663 14 is_stmt 0 view .LVU425
 1338 008c 236D     		ldr	r3, [r4, #80]
 663:Drivers/STM32H5xx_HAL_Driver/Src/stm32h5xx_hal_dma.c ****     {
 1339              		.loc 1 663 8 view .LVU426
 1340 008e 13F0800F 		tst	r3, #128
 1341 0092 05D0     		beq	.L65
 666:Drivers/STM32H5xx_HAL_Driver/Src/stm32h5xx_hal_dma.c **** 
 1342              		.loc 1 666 7 is_stmt 1 view .LVU427
 666:Drivers/STM32H5xx_HAL_Driver/Src/stm32h5xx_hal_dma.c **** 
 1343              		.loc 1 666 11 is_stmt 0 view .LVU428
 1344 0094 636F     		ldr	r3, [r4, #116]
 666:Drivers/STM32H5xx_HAL_Driver/Src/stm32h5xx_hal_dma.c **** 
 1345              		.loc 1 666 36 view .LVU429
 1346 0096 0122     		movs	r2, #1
 1347 0098 1A73     		strb	r2, [r3, #12]
 669:Drivers/STM32H5xx_HAL_Driver/Src/stm32h5xx_hal_dma.c ****     }
 1348              		.loc 1 669 7 is_stmt 1 view .LVU430
 669:Drivers/STM32H5xx_HAL_Driver/Src/stm32h5xx_hal_dma.c ****     }
 1349              		.loc 1 669 11 is_stmt 0 view .LVU431
 1350 009a 2368     		ldr	r3, [r4]
 669:Drivers/STM32H5xx_HAL_Driver/Src/stm32h5xx_hal_dma.c ****     }
 1351              		.loc 1 669 28 view .LVU432
 1352 009c 0022     		movs	r2, #0
 1353 009e 9A64     		str	r2, [r3, #72]
 1354              	.L65:
 673:Drivers/STM32H5xx_HAL_Driver/Src/stm32h5xx_hal_dma.c ****   }
 1355              		.loc 1 673 5 is_stmt 1 view .LVU433
 673:Drivers/STM32H5xx_HAL_Driver/Src/stm32h5xx_hal_dma.c ****   }
 1356              		.loc 1 673 5 view .LVU434
ARM GAS  /tmp/ccQkXeUE.s 			page 60


 1357 00a0 0020     		movs	r0, #0
 1358 00a2 84F84C00 		strb	r0, [r4, #76]
 673:Drivers/STM32H5xx_HAL_Driver/Src/stm32h5xx_hal_dma.c ****   }
 1359              		.loc 1 673 5 view .LVU435
 676:Drivers/STM32H5xx_HAL_Driver/Src/stm32h5xx_hal_dma.c **** }
 1360              		.loc 1 676 3 view .LVU436
 676:Drivers/STM32H5xx_HAL_Driver/Src/stm32h5xx_hal_dma.c **** }
 1361              		.loc 1 676 10 is_stmt 0 view .LVU437
 1362 00a6 BDE7     		b	.L60
 1363              	.LVL53:
 1364              	.L66:
 601:Drivers/STM32H5xx_HAL_Driver/Src/stm32h5xx_hal_dma.c ****   }
 1365              		.loc 1 601 12 view .LVU438
 1366 00a8 0120     		movs	r0, #1
 1367              	.LVL54:
 601:Drivers/STM32H5xx_HAL_Driver/Src/stm32h5xx_hal_dma.c ****   }
 1368              		.loc 1 601 12 view .LVU439
 1369 00aa BBE7     		b	.L60
 1370              		.cfi_endproc
 1371              	.LFE365:
 1373              		.section	.text.HAL_DMA_Abort_IT,"ax",%progbits
 1374              		.align	1
 1375              		.global	HAL_DMA_Abort_IT
 1376              		.syntax unified
 1377              		.thumb
 1378              		.thumb_func
 1379              		.fpu fpv4-sp-d16
 1381              	HAL_DMA_Abort_IT:
 1382              	.LVL55:
 1383              	.LFB366:
 686:Drivers/STM32H5xx_HAL_Driver/Src/stm32h5xx_hal_dma.c ****   /* Check the DMA peripheral handle parameter */
 1384              		.loc 1 686 1 is_stmt 1 view -0
 1385              		.cfi_startproc
 1386              		@ args = 0, pretend = 0, frame = 0
 1387              		@ frame_needed = 0, uses_anonymous_args = 0
 1388              		@ link register save eliminated.
 688:Drivers/STM32H5xx_HAL_Driver/Src/stm32h5xx_hal_dma.c ****   {
 1389              		.loc 1 688 3 view .LVU441
 688:Drivers/STM32H5xx_HAL_Driver/Src/stm32h5xx_hal_dma.c ****   {
 1390              		.loc 1 688 6 is_stmt 0 view .LVU442
 1391 0000 A0B1     		cbz	r0, .L72
 694:Drivers/STM32H5xx_HAL_Driver/Src/stm32h5xx_hal_dma.c ****   {
 1392              		.loc 1 694 3 is_stmt 1 view .LVU443
 694:Drivers/STM32H5xx_HAL_Driver/Src/stm32h5xx_hal_dma.c ****   {
 1393              		.loc 1 694 11 is_stmt 0 view .LVU444
 1394 0002 90F85430 		ldrb	r3, [r0, #84]	@ zero_extendqisi2
 1395 0006 DBB2     		uxtb	r3, r3
 694:Drivers/STM32H5xx_HAL_Driver/Src/stm32h5xx_hal_dma.c ****   {
 1396              		.loc 1 694 6 view .LVU445
 1397 0008 022B     		cmp	r3, #2
 1398 000a 03D0     		beq	.L71
 697:Drivers/STM32H5xx_HAL_Driver/Src/stm32h5xx_hal_dma.c **** 
 1399              		.loc 1 697 5 is_stmt 1 view .LVU446
 697:Drivers/STM32H5xx_HAL_Driver/Src/stm32h5xx_hal_dma.c **** 
 1400              		.loc 1 697 21 is_stmt 0 view .LVU447
 1401 000c 2023     		movs	r3, #32
 1402 000e 8365     		str	r3, [r0, #88]
ARM GAS  /tmp/ccQkXeUE.s 			page 61


 699:Drivers/STM32H5xx_HAL_Driver/Src/stm32h5xx_hal_dma.c ****   }
 1403              		.loc 1 699 5 is_stmt 1 view .LVU448
 699:Drivers/STM32H5xx_HAL_Driver/Src/stm32h5xx_hal_dma.c ****   }
 1404              		.loc 1 699 12 is_stmt 0 view .LVU449
 1405 0010 0120     		movs	r0, #1
 1406              	.LVL56:
 699:Drivers/STM32H5xx_HAL_Driver/Src/stm32h5xx_hal_dma.c ****   }
 1407              		.loc 1 699 12 view .LVU450
 1408 0012 7047     		bx	lr
 1409              	.LVL57:
 1410              	.L71:
 704:Drivers/STM32H5xx_HAL_Driver/Src/stm32h5xx_hal_dma.c **** 
 1411              		.loc 1 704 5 is_stmt 1 view .LVU451
 704:Drivers/STM32H5xx_HAL_Driver/Src/stm32h5xx_hal_dma.c **** 
 1412              		.loc 1 704 17 is_stmt 0 view .LVU452
 1413 0014 0423     		movs	r3, #4
 1414 0016 80F85430 		strb	r3, [r0, #84]
 707:Drivers/STM32H5xx_HAL_Driver/Src/stm32h5xx_hal_dma.c ****   }
 1415              		.loc 1 707 5 is_stmt 1 view .LVU453
 707:Drivers/STM32H5xx_HAL_Driver/Src/stm32h5xx_hal_dma.c ****   }
 1416              		.loc 1 707 9 is_stmt 0 view .LVU454
 1417 001a 0268     		ldr	r2, [r0]
 707:Drivers/STM32H5xx_HAL_Driver/Src/stm32h5xx_hal_dma.c ****   }
 1418              		.loc 1 707 25 view .LVU455
 1419 001c 5369     		ldr	r3, [r2, #20]
 1420 001e 43F40053 		orr	r3, r3, #8192
 1421 0022 43F00403 		orr	r3, r3, #4
 1422 0026 5361     		str	r3, [r2, #20]
 710:Drivers/STM32H5xx_HAL_Driver/Src/stm32h5xx_hal_dma.c **** }
 1423              		.loc 1 710 3 is_stmt 1 view .LVU456
 710:Drivers/STM32H5xx_HAL_Driver/Src/stm32h5xx_hal_dma.c **** }
 1424              		.loc 1 710 10 is_stmt 0 view .LVU457
 1425 0028 0020     		movs	r0, #0
 1426              	.LVL58:
 710:Drivers/STM32H5xx_HAL_Driver/Src/stm32h5xx_hal_dma.c **** }
 1427              		.loc 1 710 10 view .LVU458
 1428 002a 7047     		bx	lr
 1429              	.LVL59:
 1430              	.L72:
 690:Drivers/STM32H5xx_HAL_Driver/Src/stm32h5xx_hal_dma.c ****   }
 1431              		.loc 1 690 12 view .LVU459
 1432 002c 0120     		movs	r0, #1
 1433              	.LVL60:
 711:Drivers/STM32H5xx_HAL_Driver/Src/stm32h5xx_hal_dma.c **** 
 1434              		.loc 1 711 1 view .LVU460
 1435 002e 7047     		bx	lr
 1436              		.cfi_endproc
 1437              	.LFE366:
 1439              		.section	.text.HAL_DMA_PollForTransfer,"ax",%progbits
 1440              		.align	1
 1441              		.global	HAL_DMA_PollForTransfer
 1442              		.syntax unified
 1443              		.thumb
 1444              		.thumb_func
 1445              		.fpu fpv4-sp-d16
 1447              	HAL_DMA_PollForTransfer:
 1448              	.LVL61:
ARM GAS  /tmp/ccQkXeUE.s 			page 62


 1449              	.LFB367:
 724:Drivers/STM32H5xx_HAL_Driver/Src/stm32h5xx_hal_dma.c ****   /* Get tick number */
 1450              		.loc 1 724 1 is_stmt 1 view -0
 1451              		.cfi_startproc
 1452              		@ args = 0, pretend = 0, frame = 0
 1453              		@ frame_needed = 0, uses_anonymous_args = 0
 724:Drivers/STM32H5xx_HAL_Driver/Src/stm32h5xx_hal_dma.c ****   /* Get tick number */
 1454              		.loc 1 724 1 is_stmt 0 view .LVU462
 1455 0000 2DE9F041 		push	{r4, r5, r6, r7, r8, lr}
 1456              	.LCFI14:
 1457              		.cfi_def_cfa_offset 24
 1458              		.cfi_offset 4, -24
 1459              		.cfi_offset 5, -20
 1460              		.cfi_offset 6, -16
 1461              		.cfi_offset 7, -12
 1462              		.cfi_offset 8, -8
 1463              		.cfi_offset 14, -4
 1464 0004 0446     		mov	r4, r0
 1465 0006 0E46     		mov	r6, r1
 1466 0008 1546     		mov	r5, r2
 726:Drivers/STM32H5xx_HAL_Driver/Src/stm32h5xx_hal_dma.c ****   uint32_t level_flag;
 1467              		.loc 1 726 3 is_stmt 1 view .LVU463
 726:Drivers/STM32H5xx_HAL_Driver/Src/stm32h5xx_hal_dma.c ****   uint32_t level_flag;
 1468              		.loc 1 726 24 is_stmt 0 view .LVU464
 1469 000a FFF7FEFF 		bl	HAL_GetTick
 1470              	.LVL62:
 727:Drivers/STM32H5xx_HAL_Driver/Src/stm32h5xx_hal_dma.c ****   uint32_t tmp_csr;
 1471              		.loc 1 727 3 is_stmt 1 view .LVU465
 728:Drivers/STM32H5xx_HAL_Driver/Src/stm32h5xx_hal_dma.c **** 
 1472              		.loc 1 728 3 view .LVU466
 731:Drivers/STM32H5xx_HAL_Driver/Src/stm32h5xx_hal_dma.c ****   {
 1473              		.loc 1 731 3 view .LVU467
 731:Drivers/STM32H5xx_HAL_Driver/Src/stm32h5xx_hal_dma.c ****   {
 1474              		.loc 1 731 6 is_stmt 0 view .LVU468
 1475 000e 002C     		cmp	r4, #0
 1476 0010 00F09980 		beq	.L90
 1477 0014 0746     		mov	r7, r0
 737:Drivers/STM32H5xx_HAL_Driver/Src/stm32h5xx_hal_dma.c **** 
 1478              		.loc 1 737 3 is_stmt 1 view .LVU469
 740:Drivers/STM32H5xx_HAL_Driver/Src/stm32h5xx_hal_dma.c ****   {
 1479              		.loc 1 740 3 view .LVU470
 740:Drivers/STM32H5xx_HAL_Driver/Src/stm32h5xx_hal_dma.c ****   {
 1480              		.loc 1 740 11 is_stmt 0 view .LVU471
 1481 0016 94F85430 		ldrb	r3, [r4, #84]	@ zero_extendqisi2
 1482 001a DBB2     		uxtb	r3, r3
 740:Drivers/STM32H5xx_HAL_Driver/Src/stm32h5xx_hal_dma.c ****   {
 1483              		.loc 1 740 6 view .LVU472
 1484 001c 022B     		cmp	r3, #2
 1485 001e 07D0     		beq	.L75
 743:Drivers/STM32H5xx_HAL_Driver/Src/stm32h5xx_hal_dma.c **** 
 1486              		.loc 1 743 5 is_stmt 1 view .LVU473
 743:Drivers/STM32H5xx_HAL_Driver/Src/stm32h5xx_hal_dma.c **** 
 1487              		.loc 1 743 21 is_stmt 0 view .LVU474
 1488 0020 2023     		movs	r3, #32
 1489 0022 A365     		str	r3, [r4, #88]
 746:Drivers/STM32H5xx_HAL_Driver/Src/stm32h5xx_hal_dma.c **** 
 1490              		.loc 1 746 5 is_stmt 1 view .LVU475
ARM GAS  /tmp/ccQkXeUE.s 			page 63


 746:Drivers/STM32H5xx_HAL_Driver/Src/stm32h5xx_hal_dma.c **** 
 1491              		.loc 1 746 5 view .LVU476
 1492 0024 0023     		movs	r3, #0
 1493 0026 84F84C30 		strb	r3, [r4, #76]
 746:Drivers/STM32H5xx_HAL_Driver/Src/stm32h5xx_hal_dma.c **** 
 1494              		.loc 1 746 5 view .LVU477
 748:Drivers/STM32H5xx_HAL_Driver/Src/stm32h5xx_hal_dma.c ****   }
 1495              		.loc 1 748 5 view .LVU478
 748:Drivers/STM32H5xx_HAL_Driver/Src/stm32h5xx_hal_dma.c ****   }
 1496              		.loc 1 748 12 is_stmt 0 view .LVU479
 1497 002a 0120     		movs	r0, #1
 1498              	.LVL63:
 1499              	.L74:
 885:Drivers/STM32H5xx_HAL_Driver/Src/stm32h5xx_hal_dma.c **** 
 1500              		.loc 1 885 1 view .LVU480
 1501 002c BDE8F081 		pop	{r4, r5, r6, r7, r8, pc}
 1502              	.LVL64:
 1503              	.L75:
 752:Drivers/STM32H5xx_HAL_Driver/Src/stm32h5xx_hal_dma.c ****   {
 1504              		.loc 1 752 3 is_stmt 1 view .LVU481
 752:Drivers/STM32H5xx_HAL_Driver/Src/stm32h5xx_hal_dma.c ****   {
 1505              		.loc 1 752 12 is_stmt 0 view .LVU482
 1506 0030 236D     		ldr	r3, [r4, #80]
 752:Drivers/STM32H5xx_HAL_Driver/Src/stm32h5xx_hal_dma.c ****   {
 1507              		.loc 1 752 19 view .LVU483
 1508 0032 03F08103 		and	r3, r3, #129
 752:Drivers/STM32H5xx_HAL_Driver/Src/stm32h5xx_hal_dma.c ****   {
 1509              		.loc 1 752 6 view .LVU484
 1510 0036 812B     		cmp	r3, #129
 1511 0038 05D0     		beq	.L94
 761:Drivers/STM32H5xx_HAL_Driver/Src/stm32h5xx_hal_dma.c **** 
 1512              		.loc 1 761 3 is_stmt 1 view .LVU485
 761:Drivers/STM32H5xx_HAL_Driver/Src/stm32h5xx_hal_dma.c **** 
 1513              		.loc 1 761 74 is_stmt 0 view .LVU486
 1514 003a 4EB9     		cbnz	r6, .L91
 1515 003c 4FF00108 		mov	r8, #1
 1516              	.L77:
 1517              	.LVL65:
 764:Drivers/STM32H5xx_HAL_Driver/Src/stm32h5xx_hal_dma.c **** 
 1518              		.loc 1 764 3 is_stmt 1 discriminator 4 view .LVU487
 764:Drivers/STM32H5xx_HAL_Driver/Src/stm32h5xx_hal_dma.c **** 
 1519              		.loc 1 764 17 is_stmt 0 discriminator 4 view .LVU488
 1520 0040 2368     		ldr	r3, [r4]
 764:Drivers/STM32H5xx_HAL_Driver/Src/stm32h5xx_hal_dma.c **** 
 1521              		.loc 1 764 11 discriminator 4 view .LVU489
 1522 0042 1B69     		ldr	r3, [r3, #16]
 1523              	.LVL66:
 766:Drivers/STM32H5xx_HAL_Driver/Src/stm32h5xx_hal_dma.c ****   {
 1524              		.loc 1 766 3 is_stmt 1 discriminator 4 view .LVU490
 766:Drivers/STM32H5xx_HAL_Driver/Src/stm32h5xx_hal_dma.c ****   {
 1525              		.loc 1 766 9 is_stmt 0 discriminator 4 view .LVU491
 1526 0044 09E0     		b	.L78
 1527              	.LVL67:
 1528              	.L94:
 755:Drivers/STM32H5xx_HAL_Driver/Src/stm32h5xx_hal_dma.c **** 
 1529              		.loc 1 755 5 is_stmt 1 view .LVU492
 755:Drivers/STM32H5xx_HAL_Driver/Src/stm32h5xx_hal_dma.c **** 
ARM GAS  /tmp/ccQkXeUE.s 			page 64


 1530              		.loc 1 755 21 is_stmt 0 view .LVU493
 1531 0046 4FF48073 		mov	r3, #256
 1532 004a A365     		str	r3, [r4, #88]
 757:Drivers/STM32H5xx_HAL_Driver/Src/stm32h5xx_hal_dma.c ****   }
 1533              		.loc 1 757 5 is_stmt 1 view .LVU494
 757:Drivers/STM32H5xx_HAL_Driver/Src/stm32h5xx_hal_dma.c ****   }
 1534              		.loc 1 757 12 is_stmt 0 view .LVU495
 1535 004c 0120     		movs	r0, #1
 1536              	.LVL68:
 757:Drivers/STM32H5xx_HAL_Driver/Src/stm32h5xx_hal_dma.c ****   }
 1537              		.loc 1 757 12 view .LVU496
 1538 004e EDE7     		b	.L74
 1539              	.LVL69:
 1540              	.L91:
 761:Drivers/STM32H5xx_HAL_Driver/Src/stm32h5xx_hal_dma.c **** 
 1541              		.loc 1 761 74 view .LVU497
 1542 0050 4FF40078 		mov	r8, #512
 1543 0054 F4E7     		b	.L77
 1544              	.LVL70:
 1545              	.L79:
 790:Drivers/STM32H5xx_HAL_Driver/Src/stm32h5xx_hal_dma.c ****   }
 1546              		.loc 1 790 5 is_stmt 1 view .LVU498
 790:Drivers/STM32H5xx_HAL_Driver/Src/stm32h5xx_hal_dma.c ****   }
 1547              		.loc 1 790 19 is_stmt 0 view .LVU499
 1548 0056 2368     		ldr	r3, [r4]
 790:Drivers/STM32H5xx_HAL_Driver/Src/stm32h5xx_hal_dma.c ****   }
 1549              		.loc 1 790 13 view .LVU500
 1550 0058 1B69     		ldr	r3, [r3, #16]
 1551              	.LVL71:
 1552              	.L78:
 766:Drivers/STM32H5xx_HAL_Driver/Src/stm32h5xx_hal_dma.c ****   {
 1553              		.loc 1 766 9 is_stmt 1 view .LVU501
 1554 005a 13EA080F 		tst	r3, r8
 1555 005e 12D1     		bne	.L95
 769:Drivers/STM32H5xx_HAL_Driver/Src/stm32h5xx_hal_dma.c ****     {
 1556              		.loc 1 769 5 view .LVU502
 769:Drivers/STM32H5xx_HAL_Driver/Src/stm32h5xx_hal_dma.c ****     {
 1557              		.loc 1 769 8 is_stmt 0 view .LVU503
 1558 0060 B5F1FF3F 		cmp	r5, #-1
 1559 0064 F7D0     		beq	.L79
 771:Drivers/STM32H5xx_HAL_Driver/Src/stm32h5xx_hal_dma.c ****       {
 1560              		.loc 1 771 7 is_stmt 1 view .LVU504
 771:Drivers/STM32H5xx_HAL_Driver/Src/stm32h5xx_hal_dma.c ****       {
 1561              		.loc 1 771 13 is_stmt 0 view .LVU505
 1562 0066 FFF7FEFF 		bl	HAL_GetTick
 1563              	.LVL72:
 771:Drivers/STM32H5xx_HAL_Driver/Src/stm32h5xx_hal_dma.c ****       {
 1564              		.loc 1 771 27 view .LVU506
 1565 006a C31B     		subs	r3, r0, r7
 771:Drivers/STM32H5xx_HAL_Driver/Src/stm32h5xx_hal_dma.c ****       {
 1566              		.loc 1 771 10 view .LVU507
 1567 006c AB42     		cmp	r3, r5
 1568 006e 01D8     		bhi	.L80
 771:Drivers/STM32H5xx_HAL_Driver/Src/stm32h5xx_hal_dma.c ****       {
 1569              		.loc 1 771 51 discriminator 1 view .LVU508
 1570 0070 002D     		cmp	r5, #0
 1571 0072 F0D1     		bne	.L79
ARM GAS  /tmp/ccQkXeUE.s 			page 65


 1572              	.L80:
 774:Drivers/STM32H5xx_HAL_Driver/Src/stm32h5xx_hal_dma.c **** 
 1573              		.loc 1 774 9 is_stmt 1 view .LVU509
 774:Drivers/STM32H5xx_HAL_Driver/Src/stm32h5xx_hal_dma.c **** 
 1574              		.loc 1 774 25 is_stmt 0 view .LVU510
 1575 0074 A36D     		ldr	r3, [r4, #88]
 1576 0076 43F01003 		orr	r3, r3, #16
 1577 007a A365     		str	r3, [r4, #88]
 783:Drivers/STM32H5xx_HAL_Driver/Src/stm32h5xx_hal_dma.c **** 
 1578              		.loc 1 783 9 is_stmt 1 view .LVU511
 783:Drivers/STM32H5xx_HAL_Driver/Src/stm32h5xx_hal_dma.c **** 
 1579              		.loc 1 783 15 is_stmt 0 view .LVU512
 1580 007c 2046     		mov	r0, r4
 1581 007e FFF7FEFF 		bl	HAL_DMA_Abort
 1582              	.LVL73:
 785:Drivers/STM32H5xx_HAL_Driver/Src/stm32h5xx_hal_dma.c ****       }
 1583              		.loc 1 785 9 is_stmt 1 view .LVU513
 785:Drivers/STM32H5xx_HAL_Driver/Src/stm32h5xx_hal_dma.c ****       }
 1584              		.loc 1 785 16 is_stmt 0 view .LVU514
 1585 0082 0120     		movs	r0, #1
 1586 0084 D2E7     		b	.L74
 1587              	.LVL74:
 1588              	.L95:
 794:Drivers/STM32H5xx_HAL_Driver/Src/stm32h5xx_hal_dma.c ****   {
 1589              		.loc 1 794 3 is_stmt 1 view .LVU515
 794:Drivers/STM32H5xx_HAL_Driver/Src/stm32h5xx_hal_dma.c ****   {
 1590              		.loc 1 794 6 is_stmt 0 view .LVU516
 1591 0086 13F4804F 		tst	r3, #16384
 1592 008a 07D0     		beq	.L82
 797:Drivers/STM32H5xx_HAL_Driver/Src/stm32h5xx_hal_dma.c **** 
 1593              		.loc 1 797 5 is_stmt 1 view .LVU517
 797:Drivers/STM32H5xx_HAL_Driver/Src/stm32h5xx_hal_dma.c **** 
 1594              		.loc 1 797 21 is_stmt 0 view .LVU518
 1595 008c A26D     		ldr	r2, [r4, #88]
 1596 008e 42F00802 		orr	r2, r2, #8
 1597 0092 A265     		str	r2, [r4, #88]
 800:Drivers/STM32H5xx_HAL_Driver/Src/stm32h5xx_hal_dma.c ****   }
 1598              		.loc 1 800 5 is_stmt 1 view .LVU519
 1599 0094 2268     		ldr	r2, [r4]
 1600 0096 4FF48041 		mov	r1, #16384
 1601 009a D160     		str	r1, [r2, #12]
 1602              	.L82:
 804:Drivers/STM32H5xx_HAL_Driver/Src/stm32h5xx_hal_dma.c ****   {
 1603              		.loc 1 804 3 view .LVU520
 804:Drivers/STM32H5xx_HAL_Driver/Src/stm32h5xx_hal_dma.c ****   {
 1604              		.loc 1 804 6 is_stmt 0 view .LVU521
 1605 009c 13F4E05F 		tst	r3, #7168
 1606 00a0 16D1     		bne	.L96
 856:Drivers/STM32H5xx_HAL_Driver/Src/stm32h5xx_hal_dma.c ****   {
 1607              		.loc 1 856 3 is_stmt 1 view .LVU522
 856:Drivers/STM32H5xx_HAL_Driver/Src/stm32h5xx_hal_dma.c ****   {
 1608              		.loc 1 856 6 is_stmt 0 view .LVU523
 1609 00a2 012E     		cmp	r6, #1
 1610 00a4 49D0     		beq	.L97
 861:Drivers/STM32H5xx_HAL_Driver/Src/stm32h5xx_hal_dma.c ****   {
 1611              		.loc 1 861 8 is_stmt 1 view .LVU524
 861:Drivers/STM32H5xx_HAL_Driver/Src/stm32h5xx_hal_dma.c ****   {
ARM GAS  /tmp/ccQkXeUE.s 			page 66


 1612              		.loc 1 861 11 is_stmt 0 view .LVU525
 1613 00a6 002E     		cmp	r6, #0
 1614 00a8 4FD1     		bne	.L92
 864:Drivers/STM32H5xx_HAL_Driver/Src/stm32h5xx_hal_dma.c **** 
 1615              		.loc 1 864 5 is_stmt 1 view .LVU526
 1616 00aa 2368     		ldr	r3, [r4]
 1617              	.LVL75:
 864:Drivers/STM32H5xx_HAL_Driver/Src/stm32h5xx_hal_dma.c **** 
 1618              		.loc 1 864 5 is_stmt 0 view .LVU527
 1619 00ac 4FF44072 		mov	r2, #768
 1620 00b0 DA60     		str	r2, [r3, #12]
 867:Drivers/STM32H5xx_HAL_Driver/Src/stm32h5xx_hal_dma.c **** 
 1621              		.loc 1 867 5 is_stmt 1 view .LVU528
 867:Drivers/STM32H5xx_HAL_Driver/Src/stm32h5xx_hal_dma.c **** 
 1622              		.loc 1 867 17 is_stmt 0 view .LVU529
 1623 00b2 0123     		movs	r3, #1
 1624 00b4 84F85430 		strb	r3, [r4, #84]
 870:Drivers/STM32H5xx_HAL_Driver/Src/stm32h5xx_hal_dma.c ****     {
 1625              		.loc 1 870 5 is_stmt 1 view .LVU530
 870:Drivers/STM32H5xx_HAL_Driver/Src/stm32h5xx_hal_dma.c ****     {
 1626              		.loc 1 870 14 is_stmt 0 view .LVU531
 1627 00b8 236D     		ldr	r3, [r4, #80]
 870:Drivers/STM32H5xx_HAL_Driver/Src/stm32h5xx_hal_dma.c ****     {
 1628              		.loc 1 870 8 view .LVU532
 1629 00ba 13F0800F 		tst	r3, #128
 1630 00be 02D0     		beq	.L89
 873:Drivers/STM32H5xx_HAL_Driver/Src/stm32h5xx_hal_dma.c ****     }
 1631              		.loc 1 873 7 is_stmt 1 view .LVU533
 873:Drivers/STM32H5xx_HAL_Driver/Src/stm32h5xx_hal_dma.c ****     }
 1632              		.loc 1 873 11 is_stmt 0 view .LVU534
 1633 00c0 636F     		ldr	r3, [r4, #116]
 873:Drivers/STM32H5xx_HAL_Driver/Src/stm32h5xx_hal_dma.c ****     }
 1634              		.loc 1 873 36 view .LVU535
 1635 00c2 0122     		movs	r2, #1
 1636 00c4 1A73     		strb	r2, [r3, #12]
 1637              	.L89:
 877:Drivers/STM32H5xx_HAL_Driver/Src/stm32h5xx_hal_dma.c ****   }
 1638              		.loc 1 877 5 is_stmt 1 view .LVU536
 877:Drivers/STM32H5xx_HAL_Driver/Src/stm32h5xx_hal_dma.c ****   }
 1639              		.loc 1 877 5 view .LVU537
 1640 00c6 0023     		movs	r3, #0
 1641 00c8 84F84C30 		strb	r3, [r4, #76]
 877:Drivers/STM32H5xx_HAL_Driver/Src/stm32h5xx_hal_dma.c ****   }
 1642              		.loc 1 877 5 view .LVU538
 884:Drivers/STM32H5xx_HAL_Driver/Src/stm32h5xx_hal_dma.c **** }
 1643              		.loc 1 884 10 is_stmt 0 view .LVU539
 1644 00cc 3046     		mov	r0, r6
 1645 00ce ADE7     		b	.L74
 1646              	.LVL76:
 1647              	.L96:
 807:Drivers/STM32H5xx_HAL_Driver/Src/stm32h5xx_hal_dma.c ****     {
 1648              		.loc 1 807 5 is_stmt 1 view .LVU540
 807:Drivers/STM32H5xx_HAL_Driver/Src/stm32h5xx_hal_dma.c ****     {
 1649              		.loc 1 807 8 is_stmt 0 view .LVU541
 1650 00d0 13F4806F 		tst	r3, #1024
 1651 00d4 07D0     		beq	.L84
 810:Drivers/STM32H5xx_HAL_Driver/Src/stm32h5xx_hal_dma.c **** 
ARM GAS  /tmp/ccQkXeUE.s 			page 67


 1652              		.loc 1 810 7 is_stmt 1 view .LVU542
 810:Drivers/STM32H5xx_HAL_Driver/Src/stm32h5xx_hal_dma.c **** 
 1653              		.loc 1 810 23 is_stmt 0 view .LVU543
 1654 00d6 A26D     		ldr	r2, [r4, #88]
 1655 00d8 42F00102 		orr	r2, r2, #1
 1656 00dc A265     		str	r2, [r4, #88]
 813:Drivers/STM32H5xx_HAL_Driver/Src/stm32h5xx_hal_dma.c ****     }
 1657              		.loc 1 813 7 is_stmt 1 view .LVU544
 1658 00de 2268     		ldr	r2, [r4]
 1659 00e0 4FF48061 		mov	r1, #1024
 1660 00e4 D160     		str	r1, [r2, #12]
 1661              	.L84:
 817:Drivers/STM32H5xx_HAL_Driver/Src/stm32h5xx_hal_dma.c ****     {
 1662              		.loc 1 817 5 view .LVU545
 817:Drivers/STM32H5xx_HAL_Driver/Src/stm32h5xx_hal_dma.c ****     {
 1663              		.loc 1 817 8 is_stmt 0 view .LVU546
 1664 00e6 13F4006F 		tst	r3, #2048
 1665 00ea 07D0     		beq	.L85
 820:Drivers/STM32H5xx_HAL_Driver/Src/stm32h5xx_hal_dma.c **** 
 1666              		.loc 1 820 7 is_stmt 1 view .LVU547
 820:Drivers/STM32H5xx_HAL_Driver/Src/stm32h5xx_hal_dma.c **** 
 1667              		.loc 1 820 23 is_stmt 0 view .LVU548
 1668 00ec A26D     		ldr	r2, [r4, #88]
 1669 00ee 42F00202 		orr	r2, r2, #2
 1670 00f2 A265     		str	r2, [r4, #88]
 823:Drivers/STM32H5xx_HAL_Driver/Src/stm32h5xx_hal_dma.c ****     }
 1671              		.loc 1 823 7 is_stmt 1 view .LVU549
 1672 00f4 2268     		ldr	r2, [r4]
 1673 00f6 4FF40061 		mov	r1, #2048
 1674 00fa D160     		str	r1, [r2, #12]
 1675              	.L85:
 827:Drivers/STM32H5xx_HAL_Driver/Src/stm32h5xx_hal_dma.c ****     {
 1676              		.loc 1 827 5 view .LVU550
 827:Drivers/STM32H5xx_HAL_Driver/Src/stm32h5xx_hal_dma.c ****     {
 1677              		.loc 1 827 8 is_stmt 0 view .LVU551
 1678 00fc 13F4805F 		tst	r3, #4096
 1679 0100 07D0     		beq	.L86
 830:Drivers/STM32H5xx_HAL_Driver/Src/stm32h5xx_hal_dma.c **** 
 1680              		.loc 1 830 7 is_stmt 1 view .LVU552
 830:Drivers/STM32H5xx_HAL_Driver/Src/stm32h5xx_hal_dma.c **** 
 1681              		.loc 1 830 23 is_stmt 0 view .LVU553
 1682 0102 A36D     		ldr	r3, [r4, #88]
 1683              	.LVL77:
 830:Drivers/STM32H5xx_HAL_Driver/Src/stm32h5xx_hal_dma.c **** 
 1684              		.loc 1 830 23 view .LVU554
 1685 0104 43F00403 		orr	r3, r3, #4
 1686 0108 A365     		str	r3, [r4, #88]
 833:Drivers/STM32H5xx_HAL_Driver/Src/stm32h5xx_hal_dma.c ****     }
 1687              		.loc 1 833 7 is_stmt 1 view .LVU555
 1688 010a 2368     		ldr	r3, [r4]
 1689 010c 4FF48052 		mov	r2, #4096
 1690 0110 DA60     		str	r2, [r3, #12]
 1691              	.L86:
 837:Drivers/STM32H5xx_HAL_Driver/Src/stm32h5xx_hal_dma.c **** 
 1692              		.loc 1 837 5 view .LVU556
 837:Drivers/STM32H5xx_HAL_Driver/Src/stm32h5xx_hal_dma.c **** 
 1693              		.loc 1 837 9 is_stmt 0 view .LVU557
ARM GAS  /tmp/ccQkXeUE.s 			page 68


 1694 0112 2268     		ldr	r2, [r4]
 837:Drivers/STM32H5xx_HAL_Driver/Src/stm32h5xx_hal_dma.c **** 
 1695              		.loc 1 837 25 view .LVU558
 1696 0114 5369     		ldr	r3, [r2, #20]
 1697 0116 43F00203 		orr	r3, r3, #2
 1698 011a 5361     		str	r3, [r2, #20]
 840:Drivers/STM32H5xx_HAL_Driver/Src/stm32h5xx_hal_dma.c **** 
 1699              		.loc 1 840 5 is_stmt 1 view .LVU559
 840:Drivers/STM32H5xx_HAL_Driver/Src/stm32h5xx_hal_dma.c **** 
 1700              		.loc 1 840 17 is_stmt 0 view .LVU560
 1701 011c 0123     		movs	r3, #1
 1702 011e 84F85430 		strb	r3, [r4, #84]
 843:Drivers/STM32H5xx_HAL_Driver/Src/stm32h5xx_hal_dma.c ****     {
 1703              		.loc 1 843 5 is_stmt 1 view .LVU561
 843:Drivers/STM32H5xx_HAL_Driver/Src/stm32h5xx_hal_dma.c ****     {
 1704              		.loc 1 843 14 is_stmt 0 view .LVU562
 1705 0122 236D     		ldr	r3, [r4, #80]
 843:Drivers/STM32H5xx_HAL_Driver/Src/stm32h5xx_hal_dma.c ****     {
 1706              		.loc 1 843 8 view .LVU563
 1707 0124 13F0800F 		tst	r3, #128
 1708 0128 02D0     		beq	.L87
 846:Drivers/STM32H5xx_HAL_Driver/Src/stm32h5xx_hal_dma.c ****     }
 1709              		.loc 1 846 7 is_stmt 1 view .LVU564
 846:Drivers/STM32H5xx_HAL_Driver/Src/stm32h5xx_hal_dma.c ****     }
 1710              		.loc 1 846 11 is_stmt 0 view .LVU565
 1711 012a 636F     		ldr	r3, [r4, #116]
 846:Drivers/STM32H5xx_HAL_Driver/Src/stm32h5xx_hal_dma.c ****     }
 1712              		.loc 1 846 36 view .LVU566
 1713 012c 0122     		movs	r2, #1
 1714 012e 1A73     		strb	r2, [r3, #12]
 1715              	.L87:
 850:Drivers/STM32H5xx_HAL_Driver/Src/stm32h5xx_hal_dma.c **** 
 1716              		.loc 1 850 5 is_stmt 1 view .LVU567
 850:Drivers/STM32H5xx_HAL_Driver/Src/stm32h5xx_hal_dma.c **** 
 1717              		.loc 1 850 5 view .LVU568
 1718 0130 0023     		movs	r3, #0
 1719 0132 84F84C30 		strb	r3, [r4, #76]
 850:Drivers/STM32H5xx_HAL_Driver/Src/stm32h5xx_hal_dma.c **** 
 1720              		.loc 1 850 5 view .LVU569
 852:Drivers/STM32H5xx_HAL_Driver/Src/stm32h5xx_hal_dma.c ****   }
 1721              		.loc 1 852 5 view .LVU570
 852:Drivers/STM32H5xx_HAL_Driver/Src/stm32h5xx_hal_dma.c ****   }
 1722              		.loc 1 852 12 is_stmt 0 view .LVU571
 1723 0136 0120     		movs	r0, #1
 1724 0138 78E7     		b	.L74
 1725              	.LVL78:
 1726              	.L97:
 859:Drivers/STM32H5xx_HAL_Driver/Src/stm32h5xx_hal_dma.c ****   }
 1727              		.loc 1 859 5 is_stmt 1 view .LVU572
 1728 013a 2368     		ldr	r3, [r4]
 1729              	.LVL79:
 859:Drivers/STM32H5xx_HAL_Driver/Src/stm32h5xx_hal_dma.c ****   }
 1730              		.loc 1 859 5 is_stmt 0 view .LVU573
 1731 013c 4FF40072 		mov	r2, #512
 1732 0140 DA60     		str	r2, [r3, #12]
 884:Drivers/STM32H5xx_HAL_Driver/Src/stm32h5xx_hal_dma.c **** }
 1733              		.loc 1 884 10 view .LVU574
ARM GAS  /tmp/ccQkXeUE.s 			page 69


 1734 0142 0020     		movs	r0, #0
 1735 0144 72E7     		b	.L74
 1736              	.LVL80:
 1737              	.L90:
 733:Drivers/STM32H5xx_HAL_Driver/Src/stm32h5xx_hal_dma.c ****   }
 1738              		.loc 1 733 12 view .LVU575
 1739 0146 0120     		movs	r0, #1
 1740              	.LVL81:
 733:Drivers/STM32H5xx_HAL_Driver/Src/stm32h5xx_hal_dma.c ****   }
 1741              		.loc 1 733 12 view .LVU576
 1742 0148 70E7     		b	.L74
 1743              	.LVL82:
 1744              	.L92:
 881:Drivers/STM32H5xx_HAL_Driver/Src/stm32h5xx_hal_dma.c ****   }
 1745              		.loc 1 881 12 view .LVU577
 1746 014a 0120     		movs	r0, #1
 1747 014c 6EE7     		b	.L74
 1748              		.cfi_endproc
 1749              	.LFE367:
 1751              		.section	.text.HAL_DMA_IRQHandler,"ax",%progbits
 1752              		.align	1
 1753              		.global	HAL_DMA_IRQHandler
 1754              		.syntax unified
 1755              		.thumb
 1756              		.thumb_func
 1757              		.fpu fpv4-sp-d16
 1759              	HAL_DMA_IRQHandler:
 1760              	.LVL83:
 1761              	.LFB368:
 894:Drivers/STM32H5xx_HAL_Driver/Src/stm32h5xx_hal_dma.c ****   const DMA_TypeDef *p_dma_instance = GET_DMA_INSTANCE(hdma);
 1762              		.loc 1 894 1 is_stmt 1 view -0
 1763              		.cfi_startproc
 1764              		@ args = 0, pretend = 0, frame = 0
 1765              		@ frame_needed = 0, uses_anonymous_args = 0
 894:Drivers/STM32H5xx_HAL_Driver/Src/stm32h5xx_hal_dma.c ****   const DMA_TypeDef *p_dma_instance = GET_DMA_INSTANCE(hdma);
 1766              		.loc 1 894 1 is_stmt 0 view .LVU579
 1767 0000 10B5     		push	{r4, lr}
 1768              	.LCFI15:
 1769              		.cfi_def_cfa_offset 8
 1770              		.cfi_offset 4, -8
 1771              		.cfi_offset 14, -4
 1772 0002 0446     		mov	r4, r0
 895:Drivers/STM32H5xx_HAL_Driver/Src/stm32h5xx_hal_dma.c ****   uint32_t global_it_flag =  1UL << (GET_DMA_CHANNEL(hdma) & 0x1FU);
 1773              		.loc 1 895 3 is_stmt 1 view .LVU580
 895:Drivers/STM32H5xx_HAL_Driver/Src/stm32h5xx_hal_dma.c ****   uint32_t global_it_flag =  1UL << (GET_DMA_CHANNEL(hdma) & 0x1FU);
 1774              		.loc 1 895 39 is_stmt 0 view .LVU581
 1775 0004 0268     		ldr	r2, [r0]
 1776 0006 22F47F60 		bic	r0, r2, #4080
 1777              	.LVL84:
 895:Drivers/STM32H5xx_HAL_Driver/Src/stm32h5xx_hal_dma.c ****   uint32_t global_it_flag =  1UL << (GET_DMA_CHANNEL(hdma) & 0x1FU);
 1778              		.loc 1 895 39 view .LVU582
 1779 000a 20F00F00 		bic	r0, r0, #15
 1780              	.LVL85:
 896:Drivers/STM32H5xx_HAL_Driver/Src/stm32h5xx_hal_dma.c ****   uint32_t global_active_flag_ns = IS_DMA_GLOBAL_ACTIVE_FLAG_NS(p_dma_instance, global_it_flag);
 1781              		.loc 1 896 3 is_stmt 1 view .LVU583
 896:Drivers/STM32H5xx_HAL_Driver/Src/stm32h5xx_hal_dma.c ****   uint32_t global_active_flag_ns = IS_DMA_GLOBAL_ACTIVE_FLAG_NS(p_dma_instance, global_it_flag);
 1782              		.loc 1 896 38 is_stmt 0 view .LVU584
ARM GAS  /tmp/ccQkXeUE.s 			page 70


 1783 000e C2F30B03 		ubfx	r3, r2, #0, #12
 1784 0012 503B     		subs	r3, r3, #80
 896:Drivers/STM32H5xx_HAL_Driver/Src/stm32h5xx_hal_dma.c ****   uint32_t global_active_flag_ns = IS_DMA_GLOBAL_ACTIVE_FLAG_NS(p_dma_instance, global_it_flag);
 1785              		.loc 1 896 60 view .LVU585
 1786 0014 C3F3C413 		ubfx	r3, r3, #7, #5
 896:Drivers/STM32H5xx_HAL_Driver/Src/stm32h5xx_hal_dma.c ****   uint32_t global_active_flag_ns = IS_DMA_GLOBAL_ACTIVE_FLAG_NS(p_dma_instance, global_it_flag);
 1787              		.loc 1 896 12 view .LVU586
 1788 0018 0121     		movs	r1, #1
 1789 001a 01FA03F3 		lsl	r3, r1, r3
 1790              	.LVL86:
 897:Drivers/STM32H5xx_HAL_Driver/Src/stm32h5xx_hal_dma.c **** #if defined (__ARM_FEATURE_CMSE) && (__ARM_FEATURE_CMSE == 3U)
 1791              		.loc 1 897 3 is_stmt 1 view .LVU587
 897:Drivers/STM32H5xx_HAL_Driver/Src/stm32h5xx_hal_dma.c **** #if defined (__ARM_FEATURE_CMSE) && (__ARM_FEATURE_CMSE == 3U)
 1792              		.loc 1 897 36 is_stmt 0 view .LVU588
 1793 001e C168     		ldr	r1, [r0, #12]
 1794              	.LVL87:
 906:Drivers/STM32H5xx_HAL_Driver/Src/stm32h5xx_hal_dma.c **** #endif /* (__ARM_FEATURE_CMSE) && (__ARM_FEATURE_CMSE == 3U) */
 1795              		.loc 1 906 3 is_stmt 1 view .LVU589
 906:Drivers/STM32H5xx_HAL_Driver/Src/stm32h5xx_hal_dma.c **** #endif /* (__ARM_FEATURE_CMSE) && (__ARM_FEATURE_CMSE == 3U) */
 1796              		.loc 1 906 6 is_stmt 0 view .LVU590
 1797 0020 1942     		tst	r1, r3
 1798 0022 00F0C580 		beq	.L98
 913:Drivers/STM32H5xx_HAL_Driver/Src/stm32h5xx_hal_dma.c ****   {
 1799              		.loc 1 913 3 is_stmt 1 view .LVU591
 913:Drivers/STM32H5xx_HAL_Driver/Src/stm32h5xx_hal_dma.c ****   {
 1800              		.loc 1 913 8 is_stmt 0 view .LVU592
 1801 0026 1369     		ldr	r3, [r2, #16]
 1802              	.LVL88:
 913:Drivers/STM32H5xx_HAL_Driver/Src/stm32h5xx_hal_dma.c ****   {
 1803              		.loc 1 913 6 view .LVU593
 1804 0028 13F4806F 		tst	r3, #1024
 1805 002c 0AD0     		beq	.L100
 916:Drivers/STM32H5xx_HAL_Driver/Src/stm32h5xx_hal_dma.c ****     {
 1806              		.loc 1 916 5 is_stmt 1 view .LVU594
 916:Drivers/STM32H5xx_HAL_Driver/Src/stm32h5xx_hal_dma.c ****     {
 1807              		.loc 1 916 9 is_stmt 0 view .LVU595
 1808 002e 5369     		ldr	r3, [r2, #20]
 916:Drivers/STM32H5xx_HAL_Driver/Src/stm32h5xx_hal_dma.c ****     {
 1809              		.loc 1 916 8 view .LVU596
 1810 0030 13F4806F 		tst	r3, #1024
 1811 0034 06D0     		beq	.L100
 919:Drivers/STM32H5xx_HAL_Driver/Src/stm32h5xx_hal_dma.c **** 
 1812              		.loc 1 919 7 is_stmt 1 view .LVU597
 1813 0036 4FF48063 		mov	r3, #1024
 1814 003a D360     		str	r3, [r2, #12]
 922:Drivers/STM32H5xx_HAL_Driver/Src/stm32h5xx_hal_dma.c ****     }
 1815              		.loc 1 922 7 view .LVU598
 922:Drivers/STM32H5xx_HAL_Driver/Src/stm32h5xx_hal_dma.c ****     }
 1816              		.loc 1 922 23 is_stmt 0 view .LVU599
 1817 003c A36D     		ldr	r3, [r4, #88]
 1818 003e 43F00103 		orr	r3, r3, #1
 1819 0042 A365     		str	r3, [r4, #88]
 1820              	.L100:
 927:Drivers/STM32H5xx_HAL_Driver/Src/stm32h5xx_hal_dma.c ****   {
 1821              		.loc 1 927 3 is_stmt 1 view .LVU600
 927:Drivers/STM32H5xx_HAL_Driver/Src/stm32h5xx_hal_dma.c ****   {
 1822              		.loc 1 927 8 is_stmt 0 view .LVU601
ARM GAS  /tmp/ccQkXeUE.s 			page 71


 1823 0044 2368     		ldr	r3, [r4]
 1824 0046 1A69     		ldr	r2, [r3, #16]
 1825              	.LVL89:
 927:Drivers/STM32H5xx_HAL_Driver/Src/stm32h5xx_hal_dma.c ****   {
 1826              		.loc 1 927 6 view .LVU602
 1827 0048 12F4006F 		tst	r2, #2048
 1828 004c 0AD0     		beq	.L101
 930:Drivers/STM32H5xx_HAL_Driver/Src/stm32h5xx_hal_dma.c ****     {
 1829              		.loc 1 930 5 is_stmt 1 view .LVU603
 930:Drivers/STM32H5xx_HAL_Driver/Src/stm32h5xx_hal_dma.c ****     {
 1830              		.loc 1 930 9 is_stmt 0 view .LVU604
 1831 004e 5A69     		ldr	r2, [r3, #20]
 930:Drivers/STM32H5xx_HAL_Driver/Src/stm32h5xx_hal_dma.c ****     {
 1832              		.loc 1 930 8 view .LVU605
 1833 0050 12F4006F 		tst	r2, #2048
 1834 0054 06D0     		beq	.L101
 933:Drivers/STM32H5xx_HAL_Driver/Src/stm32h5xx_hal_dma.c **** 
 1835              		.loc 1 933 7 is_stmt 1 view .LVU606
 1836 0056 4FF40062 		mov	r2, #2048
 1837 005a DA60     		str	r2, [r3, #12]
 936:Drivers/STM32H5xx_HAL_Driver/Src/stm32h5xx_hal_dma.c ****     }
 1838              		.loc 1 936 7 view .LVU607
 936:Drivers/STM32H5xx_HAL_Driver/Src/stm32h5xx_hal_dma.c ****     }
 1839              		.loc 1 936 23 is_stmt 0 view .LVU608
 1840 005c A36D     		ldr	r3, [r4, #88]
 1841 005e 43F00203 		orr	r3, r3, #2
 1842 0062 A365     		str	r3, [r4, #88]
 1843              	.L101:
 941:Drivers/STM32H5xx_HAL_Driver/Src/stm32h5xx_hal_dma.c ****   {
 1844              		.loc 1 941 3 is_stmt 1 view .LVU609
 941:Drivers/STM32H5xx_HAL_Driver/Src/stm32h5xx_hal_dma.c ****   {
 1845              		.loc 1 941 8 is_stmt 0 view .LVU610
 1846 0064 2368     		ldr	r3, [r4]
 1847 0066 1A69     		ldr	r2, [r3, #16]
 941:Drivers/STM32H5xx_HAL_Driver/Src/stm32h5xx_hal_dma.c ****   {
 1848              		.loc 1 941 6 view .LVU611
 1849 0068 12F4805F 		tst	r2, #4096
 1850 006c 0AD0     		beq	.L102
 944:Drivers/STM32H5xx_HAL_Driver/Src/stm32h5xx_hal_dma.c ****     {
 1851              		.loc 1 944 5 is_stmt 1 view .LVU612
 944:Drivers/STM32H5xx_HAL_Driver/Src/stm32h5xx_hal_dma.c ****     {
 1852              		.loc 1 944 9 is_stmt 0 view .LVU613
 1853 006e 5A69     		ldr	r2, [r3, #20]
 944:Drivers/STM32H5xx_HAL_Driver/Src/stm32h5xx_hal_dma.c ****     {
 1854              		.loc 1 944 8 view .LVU614
 1855 0070 12F4805F 		tst	r2, #4096
 1856 0074 06D0     		beq	.L102
 947:Drivers/STM32H5xx_HAL_Driver/Src/stm32h5xx_hal_dma.c **** 
 1857              		.loc 1 947 7 is_stmt 1 view .LVU615
 1858 0076 4FF48052 		mov	r2, #4096
 1859 007a DA60     		str	r2, [r3, #12]
 950:Drivers/STM32H5xx_HAL_Driver/Src/stm32h5xx_hal_dma.c ****     }
 1860              		.loc 1 950 7 view .LVU616
 950:Drivers/STM32H5xx_HAL_Driver/Src/stm32h5xx_hal_dma.c ****     }
 1861              		.loc 1 950 23 is_stmt 0 view .LVU617
 1862 007c A36D     		ldr	r3, [r4, #88]
 1863 007e 43F00403 		orr	r3, r3, #4
ARM GAS  /tmp/ccQkXeUE.s 			page 72


 1864 0082 A365     		str	r3, [r4, #88]
 1865              	.L102:
 955:Drivers/STM32H5xx_HAL_Driver/Src/stm32h5xx_hal_dma.c ****   {
 1866              		.loc 1 955 3 is_stmt 1 view .LVU618
 955:Drivers/STM32H5xx_HAL_Driver/Src/stm32h5xx_hal_dma.c ****   {
 1867              		.loc 1 955 8 is_stmt 0 view .LVU619
 1868 0084 2368     		ldr	r3, [r4]
 1869 0086 1A69     		ldr	r2, [r3, #16]
 955:Drivers/STM32H5xx_HAL_Driver/Src/stm32h5xx_hal_dma.c ****   {
 1870              		.loc 1 955 6 view .LVU620
 1871 0088 12F4804F 		tst	r2, #16384
 1872 008c 0AD0     		beq	.L103
 958:Drivers/STM32H5xx_HAL_Driver/Src/stm32h5xx_hal_dma.c ****     {
 1873              		.loc 1 958 5 is_stmt 1 view .LVU621
 958:Drivers/STM32H5xx_HAL_Driver/Src/stm32h5xx_hal_dma.c ****     {
 1874              		.loc 1 958 9 is_stmt 0 view .LVU622
 1875 008e 5A69     		ldr	r2, [r3, #20]
 958:Drivers/STM32H5xx_HAL_Driver/Src/stm32h5xx_hal_dma.c ****     {
 1876              		.loc 1 958 8 view .LVU623
 1877 0090 12F4804F 		tst	r2, #16384
 1878 0094 06D0     		beq	.L103
 961:Drivers/STM32H5xx_HAL_Driver/Src/stm32h5xx_hal_dma.c **** 
 1879              		.loc 1 961 7 is_stmt 1 view .LVU624
 1880 0096 4FF48042 		mov	r2, #16384
 1881 009a DA60     		str	r2, [r3, #12]
 964:Drivers/STM32H5xx_HAL_Driver/Src/stm32h5xx_hal_dma.c ****     }
 1882              		.loc 1 964 7 view .LVU625
 964:Drivers/STM32H5xx_HAL_Driver/Src/stm32h5xx_hal_dma.c ****     }
 1883              		.loc 1 964 23 is_stmt 0 view .LVU626
 1884 009c A36D     		ldr	r3, [r4, #88]
 1885 009e 43F00803 		orr	r3, r3, #8
 1886 00a2 A365     		str	r3, [r4, #88]
 1887              	.L103:
 969:Drivers/STM32H5xx_HAL_Driver/Src/stm32h5xx_hal_dma.c ****   {
 1888              		.loc 1 969 3 is_stmt 1 view .LVU627
 969:Drivers/STM32H5xx_HAL_Driver/Src/stm32h5xx_hal_dma.c ****   {
 1889              		.loc 1 969 8 is_stmt 0 view .LVU628
 1890 00a4 2368     		ldr	r3, [r4]
 1891 00a6 1A69     		ldr	r2, [r3, #16]
 969:Drivers/STM32H5xx_HAL_Driver/Src/stm32h5xx_hal_dma.c ****   {
 1892              		.loc 1 969 6 view .LVU629
 1893 00a8 12F4007F 		tst	r2, #512
 1894 00ac 0AD0     		beq	.L104
 972:Drivers/STM32H5xx_HAL_Driver/Src/stm32h5xx_hal_dma.c ****     {
 1895              		.loc 1 972 5 is_stmt 1 view .LVU630
 972:Drivers/STM32H5xx_HAL_Driver/Src/stm32h5xx_hal_dma.c ****     {
 1896              		.loc 1 972 9 is_stmt 0 view .LVU631
 1897 00ae 5A69     		ldr	r2, [r3, #20]
 972:Drivers/STM32H5xx_HAL_Driver/Src/stm32h5xx_hal_dma.c ****     {
 1898              		.loc 1 972 8 view .LVU632
 1899 00b0 12F4007F 		tst	r2, #512
 1900 00b4 06D0     		beq	.L104
 975:Drivers/STM32H5xx_HAL_Driver/Src/stm32h5xx_hal_dma.c **** 
 1901              		.loc 1 975 7 is_stmt 1 view .LVU633
 1902 00b6 4FF40072 		mov	r2, #512
 1903 00ba DA60     		str	r2, [r3, #12]
 978:Drivers/STM32H5xx_HAL_Driver/Src/stm32h5xx_hal_dma.c ****       {
ARM GAS  /tmp/ccQkXeUE.s 			page 73


 1904              		.loc 1 978 7 view .LVU634
 978:Drivers/STM32H5xx_HAL_Driver/Src/stm32h5xx_hal_dma.c ****       {
 1905              		.loc 1 978 15 is_stmt 0 view .LVU635
 1906 00bc 636E     		ldr	r3, [r4, #100]
 978:Drivers/STM32H5xx_HAL_Driver/Src/stm32h5xx_hal_dma.c ****       {
 1907              		.loc 1 978 10 view .LVU636
 1908 00be 0BB1     		cbz	r3, .L104
 981:Drivers/STM32H5xx_HAL_Driver/Src/stm32h5xx_hal_dma.c ****       }
 1909              		.loc 1 981 9 is_stmt 1 view .LVU637
 1910 00c0 2046     		mov	r0, r4
 1911              	.LVL90:
 981:Drivers/STM32H5xx_HAL_Driver/Src/stm32h5xx_hal_dma.c ****       }
 1912              		.loc 1 981 9 is_stmt 0 view .LVU638
 1913 00c2 9847     		blx	r3
 1914              	.LVL91:
 1915              	.L104:
 987:Drivers/STM32H5xx_HAL_Driver/Src/stm32h5xx_hal_dma.c ****   {
 1916              		.loc 1 987 3 is_stmt 1 view .LVU639
 987:Drivers/STM32H5xx_HAL_Driver/Src/stm32h5xx_hal_dma.c ****   {
 1917              		.loc 1 987 8 is_stmt 0 view .LVU640
 1918 00c4 2368     		ldr	r3, [r4]
 1919 00c6 1A69     		ldr	r2, [r3, #16]
 987:Drivers/STM32H5xx_HAL_Driver/Src/stm32h5xx_hal_dma.c ****   {
 1920              		.loc 1 987 6 view .LVU641
 1921 00c8 12F4005F 		tst	r2, #8192
 1922 00cc 12D0     		beq	.L105
 990:Drivers/STM32H5xx_HAL_Driver/Src/stm32h5xx_hal_dma.c ****     {
 1923              		.loc 1 990 5 is_stmt 1 view .LVU642
 990:Drivers/STM32H5xx_HAL_Driver/Src/stm32h5xx_hal_dma.c ****     {
 1924              		.loc 1 990 9 is_stmt 0 view .LVU643
 1925 00ce 5A69     		ldr	r2, [r3, #20]
 990:Drivers/STM32H5xx_HAL_Driver/Src/stm32h5xx_hal_dma.c ****     {
 1926              		.loc 1 990 8 view .LVU644
 1927 00d0 12F4005F 		tst	r2, #8192
 1928 00d4 0ED0     		beq	.L105
 993:Drivers/STM32H5xx_HAL_Driver/Src/stm32h5xx_hal_dma.c **** 
 1929              		.loc 1 993 7 is_stmt 1 view .LVU645
 1930 00d6 4FF40052 		mov	r2, #8192
 1931 00da DA60     		str	r2, [r3, #12]
 996:Drivers/STM32H5xx_HAL_Driver/Src/stm32h5xx_hal_dma.c ****       {
 1932              		.loc 1 996 7 view .LVU646
 996:Drivers/STM32H5xx_HAL_Driver/Src/stm32h5xx_hal_dma.c ****       {
 1933              		.loc 1 996 15 is_stmt 0 view .LVU647
 1934 00dc 94F85430 		ldrb	r3, [r4, #84]	@ zero_extendqisi2
 1935 00e0 DBB2     		uxtb	r3, r3
 996:Drivers/STM32H5xx_HAL_Driver/Src/stm32h5xx_hal_dma.c ****       {
 1936              		.loc 1 996 10 view .LVU648
 1937 00e2 042B     		cmp	r3, #4
 1938 00e4 1DD0     		beq	.L114
1032:Drivers/STM32H5xx_HAL_Driver/Src/stm32h5xx_hal_dma.c **** 
 1939              		.loc 1 1032 9 is_stmt 1 view .LVU649
1032:Drivers/STM32H5xx_HAL_Driver/Src/stm32h5xx_hal_dma.c **** 
 1940              		.loc 1 1032 21 is_stmt 0 view .LVU650
 1941 00e6 0523     		movs	r3, #5
 1942 00e8 84F85430 		strb	r3, [r4, #84]
1035:Drivers/STM32H5xx_HAL_Driver/Src/stm32h5xx_hal_dma.c ****         {
 1943              		.loc 1 1035 9 is_stmt 1 view .LVU651
ARM GAS  /tmp/ccQkXeUE.s 			page 74


1035:Drivers/STM32H5xx_HAL_Driver/Src/stm32h5xx_hal_dma.c ****         {
 1944              		.loc 1 1035 17 is_stmt 0 view .LVU652
 1945 00ec 236F     		ldr	r3, [r4, #112]
1035:Drivers/STM32H5xx_HAL_Driver/Src/stm32h5xx_hal_dma.c ****         {
 1946              		.loc 1 1035 12 view .LVU653
 1947 00ee 0BB1     		cbz	r3, .L105
1038:Drivers/STM32H5xx_HAL_Driver/Src/stm32h5xx_hal_dma.c ****         }
 1948              		.loc 1 1038 11 is_stmt 1 view .LVU654
 1949 00f0 2046     		mov	r0, r4
 1950 00f2 9847     		blx	r3
 1951              	.LVL92:
 1952              	.L105:
1045:Drivers/STM32H5xx_HAL_Driver/Src/stm32h5xx_hal_dma.c ****   {
 1953              		.loc 1 1045 3 view .LVU655
1045:Drivers/STM32H5xx_HAL_Driver/Src/stm32h5xx_hal_dma.c ****   {
 1954              		.loc 1 1045 8 is_stmt 0 view .LVU656
 1955 00f4 2368     		ldr	r3, [r4]
 1956 00f6 1A69     		ldr	r2, [r3, #16]
1045:Drivers/STM32H5xx_HAL_Driver/Src/stm32h5xx_hal_dma.c ****   {
 1957              		.loc 1 1045 6 view .LVU657
 1958 00f8 12F4807F 		tst	r2, #256
 1959 00fc 40D0     		beq	.L109
1048:Drivers/STM32H5xx_HAL_Driver/Src/stm32h5xx_hal_dma.c ****     {
 1960              		.loc 1 1048 5 is_stmt 1 view .LVU658
1048:Drivers/STM32H5xx_HAL_Driver/Src/stm32h5xx_hal_dma.c ****     {
 1961              		.loc 1 1048 9 is_stmt 0 view .LVU659
 1962 00fe 5A69     		ldr	r2, [r3, #20]
1048:Drivers/STM32H5xx_HAL_Driver/Src/stm32h5xx_hal_dma.c ****     {
 1963              		.loc 1 1048 8 view .LVU660
 1964 0100 12F4807F 		tst	r2, #256
 1965 0104 3CD0     		beq	.L109
1051:Drivers/STM32H5xx_HAL_Driver/Src/stm32h5xx_hal_dma.c ****       {
 1966              		.loc 1 1051 7 is_stmt 1 view .LVU661
1051:Drivers/STM32H5xx_HAL_Driver/Src/stm32h5xx_hal_dma.c ****       {
 1967              		.loc 1 1051 16 is_stmt 0 view .LVU662
 1968 0106 226D     		ldr	r2, [r4, #80]
1051:Drivers/STM32H5xx_HAL_Driver/Src/stm32h5xx_hal_dma.c ****       {
 1969              		.loc 1 1051 10 view .LVU663
 1970 0108 12F0800F 		tst	r2, #128
 1971 010c 28D0     		beq	.L110
1054:Drivers/STM32H5xx_HAL_Driver/Src/stm32h5xx_hal_dma.c ****         {
 1972              		.loc 1 1054 9 is_stmt 1 view .LVU664
1054:Drivers/STM32H5xx_HAL_Driver/Src/stm32h5xx_hal_dma.c ****         {
 1973              		.loc 1 1054 27 is_stmt 0 view .LVU665
 1974 010e DA6F     		ldr	r2, [r3, #124]
1054:Drivers/STM32H5xx_HAL_Driver/Src/stm32h5xx_hal_dma.c ****         {
 1975              		.loc 1 1054 12 view .LVU666
 1976 0110 5ABB     		cbnz	r2, .L111
1056:Drivers/STM32H5xx_HAL_Driver/Src/stm32h5xx_hal_dma.c ****           {
 1977              		.loc 1 1056 11 is_stmt 1 view .LVU667
1056:Drivers/STM32H5xx_HAL_Driver/Src/stm32h5xx_hal_dma.c ****           {
 1978              		.loc 1 1056 29 is_stmt 0 view .LVU668
 1979 0112 9B6C     		ldr	r3, [r3, #72]
1056:Drivers/STM32H5xx_HAL_Driver/Src/stm32h5xx_hal_dma.c ****           {
 1980              		.loc 1 1056 14 view .LVU669
 1981 0114 4BBB     		cbnz	r3, .L111
1059:Drivers/STM32H5xx_HAL_Driver/Src/stm32h5xx_hal_dma.c **** 
ARM GAS  /tmp/ccQkXeUE.s 			page 75


 1982              		.loc 1 1059 13 is_stmt 1 view .LVU670
1059:Drivers/STM32H5xx_HAL_Driver/Src/stm32h5xx_hal_dma.c **** 
 1983              		.loc 1 1059 25 is_stmt 0 view .LVU671
 1984 0116 0123     		movs	r3, #1
1059:Drivers/STM32H5xx_HAL_Driver/Src/stm32h5xx_hal_dma.c **** 
 1985              		.loc 1 1059 25 view .LVU672
 1986 0118 84F85430 		strb	r3, [r4, #84]
1062:Drivers/STM32H5xx_HAL_Driver/Src/stm32h5xx_hal_dma.c ****           }
 1987              		.loc 1 1062 13 is_stmt 1 view .LVU673
1062:Drivers/STM32H5xx_HAL_Driver/Src/stm32h5xx_hal_dma.c ****           }
 1988              		.loc 1 1062 17 is_stmt 0 view .LVU674
 1989 011c 626F     		ldr	r2, [r4, #116]
1062:Drivers/STM32H5xx_HAL_Driver/Src/stm32h5xx_hal_dma.c ****           }
 1990              		.loc 1 1062 42 view .LVU675
 1991 011e 1373     		strb	r3, [r2, #12]
 1992 0120 23E0     		b	.L111
 1993              	.L114:
 999:Drivers/STM32H5xx_HAL_Driver/Src/stm32h5xx_hal_dma.c **** 
 1994              		.loc 1 999 9 is_stmt 1 view .LVU676
 1995 0122 2268     		ldr	r2, [r4]
 1996 0124 5369     		ldr	r3, [r2, #20]
 1997 0126 23F40053 		bic	r3, r3, #8192
 1998 012a 5361     		str	r3, [r2, #20]
1002:Drivers/STM32H5xx_HAL_Driver/Src/stm32h5xx_hal_dma.c **** 
 1999              		.loc 1 1002 9 view .LVU677
1002:Drivers/STM32H5xx_HAL_Driver/Src/stm32h5xx_hal_dma.c **** 
 2000              		.loc 1 1002 13 is_stmt 0 view .LVU678
 2001 012c 2268     		ldr	r2, [r4]
1002:Drivers/STM32H5xx_HAL_Driver/Src/stm32h5xx_hal_dma.c **** 
 2002              		.loc 1 1002 29 view .LVU679
 2003 012e 5369     		ldr	r3, [r2, #20]
 2004 0130 43F00203 		orr	r3, r3, #2
 2005 0134 5361     		str	r3, [r2, #20]
1005:Drivers/STM32H5xx_HAL_Driver/Src/stm32h5xx_hal_dma.c **** 
 2006              		.loc 1 1005 9 is_stmt 1 view .LVU680
1005:Drivers/STM32H5xx_HAL_Driver/Src/stm32h5xx_hal_dma.c **** 
 2007              		.loc 1 1005 21 is_stmt 0 view .LVU681
 2008 0136 0123     		movs	r3, #1
1005:Drivers/STM32H5xx_HAL_Driver/Src/stm32h5xx_hal_dma.c **** 
 2009              		.loc 1 1005 21 view .LVU682
 2010 0138 84F85430 		strb	r3, [r4, #84]
1008:Drivers/STM32H5xx_HAL_Driver/Src/stm32h5xx_hal_dma.c ****         {
 2011              		.loc 1 1008 9 is_stmt 1 view .LVU683
1008:Drivers/STM32H5xx_HAL_Driver/Src/stm32h5xx_hal_dma.c ****         {
 2012              		.loc 1 1008 18 is_stmt 0 view .LVU684
 2013 013c 236D     		ldr	r3, [r4, #80]
1008:Drivers/STM32H5xx_HAL_Driver/Src/stm32h5xx_hal_dma.c ****         {
 2014              		.loc 1 1008 12 view .LVU685
 2015 013e 13F0800F 		tst	r3, #128
 2016 0142 05D0     		beq	.L107
1011:Drivers/STM32H5xx_HAL_Driver/Src/stm32h5xx_hal_dma.c **** 
 2017              		.loc 1 1011 11 is_stmt 1 view .LVU686
1011:Drivers/STM32H5xx_HAL_Driver/Src/stm32h5xx_hal_dma.c **** 
 2018              		.loc 1 1011 15 is_stmt 0 view .LVU687
 2019 0144 636F     		ldr	r3, [r4, #116]
1011:Drivers/STM32H5xx_HAL_Driver/Src/stm32h5xx_hal_dma.c **** 
 2020              		.loc 1 1011 40 view .LVU688
ARM GAS  /tmp/ccQkXeUE.s 			page 76


 2021 0146 0122     		movs	r2, #1
1011:Drivers/STM32H5xx_HAL_Driver/Src/stm32h5xx_hal_dma.c **** 
 2022              		.loc 1 1011 40 view .LVU689
 2023 0148 1A73     		strb	r2, [r3, #12]
1014:Drivers/STM32H5xx_HAL_Driver/Src/stm32h5xx_hal_dma.c ****         }
 2024              		.loc 1 1014 11 is_stmt 1 view .LVU690
1014:Drivers/STM32H5xx_HAL_Driver/Src/stm32h5xx_hal_dma.c ****         }
 2025              		.loc 1 1014 15 is_stmt 0 view .LVU691
 2026 014a 2368     		ldr	r3, [r4]
1014:Drivers/STM32H5xx_HAL_Driver/Src/stm32h5xx_hal_dma.c ****         }
 2027              		.loc 1 1014 32 view .LVU692
 2028 014c 0022     		movs	r2, #0
1014:Drivers/STM32H5xx_HAL_Driver/Src/stm32h5xx_hal_dma.c ****         }
 2029              		.loc 1 1014 32 view .LVU693
 2030 014e 9A64     		str	r2, [r3, #72]
 2031              	.L107:
1018:Drivers/STM32H5xx_HAL_Driver/Src/stm32h5xx_hal_dma.c **** 
 2032              		.loc 1 1018 9 is_stmt 1 view .LVU694
1018:Drivers/STM32H5xx_HAL_Driver/Src/stm32h5xx_hal_dma.c **** 
 2033              		.loc 1 1018 9 view .LVU695
 2034 0150 0023     		movs	r3, #0
 2035 0152 84F84C30 		strb	r3, [r4, #76]
1018:Drivers/STM32H5xx_HAL_Driver/Src/stm32h5xx_hal_dma.c **** 
 2036              		.loc 1 1018 9 view .LVU696
1021:Drivers/STM32H5xx_HAL_Driver/Src/stm32h5xx_hal_dma.c ****         {
 2037              		.loc 1 1021 9 view .LVU697
1021:Drivers/STM32H5xx_HAL_Driver/Src/stm32h5xx_hal_dma.c ****         {
 2038              		.loc 1 1021 17 is_stmt 0 view .LVU698
 2039 0156 E36E     		ldr	r3, [r4, #108]
1021:Drivers/STM32H5xx_HAL_Driver/Src/stm32h5xx_hal_dma.c ****         {
 2040              		.loc 1 1021 12 view .LVU699
 2041 0158 53B3     		cbz	r3, .L98
1024:Drivers/STM32H5xx_HAL_Driver/Src/stm32h5xx_hal_dma.c ****         }
 2042              		.loc 1 1024 11 is_stmt 1 view .LVU700
 2043 015a 2046     		mov	r0, r4
 2044 015c 9847     		blx	r3
 2045              	.LVL93:
1027:Drivers/STM32H5xx_HAL_Driver/Src/stm32h5xx_hal_dma.c ****       }
 2046              		.loc 1 1027 9 view .LVU701
 2047 015e 27E0     		b	.L98
 2048              	.L110:
1069:Drivers/STM32H5xx_HAL_Driver/Src/stm32h5xx_hal_dma.c ****         {
 2049              		.loc 1 1069 9 view .LVU702
1069:Drivers/STM32H5xx_HAL_Driver/Src/stm32h5xx_hal_dma.c ****         {
 2050              		.loc 1 1069 27 is_stmt 0 view .LVU703
 2051 0160 9B6C     		ldr	r3, [r3, #72]
1069:Drivers/STM32H5xx_HAL_Driver/Src/stm32h5xx_hal_dma.c ****         {
 2052              		.loc 1 1069 12 view .LVU704
 2053 0162 13B9     		cbnz	r3, .L111
1072:Drivers/STM32H5xx_HAL_Driver/Src/stm32h5xx_hal_dma.c ****         }
 2054              		.loc 1 1072 11 is_stmt 1 view .LVU705
1072:Drivers/STM32H5xx_HAL_Driver/Src/stm32h5xx_hal_dma.c ****         }
 2055              		.loc 1 1072 23 is_stmt 0 view .LVU706
 2056 0164 0123     		movs	r3, #1
1072:Drivers/STM32H5xx_HAL_Driver/Src/stm32h5xx_hal_dma.c ****         }
 2057              		.loc 1 1072 23 view .LVU707
 2058 0166 84F85430 		strb	r3, [r4, #84]
ARM GAS  /tmp/ccQkXeUE.s 			page 77


 2059              	.L111:
1077:Drivers/STM32H5xx_HAL_Driver/Src/stm32h5xx_hal_dma.c **** 
 2060              		.loc 1 1077 7 is_stmt 1 view .LVU708
 2061 016a 2368     		ldr	r3, [r4]
 2062 016c 4FF44072 		mov	r2, #768
 2063 0170 DA60     		str	r2, [r3, #12]
1080:Drivers/STM32H5xx_HAL_Driver/Src/stm32h5xx_hal_dma.c **** 
 2064              		.loc 1 1080 7 view .LVU709
1080:Drivers/STM32H5xx_HAL_Driver/Src/stm32h5xx_hal_dma.c **** 
 2065              		.loc 1 1080 7 view .LVU710
 2066 0172 0023     		movs	r3, #0
 2067 0174 84F84C30 		strb	r3, [r4, #76]
1080:Drivers/STM32H5xx_HAL_Driver/Src/stm32h5xx_hal_dma.c **** 
 2068              		.loc 1 1080 7 view .LVU711
1083:Drivers/STM32H5xx_HAL_Driver/Src/stm32h5xx_hal_dma.c ****       {
 2069              		.loc 1 1083 7 view .LVU712
1083:Drivers/STM32H5xx_HAL_Driver/Src/stm32h5xx_hal_dma.c ****       {
 2070              		.loc 1 1083 15 is_stmt 0 view .LVU713
 2071 0178 236E     		ldr	r3, [r4, #96]
1083:Drivers/STM32H5xx_HAL_Driver/Src/stm32h5xx_hal_dma.c ****       {
 2072              		.loc 1 1083 10 view .LVU714
 2073 017a 0BB1     		cbz	r3, .L109
1086:Drivers/STM32H5xx_HAL_Driver/Src/stm32h5xx_hal_dma.c ****       }
 2074              		.loc 1 1086 9 is_stmt 1 view .LVU715
 2075 017c 2046     		mov	r0, r4
 2076 017e 9847     		blx	r3
 2077              	.LVL94:
 2078              	.L109:
1092:Drivers/STM32H5xx_HAL_Driver/Src/stm32h5xx_hal_dma.c ****   {
 2079              		.loc 1 1092 3 view .LVU716
1092:Drivers/STM32H5xx_HAL_Driver/Src/stm32h5xx_hal_dma.c ****   {
 2080              		.loc 1 1092 11 is_stmt 0 view .LVU717
 2081 0180 A36D     		ldr	r3, [r4, #88]
1092:Drivers/STM32H5xx_HAL_Driver/Src/stm32h5xx_hal_dma.c ****   {
 2082              		.loc 1 1092 6 view .LVU718
 2083 0182 ABB1     		cbz	r3, .L98
1095:Drivers/STM32H5xx_HAL_Driver/Src/stm32h5xx_hal_dma.c **** 
 2084              		.loc 1 1095 5 is_stmt 1 view .LVU719
1095:Drivers/STM32H5xx_HAL_Driver/Src/stm32h5xx_hal_dma.c **** 
 2085              		.loc 1 1095 9 is_stmt 0 view .LVU720
 2086 0184 2268     		ldr	r2, [r4]
1095:Drivers/STM32H5xx_HAL_Driver/Src/stm32h5xx_hal_dma.c **** 
 2087              		.loc 1 1095 25 view .LVU721
 2088 0186 5369     		ldr	r3, [r2, #20]
 2089 0188 43F00203 		orr	r3, r3, #2
 2090 018c 5361     		str	r3, [r2, #20]
1098:Drivers/STM32H5xx_HAL_Driver/Src/stm32h5xx_hal_dma.c **** 
 2091              		.loc 1 1098 5 is_stmt 1 view .LVU722
1098:Drivers/STM32H5xx_HAL_Driver/Src/stm32h5xx_hal_dma.c **** 
 2092              		.loc 1 1098 17 is_stmt 0 view .LVU723
 2093 018e 0123     		movs	r3, #1
1098:Drivers/STM32H5xx_HAL_Driver/Src/stm32h5xx_hal_dma.c **** 
 2094              		.loc 1 1098 17 view .LVU724
 2095 0190 84F85430 		strb	r3, [r4, #84]
1101:Drivers/STM32H5xx_HAL_Driver/Src/stm32h5xx_hal_dma.c ****     {
 2096              		.loc 1 1101 5 is_stmt 1 view .LVU725
1101:Drivers/STM32H5xx_HAL_Driver/Src/stm32h5xx_hal_dma.c ****     {
ARM GAS  /tmp/ccQkXeUE.s 			page 78


 2097              		.loc 1 1101 14 is_stmt 0 view .LVU726
 2098 0194 236D     		ldr	r3, [r4, #80]
1101:Drivers/STM32H5xx_HAL_Driver/Src/stm32h5xx_hal_dma.c ****     {
 2099              		.loc 1 1101 8 view .LVU727
 2100 0196 13F0800F 		tst	r3, #128
 2101 019a 02D0     		beq	.L112
1104:Drivers/STM32H5xx_HAL_Driver/Src/stm32h5xx_hal_dma.c ****     }
 2102              		.loc 1 1104 7 is_stmt 1 view .LVU728
1104:Drivers/STM32H5xx_HAL_Driver/Src/stm32h5xx_hal_dma.c ****     }
 2103              		.loc 1 1104 11 is_stmt 0 view .LVU729
 2104 019c 636F     		ldr	r3, [r4, #116]
1104:Drivers/STM32H5xx_HAL_Driver/Src/stm32h5xx_hal_dma.c ****     }
 2105              		.loc 1 1104 36 view .LVU730
 2106 019e 0122     		movs	r2, #1
1104:Drivers/STM32H5xx_HAL_Driver/Src/stm32h5xx_hal_dma.c ****     }
 2107              		.loc 1 1104 36 view .LVU731
 2108 01a0 1A73     		strb	r2, [r3, #12]
 2109              	.L112:
1108:Drivers/STM32H5xx_HAL_Driver/Src/stm32h5xx_hal_dma.c **** 
 2110              		.loc 1 1108 5 is_stmt 1 view .LVU732
1108:Drivers/STM32H5xx_HAL_Driver/Src/stm32h5xx_hal_dma.c **** 
 2111              		.loc 1 1108 5 view .LVU733
 2112 01a2 0023     		movs	r3, #0
 2113 01a4 84F84C30 		strb	r3, [r4, #76]
1108:Drivers/STM32H5xx_HAL_Driver/Src/stm32h5xx_hal_dma.c **** 
 2114              		.loc 1 1108 5 view .LVU734
1111:Drivers/STM32H5xx_HAL_Driver/Src/stm32h5xx_hal_dma.c ****     {
 2115              		.loc 1 1111 5 view .LVU735
1111:Drivers/STM32H5xx_HAL_Driver/Src/stm32h5xx_hal_dma.c ****     {
 2116              		.loc 1 1111 13 is_stmt 0 view .LVU736
 2117 01a8 A36E     		ldr	r3, [r4, #104]
1111:Drivers/STM32H5xx_HAL_Driver/Src/stm32h5xx_hal_dma.c ****     {
 2118              		.loc 1 1111 8 view .LVU737
 2119 01aa 0BB1     		cbz	r3, .L98
1114:Drivers/STM32H5xx_HAL_Driver/Src/stm32h5xx_hal_dma.c ****     }
 2120              		.loc 1 1114 7 is_stmt 1 view .LVU738
 2121 01ac 2046     		mov	r0, r4
 2122 01ae 9847     		blx	r3
 2123              	.LVL95:
 2124              	.L98:
1117:Drivers/STM32H5xx_HAL_Driver/Src/stm32h5xx_hal_dma.c **** 
 2125              		.loc 1 1117 1 is_stmt 0 view .LVU739
 2126 01b0 10BD     		pop	{r4, pc}
1117:Drivers/STM32H5xx_HAL_Driver/Src/stm32h5xx_hal_dma.c **** 
 2127              		.loc 1 1117 1 view .LVU740
 2128              		.cfi_endproc
 2129              	.LFE368:
 2131              		.section	.text.HAL_DMA_RegisterCallback,"ax",%progbits
 2132              		.align	1
 2133              		.global	HAL_DMA_RegisterCallback
 2134              		.syntax unified
 2135              		.thumb
 2136              		.thumb_func
 2137              		.fpu fpv4-sp-d16
 2139              	HAL_DMA_RegisterCallback:
 2140              	.LVL96:
 2141              	.LFB369:
ARM GAS  /tmp/ccQkXeUE.s 			page 79


1132:Drivers/STM32H5xx_HAL_Driver/Src/stm32h5xx_hal_dma.c ****   HAL_StatusTypeDef status = HAL_OK;
 2142              		.loc 1 1132 1 is_stmt 1 view -0
 2143              		.cfi_startproc
 2144              		@ args = 0, pretend = 0, frame = 0
 2145              		@ frame_needed = 0, uses_anonymous_args = 0
 2146              		@ link register save eliminated.
1133:Drivers/STM32H5xx_HAL_Driver/Src/stm32h5xx_hal_dma.c **** 
 2147              		.loc 1 1133 3 view .LVU742
1136:Drivers/STM32H5xx_HAL_Driver/Src/stm32h5xx_hal_dma.c ****   {
 2148              		.loc 1 1136 3 view .LVU743
1136:Drivers/STM32H5xx_HAL_Driver/Src/stm32h5xx_hal_dma.c ****   {
 2149              		.loc 1 1136 6 is_stmt 0 view .LVU744
 2150 0000 0346     		mov	r3, r0
 2151 0002 E0B1     		cbz	r0, .L123
1142:Drivers/STM32H5xx_HAL_Driver/Src/stm32h5xx_hal_dma.c ****   {
 2152              		.loc 1 1142 3 is_stmt 1 view .LVU745
1142:Drivers/STM32H5xx_HAL_Driver/Src/stm32h5xx_hal_dma.c ****   {
 2153              		.loc 1 1142 11 is_stmt 0 view .LVU746
 2154 0004 90F85400 		ldrb	r0, [r0, #84]	@ zero_extendqisi2
 2155              	.LVL97:
1142:Drivers/STM32H5xx_HAL_Driver/Src/stm32h5xx_hal_dma.c ****   {
 2156              		.loc 1 1142 11 view .LVU747
 2157 0008 C0B2     		uxtb	r0, r0
1142:Drivers/STM32H5xx_HAL_Driver/Src/stm32h5xx_hal_dma.c ****   {
 2158              		.loc 1 1142 6 view .LVU748
 2159 000a 0128     		cmp	r0, #1
 2160 000c 01D0     		beq	.L125
1193:Drivers/STM32H5xx_HAL_Driver/Src/stm32h5xx_hal_dma.c ****   }
 2161              		.loc 1 1193 12 view .LVU749
 2162 000e 0120     		movs	r0, #1
 2163              	.L116:
 2164              	.LVL98:
1197:Drivers/STM32H5xx_HAL_Driver/Src/stm32h5xx_hal_dma.c **** 
 2165              		.loc 1 1197 1 view .LVU750
 2166 0010 7047     		bx	lr
 2167              	.LVL99:
 2168              	.L125:
1145:Drivers/STM32H5xx_HAL_Driver/Src/stm32h5xx_hal_dma.c ****     {
 2169              		.loc 1 1145 5 is_stmt 1 view .LVU751
 2170 0012 0429     		cmp	r1, #4
 2171 0014 FCD8     		bhi	.L116
 2172 0016 DFE801F0 		tbb	[pc, r1]
 2173              	.L118:
 2174 001a 03       		.byte	(.L122-.L118)/2
 2175 001b 06       		.byte	(.L121-.L118)/2
 2176 001c 09       		.byte	(.L120-.L118)/2
 2177 001d 0C       		.byte	(.L119-.L118)/2
 2178 001e 0F       		.byte	(.L117-.L118)/2
 2179 001f 00       		.p2align 1
 2180              	.L122:
1150:Drivers/STM32H5xx_HAL_Driver/Src/stm32h5xx_hal_dma.c ****         break;
 2181              		.loc 1 1150 9 view .LVU752
1150:Drivers/STM32H5xx_HAL_Driver/Src/stm32h5xx_hal_dma.c ****         break;
 2182              		.loc 1 1150 32 is_stmt 0 view .LVU753
 2183 0020 1A66     		str	r2, [r3, #96]
1151:Drivers/STM32H5xx_HAL_Driver/Src/stm32h5xx_hal_dma.c ****       }
 2184              		.loc 1 1151 9 is_stmt 1 view .LVU754
ARM GAS  /tmp/ccQkXeUE.s 			page 80


1133:Drivers/STM32H5xx_HAL_Driver/Src/stm32h5xx_hal_dma.c **** 
 2185              		.loc 1 1133 21 is_stmt 0 view .LVU755
 2186 0022 0846     		mov	r0, r1
1151:Drivers/STM32H5xx_HAL_Driver/Src/stm32h5xx_hal_dma.c ****       }
 2187              		.loc 1 1151 9 view .LVU756
 2188 0024 7047     		bx	lr
 2189              	.L121:
1157:Drivers/STM32H5xx_HAL_Driver/Src/stm32h5xx_hal_dma.c ****         break;
 2190              		.loc 1 1157 9 is_stmt 1 view .LVU757
1157:Drivers/STM32H5xx_HAL_Driver/Src/stm32h5xx_hal_dma.c ****         break;
 2191              		.loc 1 1157 36 is_stmt 0 view .LVU758
 2192 0026 5A66     		str	r2, [r3, #100]
1158:Drivers/STM32H5xx_HAL_Driver/Src/stm32h5xx_hal_dma.c ****       }
 2193              		.loc 1 1158 9 is_stmt 1 view .LVU759
1133:Drivers/STM32H5xx_HAL_Driver/Src/stm32h5xx_hal_dma.c **** 
 2194              		.loc 1 1133 21 is_stmt 0 view .LVU760
 2195 0028 0020     		movs	r0, #0
1158:Drivers/STM32H5xx_HAL_Driver/Src/stm32h5xx_hal_dma.c ****       }
 2196              		.loc 1 1158 9 view .LVU761
 2197 002a 7047     		bx	lr
 2198              	.L120:
1164:Drivers/STM32H5xx_HAL_Driver/Src/stm32h5xx_hal_dma.c ****         break;
 2199              		.loc 1 1164 9 is_stmt 1 view .LVU762
1164:Drivers/STM32H5xx_HAL_Driver/Src/stm32h5xx_hal_dma.c ****         break;
 2200              		.loc 1 1164 33 is_stmt 0 view .LVU763
 2201 002c 9A66     		str	r2, [r3, #104]
1165:Drivers/STM32H5xx_HAL_Driver/Src/stm32h5xx_hal_dma.c ****       }
 2202              		.loc 1 1165 9 is_stmt 1 view .LVU764
1133:Drivers/STM32H5xx_HAL_Driver/Src/stm32h5xx_hal_dma.c **** 
 2203              		.loc 1 1133 21 is_stmt 0 view .LVU765
 2204 002e 0020     		movs	r0, #0
1165:Drivers/STM32H5xx_HAL_Driver/Src/stm32h5xx_hal_dma.c ****       }
 2205              		.loc 1 1165 9 view .LVU766
 2206 0030 7047     		bx	lr
 2207              	.L119:
1171:Drivers/STM32H5xx_HAL_Driver/Src/stm32h5xx_hal_dma.c ****         break;
 2208              		.loc 1 1171 9 is_stmt 1 view .LVU767
1171:Drivers/STM32H5xx_HAL_Driver/Src/stm32h5xx_hal_dma.c ****         break;
 2209              		.loc 1 1171 33 is_stmt 0 view .LVU768
 2210 0032 DA66     		str	r2, [r3, #108]
1172:Drivers/STM32H5xx_HAL_Driver/Src/stm32h5xx_hal_dma.c ****       }
 2211              		.loc 1 1172 9 is_stmt 1 view .LVU769
1133:Drivers/STM32H5xx_HAL_Driver/Src/stm32h5xx_hal_dma.c **** 
 2212              		.loc 1 1133 21 is_stmt 0 view .LVU770
 2213 0034 0020     		movs	r0, #0
1172:Drivers/STM32H5xx_HAL_Driver/Src/stm32h5xx_hal_dma.c ****       }
 2214              		.loc 1 1172 9 view .LVU771
 2215 0036 7047     		bx	lr
 2216              	.L117:
1178:Drivers/STM32H5xx_HAL_Driver/Src/stm32h5xx_hal_dma.c ****         break;
 2217              		.loc 1 1178 9 is_stmt 1 view .LVU772
1178:Drivers/STM32H5xx_HAL_Driver/Src/stm32h5xx_hal_dma.c ****         break;
 2218              		.loc 1 1178 35 is_stmt 0 view .LVU773
 2219 0038 1A67     		str	r2, [r3, #112]
1179:Drivers/STM32H5xx_HAL_Driver/Src/stm32h5xx_hal_dma.c ****       }
 2220              		.loc 1 1179 9 is_stmt 1 view .LVU774
1133:Drivers/STM32H5xx_HAL_Driver/Src/stm32h5xx_hal_dma.c **** 
ARM GAS  /tmp/ccQkXeUE.s 			page 81


 2221              		.loc 1 1133 21 is_stmt 0 view .LVU775
 2222 003a 0020     		movs	r0, #0
1179:Drivers/STM32H5xx_HAL_Driver/Src/stm32h5xx_hal_dma.c ****       }
 2223              		.loc 1 1179 9 view .LVU776
 2224 003c 7047     		bx	lr
 2225              	.LVL100:
 2226              	.L123:
1138:Drivers/STM32H5xx_HAL_Driver/Src/stm32h5xx_hal_dma.c ****   }
 2227              		.loc 1 1138 12 view .LVU777
 2228 003e 0120     		movs	r0, #1
 2229              	.LVL101:
1138:Drivers/STM32H5xx_HAL_Driver/Src/stm32h5xx_hal_dma.c ****   }
 2230              		.loc 1 1138 12 view .LVU778
 2231 0040 7047     		bx	lr
 2232              		.cfi_endproc
 2233              	.LFE369:
 2235              		.section	.text.HAL_DMA_UnRegisterCallback,"ax",%progbits
 2236              		.align	1
 2237              		.global	HAL_DMA_UnRegisterCallback
 2238              		.syntax unified
 2239              		.thumb
 2240              		.thumb_func
 2241              		.fpu fpv4-sp-d16
 2243              	HAL_DMA_UnRegisterCallback:
 2244              	.LVL102:
 2245              	.LFB370:
1210:Drivers/STM32H5xx_HAL_Driver/Src/stm32h5xx_hal_dma.c ****   HAL_StatusTypeDef status = HAL_OK;
 2246              		.loc 1 1210 1 is_stmt 1 view -0
 2247              		.cfi_startproc
 2248              		@ args = 0, pretend = 0, frame = 0
 2249              		@ frame_needed = 0, uses_anonymous_args = 0
 2250              		@ link register save eliminated.
1211:Drivers/STM32H5xx_HAL_Driver/Src/stm32h5xx_hal_dma.c **** 
 2251              		.loc 1 1211 3 view .LVU780
1214:Drivers/STM32H5xx_HAL_Driver/Src/stm32h5xx_hal_dma.c ****   {
 2252              		.loc 1 1214 3 view .LVU781
1214:Drivers/STM32H5xx_HAL_Driver/Src/stm32h5xx_hal_dma.c ****   {
 2253              		.loc 1 1214 6 is_stmt 0 view .LVU782
 2254 0000 0346     		mov	r3, r0
 2255 0002 20B3     		cbz	r0, .L135
1220:Drivers/STM32H5xx_HAL_Driver/Src/stm32h5xx_hal_dma.c ****   {
 2256              		.loc 1 1220 3 is_stmt 1 view .LVU783
1220:Drivers/STM32H5xx_HAL_Driver/Src/stm32h5xx_hal_dma.c ****   {
 2257              		.loc 1 1220 11 is_stmt 0 view .LVU784
 2258 0004 90F85400 		ldrb	r0, [r0, #84]	@ zero_extendqisi2
 2259              	.LVL103:
1220:Drivers/STM32H5xx_HAL_Driver/Src/stm32h5xx_hal_dma.c ****   {
 2260              		.loc 1 1220 11 view .LVU785
 2261 0008 C0B2     		uxtb	r0, r0
1220:Drivers/STM32H5xx_HAL_Driver/Src/stm32h5xx_hal_dma.c ****   {
 2262              		.loc 1 1220 6 view .LVU786
 2263 000a 0128     		cmp	r0, #1
 2264 000c 01D0     		beq	.L137
1282:Drivers/STM32H5xx_HAL_Driver/Src/stm32h5xx_hal_dma.c ****   }
 2265              		.loc 1 1282 12 view .LVU787
 2266 000e 0120     		movs	r0, #1
 2267              	.L127:
ARM GAS  /tmp/ccQkXeUE.s 			page 82


 2268              	.LVL104:
1286:Drivers/STM32H5xx_HAL_Driver/Src/stm32h5xx_hal_dma.c **** /**
 2269              		.loc 1 1286 1 view .LVU788
 2270 0010 7047     		bx	lr
 2271              	.LVL105:
 2272              	.L137:
1223:Drivers/STM32H5xx_HAL_Driver/Src/stm32h5xx_hal_dma.c ****     {
 2273              		.loc 1 1223 5 is_stmt 1 view .LVU789
 2274 0012 0529     		cmp	r1, #5
 2275 0014 FCD8     		bhi	.L127
 2276 0016 DFE801F0 		tbb	[pc, r1]
 2277              	.L129:
 2278 001a 03       		.byte	(.L134-.L129)/2
 2279 001b 07       		.byte	(.L133-.L129)/2
 2280 001c 0A       		.byte	(.L132-.L129)/2
 2281 001d 0D       		.byte	(.L131-.L129)/2
 2282 001e 10       		.byte	(.L130-.L129)/2
 2283 001f 13       		.byte	(.L128-.L129)/2
 2284              		.p2align 1
 2285              	.L134:
1228:Drivers/STM32H5xx_HAL_Driver/Src/stm32h5xx_hal_dma.c ****         break;
 2286              		.loc 1 1228 9 view .LVU790
1228:Drivers/STM32H5xx_HAL_Driver/Src/stm32h5xx_hal_dma.c ****         break;
 2287              		.loc 1 1228 32 is_stmt 0 view .LVU791
 2288 0020 0022     		movs	r2, #0
 2289 0022 1A66     		str	r2, [r3, #96]
1229:Drivers/STM32H5xx_HAL_Driver/Src/stm32h5xx_hal_dma.c ****       }
 2290              		.loc 1 1229 9 is_stmt 1 view .LVU792
1211:Drivers/STM32H5xx_HAL_Driver/Src/stm32h5xx_hal_dma.c **** 
 2291              		.loc 1 1211 21 is_stmt 0 view .LVU793
 2292 0024 0846     		mov	r0, r1
1229:Drivers/STM32H5xx_HAL_Driver/Src/stm32h5xx_hal_dma.c ****       }
 2293              		.loc 1 1229 9 view .LVU794
 2294 0026 7047     		bx	lr
 2295              	.L133:
1235:Drivers/STM32H5xx_HAL_Driver/Src/stm32h5xx_hal_dma.c ****         break;
 2296              		.loc 1 1235 9 is_stmt 1 view .LVU795
1235:Drivers/STM32H5xx_HAL_Driver/Src/stm32h5xx_hal_dma.c ****         break;
 2297              		.loc 1 1235 36 is_stmt 0 view .LVU796
 2298 0028 0020     		movs	r0, #0
 2299 002a 5866     		str	r0, [r3, #100]
1236:Drivers/STM32H5xx_HAL_Driver/Src/stm32h5xx_hal_dma.c ****       }
 2300              		.loc 1 1236 9 is_stmt 1 view .LVU797
 2301 002c 7047     		bx	lr
 2302              	.L132:
1242:Drivers/STM32H5xx_HAL_Driver/Src/stm32h5xx_hal_dma.c ****         break;
 2303              		.loc 1 1242 9 view .LVU798
1242:Drivers/STM32H5xx_HAL_Driver/Src/stm32h5xx_hal_dma.c ****         break;
 2304              		.loc 1 1242 33 is_stmt 0 view .LVU799
 2305 002e 0020     		movs	r0, #0
 2306 0030 9866     		str	r0, [r3, #104]
1243:Drivers/STM32H5xx_HAL_Driver/Src/stm32h5xx_hal_dma.c ****       }
 2307              		.loc 1 1243 9 is_stmt 1 view .LVU800
 2308 0032 7047     		bx	lr
 2309              	.L131:
1249:Drivers/STM32H5xx_HAL_Driver/Src/stm32h5xx_hal_dma.c ****         break;
 2310              		.loc 1 1249 9 view .LVU801
ARM GAS  /tmp/ccQkXeUE.s 			page 83


1249:Drivers/STM32H5xx_HAL_Driver/Src/stm32h5xx_hal_dma.c ****         break;
 2311              		.loc 1 1249 33 is_stmt 0 view .LVU802
 2312 0034 0020     		movs	r0, #0
 2313 0036 D866     		str	r0, [r3, #108]
1250:Drivers/STM32H5xx_HAL_Driver/Src/stm32h5xx_hal_dma.c ****       }
 2314              		.loc 1 1250 9 is_stmt 1 view .LVU803
 2315 0038 7047     		bx	lr
 2316              	.L130:
1256:Drivers/STM32H5xx_HAL_Driver/Src/stm32h5xx_hal_dma.c ****         break;
 2317              		.loc 1 1256 9 view .LVU804
1256:Drivers/STM32H5xx_HAL_Driver/Src/stm32h5xx_hal_dma.c ****         break;
 2318              		.loc 1 1256 35 is_stmt 0 view .LVU805
 2319 003a 0020     		movs	r0, #0
 2320 003c 1867     		str	r0, [r3, #112]
1257:Drivers/STM32H5xx_HAL_Driver/Src/stm32h5xx_hal_dma.c ****       }
 2321              		.loc 1 1257 9 is_stmt 1 view .LVU806
 2322 003e 7047     		bx	lr
 2323              	.L128:
1263:Drivers/STM32H5xx_HAL_Driver/Src/stm32h5xx_hal_dma.c ****         hdma->XferHalfCpltCallback = NULL;
 2324              		.loc 1 1263 9 view .LVU807
1263:Drivers/STM32H5xx_HAL_Driver/Src/stm32h5xx_hal_dma.c ****         hdma->XferHalfCpltCallback = NULL;
 2325              		.loc 1 1263 36 is_stmt 0 view .LVU808
 2326 0040 0020     		movs	r0, #0
 2327 0042 1866     		str	r0, [r3, #96]
1264:Drivers/STM32H5xx_HAL_Driver/Src/stm32h5xx_hal_dma.c ****         hdma->XferErrorCallback    = NULL;
 2328              		.loc 1 1264 9 is_stmt 1 view .LVU809
1264:Drivers/STM32H5xx_HAL_Driver/Src/stm32h5xx_hal_dma.c ****         hdma->XferErrorCallback    = NULL;
 2329              		.loc 1 1264 36 is_stmt 0 view .LVU810
 2330 0044 5866     		str	r0, [r3, #100]
1265:Drivers/STM32H5xx_HAL_Driver/Src/stm32h5xx_hal_dma.c ****         hdma->XferAbortCallback    = NULL;
 2331              		.loc 1 1265 9 is_stmt 1 view .LVU811
1265:Drivers/STM32H5xx_HAL_Driver/Src/stm32h5xx_hal_dma.c ****         hdma->XferAbortCallback    = NULL;
 2332              		.loc 1 1265 36 is_stmt 0 view .LVU812
 2333 0046 9866     		str	r0, [r3, #104]
1266:Drivers/STM32H5xx_HAL_Driver/Src/stm32h5xx_hal_dma.c ****         hdma->XferSuspendCallback  = NULL;
 2334              		.loc 1 1266 9 is_stmt 1 view .LVU813
1266:Drivers/STM32H5xx_HAL_Driver/Src/stm32h5xx_hal_dma.c ****         hdma->XferSuspendCallback  = NULL;
 2335              		.loc 1 1266 36 is_stmt 0 view .LVU814
 2336 0048 D866     		str	r0, [r3, #108]
1267:Drivers/STM32H5xx_HAL_Driver/Src/stm32h5xx_hal_dma.c ****         break;
 2337              		.loc 1 1267 9 is_stmt 1 view .LVU815
1267:Drivers/STM32H5xx_HAL_Driver/Src/stm32h5xx_hal_dma.c ****         break;
 2338              		.loc 1 1267 36 is_stmt 0 view .LVU816
 2339 004a 1867     		str	r0, [r3, #112]
1268:Drivers/STM32H5xx_HAL_Driver/Src/stm32h5xx_hal_dma.c ****       }
 2340              		.loc 1 1268 9 is_stmt 1 view .LVU817
 2341 004c 7047     		bx	lr
 2342              	.LVL106:
 2343              	.L135:
1216:Drivers/STM32H5xx_HAL_Driver/Src/stm32h5xx_hal_dma.c ****   }
 2344              		.loc 1 1216 12 is_stmt 0 view .LVU818
 2345 004e 0120     		movs	r0, #1
 2346              	.LVL107:
1216:Drivers/STM32H5xx_HAL_Driver/Src/stm32h5xx_hal_dma.c ****   }
 2347              		.loc 1 1216 12 view .LVU819
 2348 0050 7047     		bx	lr
 2349              		.cfi_endproc
ARM GAS  /tmp/ccQkXeUE.s 			page 84


 2350              	.LFE370:
 2352              		.section	.text.HAL_DMA_GetState,"ax",%progbits
 2353              		.align	1
 2354              		.global	HAL_DMA_GetState
 2355              		.syntax unified
 2356              		.thumb
 2357              		.thumb_func
 2358              		.fpu fpv4-sp-d16
 2360              	HAL_DMA_GetState:
 2361              	.LVL108:
 2362              	.LFB371:
1317:Drivers/STM32H5xx_HAL_Driver/Src/stm32h5xx_hal_dma.c ****   /* Return the DMA channel state */
 2363              		.loc 1 1317 1 is_stmt 1 view -0
 2364              		.cfi_startproc
 2365              		@ args = 0, pretend = 0, frame = 0
 2366              		@ frame_needed = 0, uses_anonymous_args = 0
 2367              		@ link register save eliminated.
1319:Drivers/STM32H5xx_HAL_Driver/Src/stm32h5xx_hal_dma.c **** }
 2368              		.loc 1 1319 3 view .LVU821
1319:Drivers/STM32H5xx_HAL_Driver/Src/stm32h5xx_hal_dma.c **** }
 2369              		.loc 1 1319 14 is_stmt 0 view .LVU822
 2370 0000 90F85400 		ldrb	r0, [r0, #84]	@ zero_extendqisi2
 2371              	.LVL109:
1320:Drivers/STM32H5xx_HAL_Driver/Src/stm32h5xx_hal_dma.c **** 
 2372              		.loc 1 1320 1 view .LVU823
 2373 0004 7047     		bx	lr
 2374              		.cfi_endproc
 2375              	.LFE371:
 2377              		.section	.text.HAL_DMA_GetError,"ax",%progbits
 2378              		.align	1
 2379              		.global	HAL_DMA_GetError
 2380              		.syntax unified
 2381              		.thumb
 2382              		.thumb_func
 2383              		.fpu fpv4-sp-d16
 2385              	HAL_DMA_GetError:
 2386              	.LVL110:
 2387              	.LFB372:
1329:Drivers/STM32H5xx_HAL_Driver/Src/stm32h5xx_hal_dma.c ****   /* Return the DMA channel error code */
 2388              		.loc 1 1329 1 is_stmt 1 view -0
 2389              		.cfi_startproc
 2390              		@ args = 0, pretend = 0, frame = 0
 2391              		@ frame_needed = 0, uses_anonymous_args = 0
 2392              		@ link register save eliminated.
1331:Drivers/STM32H5xx_HAL_Driver/Src/stm32h5xx_hal_dma.c **** }
 2393              		.loc 1 1331 3 view .LVU825
1331:Drivers/STM32H5xx_HAL_Driver/Src/stm32h5xx_hal_dma.c **** }
 2394              		.loc 1 1331 14 is_stmt 0 view .LVU826
 2395 0000 806D     		ldr	r0, [r0, #88]
 2396              	.LVL111:
1332:Drivers/STM32H5xx_HAL_Driver/Src/stm32h5xx_hal_dma.c **** /**
 2397              		.loc 1 1332 1 view .LVU827
 2398 0002 7047     		bx	lr
 2399              		.cfi_endproc
 2400              	.LFE372:
 2402              		.section	.text.HAL_DMA_ConfigChannelAttributes,"ax",%progbits
 2403              		.align	1
ARM GAS  /tmp/ccQkXeUE.s 			page 85


 2404              		.global	HAL_DMA_ConfigChannelAttributes
 2405              		.syntax unified
 2406              		.thumb
 2407              		.thumb_func
 2408              		.fpu fpv4-sp-d16
 2410              	HAL_DMA_ConfigChannelAttributes:
 2411              	.LVL112:
 2412              	.LFB373:
1373:Drivers/STM32H5xx_HAL_Driver/Src/stm32h5xx_hal_dma.c ****   DMA_TypeDef *p_dma_instance;
 2413              		.loc 1 1373 1 is_stmt 1 view -0
 2414              		.cfi_startproc
 2415              		@ args = 0, pretend = 0, frame = 0
 2416              		@ frame_needed = 0, uses_anonymous_args = 0
 2417              		@ link register save eliminated.
1374:Drivers/STM32H5xx_HAL_Driver/Src/stm32h5xx_hal_dma.c ****   uint32_t channel_idx;
 2418              		.loc 1 1374 3 view .LVU829
1375:Drivers/STM32H5xx_HAL_Driver/Src/stm32h5xx_hal_dma.c **** 
 2419              		.loc 1 1375 3 view .LVU830
1378:Drivers/STM32H5xx_HAL_Driver/Src/stm32h5xx_hal_dma.c ****   {
 2420              		.loc 1 1378 3 view .LVU831
1378:Drivers/STM32H5xx_HAL_Driver/Src/stm32h5xx_hal_dma.c ****   {
 2421              		.loc 1 1378 6 is_stmt 0 view .LVU832
 2422 0000 F0B1     		cbz	r0, .L143
1384:Drivers/STM32H5xx_HAL_Driver/Src/stm32h5xx_hal_dma.c **** 
 2423              		.loc 1 1384 3 is_stmt 1 view .LVU833
1387:Drivers/STM32H5xx_HAL_Driver/Src/stm32h5xx_hal_dma.c **** 
 2424              		.loc 1 1387 3 view .LVU834
1387:Drivers/STM32H5xx_HAL_Driver/Src/stm32h5xx_hal_dma.c **** 
 2425              		.loc 1 1387 20 is_stmt 0 view .LVU835
 2426 0002 0368     		ldr	r3, [r0]
 2427 0004 23F47F62 		bic	r2, r3, #4080
 2428 0008 22F00F02 		bic	r2, r2, #15
 2429              	.LVL113:
1390:Drivers/STM32H5xx_HAL_Driver/Src/stm32h5xx_hal_dma.c **** 
 2430              		.loc 1 1390 3 is_stmt 1 view .LVU836
1390:Drivers/STM32H5xx_HAL_Driver/Src/stm32h5xx_hal_dma.c **** 
 2431              		.loc 1 1390 25 is_stmt 0 view .LVU837
 2432 000c C3F30B03 		ubfx	r3, r3, #0, #12
 2433 0010 503B     		subs	r3, r3, #80
1390:Drivers/STM32H5xx_HAL_Driver/Src/stm32h5xx_hal_dma.c **** 
 2434              		.loc 1 1390 47 view .LVU838
 2435 0012 C3F3C413 		ubfx	r3, r3, #7, #5
1390:Drivers/STM32H5xx_HAL_Driver/Src/stm32h5xx_hal_dma.c **** 
 2436              		.loc 1 1390 15 view .LVU839
 2437 0016 0120     		movs	r0, #1
 2438              	.LVL114:
1390:Drivers/STM32H5xx_HAL_Driver/Src/stm32h5xx_hal_dma.c **** 
 2439              		.loc 1 1390 15 view .LVU840
 2440 0018 00FA03F3 		lsl	r3, r0, r3
 2441              	.LVL115:
1393:Drivers/STM32H5xx_HAL_Driver/Src/stm32h5xx_hal_dma.c ****   {
 2442              		.loc 1 1393 3 is_stmt 1 view .LVU841
1393:Drivers/STM32H5xx_HAL_Driver/Src/stm32h5xx_hal_dma.c ****   {
 2443              		.loc 1 1393 6 is_stmt 0 view .LVU842
 2444 001c 11F0100F 		tst	r1, #16
 2445 0020 10D0     		beq	.L144
1396:Drivers/STM32H5xx_HAL_Driver/Src/stm32h5xx_hal_dma.c ****     {
ARM GAS  /tmp/ccQkXeUE.s 			page 86


 2446              		.loc 1 1396 5 is_stmt 1 view .LVU843
1396:Drivers/STM32H5xx_HAL_Driver/Src/stm32h5xx_hal_dma.c ****     {
 2447              		.loc 1 1396 28 is_stmt 0 view .LVU844
 2448 0022 01F01101 		and	r1, r1, #17
 2449              	.LVL116:
1396:Drivers/STM32H5xx_HAL_Driver/Src/stm32h5xx_hal_dma.c ****     {
 2450              		.loc 1 1396 8 view .LVU845
 2451 0026 1129     		cmp	r1, #17
 2452 0028 05D0     		beq	.L145
1402:Drivers/STM32H5xx_HAL_Driver/Src/stm32h5xx_hal_dma.c ****     }
 2453              		.loc 1 1402 7 is_stmt 1 view .LVU846
1402:Drivers/STM32H5xx_HAL_Driver/Src/stm32h5xx_hal_dma.c ****     }
 2454              		.loc 1 1402 32 is_stmt 0 view .LVU847
 2455 002a 5068     		ldr	r0, [r2, #4]
 2456 002c 20EA0303 		bic	r3, r0, r3
 2457              	.LVL117:
1402:Drivers/STM32H5xx_HAL_Driver/Src/stm32h5xx_hal_dma.c ****     }
 2458              		.loc 1 1402 32 view .LVU848
 2459 0030 5360     		str	r3, [r2, #4]
 2460              	.LVL118:
1450:Drivers/STM32H5xx_HAL_Driver/Src/stm32h5xx_hal_dma.c **** }
 2461              		.loc 1 1450 10 view .LVU849
 2462 0032 0020     		movs	r0, #0
 2463 0034 7047     		bx	lr
 2464              	.LVL119:
 2465              	.L145:
1398:Drivers/STM32H5xx_HAL_Driver/Src/stm32h5xx_hal_dma.c ****     }
 2466              		.loc 1 1398 7 is_stmt 1 view .LVU850
1398:Drivers/STM32H5xx_HAL_Driver/Src/stm32h5xx_hal_dma.c ****     }
 2467              		.loc 1 1398 32 is_stmt 0 view .LVU851
 2468 0036 5068     		ldr	r0, [r2, #4]
 2469 0038 0343     		orrs	r3, r3, r0
 2470              	.LVL120:
1398:Drivers/STM32H5xx_HAL_Driver/Src/stm32h5xx_hal_dma.c ****     }
 2471              		.loc 1 1398 32 view .LVU852
 2472 003a 5360     		str	r3, [r2, #4]
 2473              	.LVL121:
1450:Drivers/STM32H5xx_HAL_Driver/Src/stm32h5xx_hal_dma.c **** }
 2474              		.loc 1 1450 10 view .LVU853
 2475 003c 0020     		movs	r0, #0
 2476 003e 7047     		bx	lr
 2477              	.LVL122:
 2478              	.L143:
1380:Drivers/STM32H5xx_HAL_Driver/Src/stm32h5xx_hal_dma.c ****   }
 2479              		.loc 1 1380 12 view .LVU854
 2480 0040 0120     		movs	r0, #1
 2481              	.LVL123:
1380:Drivers/STM32H5xx_HAL_Driver/Src/stm32h5xx_hal_dma.c ****   }
 2482              		.loc 1 1380 12 view .LVU855
 2483 0042 7047     		bx	lr
 2484              	.LVL124:
 2485              	.L144:
1450:Drivers/STM32H5xx_HAL_Driver/Src/stm32h5xx_hal_dma.c **** }
 2486              		.loc 1 1450 10 view .LVU856
 2487 0044 0020     		movs	r0, #0
1451:Drivers/STM32H5xx_HAL_Driver/Src/stm32h5xx_hal_dma.c **** 
 2488              		.loc 1 1451 1 view .LVU857
ARM GAS  /tmp/ccQkXeUE.s 			page 87


 2489 0046 7047     		bx	lr
 2490              		.cfi_endproc
 2491              	.LFE373:
 2493              		.section	.text.HAL_DMA_GetConfigChannelAttributes,"ax",%progbits
 2494              		.align	1
 2495              		.global	HAL_DMA_GetConfigChannelAttributes
 2496              		.syntax unified
 2497              		.thumb
 2498              		.thumb_func
 2499              		.fpu fpv4-sp-d16
 2501              	HAL_DMA_GetConfigChannelAttributes:
 2502              	.LVL125:
 2503              	.LFB374:
1462:Drivers/STM32H5xx_HAL_Driver/Src/stm32h5xx_hal_dma.c ****   const DMA_TypeDef *p_dma_instance;
 2504              		.loc 1 1462 1 is_stmt 1 view -0
 2505              		.cfi_startproc
 2506              		@ args = 0, pretend = 0, frame = 0
 2507              		@ frame_needed = 0, uses_anonymous_args = 0
 2508              		@ link register save eliminated.
1463:Drivers/STM32H5xx_HAL_Driver/Src/stm32h5xx_hal_dma.c ****   uint32_t attributes;
 2509              		.loc 1 1463 3 view .LVU859
1464:Drivers/STM32H5xx_HAL_Driver/Src/stm32h5xx_hal_dma.c ****   uint32_t channel_idx;
 2510              		.loc 1 1464 3 view .LVU860
1465:Drivers/STM32H5xx_HAL_Driver/Src/stm32h5xx_hal_dma.c **** 
 2511              		.loc 1 1465 3 view .LVU861
1468:Drivers/STM32H5xx_HAL_Driver/Src/stm32h5xx_hal_dma.c ****   {
 2512              		.loc 1 1468 3 view .LVU862
1468:Drivers/STM32H5xx_HAL_Driver/Src/stm32h5xx_hal_dma.c ****   {
 2513              		.loc 1 1468 6 is_stmt 0 view .LVU863
 2514 0000 88B3     		cbz	r0, .L152
1468:Drivers/STM32H5xx_HAL_Driver/Src/stm32h5xx_hal_dma.c ****   {
 2515              		.loc 1 1468 22 discriminator 1 view .LVU864
 2516 0002 91B3     		cbz	r1, .L153
1462:Drivers/STM32H5xx_HAL_Driver/Src/stm32h5xx_hal_dma.c ****   const DMA_TypeDef *p_dma_instance;
 2517              		.loc 1 1462 1 view .LVU865
 2518 0004 10B4     		push	{r4}
 2519              	.LCFI16:
 2520              		.cfi_def_cfa_offset 4
 2521              		.cfi_offset 4, -4
1474:Drivers/STM32H5xx_HAL_Driver/Src/stm32h5xx_hal_dma.c **** 
 2522              		.loc 1 1474 3 is_stmt 1 view .LVU866
1474:Drivers/STM32H5xx_HAL_Driver/Src/stm32h5xx_hal_dma.c **** 
 2523              		.loc 1 1474 20 is_stmt 0 view .LVU867
 2524 0006 0268     		ldr	r2, [r0]
 2525 0008 22F47F6C 		bic	ip, r2, #4080
 2526 000c 2CF00F0C 		bic	ip, ip, #15
 2527              	.LVL126:
1477:Drivers/STM32H5xx_HAL_Driver/Src/stm32h5xx_hal_dma.c **** 
 2528              		.loc 1 1477 3 is_stmt 1 view .LVU868
1477:Drivers/STM32H5xx_HAL_Driver/Src/stm32h5xx_hal_dma.c **** 
 2529              		.loc 1 1477 25 is_stmt 0 view .LVU869
 2530 0010 C2F30B03 		ubfx	r3, r2, #0, #12
 2531 0014 503B     		subs	r3, r3, #80
1477:Drivers/STM32H5xx_HAL_Driver/Src/stm32h5xx_hal_dma.c **** 
 2532              		.loc 1 1477 47 view .LVU870
 2533 0016 C3F3C413 		ubfx	r3, r3, #7, #5
1477:Drivers/STM32H5xx_HAL_Driver/Src/stm32h5xx_hal_dma.c **** 
ARM GAS  /tmp/ccQkXeUE.s 			page 88


 2534              		.loc 1 1477 15 view .LVU871
 2535 001a 0120     		movs	r0, #1
 2536              	.LVL127:
1477:Drivers/STM32H5xx_HAL_Driver/Src/stm32h5xx_hal_dma.c **** 
 2537              		.loc 1 1477 15 view .LVU872
 2538 001c 00FA03F3 		lsl	r3, r0, r3
 2539              	.LVL128:
1480:Drivers/STM32H5xx_HAL_Driver/Src/stm32h5xx_hal_dma.c **** 
 2540              		.loc 1 1480 3 is_stmt 1 view .LVU873
1480:Drivers/STM32H5xx_HAL_Driver/Src/stm32h5xx_hal_dma.c **** 
 2541              		.loc 1 1480 32 is_stmt 0 view .LVU874
 2542 0020 DCF80400 		ldr	r0, [ip, #4]
1480:Drivers/STM32H5xx_HAL_Driver/Src/stm32h5xx_hal_dma.c **** 
 2543              		.loc 1 1480 85 view .LVU875
 2544 0024 1842     		tst	r0, r3
 2545 0026 16D1     		bne	.L154
 2546 0028 1020     		movs	r0, #16
 2547              	.L148:
 2548              	.LVL129:
1484:Drivers/STM32H5xx_HAL_Driver/Src/stm32h5xx_hal_dma.c **** 
 2549              		.loc 1 1484 3 is_stmt 1 discriminator 4 view .LVU876
1484:Drivers/STM32H5xx_HAL_Driver/Src/stm32h5xx_hal_dma.c **** 
 2550              		.loc 1 1484 33 is_stmt 0 discriminator 4 view .LVU877
 2551 002a DCF80040 		ldr	r4, [ip]
1484:Drivers/STM32H5xx_HAL_Driver/Src/stm32h5xx_hal_dma.c **** 
 2552              		.loc 1 1484 84 discriminator 4 view .LVU878
 2553 002e 1C42     		tst	r4, r3
 2554 0030 13D1     		bne	.L155
1484:Drivers/STM32H5xx_HAL_Driver/Src/stm32h5xx_hal_dma.c **** 
 2555              		.loc 1 1484 84 view .LVU879
 2556 0032 2023     		movs	r3, #32
 2557              	.LVL130:
 2558              	.L149:
1484:Drivers/STM32H5xx_HAL_Driver/Src/stm32h5xx_hal_dma.c **** 
 2559              		.loc 1 1484 14 discriminator 4 view .LVU880
 2560 0034 1843     		orrs	r0, r0, r3
 2561              	.LVL131:
1487:Drivers/STM32H5xx_HAL_Driver/Src/stm32h5xx_hal_dma.c **** 
 2562              		.loc 1 1487 3 is_stmt 1 discriminator 4 view .LVU881
1487:Drivers/STM32H5xx_HAL_Driver/Src/stm32h5xx_hal_dma.c **** 
 2563              		.loc 1 1487 33 is_stmt 0 discriminator 4 view .LVU882
 2564 0036 136C     		ldr	r3, [r2, #64]
1487:Drivers/STM32H5xx_HAL_Driver/Src/stm32h5xx_hal_dma.c **** 
 2565              		.loc 1 1487 87 discriminator 4 view .LVU883
 2566 0038 13F4004F 		tst	r3, #32768
 2567 003c 0FD1     		bne	.L156
1487:Drivers/STM32H5xx_HAL_Driver/Src/stm32h5xx_hal_dma.c **** 
 2568              		.loc 1 1487 87 view .LVU884
 2569 003e 4023     		movs	r3, #64
 2570              	.L150:
1487:Drivers/STM32H5xx_HAL_Driver/Src/stm32h5xx_hal_dma.c **** 
 2571              		.loc 1 1487 14 discriminator 4 view .LVU885
 2572 0040 1843     		orrs	r0, r0, r3
 2573              	.LVL132:
1490:Drivers/STM32H5xx_HAL_Driver/Src/stm32h5xx_hal_dma.c **** #endif /* DMA_SECCFGR_SEC0 */
 2574              		.loc 1 1490 3 is_stmt 1 discriminator 4 view .LVU886
1490:Drivers/STM32H5xx_HAL_Driver/Src/stm32h5xx_hal_dma.c **** #endif /* DMA_SECCFGR_SEC0 */
ARM GAS  /tmp/ccQkXeUE.s 			page 89


 2575              		.loc 1 1490 33 is_stmt 0 discriminator 4 view .LVU887
 2576 0042 136C     		ldr	r3, [r2, #64]
1490:Drivers/STM32H5xx_HAL_Driver/Src/stm32h5xx_hal_dma.c **** #endif /* DMA_SECCFGR_SEC0 */
 2577              		.loc 1 1490 88 discriminator 4 view .LVU888
 2578 0044 002B     		cmp	r3, #0
 2579 0046 0CDB     		blt	.L157
1490:Drivers/STM32H5xx_HAL_Driver/Src/stm32h5xx_hal_dma.c **** #endif /* DMA_SECCFGR_SEC0 */
 2580              		.loc 1 1490 88 view .LVU889
 2581 0048 8023     		movs	r3, #128
 2582              	.L151:
1490:Drivers/STM32H5xx_HAL_Driver/Src/stm32h5xx_hal_dma.c **** #endif /* DMA_SECCFGR_SEC0 */
 2583              		.loc 1 1490 14 discriminator 4 view .LVU890
 2584 004a 0343     		orrs	r3, r3, r0
 2585              	.LVL133:
1494:Drivers/STM32H5xx_HAL_Driver/Src/stm32h5xx_hal_dma.c **** 
 2586              		.loc 1 1494 3 is_stmt 1 discriminator 4 view .LVU891
1494:Drivers/STM32H5xx_HAL_Driver/Src/stm32h5xx_hal_dma.c **** 
 2587              		.loc 1 1494 23 is_stmt 0 discriminator 4 view .LVU892
 2588 004c 0B60     		str	r3, [r1]
1496:Drivers/STM32H5xx_HAL_Driver/Src/stm32h5xx_hal_dma.c **** }
 2589              		.loc 1 1496 3 is_stmt 1 discriminator 4 view .LVU893
1496:Drivers/STM32H5xx_HAL_Driver/Src/stm32h5xx_hal_dma.c **** }
 2590              		.loc 1 1496 10 is_stmt 0 discriminator 4 view .LVU894
 2591 004e 0020     		movs	r0, #0
1497:Drivers/STM32H5xx_HAL_Driver/Src/stm32h5xx_hal_dma.c **** 
 2592              		.loc 1 1497 1 discriminator 4 view .LVU895
 2593 0050 5DF8044B 		ldr	r4, [sp], #4
 2594              	.LCFI17:
 2595              		.cfi_remember_state
 2596              		.cfi_restore 4
 2597              		.cfi_def_cfa_offset 0
 2598 0054 7047     		bx	lr
 2599              	.LVL134:
 2600              	.L154:
 2601              	.LCFI18:
 2602              		.cfi_restore_state
1480:Drivers/STM32H5xx_HAL_Driver/Src/stm32h5xx_hal_dma.c **** 
 2603              		.loc 1 1480 85 view .LVU896
 2604 0056 1120     		movs	r0, #17
 2605 0058 E7E7     		b	.L148
 2606              	.LVL135:
 2607              	.L155:
1484:Drivers/STM32H5xx_HAL_Driver/Src/stm32h5xx_hal_dma.c **** 
 2608              		.loc 1 1484 84 view .LVU897
 2609 005a 2223     		movs	r3, #34
 2610              	.LVL136:
1484:Drivers/STM32H5xx_HAL_Driver/Src/stm32h5xx_hal_dma.c **** 
 2611              		.loc 1 1484 84 view .LVU898
 2612 005c EAE7     		b	.L149
 2613              	.L156:
1487:Drivers/STM32H5xx_HAL_Driver/Src/stm32h5xx_hal_dma.c **** 
 2614              		.loc 1 1487 87 view .LVU899
 2615 005e 4423     		movs	r3, #68
 2616 0060 EEE7     		b	.L150
 2617              	.L157:
1490:Drivers/STM32H5xx_HAL_Driver/Src/stm32h5xx_hal_dma.c **** #endif /* DMA_SECCFGR_SEC0 */
 2618              		.loc 1 1490 88 view .LVU900
ARM GAS  /tmp/ccQkXeUE.s 			page 90


 2619 0062 8823     		movs	r3, #136
 2620 0064 F1E7     		b	.L151
 2621              	.LVL137:
 2622              	.L152:
 2623              	.LCFI19:
 2624              		.cfi_def_cfa_offset 0
 2625              		.cfi_restore 4
1470:Drivers/STM32H5xx_HAL_Driver/Src/stm32h5xx_hal_dma.c ****   }
 2626              		.loc 1 1470 12 view .LVU901
 2627 0066 0120     		movs	r0, #1
 2628              	.LVL138:
1470:Drivers/STM32H5xx_HAL_Driver/Src/stm32h5xx_hal_dma.c ****   }
 2629              		.loc 1 1470 12 view .LVU902
 2630 0068 7047     		bx	lr
 2631              	.LVL139:
 2632              	.L153:
1470:Drivers/STM32H5xx_HAL_Driver/Src/stm32h5xx_hal_dma.c ****   }
 2633              		.loc 1 1470 12 view .LVU903
 2634 006a 0120     		movs	r0, #1
 2635              	.LVL140:
1497:Drivers/STM32H5xx_HAL_Driver/Src/stm32h5xx_hal_dma.c **** 
 2636              		.loc 1 1497 1 view .LVU904
 2637 006c 7047     		bx	lr
 2638              		.cfi_endproc
 2639              	.LFE374:
 2641              		.section	.text.HAL_DMA_GetLockChannelAttributes,"ax",%progbits
 2642              		.align	1
 2643              		.global	HAL_DMA_GetLockChannelAttributes
 2644              		.syntax unified
 2645              		.thumb
 2646              		.thumb_func
 2647              		.fpu fpv4-sp-d16
 2649              	HAL_DMA_GetLockChannelAttributes:
 2650              	.LVL141:
 2651              	.LFB375:
1541:Drivers/STM32H5xx_HAL_Driver/Src/stm32h5xx_hal_dma.c ****   DMA_TypeDef *p_dma_instance;
 2652              		.loc 1 1541 1 is_stmt 1 view -0
 2653              		.cfi_startproc
 2654              		@ args = 0, pretend = 0, frame = 0
 2655              		@ frame_needed = 0, uses_anonymous_args = 0
 2656              		@ link register save eliminated.
1542:Drivers/STM32H5xx_HAL_Driver/Src/stm32h5xx_hal_dma.c ****   uint32_t channel_idx;
 2657              		.loc 1 1542 3 view .LVU906
1543:Drivers/STM32H5xx_HAL_Driver/Src/stm32h5xx_hal_dma.c **** 
 2658              		.loc 1 1543 3 view .LVU907
1546:Drivers/STM32H5xx_HAL_Driver/Src/stm32h5xx_hal_dma.c ****   {
 2659              		.loc 1 1546 3 view .LVU908
1546:Drivers/STM32H5xx_HAL_Driver/Src/stm32h5xx_hal_dma.c ****   {
 2660              		.loc 1 1546 6 is_stmt 0 view .LVU909
 2661 0000 A8B1     		cbz	r0, .L164
1546:Drivers/STM32H5xx_HAL_Driver/Src/stm32h5xx_hal_dma.c ****   {
 2662              		.loc 1 1546 22 discriminator 1 view .LVU910
 2663 0002 B1B1     		cbz	r1, .L165
1552:Drivers/STM32H5xx_HAL_Driver/Src/stm32h5xx_hal_dma.c **** 
 2664              		.loc 1 1552 3 is_stmt 1 view .LVU911
1552:Drivers/STM32H5xx_HAL_Driver/Src/stm32h5xx_hal_dma.c **** 
 2665              		.loc 1 1552 20 is_stmt 0 view .LVU912
ARM GAS  /tmp/ccQkXeUE.s 			page 91


 2666 0004 0368     		ldr	r3, [r0]
 2667 0006 23F47F60 		bic	r0, r3, #4080
 2668              	.LVL142:
1552:Drivers/STM32H5xx_HAL_Driver/Src/stm32h5xx_hal_dma.c **** 
 2669              		.loc 1 1552 20 view .LVU913
 2670 000a 20F00F00 		bic	r0, r0, #15
 2671              	.LVL143:
1555:Drivers/STM32H5xx_HAL_Driver/Src/stm32h5xx_hal_dma.c **** 
 2672              		.loc 1 1555 3 is_stmt 1 view .LVU914
1555:Drivers/STM32H5xx_HAL_Driver/Src/stm32h5xx_hal_dma.c **** 
 2673              		.loc 1 1555 25 is_stmt 0 view .LVU915
 2674 000e C3F30B03 		ubfx	r3, r3, #0, #12
 2675 0012 503B     		subs	r3, r3, #80
1555:Drivers/STM32H5xx_HAL_Driver/Src/stm32h5xx_hal_dma.c **** 
 2676              		.loc 1 1555 47 view .LVU916
 2677 0014 C3F3C413 		ubfx	r3, r3, #7, #5
1555:Drivers/STM32H5xx_HAL_Driver/Src/stm32h5xx_hal_dma.c **** 
 2678              		.loc 1 1555 15 view .LVU917
 2679 0018 0122     		movs	r2, #1
 2680 001a 02FA03F3 		lsl	r3, r2, r3
 2681              	.LVL144:
1558:Drivers/STM32H5xx_HAL_Driver/Src/stm32h5xx_hal_dma.c ****                 DMA_CHANNEL_ATTRIBUTE_LOCKED;
 2682              		.loc 1 1558 3 is_stmt 1 view .LVU918
1558:Drivers/STM32H5xx_HAL_Driver/Src/stm32h5xx_hal_dma.c ****                 DMA_CHANNEL_ATTRIBUTE_LOCKED;
 2683              		.loc 1 1558 33 is_stmt 0 view .LVU919
 2684 001e 8268     		ldr	r2, [r0, #8]
1558:Drivers/STM32H5xx_HAL_Driver/Src/stm32h5xx_hal_dma.c ****                 DMA_CHANNEL_ATTRIBUTE_LOCKED;
 2685              		.loc 1 1558 100 view .LVU920
 2686 0020 1A42     		tst	r2, r3
 2687 0022 14BF     		ite	ne
 2688 0024 0123     		movne	r3, #1
 2689              	.LVL145:
1558:Drivers/STM32H5xx_HAL_Driver/Src/stm32h5xx_hal_dma.c ****                 DMA_CHANNEL_ATTRIBUTE_LOCKED;
 2690              		.loc 1 1558 100 view .LVU921
 2691 0026 0023     		moveq	r3, #0
1558:Drivers/STM32H5xx_HAL_Driver/Src/stm32h5xx_hal_dma.c ****                 DMA_CHANNEL_ATTRIBUTE_LOCKED;
 2692              		.loc 1 1558 15 view .LVU922
 2693 0028 0B60     		str	r3, [r1]
 2694              	.LVL146:
1561:Drivers/STM32H5xx_HAL_Driver/Src/stm32h5xx_hal_dma.c **** }
 2695              		.loc 1 1561 3 is_stmt 1 view .LVU923
1561:Drivers/STM32H5xx_HAL_Driver/Src/stm32h5xx_hal_dma.c **** }
 2696              		.loc 1 1561 10 is_stmt 0 view .LVU924
 2697 002a 0020     		movs	r0, #0
 2698              	.LVL147:
1561:Drivers/STM32H5xx_HAL_Driver/Src/stm32h5xx_hal_dma.c **** }
 2699              		.loc 1 1561 10 view .LVU925
 2700 002c 7047     		bx	lr
 2701              	.LVL148:
 2702              	.L164:
1548:Drivers/STM32H5xx_HAL_Driver/Src/stm32h5xx_hal_dma.c ****   }
 2703              		.loc 1 1548 12 view .LVU926
 2704 002e 0120     		movs	r0, #1
 2705              	.LVL149:
1548:Drivers/STM32H5xx_HAL_Driver/Src/stm32h5xx_hal_dma.c ****   }
 2706              		.loc 1 1548 12 view .LVU927
 2707 0030 7047     		bx	lr
ARM GAS  /tmp/ccQkXeUE.s 			page 92


 2708              	.LVL150:
 2709              	.L165:
1548:Drivers/STM32H5xx_HAL_Driver/Src/stm32h5xx_hal_dma.c ****   }
 2710              		.loc 1 1548 12 view .LVU928
 2711 0032 0120     		movs	r0, #1
 2712              	.LVL151:
1562:Drivers/STM32H5xx_HAL_Driver/Src/stm32h5xx_hal_dma.c **** #endif /* DMA_RCFGLOCKR_LOCK0 */
 2713              		.loc 1 1562 1 view .LVU929
 2714 0034 7047     		bx	lr
 2715              		.cfi_endproc
 2716              	.LFE375:
 2718              		.text
 2719              	.Letext0:
 2720              		.file 2 "Drivers/CMSIS/Device/ST/STM32H5xx/Include/stm32h533xx.h"
 2721              		.file 3 "/usr/lib/gcc/arm-none-eabi/10.3.1/include/stdint.h"
 2722              		.file 4 "Drivers/STM32H5xx_HAL_Driver/Inc/stm32h5xx_hal_def.h"
 2723              		.file 5 "Drivers/STM32H5xx_HAL_Driver/Inc/stm32h5xx_hal_dma.h"
 2724              		.file 6 "Drivers/STM32H5xx_HAL_Driver/Inc/stm32h5xx_hal_dma_ex.h"
 2725              		.file 7 "Drivers/STM32H5xx_HAL_Driver/Inc/stm32h5xx_hal.h"
ARM GAS  /tmp/ccQkXeUE.s 			page 93


DEFINED SYMBOLS
                            *ABS*:0000000000000000 stm32h5xx_hal_dma.c
     /tmp/ccQkXeUE.s:18     .text.DMA_SetConfig:0000000000000000 $t
     /tmp/ccQkXeUE.s:26     .text.DMA_SetConfig:0000000000000000 DMA_SetConfig
     /tmp/ccQkXeUE.s:76     .text.DMA_Init:0000000000000000 $t
     /tmp/ccQkXeUE.s:82     .text.DMA_Init:0000000000000000 DMA_Init
     /tmp/ccQkXeUE.s:405    .text.DMA_Init:0000000000000208 $d
     /tmp/ccQkXeUE.s:413    .text.DMA_Init:0000000000000210 $t
     /tmp/ccQkXeUE.s:573    .text.DMA_Init:0000000000000344 $d
     /tmp/ccQkXeUE.s:578    .text.HAL_DMA_Init:0000000000000000 $t
     /tmp/ccQkXeUE.s:585    .text.HAL_DMA_Init:0000000000000000 HAL_DMA_Init
     /tmp/ccQkXeUE.s:708    .text.HAL_DMA_DeInit:0000000000000000 $t
     /tmp/ccQkXeUE.s:715    .text.HAL_DMA_DeInit:0000000000000000 HAL_DMA_DeInit
     /tmp/ccQkXeUE.s:944    .text.HAL_DMA_DeInit:0000000000000100 $d
     /tmp/ccQkXeUE.s:949    .text.HAL_DMA_Start:0000000000000000 $t
     /tmp/ccQkXeUE.s:956    .text.HAL_DMA_Start:0000000000000000 HAL_DMA_Start
     /tmp/ccQkXeUE.s:1063   .text.HAL_DMA_Start_IT:0000000000000000 $t
     /tmp/ccQkXeUE.s:1070   .text.HAL_DMA_Start_IT:0000000000000000 HAL_DMA_Start_IT
     /tmp/ccQkXeUE.s:1199   .text.HAL_DMA_Abort:0000000000000000 $t
     /tmp/ccQkXeUE.s:1206   .text.HAL_DMA_Abort:0000000000000000 HAL_DMA_Abort
     /tmp/ccQkXeUE.s:1374   .text.HAL_DMA_Abort_IT:0000000000000000 $t
     /tmp/ccQkXeUE.s:1381   .text.HAL_DMA_Abort_IT:0000000000000000 HAL_DMA_Abort_IT
     /tmp/ccQkXeUE.s:1440   .text.HAL_DMA_PollForTransfer:0000000000000000 $t
     /tmp/ccQkXeUE.s:1447   .text.HAL_DMA_PollForTransfer:0000000000000000 HAL_DMA_PollForTransfer
     /tmp/ccQkXeUE.s:1752   .text.HAL_DMA_IRQHandler:0000000000000000 $t
     /tmp/ccQkXeUE.s:1759   .text.HAL_DMA_IRQHandler:0000000000000000 HAL_DMA_IRQHandler
     /tmp/ccQkXeUE.s:2132   .text.HAL_DMA_RegisterCallback:0000000000000000 $t
     /tmp/ccQkXeUE.s:2139   .text.HAL_DMA_RegisterCallback:0000000000000000 HAL_DMA_RegisterCallback
     /tmp/ccQkXeUE.s:2174   .text.HAL_DMA_RegisterCallback:000000000000001a $d
     /tmp/ccQkXeUE.s:2236   .text.HAL_DMA_UnRegisterCallback:0000000000000000 $t
     /tmp/ccQkXeUE.s:2243   .text.HAL_DMA_UnRegisterCallback:0000000000000000 HAL_DMA_UnRegisterCallback
     /tmp/ccQkXeUE.s:2278   .text.HAL_DMA_UnRegisterCallback:000000000000001a $d
     /tmp/ccQkXeUE.s:2284   .text.HAL_DMA_UnRegisterCallback:0000000000000020 $t
     /tmp/ccQkXeUE.s:2353   .text.HAL_DMA_GetState:0000000000000000 $t
     /tmp/ccQkXeUE.s:2360   .text.HAL_DMA_GetState:0000000000000000 HAL_DMA_GetState
     /tmp/ccQkXeUE.s:2378   .text.HAL_DMA_GetError:0000000000000000 $t
     /tmp/ccQkXeUE.s:2385   .text.HAL_DMA_GetError:0000000000000000 HAL_DMA_GetError
     /tmp/ccQkXeUE.s:2403   .text.HAL_DMA_ConfigChannelAttributes:0000000000000000 $t
     /tmp/ccQkXeUE.s:2410   .text.HAL_DMA_ConfigChannelAttributes:0000000000000000 HAL_DMA_ConfigChannelAttributes
     /tmp/ccQkXeUE.s:2494   .text.HAL_DMA_GetConfigChannelAttributes:0000000000000000 $t
     /tmp/ccQkXeUE.s:2501   .text.HAL_DMA_GetConfigChannelAttributes:0000000000000000 HAL_DMA_GetConfigChannelAttributes
     /tmp/ccQkXeUE.s:2642   .text.HAL_DMA_GetLockChannelAttributes:0000000000000000 $t
     /tmp/ccQkXeUE.s:2649   .text.HAL_DMA_GetLockChannelAttributes:0000000000000000 HAL_DMA_GetLockChannelAttributes
     /tmp/ccQkXeUE.s:2179   .text.HAL_DMA_RegisterCallback:000000000000001f $d
     /tmp/ccQkXeUE.s:2179   .text.HAL_DMA_RegisterCallback:0000000000000020 $t

UNDEFINED SYMBOLS
HAL_GetTick
