Archive member included to satisfy reference by file (symbol)

/opt/local/lib/gcc/arm-none-eabi/14.2.0/../../../../arm-none-eabi/lib/thumb/v8-m.main+fp/hard/libc.a(libc_a-atexit.o)
                              /opt/local/lib/gcc/arm-none-eabi/14.2.0/../../../../arm-none-eabi/lib/thumb/v8-m.main+fp/hard/crt0.o (atexit)
/opt/local/lib/gcc/arm-none-eabi/14.2.0/../../../../arm-none-eabi/lib/thumb/v8-m.main+fp/hard/libc.a(libc_a-exit.o)
                              /opt/local/lib/gcc/arm-none-eabi/14.2.0/../../../../arm-none-eabi/lib/thumb/v8-m.main+fp/hard/crt0.o (exit)
/opt/local/lib/gcc/arm-none-eabi/14.2.0/../../../../arm-none-eabi/lib/thumb/v8-m.main+fp/hard/libc.a(libc_a-printf.o)
                              build/main.o (printf)
/opt/local/lib/gcc/arm-none-eabi/14.2.0/../../../../arm-none-eabi/lib/thumb/v8-m.main+fp/hard/libc.a(libc_a-vfprintf.o)
                              /opt/local/lib/gcc/arm-none-eabi/14.2.0/../../../../arm-none-eabi/lib/thumb/v8-m.main+fp/hard/libc.a(libc_a-printf.o) (_vfprintf_r)
/opt/local/lib/gcc/arm-none-eabi/14.2.0/../../../../arm-none-eabi/lib/thumb/v8-m.main+fp/hard/libc.a(libc_a-vfiprintf.o)
                              /opt/local/lib/gcc/arm-none-eabi/14.2.0/../../../../arm-none-eabi/lib/thumb/v8-m.main+fp/hard/libc.a(libc_a-vfprintf.o) (__sprint_r)
/opt/local/lib/gcc/arm-none-eabi/14.2.0/../../../../arm-none-eabi/lib/thumb/v8-m.main+fp/hard/libc.a(libc_a-puts.o)
                              build/main.o (puts)
/opt/local/lib/gcc/arm-none-eabi/14.2.0/../../../../arm-none-eabi/lib/thumb/v8-m.main+fp/hard/libc.a(libc_a-fflush.o)
                              /opt/local/lib/gcc/arm-none-eabi/14.2.0/../../../../arm-none-eabi/lib/thumb/v8-m.main+fp/hard/libc.a(libc_a-vfprintf.o) (_fflush_r)
/opt/local/lib/gcc/arm-none-eabi/14.2.0/../../../../arm-none-eabi/lib/thumb/v8-m.main+fp/hard/libc.a(libc_a-findfp.o)
                              /opt/local/lib/gcc/arm-none-eabi/14.2.0/../../../../arm-none-eabi/lib/thumb/v8-m.main+fp/hard/libc.a(libc_a-vfprintf.o) (__sinit)
/opt/local/lib/gcc/arm-none-eabi/14.2.0/../../../../arm-none-eabi/lib/thumb/v8-m.main+fp/hard/libc.a(libc_a-fvwrite.o)
                              /opt/local/lib/gcc/arm-none-eabi/14.2.0/../../../../arm-none-eabi/lib/thumb/v8-m.main+fp/hard/libc.a(libc_a-vfiprintf.o) (__sfvwrite_r)
/opt/local/lib/gcc/arm-none-eabi/14.2.0/../../../../arm-none-eabi/lib/thumb/v8-m.main+fp/hard/libc.a(libc_a-fwalk.o)
                              /opt/local/lib/gcc/arm-none-eabi/14.2.0/../../../../arm-none-eabi/lib/thumb/v8-m.main+fp/hard/libc.a(libc_a-fflush.o) (_fwalk_sglue)
/opt/local/lib/gcc/arm-none-eabi/14.2.0/../../../../arm-none-eabi/lib/thumb/v8-m.main+fp/hard/libc.a(libc_a-wsetup.o)
                              /opt/local/lib/gcc/arm-none-eabi/14.2.0/../../../../arm-none-eabi/lib/thumb/v8-m.main+fp/hard/libc.a(libc_a-vfprintf.o) (__swsetup_r)
/opt/local/lib/gcc/arm-none-eabi/14.2.0/../../../../arm-none-eabi/lib/thumb/v8-m.main+fp/hard/libc.a(libc_a-fputwc.o)
                              /opt/local/lib/gcc/arm-none-eabi/14.2.0/../../../../arm-none-eabi/lib/thumb/v8-m.main+fp/hard/libc.a(libc_a-vfiprintf.o) (_fputwc_r)
/opt/local/lib/gcc/arm-none-eabi/14.2.0/../../../../arm-none-eabi/lib/thumb/v8-m.main+fp/hard/libc.a(libc_a-memmove.o)
                              /opt/local/lib/gcc/arm-none-eabi/14.2.0/../../../../arm-none-eabi/lib/thumb/v8-m.main+fp/hard/libc.a(libc_a-fvwrite.o) (memmove)
/opt/local/lib/gcc/arm-none-eabi/14.2.0/../../../../arm-none-eabi/lib/thumb/v8-m.main+fp/hard/libc.a(libc_a-memset.o)
                              /opt/local/lib/gcc/arm-none-eabi/14.2.0/../../../../arm-none-eabi/lib/thumb/v8-m.main+fp/hard/crt0.o (memset)
/opt/local/lib/gcc/arm-none-eabi/14.2.0/../../../../arm-none-eabi/lib/thumb/v8-m.main+fp/hard/libc.a(libc_a-locale.o)
                              /opt/local/lib/gcc/arm-none-eabi/14.2.0/../../../../arm-none-eabi/lib/thumb/v8-m.main+fp/hard/libc.a(libc_a-fputwc.o) (__locale_mb_cur_max)
/opt/local/lib/gcc/arm-none-eabi/14.2.0/../../../../arm-none-eabi/lib/thumb/v8-m.main+fp/hard/libc.a(libc_a-localeconv.o)
                              /opt/local/lib/gcc/arm-none-eabi/14.2.0/../../../../arm-none-eabi/lib/thumb/v8-m.main+fp/hard/libc.a(libc_a-vfprintf.o) (_localeconv_r)
/opt/local/lib/gcc/arm-none-eabi/14.2.0/../../../../arm-none-eabi/lib/thumb/v8-m.main+fp/hard/libc.a(libc_a-impure.o)
                              /opt/local/lib/gcc/arm-none-eabi/14.2.0/../../../../arm-none-eabi/lib/thumb/v8-m.main+fp/hard/libc.a(libc_a-printf.o) (_impure_ptr)
/opt/local/lib/gcc/arm-none-eabi/14.2.0/../../../../arm-none-eabi/lib/thumb/v8-m.main+fp/hard/libc.a(libc_a-errno.o)
                              build/sysmem.o (__errno)
/opt/local/lib/gcc/arm-none-eabi/14.2.0/../../../../arm-none-eabi/lib/thumb/v8-m.main+fp/hard/libc.a(libc_a-strcmp.o)
                              /opt/local/lib/gcc/arm-none-eabi/14.2.0/../../../../arm-none-eabi/lib/thumb/v8-m.main+fp/hard/libc.a(libc_a-locale.o) (strcmp)
/opt/local/lib/gcc/arm-none-eabi/14.2.0/../../../../arm-none-eabi/lib/thumb/v8-m.main+fp/hard/libc.a(libc_a-init.o)
                              /opt/local/lib/gcc/arm-none-eabi/14.2.0/../../../../arm-none-eabi/lib/thumb/v8-m.main+fp/hard/crt0.o (__libc_init_array)
/opt/local/lib/gcc/arm-none-eabi/14.2.0/../../../../arm-none-eabi/lib/thumb/v8-m.main+fp/hard/libc.a(libc_a-fini.o)
                              /opt/local/lib/gcc/arm-none-eabi/14.2.0/../../../../arm-none-eabi/lib/thumb/v8-m.main+fp/hard/crt0.o (__libc_fini_array)
/opt/local/lib/gcc/arm-none-eabi/14.2.0/../../../../arm-none-eabi/lib/thumb/v8-m.main+fp/hard/libc.a(libc_a-memchr-stub.o)
                              /opt/local/lib/gcc/arm-none-eabi/14.2.0/../../../../arm-none-eabi/lib/thumb/v8-m.main+fp/hard/libc.a(libc_a-vfprintf.o) (memchr)
/opt/local/lib/gcc/arm-none-eabi/14.2.0/../../../../arm-none-eabi/lib/thumb/v8-m.main+fp/hard/libc.a(libc_a-memcpy.o)
                              /opt/local/lib/gcc/arm-none-eabi/14.2.0/../../../../arm-none-eabi/lib/thumb/v8-m.main+fp/hard/libc.a(libc_a-fvwrite.o) (memcpy)
/opt/local/lib/gcc/arm-none-eabi/14.2.0/../../../../arm-none-eabi/lib/thumb/v8-m.main+fp/hard/libc.a(libc_a-strlen-stub.o)
                              /opt/local/lib/gcc/arm-none-eabi/14.2.0/../../../../arm-none-eabi/lib/thumb/v8-m.main+fp/hard/libc.a(libc_a-vfprintf.o) (strlen)
/opt/local/lib/gcc/arm-none-eabi/14.2.0/../../../../arm-none-eabi/lib/thumb/v8-m.main+fp/hard/libc.a(libc_a-wcrtomb.o)
                              /opt/local/lib/gcc/arm-none-eabi/14.2.0/../../../../arm-none-eabi/lib/thumb/v8-m.main+fp/hard/libc.a(libc_a-fputwc.o) (_wcrtomb_r)
/opt/local/lib/gcc/arm-none-eabi/14.2.0/../../../../arm-none-eabi/lib/thumb/v8-m.main+fp/hard/libc.a(libc_a-ctype_.o)
                              /opt/local/lib/gcc/arm-none-eabi/14.2.0/../../../../arm-none-eabi/lib/thumb/v8-m.main+fp/hard/libc.a(libc_a-locale.o) (_ctype_)
/opt/local/lib/gcc/arm-none-eabi/14.2.0/../../../../arm-none-eabi/lib/thumb/v8-m.main+fp/hard/libc.a(libc_a-__atexit.o)
                              /opt/local/lib/gcc/arm-none-eabi/14.2.0/../../../../arm-none-eabi/lib/thumb/v8-m.main+fp/hard/libc.a(libc_a-atexit.o) (__register_exitproc)
/opt/local/lib/gcc/arm-none-eabi/14.2.0/../../../../arm-none-eabi/lib/thumb/v8-m.main+fp/hard/libc.a(libc_a-__call_atexit.o)
                              /opt/local/lib/gcc/arm-none-eabi/14.2.0/../../../../arm-none-eabi/lib/thumb/v8-m.main+fp/hard/libc.a(libc_a-exit.o) (__call_exitprocs)
/opt/local/lib/gcc/arm-none-eabi/14.2.0/../../../../arm-none-eabi/lib/thumb/v8-m.main+fp/hard/libc.a(libc_a-dtoa.o)
                              /opt/local/lib/gcc/arm-none-eabi/14.2.0/../../../../arm-none-eabi/lib/thumb/v8-m.main+fp/hard/libc.a(libc_a-vfprintf.o) (_dtoa_r)
/opt/local/lib/gcc/arm-none-eabi/14.2.0/../../../../arm-none-eabi/lib/thumb/v8-m.main+fp/hard/libc.a(libc_a-freer.o)
                              /opt/local/lib/gcc/arm-none-eabi/14.2.0/../../../../arm-none-eabi/lib/thumb/v8-m.main+fp/hard/libc.a(libc_a-fflush.o) (_free_r)
/opt/local/lib/gcc/arm-none-eabi/14.2.0/../../../../arm-none-eabi/lib/thumb/v8-m.main+fp/hard/libc.a(libc_a-mallocr.o)
                              /opt/local/lib/gcc/arm-none-eabi/14.2.0/../../../../arm-none-eabi/lib/thumb/v8-m.main+fp/hard/libc.a(libc_a-findfp.o) (_malloc_r)
/opt/local/lib/gcc/arm-none-eabi/14.2.0/../../../../arm-none-eabi/lib/thumb/v8-m.main+fp/hard/libc.a(libc_a-mbtowc_r.o)
                              /opt/local/lib/gcc/arm-none-eabi/14.2.0/../../../../arm-none-eabi/lib/thumb/v8-m.main+fp/hard/libc.a(libc_a-locale.o) (__ascii_mbtowc)
/opt/local/lib/gcc/arm-none-eabi/14.2.0/../../../../arm-none-eabi/lib/thumb/v8-m.main+fp/hard/libc.a(libc_a-makebuf.o)
                              /opt/local/lib/gcc/arm-none-eabi/14.2.0/../../../../arm-none-eabi/lib/thumb/v8-m.main+fp/hard/libc.a(libc_a-wsetup.o) (__smakebuf_r)
/opt/local/lib/gcc/arm-none-eabi/14.2.0/../../../../arm-none-eabi/lib/thumb/v8-m.main+fp/hard/libc.a(libc_a-mlock.o)
                              /opt/local/lib/gcc/arm-none-eabi/14.2.0/../../../../arm-none-eabi/lib/thumb/v8-m.main+fp/hard/libc.a(libc_a-freer.o) (__malloc_lock)
/opt/local/lib/gcc/arm-none-eabi/14.2.0/../../../../arm-none-eabi/lib/thumb/v8-m.main+fp/hard/libc.a(libc_a-mprec.o)
                              /opt/local/lib/gcc/arm-none-eabi/14.2.0/../../../../arm-none-eabi/lib/thumb/v8-m.main+fp/hard/libc.a(libc_a-dtoa.o) (_Balloc)
/opt/local/lib/gcc/arm-none-eabi/14.2.0/../../../../arm-none-eabi/lib/thumb/v8-m.main+fp/hard/libc.a(libc_a-fclose.o)
                              /opt/local/lib/gcc/arm-none-eabi/14.2.0/../../../../arm-none-eabi/lib/thumb/v8-m.main+fp/hard/libc.a(libc_a-findfp.o) (_fclose_r)
/opt/local/lib/gcc/arm-none-eabi/14.2.0/../../../../arm-none-eabi/lib/thumb/v8-m.main+fp/hard/libc.a(libc_a-reallocr.o)
                              /opt/local/lib/gcc/arm-none-eabi/14.2.0/../../../../arm-none-eabi/lib/thumb/v8-m.main+fp/hard/libc.a(libc_a-fvwrite.o) (_realloc_r)
/opt/local/lib/gcc/arm-none-eabi/14.2.0/../../../../arm-none-eabi/lib/thumb/v8-m.main+fp/hard/libc.a(libc_a-stdio.o)
                              /opt/local/lib/gcc/arm-none-eabi/14.2.0/../../../../arm-none-eabi/lib/thumb/v8-m.main+fp/hard/libc.a(libc_a-findfp.o) (__sread)
/opt/local/lib/gcc/arm-none-eabi/14.2.0/../../../../arm-none-eabi/lib/thumb/v8-m.main+fp/hard/libc.a(libc_a-wctomb_r.o)
                              /opt/local/lib/gcc/arm-none-eabi/14.2.0/../../../../arm-none-eabi/lib/thumb/v8-m.main+fp/hard/libc.a(libc_a-locale.o) (__ascii_wctomb)
/opt/local/lib/gcc/arm-none-eabi/14.2.0/../../../../arm-none-eabi/lib/thumb/v8-m.main+fp/hard/libc.a(libc_a-wbuf.o)
                              /opt/local/lib/gcc/arm-none-eabi/14.2.0/../../../../arm-none-eabi/lib/thumb/v8-m.main+fp/hard/libc.a(libc_a-fputwc.o) (__swbuf_r)
/opt/local/lib/gcc/arm-none-eabi/14.2.0/../../../../arm-none-eabi/lib/thumb/v8-m.main+fp/hard/libc.a(libc_a-closer.o)
                              /opt/local/lib/gcc/arm-none-eabi/14.2.0/../../../../arm-none-eabi/lib/thumb/v8-m.main+fp/hard/libc.a(libc_a-stdio.o) (_close_r)
/opt/local/lib/gcc/arm-none-eabi/14.2.0/../../../../arm-none-eabi/lib/thumb/v8-m.main+fp/hard/libc.a(libc_a-reent.o)
                              /opt/local/lib/gcc/arm-none-eabi/14.2.0/../../../../arm-none-eabi/lib/thumb/v8-m.main+fp/hard/libc.a(libc_a-closer.o) (errno)
/opt/local/lib/gcc/arm-none-eabi/14.2.0/../../../../arm-none-eabi/lib/thumb/v8-m.main+fp/hard/libc.a(libc_a-fstatr.o)
                              /opt/local/lib/gcc/arm-none-eabi/14.2.0/../../../../arm-none-eabi/lib/thumb/v8-m.main+fp/hard/libc.a(libc_a-makebuf.o) (_fstat_r)
/opt/local/lib/gcc/arm-none-eabi/14.2.0/../../../../arm-none-eabi/lib/thumb/v8-m.main+fp/hard/libc.a(libc_a-isattyr.o)
                              /opt/local/lib/gcc/arm-none-eabi/14.2.0/../../../../arm-none-eabi/lib/thumb/v8-m.main+fp/hard/libc.a(libc_a-makebuf.o) (_isatty_r)
/opt/local/lib/gcc/arm-none-eabi/14.2.0/../../../../arm-none-eabi/lib/thumb/v8-m.main+fp/hard/libc.a(libc_a-lseekr.o)
                              /opt/local/lib/gcc/arm-none-eabi/14.2.0/../../../../arm-none-eabi/lib/thumb/v8-m.main+fp/hard/libc.a(libc_a-stdio.o) (_lseek_r)
/opt/local/lib/gcc/arm-none-eabi/14.2.0/../../../../arm-none-eabi/lib/thumb/v8-m.main+fp/hard/libc.a(libc_a-readr.o)
                              /opt/local/lib/gcc/arm-none-eabi/14.2.0/../../../../arm-none-eabi/lib/thumb/v8-m.main+fp/hard/libc.a(libc_a-stdio.o) (_read_r)
/opt/local/lib/gcc/arm-none-eabi/14.2.0/../../../../arm-none-eabi/lib/thumb/v8-m.main+fp/hard/libc.a(libc_a-sbrkr.o)
                              /opt/local/lib/gcc/arm-none-eabi/14.2.0/../../../../arm-none-eabi/lib/thumb/v8-m.main+fp/hard/libc.a(libc_a-freer.o) (_sbrk_r)
/opt/local/lib/gcc/arm-none-eabi/14.2.0/../../../../arm-none-eabi/lib/thumb/v8-m.main+fp/hard/libc.a(libc_a-writer.o)
                              /opt/local/lib/gcc/arm-none-eabi/14.2.0/../../../../arm-none-eabi/lib/thumb/v8-m.main+fp/hard/libc.a(libc_a-stdio.o) (_write_r)
/opt/local/lib/gcc/arm-none-eabi/14.2.0/../../../../arm-none-eabi/lib/thumb/v8-m.main+fp/hard/libc.a(libc_a-sysconf.o)
                              /opt/local/lib/gcc/arm-none-eabi/14.2.0/../../../../arm-none-eabi/lib/thumb/v8-m.main+fp/hard/libc.a(libc_a-freer.o) (sysconf)
/opt/local/lib/gcc/arm-none-eabi/14.2.0/../../../../arm-none-eabi/lib/thumb/v8-m.main+fp/hard/libc.a(libc_a-assert.o)
                              /opt/local/lib/gcc/arm-none-eabi/14.2.0/../../../../arm-none-eabi/lib/thumb/v8-m.main+fp/hard/libc.a(libc_a-dtoa.o) (__assert_func)
/opt/local/lib/gcc/arm-none-eabi/14.2.0/../../../../arm-none-eabi/lib/thumb/v8-m.main+fp/hard/libc.a(libc_a-callocr.o)
                              /opt/local/lib/gcc/arm-none-eabi/14.2.0/../../../../arm-none-eabi/lib/thumb/v8-m.main+fp/hard/libc.a(libc_a-mprec.o) (_calloc_r)
/opt/local/lib/gcc/arm-none-eabi/14.2.0/../../../../arm-none-eabi/lib/thumb/v8-m.main+fp/hard/libc.a(libc_a-fiprintf.o)
                              /opt/local/lib/gcc/arm-none-eabi/14.2.0/../../../../arm-none-eabi/lib/thumb/v8-m.main+fp/hard/libc.a(libc_a-assert.o) (fiprintf)
/opt/local/lib/gcc/arm-none-eabi/14.2.0/../../../../arm-none-eabi/lib/thumb/v8-m.main+fp/hard/libc.a(libc_a-abort.o)
                              /opt/local/lib/gcc/arm-none-eabi/14.2.0/../../../../arm-none-eabi/lib/thumb/v8-m.main+fp/hard/libc.a(libc_a-assert.o) (abort)
/opt/local/lib/gcc/arm-none-eabi/14.2.0/../../../../arm-none-eabi/lib/thumb/v8-m.main+fp/hard/libc.a(libc_a-signal.o)
                              /opt/local/lib/gcc/arm-none-eabi/14.2.0/../../../../arm-none-eabi/lib/thumb/v8-m.main+fp/hard/libc.a(libc_a-abort.o) (raise)
/opt/local/lib/gcc/arm-none-eabi/14.2.0/../../../../arm-none-eabi/lib/thumb/v8-m.main+fp/hard/libc.a(libc_a-signalr.o)
                              /opt/local/lib/gcc/arm-none-eabi/14.2.0/../../../../arm-none-eabi/lib/thumb/v8-m.main+fp/hard/libc.a(libc_a-signal.o) (_kill_r)
/opt/local/lib/gcc/arm-none-eabi/14.2.0/thumb/v8-m.main+fp/hard/libgcc.a(_arm_muldf3.o)
                              /opt/local/lib/gcc/arm-none-eabi/14.2.0/../../../../arm-none-eabi/lib/thumb/v8-m.main+fp/hard/libc.a(libc_a-dtoa.o) (__aeabi_dmul)
/opt/local/lib/gcc/arm-none-eabi/14.2.0/thumb/v8-m.main+fp/hard/libgcc.a(_arm_addsubdf3.o)
                              /opt/local/lib/gcc/arm-none-eabi/14.2.0/../../../../arm-none-eabi/lib/thumb/v8-m.main+fp/hard/libc.a(libc_a-dtoa.o) (__aeabi_dsub)
/opt/local/lib/gcc/arm-none-eabi/14.2.0/thumb/v8-m.main+fp/hard/libgcc.a(_arm_muldivdf3.o)
                              /opt/local/lib/gcc/arm-none-eabi/14.2.0/../../../../arm-none-eabi/lib/thumb/v8-m.main+fp/hard/libc.a(libc_a-dtoa.o) (__aeabi_ddiv)
/opt/local/lib/gcc/arm-none-eabi/14.2.0/thumb/v8-m.main+fp/hard/libgcc.a(_arm_cmpdf2.o)
                              /opt/local/lib/gcc/arm-none-eabi/14.2.0/../../../../arm-none-eabi/lib/thumb/v8-m.main+fp/hard/libc.a(libc_a-vfprintf.o) (__aeabi_dcmpeq)
/opt/local/lib/gcc/arm-none-eabi/14.2.0/thumb/v8-m.main+fp/hard/libgcc.a(_arm_unorddf2.o)
                              /opt/local/lib/gcc/arm-none-eabi/14.2.0/../../../../arm-none-eabi/lib/thumb/v8-m.main+fp/hard/libc.a(libc_a-vfprintf.o) (__aeabi_dcmpun)
/opt/local/lib/gcc/arm-none-eabi/14.2.0/thumb/v8-m.main+fp/hard/libgcc.a(_arm_fixdfsi.o)
                              /opt/local/lib/gcc/arm-none-eabi/14.2.0/../../../../arm-none-eabi/lib/thumb/v8-m.main+fp/hard/libc.a(libc_a-dtoa.o) (__aeabi_d2iz)
/opt/local/lib/gcc/arm-none-eabi/14.2.0/thumb/v8-m.main+fp/hard/libgcc.a(_aeabi_uldivmod.o)
                              build/stm32h5xx_hal_uart.o (__aeabi_uldivmod)
/opt/local/lib/gcc/arm-none-eabi/14.2.0/thumb/v8-m.main+fp/hard/libgcc.a(_udivmoddi4.o)
                              /opt/local/lib/gcc/arm-none-eabi/14.2.0/thumb/v8-m.main+fp/hard/libgcc.a(_aeabi_uldivmod.o) (__udivmoddi4)
/opt/local/lib/gcc/arm-none-eabi/14.2.0/thumb/v8-m.main+fp/hard/libgcc.a(_dvmd_tls.o)
                              /opt/local/lib/gcc/arm-none-eabi/14.2.0/thumb/v8-m.main+fp/hard/libgcc.a(_aeabi_uldivmod.o) (__aeabi_ldiv0)

Discarded input sections

 .text          0x00000000        0x0 /opt/local/lib/gcc/arm-none-eabi/14.2.0/thumb/v8-m.main+fp/hard/crti.o
 .data          0x00000000        0x0 /opt/local/lib/gcc/arm-none-eabi/14.2.0/thumb/v8-m.main+fp/hard/crti.o
 .bss           0x00000000        0x0 /opt/local/lib/gcc/arm-none-eabi/14.2.0/thumb/v8-m.main+fp/hard/crti.o
 .data          0x00000000        0x4 /opt/local/lib/gcc/arm-none-eabi/14.2.0/thumb/v8-m.main+fp/hard/crtbegin.o
 .rodata        0x00000000       0x24 /opt/local/lib/gcc/arm-none-eabi/14.2.0/thumb/v8-m.main+fp/hard/crtbegin.o
 .text          0x00000000       0x70 /opt/local/lib/gcc/arm-none-eabi/14.2.0/../../../../arm-none-eabi/lib/thumb/v8-m.main+fp/hard/crt0.o
 .data          0x00000000        0x0 /opt/local/lib/gcc/arm-none-eabi/14.2.0/../../../../arm-none-eabi/lib/thumb/v8-m.main+fp/hard/crt0.o
 .bss           0x00000000        0x0 /opt/local/lib/gcc/arm-none-eabi/14.2.0/../../../../arm-none-eabi/lib/thumb/v8-m.main+fp/hard/crt0.o
 .ARM.extab     0x00000000        0x0 /opt/local/lib/gcc/arm-none-eabi/14.2.0/../../../../arm-none-eabi/lib/thumb/v8-m.main+fp/hard/crt0.o
 .ARM.exidx     0x00000000       0x10 /opt/local/lib/gcc/arm-none-eabi/14.2.0/../../../../arm-none-eabi/lib/thumb/v8-m.main+fp/hard/crt0.o
 .debug_line    0x00000000       0x75 /opt/local/lib/gcc/arm-none-eabi/14.2.0/../../../../arm-none-eabi/lib/thumb/v8-m.main+fp/hard/crt0.o
 .debug_line_str
                0x00000000      0x14c /opt/local/lib/gcc/arm-none-eabi/14.2.0/../../../../arm-none-eabi/lib/thumb/v8-m.main+fp/hard/crt0.o
 .debug_info    0x00000000       0x24 /opt/local/lib/gcc/arm-none-eabi/14.2.0/../../../../arm-none-eabi/lib/thumb/v8-m.main+fp/hard/crt0.o
 .debug_abbrev  0x00000000       0x14 /opt/local/lib/gcc/arm-none-eabi/14.2.0/../../../../arm-none-eabi/lib/thumb/v8-m.main+fp/hard/crt0.o
 .debug_aranges
                0x00000000       0x20 /opt/local/lib/gcc/arm-none-eabi/14.2.0/../../../../arm-none-eabi/lib/thumb/v8-m.main+fp/hard/crt0.o
 .debug_str     0x00000000      0x158 /opt/local/lib/gcc/arm-none-eabi/14.2.0/../../../../arm-none-eabi/lib/thumb/v8-m.main+fp/hard/crt0.o
 .ARM.attributes
                0x00000000       0x24 /opt/local/lib/gcc/arm-none-eabi/14.2.0/../../../../arm-none-eabi/lib/thumb/v8-m.main+fp/hard/crt0.o
 .text          0x00000000        0x0 build/main.o
 .data          0x00000000        0x0 build/main.o
 .bss           0x00000000        0x0 build/main.o
 .text          0x00000000        0x0 build/stm32h5xx_it.o
 .data          0x00000000        0x0 build/stm32h5xx_it.o
 .bss           0x00000000        0x0 build/stm32h5xx_it.o
 .text          0x00000000        0x0 build/stm32h5xx_hal_msp.o
 .data          0x00000000        0x0 build/stm32h5xx_hal_msp.o
 .bss           0x00000000        0x0 build/stm32h5xx_hal_msp.o
 .text.HAL_ADC_MspDeInit
                0x00000000       0x30 build/stm32h5xx_hal_msp.o
 .text.HAL_SPI_MspDeInit
                0x00000000       0x34 build/stm32h5xx_hal_msp.o
 .text.HAL_TIM_Base_MspDeInit
                0x00000000       0x2c build/stm32h5xx_hal_msp.o
 .text.HAL_PCD_MspDeInit
                0x00000000       0x24 build/stm32h5xx_hal_msp.o
 .text          0x00000000        0x0 build/stm32h5xx_nucleo.o
 .data          0x00000000        0x0 build/stm32h5xx_nucleo.o
 .bss           0x00000000        0x0 build/stm32h5xx_nucleo.o
 .text.COM1_MspDeInit
                0x00000000       0x34 build/stm32h5xx_nucleo.o
 .text.BSP_GetVersion
                0x00000000        0x8 build/stm32h5xx_nucleo.o
 .rodata.BSP_GetBoardName.str1.4
                0x00000000        0xe build/stm32h5xx_nucleo.o
 .text.BSP_GetBoardName
                0x00000000        0x8 build/stm32h5xx_nucleo.o
 .rodata.BSP_GetBoardID.str1.4
                0x00000000        0x8 build/stm32h5xx_nucleo.o
 .text.BSP_GetBoardID
                0x00000000        0x8 build/stm32h5xx_nucleo.o
 .text.BSP_LED_DeInit
                0x00000000       0x2c build/stm32h5xx_nucleo.o
 .text.BSP_LED_Off
                0x00000000       0x1c build/stm32h5xx_nucleo.o
 .text.BSP_LED_GetState
                0x00000000       0x18 build/stm32h5xx_nucleo.o
 .text.BSP_PB_DeInit
                0x00000000       0x24 build/stm32h5xx_nucleo.o
 .text.BSP_PB_GetState
                0x00000000       0x14 build/stm32h5xx_nucleo.o
 .text.BSP_PB_Callback
                0x00000000        0x2 build/stm32h5xx_nucleo.o
 .text.BSP_COM_DeInit
                0x00000000       0x3c build/stm32h5xx_nucleo.o
 .text.BSP_COM_SelectLogPort
                0x00000000       0x14 build/stm32h5xx_nucleo.o
 .text          0x00000000        0x0 build/stm32h5xx_hal_cortex.o
 .data          0x00000000        0x0 build/stm32h5xx_hal_cortex.o
 .bss           0x00000000        0x0 build/stm32h5xx_hal_cortex.o
 .text.__NVIC_DisableIRQ
                0x00000000       0x24 build/stm32h5xx_hal_cortex.o
 .text.__NVIC_GetPriority
                0x00000000       0x24 build/stm32h5xx_hal_cortex.o
 .text.NVIC_DecodePriority
                0x00000000       0x3e build/stm32h5xx_hal_cortex.o
 .text.__NVIC_SystemReset
                0x00000000       0x24 build/stm32h5xx_hal_cortex.o
 .text.MPU_ConfigRegion
                0x00000000       0x3c build/stm32h5xx_hal_cortex.o
 .text.MPU_ConfigMemoryAttributes
                0x00000000       0x30 build/stm32h5xx_hal_cortex.o
 .text.HAL_NVIC_DisableIRQ
                0x00000000        0x8 build/stm32h5xx_hal_cortex.o
 .text.HAL_NVIC_SystemReset
                0x00000000        0x6 build/stm32h5xx_hal_cortex.o
 .text.HAL_NVIC_GetPriorityGrouping
                0x00000000       0x10 build/stm32h5xx_hal_cortex.o
 .text.HAL_NVIC_GetPriority
                0x00000000       0x18 build/stm32h5xx_hal_cortex.o
 .text.HAL_NVIC_SetPendingIRQ
                0x00000000       0x1c build/stm32h5xx_hal_cortex.o
 .text.HAL_NVIC_GetPendingIRQ
                0x00000000       0x24 build/stm32h5xx_hal_cortex.o
 .text.HAL_NVIC_ClearPendingIRQ
                0x00000000       0x1c build/stm32h5xx_hal_cortex.o
 .text.HAL_NVIC_GetActive
                0x00000000       0x24 build/stm32h5xx_hal_cortex.o
 .text.HAL_SYSTICK_Callback
                0x00000000        0x2 build/stm32h5xx_hal_cortex.o
 .text.HAL_SYSTICK_IRQHandler
                0x00000000        0x8 build/stm32h5xx_hal_cortex.o
 .text.HAL_MPU_Enable
                0x00000000       0x24 build/stm32h5xx_hal_cortex.o
 .text.HAL_MPU_Disable
                0x00000000       0x28 build/stm32h5xx_hal_cortex.o
 .text.HAL_MPU_EnableRegion
                0x00000000       0x18 build/stm32h5xx_hal_cortex.o
 .text.HAL_MPU_DisableRegion
                0x00000000       0x18 build/stm32h5xx_hal_cortex.o
 .text.HAL_MPU_ConfigRegion
                0x00000000       0x10 build/stm32h5xx_hal_cortex.o
 .text.HAL_MPU_ConfigMemoryAttributes
                0x00000000       0x10 build/stm32h5xx_hal_cortex.o
 .text          0x00000000        0x0 build/stm32h5xx_hal_rcc.o
 .data          0x00000000        0x0 build/stm32h5xx_hal_rcc.o
 .bss           0x00000000        0x0 build/stm32h5xx_hal_rcc.o
 .text.HAL_RCC_DeInit
                0x00000000      0x180 build/stm32h5xx_hal_rcc.o
 .text.HAL_RCC_MCOConfig
                0x00000000       0xa4 build/stm32h5xx_hal_rcc.o
 .text.HAL_RCC_GetOscConfig
                0x00000000       0xa4 build/stm32h5xx_hal_rcc.o
 .text.HAL_RCC_GetClockConfig
                0x00000000       0x40 build/stm32h5xx_hal_rcc.o
 .text.HAL_RCC_GetResetSource
                0x00000000       0x1c build/stm32h5xx_hal_rcc.o
 .text.HAL_RCC_EnableCSS
                0x00000000       0x10 build/stm32h5xx_hal_rcc.o
 .text.HAL_RCC_CSSCallback
                0x00000000        0x2 build/stm32h5xx_hal_rcc.o
 .text.HAL_RCC_NMI_IRQHandler
                0x00000000       0x20 build/stm32h5xx_hal_rcc.o
 .text.HAL_RCC_ConfigAttributes
                0x00000000       0x30 build/stm32h5xx_hal_rcc.o
 .text.HAL_RCC_GetConfigAttributes
                0x00000000       0x24 build/stm32h5xx_hal_rcc.o
 .text          0x00000000        0x0 build/stm32h5xx_hal_rcc_ex.o
 .data          0x00000000        0x0 build/stm32h5xx_hal_rcc_ex.o
 .bss           0x00000000        0x0 build/stm32h5xx_hal_rcc_ex.o
 .text.RCCEx_PLLSource_Enable
                0x00000000       0xc4 build/stm32h5xx_hal_rcc_ex.o
 .text.HAL_RCCEx_GetPeriphCLKConfig
                0x00000000      0x17c build/stm32h5xx_hal_rcc_ex.o
 .text.HAL_RCCEx_EnablePLL2
                0x00000000       0xec build/stm32h5xx_hal_rcc_ex.o
 .text.HAL_RCCEx_DisablePLL2
                0x00000000       0x40 build/stm32h5xx_hal_rcc_ex.o
 .text.HAL_RCCEx_WakeUpStopCLKConfig
                0x00000000       0x14 build/stm32h5xx_hal_rcc_ex.o
 .text.HAL_RCCEx_KerWakeUpStopCLKConfig
                0x00000000       0x14 build/stm32h5xx_hal_rcc_ex.o
 .text.HAL_RCCEx_EnableLSECSS
                0x00000000       0x14 build/stm32h5xx_hal_rcc_ex.o
 .text.HAL_RCCEx_DisableLSECSS
                0x00000000       0x14 build/stm32h5xx_hal_rcc_ex.o
 .text.HAL_RCCEx_LSECSS_Callback
                0x00000000        0x2 build/stm32h5xx_hal_rcc_ex.o
 .text.HAL_RCCEx_LSECSS_IRQHandler
                0x00000000       0x1c build/stm32h5xx_hal_rcc_ex.o
 .text.HAL_RCCEx_EnableLSCO
                0x00000000       0x40 build/stm32h5xx_hal_rcc_ex.o
 .text.HAL_RCCEx_DisableLSCO
                0x00000000       0x38 build/stm32h5xx_hal_rcc_ex.o
 .text.HAL_RCCEx_CRSConfig
                0x00000000       0x4c build/stm32h5xx_hal_rcc_ex.o
 .text.HAL_RCCEx_CRSSoftwareSynchronizationGenerate
                0x00000000       0x10 build/stm32h5xx_hal_rcc_ex.o
 .text.HAL_RCCEx_CRSGetSynchronizationInfo
                0x00000000       0x24 build/stm32h5xx_hal_rcc_ex.o
 .text.HAL_RCCEx_CRSWaitSynchronization
                0x00000000       0xac build/stm32h5xx_hal_rcc_ex.o
 .text.HAL_RCCEx_CRS_SyncOkCallback
                0x00000000        0x2 build/stm32h5xx_hal_rcc_ex.o
 .text.HAL_RCCEx_CRS_SyncWarnCallback
                0x00000000        0x2 build/stm32h5xx_hal_rcc_ex.o
 .text.HAL_RCCEx_CRS_ExpectedSyncCallback
                0x00000000        0x2 build/stm32h5xx_hal_rcc_ex.o
 .text.HAL_RCCEx_CRS_ErrorCallback
                0x00000000        0x2 build/stm32h5xx_hal_rcc_ex.o
 .text.HAL_RCCEx_CRS_IRQHandler
                0x00000000       0x88 build/stm32h5xx_hal_rcc_ex.o
 .text          0x00000000        0x0 build/stm32h5xx_hal_flash.o
 .data          0x00000000        0x0 build/stm32h5xx_hal_flash.o
 .bss           0x00000000        0x0 build/stm32h5xx_hal_flash.o
 .text.FLASH_Program_QuadWord
                0x00000000       0x2c build/stm32h5xx_hal_flash.o
 .text.FLASH_Program_HalfWord
                0x00000000       0x18 build/stm32h5xx_hal_flash.o
 .text.HAL_FLASH_EndOfOperationCallback
                0x00000000        0x2 build/stm32h5xx_hal_flash.o
 .text.HAL_FLASH_OperationErrorCallback
                0x00000000        0x2 build/stm32h5xx_hal_flash.o
 .text.HAL_FLASH_IRQHandler
                0x00000000       0xe8 build/stm32h5xx_hal_flash.o
 .text.HAL_FLASH_Unlock
                0x00000000       0x34 build/stm32h5xx_hal_flash.o
 .text.HAL_FLASH_Lock
                0x00000000       0x20 build/stm32h5xx_hal_flash.o
 .text.HAL_FLASH_OB_Unlock
                0x00000000       0x34 build/stm32h5xx_hal_flash.o
 .text.HAL_FLASH_OB_Lock
                0x00000000       0x20 build/stm32h5xx_hal_flash.o
 .text.HAL_FLASH_GetError
                0x00000000        0xc build/stm32h5xx_hal_flash.o
 .text.FLASH_WaitForLastOperation
                0x00000000       0x6c build/stm32h5xx_hal_flash.o
 .text.HAL_FLASH_Program
                0x00000000       0x6c build/stm32h5xx_hal_flash.o
 .text.HAL_FLASH_Program_IT
                0x00000000       0x68 build/stm32h5xx_hal_flash.o
 .text.HAL_FLASH_OB_Launch
                0x00000000       0x1c build/stm32h5xx_hal_flash.o
 .data.pFlash   0x00000000       0x1c build/stm32h5xx_hal_flash.o
 .debug_info    0x00000000      0xbaf build/stm32h5xx_hal_flash.o
 .debug_abbrev  0x00000000      0x362 build/stm32h5xx_hal_flash.o
 .debug_loc     0x00000000      0x638 build/stm32h5xx_hal_flash.o
 .debug_aranges
                0x00000000       0x88 build/stm32h5xx_hal_flash.o
 .debug_ranges  0x00000000       0x78 build/stm32h5xx_hal_flash.o
 .debug_line    0x00000000      0x699 build/stm32h5xx_hal_flash.o
 .debug_str     0x00000000      0x6d3 build/stm32h5xx_hal_flash.o
 .comment       0x00000000       0x13 build/stm32h5xx_hal_flash.o
 .debug_frame   0x00000000      0x130 build/stm32h5xx_hal_flash.o
 .ARM.attributes
                0x00000000       0x3a build/stm32h5xx_hal_flash.o
 .text          0x00000000        0x0 build/stm32h5xx_hal_flash_ex.o
 .data          0x00000000        0x0 build/stm32h5xx_hal_flash_ex.o
 .bss           0x00000000        0x0 build/stm32h5xx_hal_flash_ex.o
 .text.FLASH_MassErase
                0x00000000       0x4c build/stm32h5xx_hal_flash_ex.o
 .text.FLASH_OB_EnableWRP
                0x00000000       0x34 build/stm32h5xx_hal_flash_ex.o
 .text.FLASH_OB_DisableWRP
                0x00000000       0x34 build/stm32h5xx_hal_flash_ex.o
 .text.FLASH_OB_GetWRP
                0x00000000       0x30 build/stm32h5xx_hal_flash_ex.o
 .text.FLASH_OB_ProdStateConfig
                0x00000000       0x14 build/stm32h5xx_hal_flash_ex.o
 .text.FLASH_OB_GetProdState
                0x00000000       0x10 build/stm32h5xx_hal_flash_ex.o
 .text.FLASH_OB_UserConfig
                0x00000000      0x134 build/stm32h5xx_hal_flash_ex.o
 .text.FLASH_OB_GetUser
                0x00000000       0x14 build/stm32h5xx_hal_flash_ex.o
 .text.FLASH_OB_BootAddrConfig
                0x00000000       0x1c build/stm32h5xx_hal_flash_ex.o
 .text.FLASH_OB_BootLockConfig
                0x00000000       0x1c build/stm32h5xx_hal_flash_ex.o
 .text.FLASH_OB_GetBootConfig
                0x00000000       0x20 build/stm32h5xx_hal_flash_ex.o
 .text.FLASH_OB_OTP_LockConfig
                0x00000000       0x14 build/stm32h5xx_hal_flash_ex.o
 .text.FLASH_OB_OTP_GetLock
                0x00000000        0xc build/stm32h5xx_hal_flash_ex.o
 .text.FLASH_OB_HDPConfig
                0x00000000       0x40 build/stm32h5xx_hal_flash_ex.o
 .text.FLASH_OB_GetHDP
                0x00000000       0x2c build/stm32h5xx_hal_flash_ex.o
 .text.HAL_FLASHEx_OBProgram
                0x00000000       0xc8 build/stm32h5xx_hal_flash_ex.o
 .text.HAL_FLASHEx_OBGetConfig
                0x00000000       0x7a build/stm32h5xx_hal_flash_ex.o
 .text.HAL_FLASHEx_GetOperation
                0x00000000       0x1c build/stm32h5xx_hal_flash_ex.o
 .text.HAL_FLASHEx_ConfigBBAttributes
                0x00000000       0x54 build/stm32h5xx_hal_flash_ex.o
 .text.HAL_FLASHEx_GetConfigBBAttributes
                0x00000000       0x30 build/stm32h5xx_hal_flash_ex.o
 .text.HAL_FLASHEx_ConfigPrivMode
                0x00000000       0x14 build/stm32h5xx_hal_flash_ex.o
 .text.HAL_FLASHEx_GetPrivMode
                0x00000000       0x10 build/stm32h5xx_hal_flash_ex.o
 .text.HAL_FLASHEx_ConfigHDPExtension
                0x00000000       0x40 build/stm32h5xx_hal_flash_ex.o
 .text.FLASH_Erase_Sector
                0x00000000       0x44 build/stm32h5xx_hal_flash_ex.o
 .text.HAL_FLASHEx_Erase
                0x00000000       0xa0 build/stm32h5xx_hal_flash_ex.o
 .text.HAL_FLASHEx_Erase_IT
                0x00000000       0x74 build/stm32h5xx_hal_flash_ex.o
 .text.HAL_FLASHEx_EnableEccCorrectionInterrupt
                0x00000000       0x14 build/stm32h5xx_hal_flash_ex.o
 .text.HAL_FLASHEx_DisableEccCorrectionInterrupt
                0x00000000       0x14 build/stm32h5xx_hal_flash_ex.o
 .text.HAL_FLASHEx_GetEccInfo
                0x00000000       0xbc build/stm32h5xx_hal_flash_ex.o
 .text.HAL_FLASHEx_EccCorrectionCallback
                0x00000000        0x2 build/stm32h5xx_hal_flash_ex.o
 .text.HAL_FLASHEx_EccDetectionCallback
                0x00000000        0x2 build/stm32h5xx_hal_flash_ex.o
 .text.HAL_FLASHEx_ECCD_IRQHandler
                0x00000000       0x28 build/stm32h5xx_hal_flash_ex.o
 .debug_info    0x00000000     0x11a6 build/stm32h5xx_hal_flash_ex.o
 .debug_abbrev  0x00000000      0x303 build/stm32h5xx_hal_flash_ex.o
 .debug_loc     0x00000000      0xa38 build/stm32h5xx_hal_flash_ex.o
 .debug_aranges
                0x00000000      0x118 build/stm32h5xx_hal_flash_ex.o
 .debug_ranges  0x00000000      0x108 build/stm32h5xx_hal_flash_ex.o
 .debug_line    0x00000000      0xd53 build/stm32h5xx_hal_flash_ex.o
 .debug_str     0x00000000      0xa8b build/stm32h5xx_hal_flash_ex.o
 .comment       0x00000000       0x13 build/stm32h5xx_hal_flash_ex.o
 .debug_frame   0x00000000      0x278 build/stm32h5xx_hal_flash_ex.o
 .ARM.attributes
                0x00000000       0x3a build/stm32h5xx_hal_flash_ex.o
 .text          0x00000000        0x0 build/stm32h5xx_hal_gpio.o
 .data          0x00000000        0x0 build/stm32h5xx_hal_gpio.o
 .bss           0x00000000        0x0 build/stm32h5xx_hal_gpio.o
 .text.HAL_GPIO_DeInit
                0x00000000       0xdc build/stm32h5xx_hal_gpio.o
 .text.HAL_GPIO_ReadPin
                0x00000000        0xe build/stm32h5xx_hal_gpio.o
 .text.HAL_GPIO_WriteMultipleStatePin
                0x00000000        0x8 build/stm32h5xx_hal_gpio.o
 .text.HAL_GPIO_LockPin
                0x00000000       0x2e build/stm32h5xx_hal_gpio.o
 .text.HAL_GPIO_EnableHighSPeedLowVoltage
                0x00000000        0x8 build/stm32h5xx_hal_gpio.o
 .text.HAL_GPIO_DisableHighSPeedLowVoltage
                0x00000000        0xa build/stm32h5xx_hal_gpio.o
 .text          0x00000000        0x0 build/stm32h5xx_hal_dma.o
 .data          0x00000000        0x0 build/stm32h5xx_hal_dma.o
 .bss           0x00000000        0x0 build/stm32h5xx_hal_dma.o
 .text.DMA_SetConfig
                0x00000000       0x2a build/stm32h5xx_hal_dma.o
 .text.HAL_DMA_DeInit
                0x00000000       0xd8 build/stm32h5xx_hal_dma.o
 .text.HAL_DMA_Start
                0x00000000       0x50 build/stm32h5xx_hal_dma.o
 .text.HAL_DMA_Start_IT
                0x00000000       0x78 build/stm32h5xx_hal_dma.o
 .text.HAL_DMA_Abort
                0x00000000       0xaa build/stm32h5xx_hal_dma.o
 .text.HAL_DMA_Abort_IT
                0x00000000       0x2e build/stm32h5xx_hal_dma.o
 .text.HAL_DMA_PollForTransfer
                0x00000000      0x14c build/stm32h5xx_hal_dma.o
 .text.HAL_DMA_RegisterCallback
                0x00000000       0x4c build/stm32h5xx_hal_dma.o
 .text.HAL_DMA_UnRegisterCallback
                0x00000000       0x52 build/stm32h5xx_hal_dma.o
 .text.HAL_DMA_GetState
                0x00000000        0x6 build/stm32h5xx_hal_dma.o
 .text.HAL_DMA_GetError
                0x00000000        0x4 build/stm32h5xx_hal_dma.o
 .text.HAL_DMA_GetConfigChannelAttributes
                0x00000000       0x38 build/stm32h5xx_hal_dma.o
 .text          0x00000000        0x0 build/stm32h5xx_hal_dma_ex.o
 .data          0x00000000        0x0 build/stm32h5xx_hal_dma_ex.o
 .bss           0x00000000        0x0 build/stm32h5xx_hal_dma_ex.o
 .text.DMA_List_Init
                0x00000000       0xc4 build/stm32h5xx_hal_dma_ex.o
 .text.DMA_List_BuildNode
                0x00000000      0x1b4 build/stm32h5xx_hal_dma_ex.o
 .text.DMA_List_GetNodeConfig
                0x00000000      0x128 build/stm32h5xx_hal_dma_ex.o
 .text.DMA_List_CheckNodesBaseAddresses
                0x00000000       0x2e build/stm32h5xx_hal_dma_ex.o
 .text.DMA_List_CheckNodesTypes
                0x00000000       0x3e build/stm32h5xx_hal_dma_ex.o
 .text.DMA_List_GetCLLRNodeInfo
                0x00000000       0x2c build/stm32h5xx_hal_dma_ex.o
 .text.DMA_List_FindNode
                0x00000000       0xcc build/stm32h5xx_hal_dma_ex.o
 .text.DMA_List_ResetQueueNodes
                0x00000000       0x4a build/stm32h5xx_hal_dma_ex.o
 .text.DMA_List_FillNode
                0x00000000       0x18 build/stm32h5xx_hal_dma_ex.o
 .text.DMA_List_FormatNode
                0x00000000       0x34 build/stm32h5xx_hal_dma_ex.o
 .text.DMA_List_ConvertNodeToStatic
                0x00000000       0x80 build/stm32h5xx_hal_dma_ex.o
 .text.DMA_List_ClearUnusedFields
                0x00000000       0x10 build/stm32h5xx_hal_dma_ex.o
 .text.DMA_List_ConvertNodeToDynamic
                0x00000000       0xb4 build/stm32h5xx_hal_dma_ex.o
 .text.DMA_List_UpdateDynamicQueueNodesCLLR
                0x00000000       0x8a build/stm32h5xx_hal_dma_ex.o
 .text.DMA_List_UpdateStaticQueueNodesCLLR
                0x00000000       0x72 build/stm32h5xx_hal_dma_ex.o
 .text.DMA_List_CleanQueue
                0x00000000       0x10 build/stm32h5xx_hal_dma_ex.o
 .text.HAL_DMAEx_List_Init
                0x00000000       0x5e build/stm32h5xx_hal_dma_ex.o
 .text.HAL_DMAEx_List_DeInit
                0x00000000       0xe4 build/stm32h5xx_hal_dma_ex.o
 .text.HAL_DMAEx_List_Start
                0x00000000       0xa4 build/stm32h5xx_hal_dma_ex.o
 .text.HAL_DMAEx_List_Start_IT
                0x00000000       0xcc build/stm32h5xx_hal_dma_ex.o
 .text.HAL_DMAEx_List_BuildNode
                0x00000000       0x16 build/stm32h5xx_hal_dma_ex.o
 .text.HAL_DMAEx_List_GetNodeConfig
                0x00000000       0x16 build/stm32h5xx_hal_dma_ex.o
 .text.HAL_DMAEx_List_InsertNode
                0x00000000      0x11c build/stm32h5xx_hal_dma_ex.o
 .text.HAL_DMAEx_List_InsertNode_Head
                0x00000000       0x8e build/stm32h5xx_hal_dma_ex.o
 .text.HAL_DMAEx_List_InsertNode_Tail
                0x00000000       0xae build/stm32h5xx_hal_dma_ex.o
 .text.HAL_DMAEx_List_RemoveNode
                0x00000000      0x114 build/stm32h5xx_hal_dma_ex.o
 .text.HAL_DMAEx_List_RemoveNode_Head
                0x00000000       0xac build/stm32h5xx_hal_dma_ex.o
 .text.HAL_DMAEx_List_RemoveNode_Tail
                0x00000000       0x8c build/stm32h5xx_hal_dma_ex.o
 .text.HAL_DMAEx_List_ReplaceNode
                0x00000000      0x17a build/stm32h5xx_hal_dma_ex.o
 .text.HAL_DMAEx_List_ReplaceNode_Head
                0x00000000       0xb8 build/stm32h5xx_hal_dma_ex.o
 .text.HAL_DMAEx_List_ReplaceNode_Tail
                0x00000000       0xae build/stm32h5xx_hal_dma_ex.o
 .text.HAL_DMAEx_List_ResetQ
                0x00000000       0x56 build/stm32h5xx_hal_dma_ex.o
 .text.HAL_DMAEx_List_InsertQ
                0x00000000      0x1d4 build/stm32h5xx_hal_dma_ex.o
 .text.HAL_DMAEx_List_InsertQ_Head
                0x00000000      0x106 build/stm32h5xx_hal_dma_ex.o
 .text.HAL_DMAEx_List_InsertQ_Tail
                0x00000000      0x104 build/stm32h5xx_hal_dma_ex.o
 .text.HAL_DMAEx_List_SetCircularModeConfig
                0x00000000       0x9a build/stm32h5xx_hal_dma_ex.o
 .text.HAL_DMAEx_List_SetCircularMode
                0x00000000       0x80 build/stm32h5xx_hal_dma_ex.o
 .text.HAL_DMAEx_List_ClearCircularMode
                0x00000000       0x62 build/stm32h5xx_hal_dma_ex.o
 .text.HAL_DMAEx_List_ConvertQToDynamic
                0x00000000       0xc0 build/stm32h5xx_hal_dma_ex.o
 .text.HAL_DMAEx_List_ConvertQToStatic
                0x00000000       0x8a build/stm32h5xx_hal_dma_ex.o
 .text.HAL_DMAEx_List_LinkQ
                0x00000000       0x94 build/stm32h5xx_hal_dma_ex.o
 .text.HAL_DMAEx_List_UnLinkQ
                0x00000000       0x2e build/stm32h5xx_hal_dma_ex.o
 .text.HAL_DMAEx_ConfigDataHandling
                0x00000000       0x3c build/stm32h5xx_hal_dma_ex.o
 .text.HAL_DMAEx_ConfigTrigger
                0x00000000       0x48 build/stm32h5xx_hal_dma_ex.o
 .text.HAL_DMAEx_ConfigRepeatBlock
                0x00000000       0x8c build/stm32h5xx_hal_dma_ex.o
 .text.HAL_DMAEx_Suspend
                0x00000000       0x66 build/stm32h5xx_hal_dma_ex.o
 .text.HAL_DMAEx_Suspend_IT
                0x00000000       0x2e build/stm32h5xx_hal_dma_ex.o
 .text.HAL_DMAEx_Resume
                0x00000000       0x3a build/stm32h5xx_hal_dma_ex.o
 .text.HAL_DMAEx_GetFifoLevel
                0x00000000        0xa build/stm32h5xx_hal_dma_ex.o
 .rodata        0x00000000       0x20 build/stm32h5xx_hal_dma_ex.o
 .debug_info    0x00000000     0x2801 build/stm32h5xx_hal_dma_ex.o
 .debug_abbrev  0x00000000      0x292 build/stm32h5xx_hal_dma_ex.o
 .debug_loc     0x00000000     0x2f8d build/stm32h5xx_hal_dma_ex.o
 .debug_aranges
                0x00000000      0x1a0 build/stm32h5xx_hal_dma_ex.o
 .debug_ranges  0x00000000      0x1c0 build/stm32h5xx_hal_dma_ex.o
 .debug_line    0x00000000     0x2ff1 build/stm32h5xx_hal_dma_ex.o
 .debug_str     0x00000000      0xf73 build/stm32h5xx_hal_dma_ex.o
 .comment       0x00000000       0x13 build/stm32h5xx_hal_dma_ex.o
 .debug_frame   0x00000000      0x6f0 build/stm32h5xx_hal_dma_ex.o
 .ARM.attributes
                0x00000000       0x3a build/stm32h5xx_hal_dma_ex.o
 .text          0x00000000        0x0 build/stm32h5xx_hal_pwr.o
 .data          0x00000000        0x0 build/stm32h5xx_hal_pwr.o
 .bss           0x00000000        0x0 build/stm32h5xx_hal_pwr.o
 .text.HAL_PWR_DeInit
                0x00000000        0x2 build/stm32h5xx_hal_pwr.o
 .text.HAL_PWR_EnableBkUpAccess
                0x00000000       0x10 build/stm32h5xx_hal_pwr.o
 .text.HAL_PWR_DisableBkUpAccess
                0x00000000       0x10 build/stm32h5xx_hal_pwr.o
 .text.HAL_PWR_ConfigPVD
                0x00000000       0x94 build/stm32h5xx_hal_pwr.o
 .text.HAL_PWR_EnablePVD
                0x00000000       0x10 build/stm32h5xx_hal_pwr.o
 .text.HAL_PWR_DisablePVD
                0x00000000       0x10 build/stm32h5xx_hal_pwr.o
 .text.HAL_PWR_EnableWakeUpPin
                0x00000000       0x18 build/stm32h5xx_hal_pwr.o
 .text.HAL_PWR_DisableWakeUpPin
                0x00000000       0x14 build/stm32h5xx_hal_pwr.o
 .text.HAL_PWR_EnterSLEEPMode
                0x00000000       0x20 build/stm32h5xx_hal_pwr.o
 .text.HAL_PWR_EnterSTOPMode
                0x00000000       0x38 build/stm32h5xx_hal_pwr.o
 .text.HAL_PWR_EnterSTANDBYMode
                0x00000000       0x28 build/stm32h5xx_hal_pwr.o
 .text.HAL_PWR_EnableSleepOnExit
                0x00000000       0x10 build/stm32h5xx_hal_pwr.o
 .text.HAL_PWR_DisableSleepOnExit
                0x00000000       0x10 build/stm32h5xx_hal_pwr.o
 .text.HAL_PWR_EnableSEVOnPend
                0x00000000       0x10 build/stm32h5xx_hal_pwr.o
 .text.HAL_PWR_DisableSEVOnPend
                0x00000000       0x10 build/stm32h5xx_hal_pwr.o
 .text.HAL_PWR_PVDCallback
                0x00000000        0x2 build/stm32h5xx_hal_pwr.o
 .text.HAL_PWR_PVD_IRQHandler
                0x00000000       0x28 build/stm32h5xx_hal_pwr.o
 .text.HAL_PWR_ConfigAttributes
                0x00000000       0x34 build/stm32h5xx_hal_pwr.o
 .text.HAL_PWR_GetConfigAttributes
                0x00000000       0x24 build/stm32h5xx_hal_pwr.o
 .debug_info    0x00000000      0xb7e build/stm32h5xx_hal_pwr.o
 .debug_abbrev  0x00000000      0x243 build/stm32h5xx_hal_pwr.o
 .debug_loc     0x00000000      0x13b build/stm32h5xx_hal_pwr.o
 .debug_aranges
                0x00000000       0xb0 build/stm32h5xx_hal_pwr.o
 .debug_ranges  0x00000000       0xa0 build/stm32h5xx_hal_pwr.o
 .debug_line    0x00000000      0x45d build/stm32h5xx_hal_pwr.o
 .debug_str     0x00000000      0x67b build/stm32h5xx_hal_pwr.o
 .comment       0x00000000       0x13 build/stm32h5xx_hal_pwr.o
 .debug_frame   0x00000000      0x148 build/stm32h5xx_hal_pwr.o
 .ARM.attributes
                0x00000000       0x3a build/stm32h5xx_hal_pwr.o
 .text          0x00000000        0x0 build/stm32h5xx_hal_pwr_ex.o
 .data          0x00000000        0x0 build/stm32h5xx_hal_pwr_ex.o
 .bss           0x00000000        0x0 build/stm32h5xx_hal_pwr_ex.o
 .text.HAL_PWREx_ConfigSupply
                0x00000000       0x48 build/stm32h5xx_hal_pwr_ex.o
 .text.HAL_PWREx_GetSupplyConfig
                0x00000000       0x14 build/stm32h5xx_hal_pwr_ex.o
 .text.HAL_PWREx_ControlVoltageScaling
                0x00000000       0x48 build/stm32h5xx_hal_pwr_ex.o
 .text.HAL_PWREx_GetVoltageRange
                0x00000000       0x10 build/stm32h5xx_hal_pwr_ex.o
 .text.HAL_PWREx_ControlStopModeVoltageScaling
                0x00000000       0x14 build/stm32h5xx_hal_pwr_ex.o
 .text.HAL_PWREx_GetStopModeVoltageRange
                0x00000000       0x10 build/stm32h5xx_hal_pwr_ex.o
 .text.HAL_PWREx_ConfigAVD
                0x00000000       0x94 build/stm32h5xx_hal_pwr_ex.o
 .text.HAL_PWREx_EnableAVD
                0x00000000       0x10 build/stm32h5xx_hal_pwr_ex.o
 .text.HAL_PWREx_DisableAVD
                0x00000000       0x10 build/stm32h5xx_hal_pwr_ex.o
 .text.HAL_PWREx_EnableMonitoring
                0x00000000       0x10 build/stm32h5xx_hal_pwr_ex.o
 .text.HAL_PWREx_DisableMonitoring
                0x00000000       0x10 build/stm32h5xx_hal_pwr_ex.o
 .text.HAL_PWREx_EnableBatteryCharging
                0x00000000       0x1c build/stm32h5xx_hal_pwr_ex.o
 .text.HAL_PWREx_DisableBatteryCharging
                0x00000000       0x10 build/stm32h5xx_hal_pwr_ex.o
 .text.HAL_PWREx_EnableAnalogBooster
                0x00000000       0x18 build/stm32h5xx_hal_pwr_ex.o
 .text.HAL_PWREx_DisableAnalogBooster
                0x00000000       0x18 build/stm32h5xx_hal_pwr_ex.o
 .text.HAL_PWREx_PVD_AVD_Rising_Callback
                0x00000000        0x2 build/stm32h5xx_hal_pwr_ex.o
 .text.HAL_PWREx_PVD_AVD_Falling_Callback
                0x00000000        0x2 build/stm32h5xx_hal_pwr_ex.o
 .text.HAL_PWREx_PVD_AVD_IRQHandler
                0x00000000       0x38 build/stm32h5xx_hal_pwr_ex.o
 .text.HAL_PWREx_EnableWakeUpPin
                0x00000000       0x88 build/stm32h5xx_hal_pwr_ex.o
 .text.HAL_PWREx_DisableWakeUpPin
                0x00000000       0x14 build/stm32h5xx_hal_pwr_ex.o
 .text.HAL_PWREx_EnableFlashPowerDown
                0x00000000       0x10 build/stm32h5xx_hal_pwr_ex.o
 .text.HAL_PWREx_DisableFlashPowerDown
                0x00000000       0x10 build/stm32h5xx_hal_pwr_ex.o
 .text.HAL_PWREx_EnableMemoryShutOff
                0x00000000       0x10 build/stm32h5xx_hal_pwr_ex.o
 .text.HAL_PWREx_DisableMemoryShutOff
                0x00000000       0x10 build/stm32h5xx_hal_pwr_ex.o
 .text.HAL_PWREx_EnableBkupRAMRetention
                0x00000000       0x14 build/stm32h5xx_hal_pwr_ex.o
 .text.HAL_PWREx_DisableBkupRAMRetention
                0x00000000       0x10 build/stm32h5xx_hal_pwr_ex.o
 .text.HAL_PWREx_EnableStandbyIORetention
                0x00000000       0x10 build/stm32h5xx_hal_pwr_ex.o
 .text.HAL_PWREx_DisableStandbyIORetention
                0x00000000       0x10 build/stm32h5xx_hal_pwr_ex.o
 .text.HAL_PWREx_EnableStandbyJTAGIORetention
                0x00000000       0x10 build/stm32h5xx_hal_pwr_ex.o
 .text.HAL_PWREx_DisableStandbyJTAGIORetention
                0x00000000       0x10 build/stm32h5xx_hal_pwr_ex.o
 .debug_info    0x00000000      0xad6 build/stm32h5xx_hal_pwr_ex.o
 .debug_abbrev  0x00000000      0x2d6 build/stm32h5xx_hal_pwr_ex.o
 .debug_loc     0x00000000      0x341 build/stm32h5xx_hal_pwr_ex.o
 .debug_aranges
                0x00000000      0x108 build/stm32h5xx_hal_pwr_ex.o
 .debug_ranges  0x00000000      0x158 build/stm32h5xx_hal_pwr_ex.o
 .debug_line    0x00000000      0x6cf build/stm32h5xx_hal_pwr_ex.o
 .debug_str     0x00000000      0x7a7 build/stm32h5xx_hal_pwr_ex.o
 .comment       0x00000000       0x13 build/stm32h5xx_hal_pwr_ex.o
 .debug_frame   0x00000000      0x20c build/stm32h5xx_hal_pwr_ex.o
 .ARM.attributes
                0x00000000       0x3a build/stm32h5xx_hal_pwr_ex.o
 .text          0x00000000        0x0 build/stm32h5xx_hal.o
 .data          0x00000000        0x0 build/stm32h5xx_hal.o
 .bss           0x00000000        0x0 build/stm32h5xx_hal.o
 .text.HAL_MspInit
                0x00000000        0x2 build/stm32h5xx_hal.o
 .text.HAL_MspDeInit
                0x00000000        0x2 build/stm32h5xx_hal.o
 .text.HAL_DeInit
                0x00000000       0x54 build/stm32h5xx_hal.o
 .text.HAL_GetTickPrio
                0x00000000        0xc build/stm32h5xx_hal.o
 .text.HAL_SetTickFreq
                0x00000000       0x2c build/stm32h5xx_hal.o
 .text.HAL_GetTickFreq
                0x00000000        0xc build/stm32h5xx_hal.o
 .text.HAL_Delay
                0x00000000       0x28 build/stm32h5xx_hal.o
 .text.HAL_SuspendTick
                0x00000000        0xe build/stm32h5xx_hal.o
 .text.HAL_ResumeTick
                0x00000000        0xe build/stm32h5xx_hal.o
 .text.HAL_GetHalVersion
                0x00000000        0x8 build/stm32h5xx_hal.o
 .text.HAL_GetREVID
                0x00000000        0xc build/stm32h5xx_hal.o
 .text.HAL_GetDEVID
                0x00000000       0x10 build/stm32h5xx_hal.o
 .text.HAL_GetUIDw0
                0x00000000        0xc build/stm32h5xx_hal.o
 .text.HAL_GetUIDw1
                0x00000000        0xc build/stm32h5xx_hal.o
 .text.HAL_GetUIDw2
                0x00000000        0xc build/stm32h5xx_hal.o
 .text.HAL_DBGMCU_EnableDBGStopMode
                0x00000000       0x10 build/stm32h5xx_hal.o
 .text.HAL_DBGMCU_DisableDBGStopMode
                0x00000000       0x10 build/stm32h5xx_hal.o
 .text.HAL_DBGMCU_EnableDBGStandbyMode
                0x00000000       0x10 build/stm32h5xx_hal.o
 .text.HAL_DBGMCU_DisableDBGStandbyMode
                0x00000000       0x10 build/stm32h5xx_hal.o
 .text.HAL_SBS_EnableVddIO1CompensationCell
                0x00000000       0x14 build/stm32h5xx_hal.o
 .text.HAL_SBS_DisableVddIO1CompensationCell
                0x00000000       0x14 build/stm32h5xx_hal.o
 .text.HAL_SBS_EnableVddIO2CompensationCell
                0x00000000       0x14 build/stm32h5xx_hal.o
 .text.HAL_SBS_DisableVddIO2CompensationCell
                0x00000000       0x14 build/stm32h5xx_hal.o
 .text.HAL_SBS_VDDCompensationCodeSelect
                0x00000000       0x18 build/stm32h5xx_hal.o
 .text.HAL_SBS_VDDIOCompensationCodeSelect
                0x00000000       0x18 build/stm32h5xx_hal.o
 .text.HAL_SBS_GetVddIO1CompensationCellReadyFlag
                0x00000000       0x14 build/stm32h5xx_hal.o
 .text.HAL_SBS_GetVddIO2CompensationCellReadyFlag
                0x00000000       0x14 build/stm32h5xx_hal.o
 .text.HAL_SBS_VDDCompensationCodeConfig
                0x00000000       0x1c build/stm32h5xx_hal.o
 .text.HAL_SBS_VDDIOCompensationCodeConfig
                0x00000000       0x1c build/stm32h5xx_hal.o
 .text.HAL_SBS_GetNMOSVddCompensationValue
                0x00000000       0x10 build/stm32h5xx_hal.o
 .text.HAL_SBS_GetPMOSVddCompensationValue
                0x00000000       0x10 build/stm32h5xx_hal.o
 .text.HAL_SBS_GetNMOSVddIO2CompensationValue
                0x00000000       0x10 build/stm32h5xx_hal.o
 .text.HAL_SBS_GetPMOSVddIO2CompensationValue
                0x00000000       0x10 build/stm32h5xx_hal.o
 .text.HAL_SBS_FLASH_DisableECCNMI
                0x00000000       0x14 build/stm32h5xx_hal.o
 .text.HAL_SBS_FLASH_EnableECCNMI
                0x00000000       0x14 build/stm32h5xx_hal.o
 .text.HAL_SBS_FLASH_ECCNMI_IsDisabled
                0x00000000       0x14 build/stm32h5xx_hal.o
 .text.HAL_SBS_IncrementHDPLValue
                0x00000000       0x14 build/stm32h5xx_hal.o
 .text.HAL_SBS_GetHDPLValue
                0x00000000        0xc build/stm32h5xx_hal.o
 .text.HAL_SBS_OpenAccessPort
                0x00000000       0x14 build/stm32h5xx_hal.o
 .text.HAL_SBS_OpenDebug
                0x00000000       0x14 build/stm32h5xx_hal.o
 .text.HAL_SBS_ConfigDebugLevel
                0x00000000       0x20 build/stm32h5xx_hal.o
 .text.HAL_SBS_GetDebugLevel
                0x00000000       0x10 build/stm32h5xx_hal.o
 .text.HAL_SBS_LockDebugConfig
                0x00000000       0x14 build/stm32h5xx_hal.o
 .text.HAL_SBS_Lock
                0x00000000       0x10 build/stm32h5xx_hal.o
 .text.HAL_SBS_GetLock
                0x00000000       0x18 build/stm32h5xx_hal.o
 .text          0x00000000        0x0 build/stm32h5xx_hal_exti.o
 .data          0x00000000        0x0 build/stm32h5xx_hal_exti.o
 .bss           0x00000000        0x0 build/stm32h5xx_hal_exti.o
 .text.HAL_EXTI_SetConfigLine
                0x00000000       0xdc build/stm32h5xx_hal_exti.o
 .text.HAL_EXTI_GetConfigLine
                0x00000000       0xc4 build/stm32h5xx_hal_exti.o
 .text.HAL_EXTI_ClearConfigLine
                0x00000000       0x9c build/stm32h5xx_hal_exti.o
 .text.HAL_EXTI_GetPending
                0x00000000       0x30 build/stm32h5xx_hal_exti.o
 .text.HAL_EXTI_ClearPending
                0x00000000       0x30 build/stm32h5xx_hal_exti.o
 .text.HAL_EXTI_GenerateSWI
                0x00000000       0x1c build/stm32h5xx_hal_exti.o
 .text.HAL_EXTI_ConfigLineAttributes
                0x00000000       0x38 build/stm32h5xx_hal_exti.o
 .text.HAL_EXTI_GetConfigLineAttributes
                0x00000000       0x34 build/stm32h5xx_hal_exti.o
 .text          0x00000000        0x0 build/stm32h5xx_hal_tim.o
 .data          0x00000000        0x0 build/stm32h5xx_hal_tim.o
 .bss           0x00000000        0x0 build/stm32h5xx_hal_tim.o
 .text.TIM_TI2_SetConfig
                0x00000000       0x36 build/stm32h5xx_hal_tim.o
 .text.TIM_TI3_SetConfig
                0x00000000       0x36 build/stm32h5xx_hal_tim.o
 .text.TIM_TI4_SetConfig
                0x00000000       0x36 build/stm32h5xx_hal_tim.o
 .text.HAL_TIM_Base_MspInit
                0x00000000        0x2 build/stm32h5xx_hal_tim.o
 .text.HAL_TIM_Base_MspDeInit
                0x00000000        0x2 build/stm32h5xx_hal_tim.o
 .text.HAL_TIM_Base_DeInit
                0x00000000       0x66 build/stm32h5xx_hal_tim.o
 .text.HAL_TIM_Base_Start
                0x00000000       0x60 build/stm32h5xx_hal_tim.o
 .text.HAL_TIM_Base_Stop
                0x00000000       0x28 build/stm32h5xx_hal_tim.o
 .text.HAL_TIM_Base_Start_IT
                0x00000000       0x6c build/stm32h5xx_hal_tim.o
 .text.HAL_TIM_Base_Stop_IT
                0x00000000       0x32 build/stm32h5xx_hal_tim.o
 .text.HAL_TIM_Base_Stop_DMA
                0x00000000       0x3c build/stm32h5xx_hal_tim.o
 .text.HAL_TIM_OC_MspInit
                0x00000000        0x2 build/stm32h5xx_hal_tim.o
 .text.HAL_TIM_OC_MspDeInit
                0x00000000        0x2 build/stm32h5xx_hal_tim.o
 .text.HAL_TIM_OC_DeInit
                0x00000000       0x66 build/stm32h5xx_hal_tim.o
 .text.HAL_TIM_PWM_MspDeInit
                0x00000000        0x2 build/stm32h5xx_hal_tim.o
 .text.HAL_TIM_PWM_DeInit
                0x00000000       0x66 build/stm32h5xx_hal_tim.o
 .text.HAL_TIM_IC_MspInit
                0x00000000        0x2 build/stm32h5xx_hal_tim.o
 .text.HAL_TIM_IC_MspDeInit
                0x00000000        0x2 build/stm32h5xx_hal_tim.o
 .text.HAL_TIM_IC_DeInit
                0x00000000       0x66 build/stm32h5xx_hal_tim.o
 .text.HAL_TIM_OnePulse_MspInit
                0x00000000        0x2 build/stm32h5xx_hal_tim.o
 .text.HAL_TIM_OnePulse_MspDeInit
                0x00000000        0x2 build/stm32h5xx_hal_tim.o
 .text.HAL_TIM_OnePulse_DeInit
                0x00000000       0x4e build/stm32h5xx_hal_tim.o
 .text.HAL_TIM_Encoder_MspInit
                0x00000000        0x2 build/stm32h5xx_hal_tim.o
 .text.HAL_TIM_Encoder_MspDeInit
                0x00000000        0x2 build/stm32h5xx_hal_tim.o
 .text.HAL_TIM_Encoder_DeInit
                0x00000000       0x4e build/stm32h5xx_hal_tim.o
 .text.HAL_TIM_DMABurst_WriteStop
                0x00000000       0x84 build/stm32h5xx_hal_tim.o
 .text.HAL_TIM_DMABurst_ReadStop
                0x00000000       0x84 build/stm32h5xx_hal_tim.o
 .text.HAL_TIM_GenerateEvent
                0x00000000       0x2a build/stm32h5xx_hal_tim.o
 .text.HAL_TIM_ConfigTI1Input
                0x00000000       0x10 build/stm32h5xx_hal_tim.o
 .text.HAL_TIM_ReadCapturedValue
                0x00000000       0x32 build/stm32h5xx_hal_tim.o
 .text.TIM_DMA_Start_IT
                0x00000000       0x34 build/stm32h5xx_hal_tim.o
 .text.HAL_TIM_Base_Start_DMA
                0x00000000       0xb4 build/stm32h5xx_hal_tim.o
 .text.HAL_TIM_DMABurst_MultiWriteStart
                0x00000000      0x1e4 build/stm32h5xx_hal_tim.o
 .text.HAL_TIM_DMABurst_WriteStart
                0x00000000       0xaa build/stm32h5xx_hal_tim.o
 .text.HAL_TIM_DMABurst_MultiReadStart
                0x00000000      0x1e4 build/stm32h5xx_hal_tim.o
 .text.HAL_TIM_DMABurst_ReadStart
                0x00000000       0xaa build/stm32h5xx_hal_tim.o
 .text.HAL_TIM_PeriodElapsedCallback
                0x00000000        0x2 build/stm32h5xx_hal_tim.o
 .text.TIM_DMAPeriodElapsedCplt
                0x00000000        0xa build/stm32h5xx_hal_tim.o
 .text.HAL_TIM_PeriodElapsedHalfCpltCallback
                0x00000000        0x2 build/stm32h5xx_hal_tim.o
 .text.TIM_DMAPeriodElapsedHalfCplt
                0x00000000        0xa build/stm32h5xx_hal_tim.o
 .text.HAL_TIM_OC_DelayElapsedCallback
                0x00000000        0x2 build/stm32h5xx_hal_tim.o
 .text.HAL_TIM_IC_CaptureCallback
                0x00000000        0x2 build/stm32h5xx_hal_tim.o
 .text.TIM_DMACaptureCplt
                0x00000000       0x3e build/stm32h5xx_hal_tim.o
 .text.HAL_TIM_IC_CaptureHalfCpltCallback
                0x00000000        0x2 build/stm32h5xx_hal_tim.o
 .text.TIM_DMACaptureHalfCplt
                0x00000000       0x3e build/stm32h5xx_hal_tim.o
 .text.HAL_TIM_PWM_PulseFinishedCallback
                0x00000000        0x2 build/stm32h5xx_hal_tim.o
 .text.TIM_DMADelayPulseCplt
                0x00000000       0x3e build/stm32h5xx_hal_tim.o
 .text.HAL_TIM_PWM_PulseFinishedHalfCpltCallback
                0x00000000        0x2 build/stm32h5xx_hal_tim.o
 .text.TIM_DMADelayPulseHalfCplt
                0x00000000       0x3e build/stm32h5xx_hal_tim.o
 .text.HAL_TIM_TriggerCallback
                0x00000000        0x2 build/stm32h5xx_hal_tim.o
 .text.HAL_TIM_IRQHandler
                0x00000000      0x1ea build/stm32h5xx_hal_tim.o
 .text.TIM_DMATriggerCplt
                0x00000000        0xa build/stm32h5xx_hal_tim.o
 .text.HAL_TIM_TriggerHalfCpltCallback
                0x00000000        0x2 build/stm32h5xx_hal_tim.o
 .text.TIM_DMATriggerHalfCplt
                0x00000000        0xa build/stm32h5xx_hal_tim.o
 .text.HAL_TIM_ErrorCallback
                0x00000000        0x2 build/stm32h5xx_hal_tim.o
 .text.TIM_DMAError
                0x00000000       0x5c build/stm32h5xx_hal_tim.o
 .text.HAL_TIM_Base_GetState
                0x00000000        0x6 build/stm32h5xx_hal_tim.o
 .text.HAL_TIM_OC_GetState
                0x00000000        0x6 build/stm32h5xx_hal_tim.o
 .text.HAL_TIM_PWM_GetState
                0x00000000        0x6 build/stm32h5xx_hal_tim.o
 .text.HAL_TIM_IC_GetState
                0x00000000        0x6 build/stm32h5xx_hal_tim.o
 .text.HAL_TIM_OnePulse_GetState
                0x00000000        0x6 build/stm32h5xx_hal_tim.o
 .text.HAL_TIM_Encoder_GetState
                0x00000000        0x6 build/stm32h5xx_hal_tim.o
 .text.HAL_TIM_GetActiveChannel
                0x00000000        0x4 build/stm32h5xx_hal_tim.o
 .text.HAL_TIM_GetChannelState
                0x00000000       0x4a build/stm32h5xx_hal_tim.o
 .text.HAL_TIM_DMABurstState
                0x00000000        0x6 build/stm32h5xx_hal_tim.o
 .text.HAL_TIM_OC_Init
                0x00000000       0x60 build/stm32h5xx_hal_tim.o
 .text.HAL_TIM_IC_Init
                0x00000000       0x60 build/stm32h5xx_hal_tim.o
 .text.HAL_TIM_OnePulse_Init
                0x00000000       0x5c build/stm32h5xx_hal_tim.o
 .text.HAL_TIM_Encoder_Init
                0x00000000       0xb0 build/stm32h5xx_hal_tim.o
 .text.HAL_TIM_OC_ConfigChannel
                0x00000000       0x7a build/stm32h5xx_hal_tim.o
 .text.TIM_TI1_SetConfig
                0x00000000       0x50 build/stm32h5xx_hal_tim.o
 .text.HAL_TIM_IC_ConfigChannel
                0x00000000       0xcc build/stm32h5xx_hal_tim.o
 .text.HAL_TIM_OnePulse_ConfigChannel
                0x00000000      0x10a build/stm32h5xx_hal_tim.o
 .text.HAL_TIM_ConfigOCrefClear
                0x00000000      0x164 build/stm32h5xx_hal_tim.o
 .text.TIM_SlaveTimer_SetConfig
                0x00000000      0x14c build/stm32h5xx_hal_tim.o
 .text.HAL_TIM_SlaveConfigSynchro
                0x00000000       0x52 build/stm32h5xx_hal_tim.o
 .text.HAL_TIM_SlaveConfigSynchro_IT
                0x00000000       0x52 build/stm32h5xx_hal_tim.o
 .text.TIM_CCxChannelCmd
                0x00000000       0x1e build/stm32h5xx_hal_tim.o
 .text.HAL_TIM_OC_Start
                0x00000000      0x11c build/stm32h5xx_hal_tim.o
 .text.HAL_TIM_OC_Stop
                0x00000000       0xa4 build/stm32h5xx_hal_tim.o
 .text.HAL_TIM_OC_Start_IT
                0x00000000      0x18c build/stm32h5xx_hal_tim.o
 .text.HAL_TIM_OC_Stop_IT
                0x00000000       0xf8 build/stm32h5xx_hal_tim.o
 .text.HAL_TIM_OC_Start_DMA
                0x00000000      0x2cc build/stm32h5xx_hal_tim.o
 .text.HAL_TIM_OC_Stop_DMA
                0x00000000      0x110 build/stm32h5xx_hal_tim.o
 .text.HAL_TIM_PWM_Start
                0x00000000      0x11c build/stm32h5xx_hal_tim.o
 .text.HAL_TIM_PWM_Stop
                0x00000000       0xa4 build/stm32h5xx_hal_tim.o
 .text.HAL_TIM_PWM_Start_IT
                0x00000000      0x18c build/stm32h5xx_hal_tim.o
 .text.HAL_TIM_PWM_Stop_IT
                0x00000000       0xf8 build/stm32h5xx_hal_tim.o
 .text.HAL_TIM_PWM_Start_DMA
                0x00000000      0x2cc build/stm32h5xx_hal_tim.o
 .text.HAL_TIM_PWM_Stop_DMA
                0x00000000      0x110 build/stm32h5xx_hal_tim.o
 .text.HAL_TIM_IC_Start
                0x00000000      0x13c build/stm32h5xx_hal_tim.o
 .text.HAL_TIM_IC_Stop
                0x00000000       0x9a build/stm32h5xx_hal_tim.o
 .text.HAL_TIM_IC_Start_IT
                0x00000000      0x1ac build/stm32h5xx_hal_tim.o
 .text.HAL_TIM_IC_Stop_IT
                0x00000000       0xea build/stm32h5xx_hal_tim.o
 .text.HAL_TIM_IC_Start_DMA
                0x00000000      0x274 build/stm32h5xx_hal_tim.o
 .text.HAL_TIM_IC_Stop_DMA
                0x00000000      0x100 build/stm32h5xx_hal_tim.o
 .text.HAL_TIM_OnePulse_Start
                0x00000000       0x7c build/stm32h5xx_hal_tim.o
 .text.HAL_TIM_OnePulse_Stop
                0x00000000       0x78 build/stm32h5xx_hal_tim.o
 .text.HAL_TIM_OnePulse_Start_IT
                0x00000000       0x94 build/stm32h5xx_hal_tim.o
 .text.HAL_TIM_OnePulse_Stop_IT
                0x00000000       0x8c build/stm32h5xx_hal_tim.o
 .text.HAL_TIM_Encoder_Start
                0x00000000       0xcc build/stm32h5xx_hal_tim.o
 .text.HAL_TIM_Encoder_Stop
                0x00000000       0x8a build/stm32h5xx_hal_tim.o
 .text.HAL_TIM_Encoder_Start_IT
                0x00000000       0xf6 build/stm32h5xx_hal_tim.o
 .text.HAL_TIM_Encoder_Stop_IT
                0x00000000       0xb4 build/stm32h5xx_hal_tim.o
 .text.HAL_TIM_Encoder_Start_DMA
                0x00000000      0x264 build/stm32h5xx_hal_tim.o
 .text.HAL_TIM_Encoder_Stop_DMA
                0x00000000       0xcc build/stm32h5xx_hal_tim.o
 .text          0x00000000        0x0 build/stm32h5xx_hal_tim_ex.o
 .data          0x00000000        0x0 build/stm32h5xx_hal_tim_ex.o
 .bss           0x00000000        0x0 build/stm32h5xx_hal_tim_ex.o
 .text.TIM_CCxNChannelCmd
                0x00000000       0x1e build/stm32h5xx_hal_tim_ex.o
 .text.TIM_DMAErrorCCxN
                0x00000000       0x54 build/stm32h5xx_hal_tim_ex.o
 .text.TIM_DMADelayPulseNCplt
                0x00000000       0x3e build/stm32h5xx_hal_tim_ex.o
 .text.HAL_TIMEx_HallSensor_MspInit
                0x00000000        0x2 build/stm32h5xx_hal_tim_ex.o
 .text.HAL_TIMEx_HallSensor_Init
                0x00000000       0xe0 build/stm32h5xx_hal_tim_ex.o
 .text.HAL_TIMEx_HallSensor_MspDeInit
                0x00000000        0x2 build/stm32h5xx_hal_tim_ex.o
 .text.HAL_TIMEx_HallSensor_DeInit
                0x00000000       0x4e build/stm32h5xx_hal_tim_ex.o
 .text.HAL_TIMEx_HallSensor_Start
                0x00000000       0xa4 build/stm32h5xx_hal_tim_ex.o
 .text.HAL_TIMEx_HallSensor_Stop
                0x00000000       0x42 build/stm32h5xx_hal_tim_ex.o
 .text.HAL_TIMEx_HallSensor_Start_IT
                0x00000000       0xb0 build/stm32h5xx_hal_tim_ex.o
 .text.HAL_TIMEx_HallSensor_Stop_IT
                0x00000000       0x4c build/stm32h5xx_hal_tim_ex.o
 .text.HAL_TIMEx_HallSensor_Start_DMA
                0x00000000       0xd0 build/stm32h5xx_hal_tim_ex.o
 .text.HAL_TIMEx_HallSensor_Stop_DMA
                0x00000000       0x4a build/stm32h5xx_hal_tim_ex.o
 .text.HAL_TIMEx_OCN_Start
                0x00000000       0xd4 build/stm32h5xx_hal_tim_ex.o
 .text.HAL_TIMEx_OCN_Stop
                0x00000000       0x76 build/stm32h5xx_hal_tim_ex.o
 .text.HAL_TIMEx_OCN_Start_IT
                0x00000000      0x14c build/stm32h5xx_hal_tim_ex.o
 .text.HAL_TIMEx_OCN_Stop_IT
                0x00000000       0xda build/stm32h5xx_hal_tim_ex.o
 .text.HAL_TIMEx_OCN_Start_DMA
                0x00000000      0x254 build/stm32h5xx_hal_tim_ex.o
 .text.HAL_TIMEx_OCN_Stop_DMA
                0x00000000       0xde build/stm32h5xx_hal_tim_ex.o
 .text.HAL_TIMEx_PWMN_Start
                0x00000000       0xd4 build/stm32h5xx_hal_tim_ex.o
 .text.HAL_TIMEx_PWMN_Stop
                0x00000000       0x76 build/stm32h5xx_hal_tim_ex.o
 .text.HAL_TIMEx_PWMN_Start_IT
                0x00000000      0x14c build/stm32h5xx_hal_tim_ex.o
 .text.HAL_TIMEx_PWMN_Stop_IT
                0x00000000       0xda build/stm32h5xx_hal_tim_ex.o
 .text.HAL_TIMEx_PWMN_Start_DMA
                0x00000000      0x254 build/stm32h5xx_hal_tim_ex.o
 .text.HAL_TIMEx_PWMN_Stop_DMA
                0x00000000       0xde build/stm32h5xx_hal_tim_ex.o
 .text.HAL_TIMEx_OnePulseN_Start
                0x00000000       0x7e build/stm32h5xx_hal_tim_ex.o
 .text.HAL_TIMEx_OnePulseN_Stop
                0x00000000       0x72 build/stm32h5xx_hal_tim_ex.o
 .text.HAL_TIMEx_OnePulseN_Start_IT
                0x00000000       0x92 build/stm32h5xx_hal_tim_ex.o
 .text.HAL_TIMEx_OnePulseN_Stop_IT
                0x00000000       0x86 build/stm32h5xx_hal_tim_ex.o
 .text.HAL_TIMEx_ConfigCommutEvent
                0x00000000       0x6e build/stm32h5xx_hal_tim_ex.o
 .text.HAL_TIMEx_ConfigCommutEvent_IT
                0x00000000       0x6e build/stm32h5xx_hal_tim_ex.o
 .text.HAL_TIMEx_ConfigCommutEvent_DMA
                0x00000000       0x8c build/stm32h5xx_hal_tim_ex.o
 .text.HAL_TIMEx_ConfigBreakInput
                0x00000000       0x98 build/stm32h5xx_hal_tim_ex.o
 .text.HAL_TIMEx_RemapConfig
                0x00000000       0x28 build/stm32h5xx_hal_tim_ex.o
 .text.HAL_TIMEx_TISelection
                0x00000000       0x58 build/stm32h5xx_hal_tim_ex.o
 .text.HAL_TIMEx_GroupChannel5
                0x00000000       0x3e build/stm32h5xx_hal_tim_ex.o
 .text.HAL_TIMEx_DisarmBreakInput
                0x00000000       0x50 build/stm32h5xx_hal_tim_ex.o
 .text.HAL_TIMEx_ReArmBreakInput
                0x00000000       0x84 build/stm32h5xx_hal_tim_ex.o
 .text.HAL_TIMEx_DitheringEnable
                0x00000000        0xe build/stm32h5xx_hal_tim_ex.o
 .text.HAL_TIMEx_DitheringDisable
                0x00000000        0xe build/stm32h5xx_hal_tim_ex.o
 .text.HAL_TIMEx_OC_ConfigPulseOnCompare
                0x00000000       0x40 build/stm32h5xx_hal_tim_ex.o
 .text.HAL_TIMEx_ConfigSlaveModePreload
                0x00000000       0x10 build/stm32h5xx_hal_tim_ex.o
 .text.HAL_TIMEx_EnableSlaveModePreload
                0x00000000        0xe build/stm32h5xx_hal_tim_ex.o
 .text.HAL_TIMEx_DisableSlaveModePreload
                0x00000000        0xe build/stm32h5xx_hal_tim_ex.o
 .text.HAL_TIMEx_EnableDeadTimePreload
                0x00000000        0xe build/stm32h5xx_hal_tim_ex.o
 .text.HAL_TIMEx_DisableDeadTimePreload
                0x00000000        0xe build/stm32h5xx_hal_tim_ex.o
 .text.HAL_TIMEx_ConfigDeadTime
                0x00000000       0x10 build/stm32h5xx_hal_tim_ex.o
 .text.HAL_TIMEx_ConfigAsymmetricalDeadTime
                0x00000000       0x10 build/stm32h5xx_hal_tim_ex.o
 .text.HAL_TIMEx_EnableAsymmetricalDeadTime
                0x00000000        0xe build/stm32h5xx_hal_tim_ex.o
 .text.HAL_TIMEx_DisableAsymmetricalDeadTime
                0x00000000        0xe build/stm32h5xx_hal_tim_ex.o
 .text.HAL_TIMEx_ConfigEncoderIndex
                0x00000000       0x54 build/stm32h5xx_hal_tim_ex.o
 .text.HAL_TIMEx_EnableEncoderIndex
                0x00000000        0xe build/stm32h5xx_hal_tim_ex.o
 .text.HAL_TIMEx_DisableEncoderIndex
                0x00000000        0xe build/stm32h5xx_hal_tim_ex.o
 .text.HAL_TIMEx_EnableEncoderFirstIndex
                0x00000000        0xe build/stm32h5xx_hal_tim_ex.o
 .text.HAL_TIMEx_DisableEncoderFirstIndex
                0x00000000        0xe build/stm32h5xx_hal_tim_ex.o
 .text.HAL_TIMEx_CommutCallback
                0x00000000        0x2 build/stm32h5xx_hal_tim_ex.o
 .text.TIMEx_DMACommutationCplt
                0x00000000       0x10 build/stm32h5xx_hal_tim_ex.o
 .text.HAL_TIMEx_CommutHalfCpltCallback
                0x00000000        0x2 build/stm32h5xx_hal_tim_ex.o
 .text.TIMEx_DMACommutationHalfCplt
                0x00000000       0x10 build/stm32h5xx_hal_tim_ex.o
 .text.HAL_TIMEx_BreakCallback
                0x00000000        0x2 build/stm32h5xx_hal_tim_ex.o
 .text.HAL_TIMEx_Break2Callback
                0x00000000        0x2 build/stm32h5xx_hal_tim_ex.o
 .text.HAL_TIMEx_EncoderIndexCallback
                0x00000000        0x2 build/stm32h5xx_hal_tim_ex.o
 .text.HAL_TIMEx_DirectionChangeCallback
                0x00000000        0x2 build/stm32h5xx_hal_tim_ex.o
 .text.HAL_TIMEx_IndexErrorCallback
                0x00000000        0x2 build/stm32h5xx_hal_tim_ex.o
 .text.HAL_TIMEx_TransitionErrorCallback
                0x00000000        0x2 build/stm32h5xx_hal_tim_ex.o
 .text.HAL_TIMEx_HallSensor_GetState
                0x00000000        0x6 build/stm32h5xx_hal_tim_ex.o
 .text.HAL_TIMEx_GetChannelNState
                0x00000000       0x2a build/stm32h5xx_hal_tim_ex.o
 .text          0x00000000        0x0 build/stm32h5xx_hal_usart.o
 .data          0x00000000        0x0 build/stm32h5xx_hal_usart.o
 .bss           0x00000000        0x0 build/stm32h5xx_hal_usart.o
 .debug_info    0x00000000       0x80 build/stm32h5xx_hal_usart.o
 .debug_abbrev  0x00000000       0x26 build/stm32h5xx_hal_usart.o
 .debug_aranges
                0x00000000       0x18 build/stm32h5xx_hal_usart.o
 .debug_line    0x00000000       0x57 build/stm32h5xx_hal_usart.o
 .debug_str     0x00000000      0x1a2 build/stm32h5xx_hal_usart.o
 .comment       0x00000000       0x13 build/stm32h5xx_hal_usart.o
 .ARM.attributes
                0x00000000       0x3a build/stm32h5xx_hal_usart.o
 .text          0x00000000        0x0 build/stm32h5xx_hal_usart_ex.o
 .data          0x00000000        0x0 build/stm32h5xx_hal_usart_ex.o
 .bss           0x00000000        0x0 build/stm32h5xx_hal_usart_ex.o
 .debug_info    0x00000000       0x80 build/stm32h5xx_hal_usart_ex.o
 .debug_abbrev  0x00000000       0x26 build/stm32h5xx_hal_usart_ex.o
 .debug_aranges
                0x00000000       0x18 build/stm32h5xx_hal_usart_ex.o
 .debug_line    0x00000000       0x5a build/stm32h5xx_hal_usart_ex.o
 .debug_str     0x00000000      0x1a5 build/stm32h5xx_hal_usart_ex.o
 .comment       0x00000000       0x13 build/stm32h5xx_hal_usart_ex.o
 .ARM.attributes
                0x00000000       0x3a build/stm32h5xx_hal_usart_ex.o
 .text          0x00000000        0x0 build/stm32h5xx_hal_uart_ex.o
 .data          0x00000000        0x0 build/stm32h5xx_hal_uart_ex.o
 .bss           0x00000000        0x0 build/stm32h5xx_hal_uart_ex.o
 .text.UARTEx_Wakeup_AddressConfig
                0x00000000       0x2e build/stm32h5xx_hal_uart_ex.o
 .text.UARTEx_SetNbDataToProcess
                0x00000000       0x4c build/stm32h5xx_hal_uart_ex.o
 .text.HAL_RS485Ex_Init
                0x00000000       0x82 build/stm32h5xx_hal_uart_ex.o
 .text.HAL_UARTEx_WakeupCallback
                0x00000000        0x2 build/stm32h5xx_hal_uart_ex.o
 .text.HAL_UARTEx_RxFifoFullCallback
                0x00000000        0x2 build/stm32h5xx_hal_uart_ex.o
 .text.HAL_UARTEx_TxFifoEmptyCallback
                0x00000000        0x2 build/stm32h5xx_hal_uart_ex.o
 .text.HAL_MultiProcessorEx_AddressLength_Set
                0x00000000       0x38 build/stm32h5xx_hal_uart_ex.o
 .text.HAL_UARTEx_StopModeWakeUpSourceConfig
                0x00000000       0x82 build/stm32h5xx_hal_uart_ex.o
 .text.HAL_UARTEx_EnableStopMode
                0x00000000       0x2e build/stm32h5xx_hal_uart_ex.o
 .text.HAL_UARTEx_DisableStopMode
                0x00000000       0x2e build/stm32h5xx_hal_uart_ex.o
 .text.HAL_UARTEx_EnableFifoMode
                0x00000000       0x48 build/stm32h5xx_hal_uart_ex.o
 .text.HAL_UARTEx_DisableFifoMode
                0x00000000       0x3e build/stm32h5xx_hal_uart_ex.o
 .text.HAL_UARTEx_SetTxFifoThreshold
                0x00000000       0x4a build/stm32h5xx_hal_uart_ex.o
 .text.HAL_UARTEx_SetRxFifoThreshold
                0x00000000       0x4a build/stm32h5xx_hal_uart_ex.o
 .text.HAL_UARTEx_ReceiveToIdle
                0x00000000      0x178 build/stm32h5xx_hal_uart_ex.o
 .text.HAL_UARTEx_ReceiveToIdle_IT
                0x00000000       0x62 build/stm32h5xx_hal_uart_ex.o
 .text.HAL_UARTEx_ReceiveToIdle_DMA
                0x00000000       0x50 build/stm32h5xx_hal_uart_ex.o
 .text.HAL_UARTEx_GetRxEventType
                0x00000000        0x4 build/stm32h5xx_hal_uart_ex.o
 .rodata.denominator.0
                0x00000000        0x8 build/stm32h5xx_hal_uart_ex.o
 .rodata.numerator.1
                0x00000000        0x8 build/stm32h5xx_hal_uart_ex.o
 .debug_info    0x00000000     0x155f build/stm32h5xx_hal_uart_ex.o
 .debug_abbrev  0x00000000      0x351 build/stm32h5xx_hal_uart_ex.o
 .debug_loc     0x00000000      0xef1 build/stm32h5xx_hal_uart_ex.o
 .debug_aranges
                0x00000000       0xa8 build/stm32h5xx_hal_uart_ex.o
 .debug_ranges  0x00000000       0xb0 build/stm32h5xx_hal_uart_ex.o
 .debug_line    0x00000000      0xa69 build/stm32h5xx_hal_uart_ex.o
 .debug_str     0x00000000      0xc1a build/stm32h5xx_hal_uart_ex.o
 .comment       0x00000000       0x13 build/stm32h5xx_hal_uart_ex.o
 .debug_frame   0x00000000      0x1d8 build/stm32h5xx_hal_uart_ex.o
 .ARM.attributes
                0x00000000       0x3a build/stm32h5xx_hal_uart_ex.o
 .text          0x00000000        0x0 build/stm32h5xx_hal_uart.o
 .data          0x00000000        0x0 build/stm32h5xx_hal_uart.o
 .bss           0x00000000        0x0 build/stm32h5xx_hal_uart.o
 .text.UART_EndTxTransfer
                0x00000000       0x32 build/stm32h5xx_hal_uart.o
 .text.UART_TxISR_8BIT
                0x00000000       0x56 build/stm32h5xx_hal_uart.o
 .text.UART_TxISR_16BIT
                0x00000000       0x5a build/stm32h5xx_hal_uart.o
 .text.UART_TxISR_8BIT_FIFOEN
                0x00000000       0x74 build/stm32h5xx_hal_uart.o
 .text.UART_TxISR_16BIT_FIFOEN
                0x00000000       0x78 build/stm32h5xx_hal_uart.o
 .text.HAL_UART_MspDeInit
                0x00000000        0x2 build/stm32h5xx_hal_uart.o
 .text.HAL_UART_DeInit
                0x00000000       0x44 build/stm32h5xx_hal_uart.o
 .text.HAL_UART_Transmit_IT
                0x00000000       0xc4 build/stm32h5xx_hal_uart.o
 .text.HAL_UART_Transmit_DMA
                0x00000000       0xe8 build/stm32h5xx_hal_uart.o
 .text.HAL_UART_DMAPause
                0x00000000       0xb8 build/stm32h5xx_hal_uart.o
 .text.HAL_UART_DMAResume
                0x00000000       0x80 build/stm32h5xx_hal_uart.o
 .text.HAL_UART_DMAStop
                0x00000000       0xb2 build/stm32h5xx_hal_uart.o
 .text.HAL_UART_Abort
                0x00000000       0xf2 build/stm32h5xx_hal_uart.o
 .text.HAL_UART_AbortTransmit
                0x00000000       0x80 build/stm32h5xx_hal_uart.o
 .text.HAL_UART_AbortReceive
                0x00000000       0xa0 build/stm32h5xx_hal_uart.o
 .text.HAL_UART_TxCpltCallback
                0x00000000        0x2 build/stm32h5xx_hal_uart.o
 .text.UART_DMATransmitCplt
                0x00000000       0x2c build/stm32h5xx_hal_uart.o
 .text.UART_EndTransmit_IT
                0x00000000       0x24 build/stm32h5xx_hal_uart.o
 .text.HAL_UART_TxHalfCpltCallback
                0x00000000        0x2 build/stm32h5xx_hal_uart.o
 .text.UART_DMATxHalfCplt
                0x00000000        0xa build/stm32h5xx_hal_uart.o
 .text.HAL_UART_RxCpltCallback
                0x00000000        0x2 build/stm32h5xx_hal_uart.o
 .text.HAL_UART_RxHalfCpltCallback
                0x00000000        0x2 build/stm32h5xx_hal_uart.o
 .text.HAL_UART_ErrorCallback
                0x00000000        0x2 build/stm32h5xx_hal_uart.o
 .text.UART_DMAError
                0x00000000       0x58 build/stm32h5xx_hal_uart.o
 .text.UART_DMAAbortOnError
                0x00000000       0x14 build/stm32h5xx_hal_uart.o
 .text.HAL_UART_AbortCpltCallback
                0x00000000        0x2 build/stm32h5xx_hal_uart.o
 .text.HAL_UART_Abort_IT
                0x00000000      0x120 build/stm32h5xx_hal_uart.o
 .text.UART_DMARxAbortCallback
                0x00000000       0x44 build/stm32h5xx_hal_uart.o
 .text.UART_DMATxAbortCallback
                0x00000000       0x50 build/stm32h5xx_hal_uart.o
 .text.HAL_UART_AbortTransmitCpltCallback
                0x00000000        0x2 build/stm32h5xx_hal_uart.o
 .text.HAL_UART_AbortTransmit_IT
                0x00000000       0x94 build/stm32h5xx_hal_uart.o
 .text.UART_DMATxOnlyAbortCallback
                0x00000000       0x2a build/stm32h5xx_hal_uart.o
 .text.HAL_UART_AbortReceiveCpltCallback
                0x00000000        0x2 build/stm32h5xx_hal_uart.o
 .text.HAL_UART_AbortReceive_IT
                0x00000000       0xbc build/stm32h5xx_hal_uart.o
 .text.UART_DMARxOnlyAbortCallback
                0x00000000       0x28 build/stm32h5xx_hal_uart.o
 .text.HAL_UARTEx_RxEventCallback
                0x00000000        0x2 build/stm32h5xx_hal_uart.o
 .text.HAL_UART_IRQHandler
                0x00000000      0x32c build/stm32h5xx_hal_uart.o
 .text.UART_RxISR_8BIT
                0x00000000       0xdc build/stm32h5xx_hal_uart.o
 .text.UART_RxISR_16BIT
                0x00000000       0xd8 build/stm32h5xx_hal_uart.o
 .text.UART_RxISR_8BIT_FIFOEN
                0x00000000      0x1c8 build/stm32h5xx_hal_uart.o
 .text.UART_RxISR_16BIT_FIFOEN
                0x00000000      0x1c8 build/stm32h5xx_hal_uart.o
 .text.UART_DMARxHalfCplt
                0x00000000       0x20 build/stm32h5xx_hal_uart.o
 .text.UART_DMAReceiveCplt
                0x00000000       0x76 build/stm32h5xx_hal_uart.o
 .text.HAL_UART_ReceiverTimeout_Config
                0x00000000       0x18 build/stm32h5xx_hal_uart.o
 .text.HAL_UART_EnableReceiverTimeout
                0x00000000       0x4c build/stm32h5xx_hal_uart.o
 .text.HAL_UART_DisableReceiverTimeout
                0x00000000       0x4c build/stm32h5xx_hal_uart.o
 .text.HAL_MultiProcessor_EnterMuteMode
                0x00000000        0xc build/stm32h5xx_hal_uart.o
 .text.HAL_HalfDuplex_EnableTransmitter
                0x00000000       0x4c build/stm32h5xx_hal_uart.o
 .text.HAL_HalfDuplex_EnableReceiver
                0x00000000       0x4c build/stm32h5xx_hal_uart.o
 .text.HAL_LIN_SendBreak
                0x00000000       0x32 build/stm32h5xx_hal_uart.o
 .text.HAL_UART_GetState
                0x00000000        0xc build/stm32h5xx_hal_uart.o
 .text.HAL_UART_GetError
                0x00000000        0x6 build/stm32h5xx_hal_uart.o
 .text.HAL_UART_Receive
                0x00000000      0x132 build/stm32h5xx_hal_uart.o
 .text.HAL_HalfDuplex_Init
                0x00000000       0x72 build/stm32h5xx_hal_uart.o
 .text.HAL_LIN_Init
                0x00000000       0x96 build/stm32h5xx_hal_uart.o
 .text.HAL_MultiProcessor_Init
                0x00000000       0x8e build/stm32h5xx_hal_uart.o
 .text.HAL_MultiProcessor_EnableMuteMode
                0x00000000       0x38 build/stm32h5xx_hal_uart.o
 .text.HAL_MultiProcessor_DisableMuteMode
                0x00000000       0x38 build/stm32h5xx_hal_uart.o
 .text.UART_Start_Receive_IT
                0x00000000      0x13c build/stm32h5xx_hal_uart.o
 .text.HAL_UART_Receive_IT
                0x00000000       0x5c build/stm32h5xx_hal_uart.o
 .text.UART_Start_Receive_DMA
                0x00000000      0x104 build/stm32h5xx_hal_uart.o
 .text.HAL_UART_Receive_DMA
                0x00000000       0x4c build/stm32h5xx_hal_uart.o
 .text          0x00000000        0x0 build/system_stm32h5xx.o
 .data          0x00000000        0x0 build/system_stm32h5xx.o
 .bss           0x00000000        0x0 build/system_stm32h5xx.o
 .text.SystemCoreClockUpdate
                0x00000000      0x1a4 build/system_stm32h5xx.o
 .text          0x00000000        0x0 build/sysmem.o
 .data          0x00000000        0x0 build/sysmem.o
 .bss           0x00000000        0x0 build/sysmem.o
 .text          0x00000000        0x0 build/syscalls.o
 .data          0x00000000        0x0 build/syscalls.o
 .bss           0x00000000        0x0 build/syscalls.o
 .text.initialise_monitor_handles
                0x00000000        0x2 build/syscalls.o
 .text._open    0x00000000        0xa build/syscalls.o
 .text._wait    0x00000000       0x10 build/syscalls.o
 .text._unlink  0x00000000       0x10 build/syscalls.o
 .text._times   0x00000000        0x6 build/syscalls.o
 .text._stat    0x00000000        0xa build/syscalls.o
 .text._link    0x00000000       0x10 build/syscalls.o
 .text._fork    0x00000000       0x10 build/syscalls.o
 .text._execve  0x00000000       0x10 build/syscalls.o
 .data.environ  0x00000000        0x4 build/syscalls.o
 .bss.__env     0x00000000        0x4 build/syscalls.o
 .text          0x00000000        0x0 build/stm32h5xx_hal_icache.o
 .data          0x00000000        0x0 build/stm32h5xx_hal_icache.o
 .bss           0x00000000        0x0 build/stm32h5xx_hal_icache.o
 .text.HAL_ICACHE_ConfigAssociativityMode
                0x00000000       0x24 build/stm32h5xx_hal_icache.o
 .text.HAL_ICACHE_DeInit
                0x00000000       0x34 build/stm32h5xx_hal_icache.o
 .text.HAL_ICACHE_Disable
                0x00000000       0x40 build/stm32h5xx_hal_icache.o
 .text.HAL_ICACHE_IsEnabled
                0x00000000       0x10 build/stm32h5xx_hal_icache.o
 .text.HAL_ICACHE_Invalidate_IT
                0x00000000       0x2c build/stm32h5xx_hal_icache.o
 .text.HAL_ICACHE_WaitForInvalidateComplete
                0x00000000       0x4c build/stm32h5xx_hal_icache.o
 .text.HAL_ICACHE_Invalidate
                0x00000000       0x20 build/stm32h5xx_hal_icache.o
 .text.HAL_ICACHE_Monitor_Start
                0x00000000       0x10 build/stm32h5xx_hal_icache.o
 .text.HAL_ICACHE_Monitor_Stop
                0x00000000       0x14 build/stm32h5xx_hal_icache.o
 .text.HAL_ICACHE_Monitor_Reset
                0x00000000       0x1c build/stm32h5xx_hal_icache.o
 .text.HAL_ICACHE_Monitor_GetHitValue
                0x00000000        0xc build/stm32h5xx_hal_icache.o
 .text.HAL_ICACHE_Monitor_GetMissValue
                0x00000000        0xc build/stm32h5xx_hal_icache.o
 .text.HAL_ICACHE_InvalidateCompleteCallback
                0x00000000        0x2 build/stm32h5xx_hal_icache.o
 .text.HAL_ICACHE_ErrorCallback
                0x00000000        0x2 build/stm32h5xx_hal_icache.o
 .text.HAL_ICACHE_IRQHandler
                0x00000000       0x44 build/stm32h5xx_hal_icache.o
 .text          0x00000000        0x0 build/stm32h5xx_hal_adc.o
 .data          0x00000000        0x0 build/stm32h5xx_hal_adc.o
 .bss           0x00000000        0x0 build/stm32h5xx_hal_adc.o
 .text.LL_ADC_SetAnalogWDMonitChannels
                0x00000000       0x2e build/stm32h5xx_hal_adc.o
 .text.HAL_ADC_MspInit
                0x00000000        0x2 build/stm32h5xx_hal_adc.o
 .text.HAL_ADC_MspDeInit
                0x00000000        0x2 build/stm32h5xx_hal_adc.o
 .text.HAL_ADC_PollForConversion
                0x00000000       0xb4 build/stm32h5xx_hal_adc.o
 .text.HAL_ADC_PollForEvent
                0x00000000       0xe8 build/stm32h5xx_hal_adc.o
 .text.HAL_ADC_GetValue
                0x00000000        0x6 build/stm32h5xx_hal_adc.o
 .text.HAL_ADC_StartSampling
                0x00000000        0xe build/stm32h5xx_hal_adc.o
 .text.HAL_ADC_StopSampling
                0x00000000        0xe build/stm32h5xx_hal_adc.o
 .text.HAL_ADC_ConvCpltCallback
                0x00000000        0x2 build/stm32h5xx_hal_adc.o
 .text.HAL_ADC_ConvHalfCpltCallback
                0x00000000        0x2 build/stm32h5xx_hal_adc.o
 .text.ADC_DMAHalfConvCplt
                0x00000000        0xa build/stm32h5xx_hal_adc.o
 .text.HAL_ADC_LevelOutOfWindowCallback
                0x00000000        0x2 build/stm32h5xx_hal_adc.o
 .text.HAL_ADC_ErrorCallback
                0x00000000        0x2 build/stm32h5xx_hal_adc.o
 .text.HAL_ADC_IRQHandler
                0x00000000      0x234 build/stm32h5xx_hal_adc.o
 .text.ADC_DMAConvCplt
                0x00000000       0x88 build/stm32h5xx_hal_adc.o
 .text.ADC_DMAError
                0x00000000       0x1a build/stm32h5xx_hal_adc.o
 .text.HAL_ADC_AnalogWDGConfig
                0x00000000      0x2ec build/stm32h5xx_hal_adc.o
 .text.HAL_ADC_GetState
                0x00000000        0x4 build/stm32h5xx_hal_adc.o
 .text.HAL_ADC_GetError
                0x00000000        0x4 build/stm32h5xx_hal_adc.o
 .text.ADC_ConversionStop
                0x00000000      0x104 build/stm32h5xx_hal_adc.o
 .text.ADC_Enable
                0x00000000       0xd8 build/stm32h5xx_hal_adc.o
 .text.HAL_ADC_Start
                0x00000000       0x8c build/stm32h5xx_hal_adc.o
 .text.HAL_ADC_Start_IT
                0x00000000       0xf0 build/stm32h5xx_hal_adc.o
 .text.HAL_ADC_Start_DMA
                0x00000000      0x138 build/stm32h5xx_hal_adc.o
 .text.ADC_Disable
                0x00000000       0x94 build/stm32h5xx_hal_adc.o
 .text.HAL_ADC_DeInit
                0x00000000      0x188 build/stm32h5xx_hal_adc.o
 .text.HAL_ADC_Stop
                0x00000000       0x42 build/stm32h5xx_hal_adc.o
 .text.HAL_ADC_Stop_IT
                0x00000000       0x4c build/stm32h5xx_hal_adc.o
 .text.HAL_ADC_Stop_DMA
                0x00000000       0x80 build/stm32h5xx_hal_adc.o
 .text          0x00000000        0x0 build/stm32h5xx_hal_adc_ex.o
 .data          0x00000000        0x0 build/stm32h5xx_hal_adc_ex.o
 .bss           0x00000000        0x0 build/stm32h5xx_hal_adc_ex.o
 .text.LL_ADC_SetCalibrationFactor
                0x00000000       0x26 build/stm32h5xx_hal_adc_ex.o
 .text.LL_ADC_SetChannelSamplingTime
                0x00000000       0x2c build/stm32h5xx_hal_adc_ex.o
 .text.HAL_ADCEx_Calibration_Start
                0x00000000       0x9c build/stm32h5xx_hal_adc_ex.o
 .text.HAL_ADCEx_Calibration_GetValue
                0x00000000       0x16 build/stm32h5xx_hal_adc_ex.o
 .text.HAL_ADCEx_Calibration_SetValue
                0x00000000       0x5a build/stm32h5xx_hal_adc_ex.o
 .text.HAL_ADCEx_InjectedStart
                0x00000000       0x9c build/stm32h5xx_hal_adc_ex.o
 .text.HAL_ADCEx_InjectedStop
                0x00000000       0x54 build/stm32h5xx_hal_adc_ex.o
 .text.HAL_ADCEx_InjectedPollForConversion
                0x00000000       0xc8 build/stm32h5xx_hal_adc_ex.o
 .text.HAL_ADCEx_InjectedStart_IT
                0x00000000       0xe0 build/stm32h5xx_hal_adc_ex.o
 .text.HAL_ADCEx_InjectedStop_IT
                0x00000000       0x5e build/stm32h5xx_hal_adc_ex.o
 .text.HAL_ADCEx_InjectedGetValue
                0x00000000       0x38 build/stm32h5xx_hal_adc_ex.o
 .text.HAL_ADCEx_InjectedConvCpltCallback
                0x00000000        0x2 build/stm32h5xx_hal_adc_ex.o
 .text.HAL_ADCEx_InjectedQueueOverflowCallback
                0x00000000        0x2 build/stm32h5xx_hal_adc_ex.o
 .text.HAL_ADCEx_LevelOutOfWindow2Callback
                0x00000000        0x2 build/stm32h5xx_hal_adc_ex.o
 .text.HAL_ADCEx_LevelOutOfWindow3Callback
                0x00000000        0x2 build/stm32h5xx_hal_adc_ex.o
 .text.HAL_ADCEx_EndOfSamplingCallback
                0x00000000        0x2 build/stm32h5xx_hal_adc_ex.o
 .text.HAL_ADCEx_RegularStop
                0x00000000       0x5a build/stm32h5xx_hal_adc_ex.o
 .text.HAL_ADCEx_RegularStop_IT
                0x00000000       0x64 build/stm32h5xx_hal_adc_ex.o
 .text.HAL_ADCEx_RegularStop_DMA
                0x00000000       0x92 build/stm32h5xx_hal_adc_ex.o
 .text.HAL_ADCEx_InjectedConfigChannel
                0x00000000      0x5f4 build/stm32h5xx_hal_adc_ex.o
 .text.HAL_ADCEx_EnableInjectedQueue
                0x00000000       0x36 build/stm32h5xx_hal_adc_ex.o
 .text.HAL_ADCEx_DisableInjectedQueue
                0x00000000       0x36 build/stm32h5xx_hal_adc_ex.o
 .text.HAL_ADCEx_DisableVoltageRegulator
                0x00000000       0x1e build/stm32h5xx_hal_adc_ex.o
 .text.HAL_ADCEx_EnterADCDeepPowerDownMode
                0x00000000       0x22 build/stm32h5xx_hal_adc_ex.o
 .debug_info    0x00000000     0x2a58 build/stm32h5xx_hal_adc_ex.o
 .debug_abbrev  0x00000000      0x3a4 build/stm32h5xx_hal_adc_ex.o
 .debug_loc     0x00000000     0x1f21 build/stm32h5xx_hal_adc_ex.o
 .debug_aranges
                0x00000000       0xd8 build/stm32h5xx_hal_adc_ex.o
 .debug_ranges  0x00000000      0x1a0 build/stm32h5xx_hal_adc_ex.o
 .debug_line    0x00000000     0x164e build/stm32h5xx_hal_adc_ex.o
 .debug_str     0x00000000     0x11d8 build/stm32h5xx_hal_adc_ex.o
 .comment       0x00000000       0x13 build/stm32h5xx_hal_adc_ex.o
 .debug_frame   0x00000000      0x250 build/stm32h5xx_hal_adc_ex.o
 .ARM.attributes
                0x00000000       0x3a build/stm32h5xx_hal_adc_ex.o
 .text          0x00000000        0x0 build/stm32h5xx_hal_spi.o
 .data          0x00000000        0x0 build/stm32h5xx_hal_spi.o
 .bss           0x00000000        0x0 build/stm32h5xx_hal_spi.o
 .text.SPI_RxISR_8BIT
                0x00000000       0x32 build/stm32h5xx_hal_spi.o
 .text.SPI_RxISR_16BIT
                0x00000000       0x30 build/stm32h5xx_hal_spi.o
 .text.SPI_RxISR_32BIT
                0x00000000       0x30 build/stm32h5xx_hal_spi.o
 .text.SPI_TxISR_8BIT
                0x00000000       0x32 build/stm32h5xx_hal_spi.o
 .text.SPI_TxISR_16BIT
                0x00000000       0x30 build/stm32h5xx_hal_spi.o
 .text.SPI_TxISR_32BIT
                0x00000000       0x30 build/stm32h5xx_hal_spi.o
 .text.SPI_AbortTransfer
                0x00000000       0x74 build/stm32h5xx_hal_spi.o
 .text.SPI_CloseTransfer
                0x00000000       0xc4 build/stm32h5xx_hal_spi.o
 .text.SPI_WaitOnFlagUntilTimeout
                0x00000000       0x48 build/stm32h5xx_hal_spi.o
 .text.HAL_SPI_MspInit
                0x00000000        0x2 build/stm32h5xx_hal_spi.o
 .text.HAL_SPI_MspDeInit
                0x00000000        0x2 build/stm32h5xx_hal_spi.o
 .text.HAL_SPI_DeInit
                0x00000000       0x2e build/stm32h5xx_hal_spi.o
 .text.HAL_SPI_Transmit
                0x00000000      0x2e0 build/stm32h5xx_hal_spi.o
 .text.HAL_SPI_Receive
                0x00000000      0x238 build/stm32h5xx_hal_spi.o
 .text.HAL_SPI_TransmitReceive
                0x00000000      0x364 build/stm32h5xx_hal_spi.o
 .text.HAL_SPI_Transmit_IT
                0x00000000      0x100 build/stm32h5xx_hal_spi.o
 .text.HAL_SPI_Receive_IT
                0x00000000      0x100 build/stm32h5xx_hal_spi.o
 .text.HAL_SPI_TransmitReceive_IT
                0x00000000      0x1b4 build/stm32h5xx_hal_spi.o
 .text.HAL_SPI_Transmit_DMA
                0x00000000      0x238 build/stm32h5xx_hal_spi.o
 .text.HAL_SPI_Receive_DMA
                0x00000000      0x260 build/stm32h5xx_hal_spi.o
 .text.HAL_SPI_TransmitReceive_DMA
                0x00000000      0x36c build/stm32h5xx_hal_spi.o
 .text.HAL_SPI_Abort
                0x00000000      0x158 build/stm32h5xx_hal_spi.o
 .text.HAL_SPI_DMAPause
                0x00000000       0x10 build/stm32h5xx_hal_spi.o
 .text.HAL_SPI_DMAResume
                0x00000000       0x10 build/stm32h5xx_hal_spi.o
 .text.HAL_SPI_DMAStop
                0x00000000       0x10 build/stm32h5xx_hal_spi.o
 .text.HAL_SPI_TxCpltCallback
                0x00000000        0x2 build/stm32h5xx_hal_spi.o
 .text.SPI_DMATransmitCplt
                0x00000000       0x28 build/stm32h5xx_hal_spi.o
 .text.HAL_SPI_RxCpltCallback
                0x00000000        0x2 build/stm32h5xx_hal_spi.o
 .text.SPI_DMAReceiveCplt
                0x00000000       0x28 build/stm32h5xx_hal_spi.o
 .text.HAL_SPI_TxRxCpltCallback
                0x00000000        0x2 build/stm32h5xx_hal_spi.o
 .text.SPI_DMATransmitReceiveCplt
                0x00000000       0x32 build/stm32h5xx_hal_spi.o
 .text.HAL_SPI_TxHalfCpltCallback
                0x00000000        0x2 build/stm32h5xx_hal_spi.o
 .text.SPI_DMAHalfTransmitCplt
                0x00000000        0xa build/stm32h5xx_hal_spi.o
 .text.HAL_SPI_RxHalfCpltCallback
                0x00000000        0x2 build/stm32h5xx_hal_spi.o
 .text.SPI_DMAHalfReceiveCplt
                0x00000000        0xa build/stm32h5xx_hal_spi.o
 .text.HAL_SPI_TxRxHalfCpltCallback
                0x00000000        0x2 build/stm32h5xx_hal_spi.o
 .text.SPI_DMAHalfTransmitReceiveCplt
                0x00000000        0xa build/stm32h5xx_hal_spi.o
 .text.HAL_SPI_ErrorCallback
                0x00000000        0x2 build/stm32h5xx_hal_spi.o
 .text.SPI_DMAError
                0x00000000       0x2c build/stm32h5xx_hal_spi.o
 .text.SPI_DMAAbortOnError
                0x00000000       0x1a build/stm32h5xx_hal_spi.o
 .text.HAL_SPI_AbortCpltCallback
                0x00000000        0x2 build/stm32h5xx_hal_spi.o
 .text.HAL_SPI_Abort_IT
                0x00000000      0x188 build/stm32h5xx_hal_spi.o
 .text.SPI_DMARxAbortCallback
                0x00000000       0x2a build/stm32h5xx_hal_spi.o
 .text.SPI_DMATxAbortCallback
                0x00000000       0x2a build/stm32h5xx_hal_spi.o
 .text.HAL_SPI_SuspendCallback
                0x00000000        0x2 build/stm32h5xx_hal_spi.o
 .text.HAL_SPI_IRQHandler
                0x00000000      0x248 build/stm32h5xx_hal_spi.o
 .text.HAL_SPI_GetState
                0x00000000        0x6 build/stm32h5xx_hal_spi.o
 .text.HAL_SPI_GetError
                0x00000000        0x6 build/stm32h5xx_hal_spi.o
 .text          0x00000000        0x0 build/stm32h5xx_hal_spi_ex.o
 .data          0x00000000        0x0 build/stm32h5xx_hal_spi_ex.o
 .bss           0x00000000        0x0 build/stm32h5xx_hal_spi_ex.o
 .text.HAL_SPIEx_FlushRxFifo
                0x00000000       0x64 build/stm32h5xx_hal_spi_ex.o
 .text.HAL_SPIEx_EnableLockConfiguration
                0x00000000       0x6a build/stm32h5xx_hal_spi_ex.o
 .text.HAL_SPIEx_ConfigureUnderrun
                0x00000000       0x72 build/stm32h5xx_hal_spi_ex.o
 .debug_info    0x00000000      0xb4f build/stm32h5xx_hal_spi_ex.o
 .debug_abbrev  0x00000000      0x18e build/stm32h5xx_hal_spi_ex.o
 .debug_loc     0x00000000      0x2a4 build/stm32h5xx_hal_spi_ex.o
 .debug_aranges
                0x00000000       0x30 build/stm32h5xx_hal_spi_ex.o
 .debug_ranges  0x00000000       0x20 build/stm32h5xx_hal_spi_ex.o
 .debug_line    0x00000000      0x335 build/stm32h5xx_hal_spi_ex.o
 .debug_str     0x00000000      0x939 build/stm32h5xx_hal_spi_ex.o
 .comment       0x00000000       0x13 build/stm32h5xx_hal_spi_ex.o
 .debug_frame   0x00000000       0x48 build/stm32h5xx_hal_spi_ex.o
 .ARM.attributes
                0x00000000       0x3a build/stm32h5xx_hal_spi_ex.o
 .text          0x00000000        0x0 build/stm32h5xx_hal_pcd.o
 .data          0x00000000        0x0 build/stm32h5xx_hal_pcd.o
 .bss           0x00000000        0x0 build/stm32h5xx_hal_pcd.o
 .text.PCD_GET_EP_RX_CNT
                0x00000000       0x28 build/stm32h5xx_hal_pcd.o
 .text.PCD_GET_EP_DBUF0_CNT
                0x00000000       0x28 build/stm32h5xx_hal_pcd.o
 .text.PCD_GET_EP_DBUF1_CNT
                0x00000000       0x28 build/stm32h5xx_hal_pcd.o
 .text.HAL_PCD_EP_DB_Receive
                0x00000000       0xec build/stm32h5xx_hal_pcd.o
 .text.HAL_PCD_MspInit
                0x00000000        0x2 build/stm32h5xx_hal_pcd.o
 .text.HAL_PCD_MspDeInit
                0x00000000        0x2 build/stm32h5xx_hal_pcd.o
 .text.HAL_PCD_DeInit
                0x00000000       0x2e build/stm32h5xx_hal_pcd.o
 .text.HAL_PCD_Start
                0x00000000       0x2a build/stm32h5xx_hal_pcd.o
 .text.HAL_PCD_Stop
                0x00000000       0x2a build/stm32h5xx_hal_pcd.o
 .text.HAL_PCD_DataOutStageCallback
                0x00000000        0x2 build/stm32h5xx_hal_pcd.o
 .text.HAL_PCD_DataInStageCallback
                0x00000000        0x2 build/stm32h5xx_hal_pcd.o
 .text.HAL_PCD_EP_DB_Transmit
                0x00000000      0x43c build/stm32h5xx_hal_pcd.o
 .text.HAL_PCD_SetupStageCallback
                0x00000000        0x2 build/stm32h5xx_hal_pcd.o
 .text.PCD_EP_ISR_Handler
                0x00000000      0x4c4 build/stm32h5xx_hal_pcd.o
 .text.HAL_PCD_SOFCallback
                0x00000000        0x2 build/stm32h5xx_hal_pcd.o
 .text.HAL_PCD_ResetCallback
                0x00000000        0x2 build/stm32h5xx_hal_pcd.o
 .text.HAL_PCD_SuspendCallback
                0x00000000        0x2 build/stm32h5xx_hal_pcd.o
 .text.HAL_PCD_ResumeCallback
                0x00000000        0x2 build/stm32h5xx_hal_pcd.o
 .text.HAL_PCD_ISOOUTIncompleteCallback
                0x00000000        0x2 build/stm32h5xx_hal_pcd.o
 .text.HAL_PCD_ISOINIncompleteCallback
                0x00000000        0x2 build/stm32h5xx_hal_pcd.o
 .text.HAL_PCD_ConnectCallback
                0x00000000        0x2 build/stm32h5xx_hal_pcd.o
 .text.HAL_PCD_DisconnectCallback
                0x00000000        0x2 build/stm32h5xx_hal_pcd.o
 .text.HAL_PCD_DevConnect
                0x00000000       0x24 build/stm32h5xx_hal_pcd.o
 .text.HAL_PCD_DevDisconnect
                0x00000000       0x24 build/stm32h5xx_hal_pcd.o
 .text.HAL_PCD_SetAddress
                0x00000000       0x26 build/stm32h5xx_hal_pcd.o
 .text.HAL_PCD_IRQHandler
                0x00000000      0x164 build/stm32h5xx_hal_pcd.o
 .text.HAL_PCD_EP_Open
                0x00000000       0x84 build/stm32h5xx_hal_pcd.o
 .text.HAL_PCD_EP_Close
                0x00000000       0x70 build/stm32h5xx_hal_pcd.o
 .text.HAL_PCD_EP_Receive
                0x00000000       0x3c build/stm32h5xx_hal_pcd.o
 .text.HAL_PCD_EP_GetRxCount
                0x00000000       0x12 build/stm32h5xx_hal_pcd.o
 .text.HAL_PCD_EP_Transmit
                0x00000000       0x4e build/stm32h5xx_hal_pcd.o
 .text.HAL_PCD_EP_SetStall
                0x00000000       0x76 build/stm32h5xx_hal_pcd.o
 .text.HAL_PCD_EP_ClrStall
                0x00000000       0x86 build/stm32h5xx_hal_pcd.o
 .text.HAL_PCD_EP_Abort
                0x00000000       0x34 build/stm32h5xx_hal_pcd.o
 .text.HAL_PCD_EP_Flush
                0x00000000       0x36 build/stm32h5xx_hal_pcd.o
 .text.HAL_PCD_ActivateRemoteWakeup
                0x00000000        0xa build/stm32h5xx_hal_pcd.o
 .text.HAL_PCD_DeActivateRemoteWakeup
                0x00000000        0xa build/stm32h5xx_hal_pcd.o
 .text.HAL_PCD_GetState
                0x00000000        0x6 build/stm32h5xx_hal_pcd.o
 .text          0x00000000        0x0 build/stm32h5xx_hal_pcd_ex.o
 .data          0x00000000        0x0 build/stm32h5xx_hal_pcd_ex.o
 .bss           0x00000000        0x0 build/stm32h5xx_hal_pcd_ex.o
 .text.HAL_PCDEx_PMAConfig
                0x00000000       0x3c build/stm32h5xx_hal_pcd_ex.o
 .text.HAL_PCDEx_ActivateBCD
                0x00000000       0x2c build/stm32h5xx_hal_pcd_ex.o
 .text.HAL_PCDEx_DeActivateBCD
                0x00000000       0x14 build/stm32h5xx_hal_pcd_ex.o
 .text.HAL_PCDEx_DeActivateLPM
                0x00000000       0x1c build/stm32h5xx_hal_pcd_ex.o
 .text.HAL_PCDEx_LPM_Callback
                0x00000000        0x2 build/stm32h5xx_hal_pcd_ex.o
 .text.HAL_PCDEx_BCD_Callback
                0x00000000        0x2 build/stm32h5xx_hal_pcd_ex.o
 .text.HAL_PCDEx_BCD_VBUSDetect
                0x00000000       0xb0 build/stm32h5xx_hal_pcd_ex.o
 .text          0x00000000        0x0 build/stm32h5xx_ll_usb.o
 .data          0x00000000        0x0 build/stm32h5xx_ll_usb.o
 .bss           0x00000000        0x0 build/stm32h5xx_ll_usb.o
 .text.USB_CoreReset
                0x00000000       0x14 build/stm32h5xx_ll_usb.o
 .text.USB_CoreInit
                0x00000000       0x24 build/stm32h5xx_ll_usb.o
 .text.USB_EnableGlobalInt
                0x00000000        0xe build/stm32h5xx_ll_usb.o
 .text.USB_FlushTxFifo
                0x00000000        0x4 build/stm32h5xx_ll_usb.o
 .text.USB_FlushRxFifo
                0x00000000        0x4 build/stm32h5xx_ll_usb.o
 .text.USB_ActivateEndpoint
                0x00000000      0x3a8 build/stm32h5xx_ll_usb.o
 .text.USB_DeactivateEndpoint
                0x00000000      0x194 build/stm32h5xx_ll_usb.o
 .text.USB_EPSetStall
                0x00000000       0x48 build/stm32h5xx_ll_usb.o
 .text.USB_EPClearStall
                0x00000000       0xa0 build/stm32h5xx_ll_usb.o
 .text.USB_EPStopXfer
                0x00000000       0x90 build/stm32h5xx_ll_usb.o
 .text.USB_StopDevice
                0x00000000       0x10 build/stm32h5xx_ll_usb.o
 .text.USB_SetDevAddress
                0x00000000        0xa build/stm32h5xx_ll_usb.o
 .text.USB_DevConnect
                0x00000000        0xc build/stm32h5xx_ll_usb.o
 .text.USB_DevDisconnect
                0x00000000        0xc build/stm32h5xx_ll_usb.o
 .text.USB_ReadInterrupts
                0x00000000        0x4 build/stm32h5xx_ll_usb.o
 .text.USB_ActivateRemoteWakeup
                0x00000000        0xc build/stm32h5xx_ll_usb.o
 .text.USB_DeActivateRemoteWakeup
                0x00000000        0xc build/stm32h5xx_ll_usb.o
 .text.USB_WritePMA
                0x00000000       0x48 build/stm32h5xx_ll_usb.o
 .text.USB_EPStartXfer
                0x00000000      0x8c0 build/stm32h5xx_ll_usb.o
 .text.USB_HC_ISO_DB_StartXfer
                0x00000000       0x6e build/stm32h5xx_ll_usb.o
 .text.USB_ReadPMA
                0x00000000       0x46 build/stm32h5xx_ll_usb.o
 .text.USB_HostInit
                0x00000000       0x40 build/stm32h5xx_ll_usb.o
 .text.USB_ResetPort
                0x00000000       0x24 build/stm32h5xx_ll_usb.o
 .text.USB_GetHostSpeed
                0x00000000       0x10 build/stm32h5xx_ll_usb.o
 .text.USB_GetCurrentFrame
                0x00000000        0x8 build/stm32h5xx_ll_usb.o
 .text.USB_HC_DoubleBuffer
                0x00000000       0x2e build/stm32h5xx_ll_usb.o
 .text.USB_HC_BULK_DB_StartXfer
                0x00000000      0x120 build/stm32h5xx_ll_usb.o
 .text.USB_HC_Init
                0x00000000       0x78 build/stm32h5xx_ll_usb.o
 .text.USB_HC_StartXfer
                0x00000000      0x364 build/stm32h5xx_ll_usb.o
 .text.USB_HC_IN_Halt
                0x00000000       0x1c build/stm32h5xx_ll_usb.o
 .text.USB_HC_OUT_Halt
                0x00000000       0x1c build/stm32h5xx_ll_usb.o
 .text.USB_StopHost
                0x00000000       0x20 build/stm32h5xx_ll_usb.o
 .text          0x00000000       0x14 build/startup_stm32h503xx.o
 .data          0x00000000        0x0 build/startup_stm32h503xx.o
 .bss           0x00000000        0x0 build/startup_stm32h503xx.o
 .text          0x00000000        0xc /opt/local/lib/gcc/arm-none-eabi/14.2.0/../../../../arm-none-eabi/lib/thumb/v8-m.main+fp/hard/libc.a(libc_a-atexit.o)
 .data          0x00000000        0x0 /opt/local/lib/gcc/arm-none-eabi/14.2.0/../../../../arm-none-eabi/lib/thumb/v8-m.main+fp/hard/libc.a(libc_a-atexit.o)
 .bss           0x00000000        0x0 /opt/local/lib/gcc/arm-none-eabi/14.2.0/../../../../arm-none-eabi/lib/thumb/v8-m.main+fp/hard/libc.a(libc_a-atexit.o)
 .debug_info    0x00000000      0x11e /opt/local/lib/gcc/arm-none-eabi/14.2.0/../../../../arm-none-eabi/lib/thumb/v8-m.main+fp/hard/libc.a(libc_a-atexit.o)
 .debug_abbrev  0x00000000       0xc1 /opt/local/lib/gcc/arm-none-eabi/14.2.0/../../../../arm-none-eabi/lib/thumb/v8-m.main+fp/hard/libc.a(libc_a-atexit.o)
 .debug_loclists
                0x00000000       0x2b /opt/local/lib/gcc/arm-none-eabi/14.2.0/../../../../arm-none-eabi/lib/thumb/v8-m.main+fp/hard/libc.a(libc_a-atexit.o)
 .debug_aranges
                0x00000000       0x20 /opt/local/lib/gcc/arm-none-eabi/14.2.0/../../../../arm-none-eabi/lib/thumb/v8-m.main+fp/hard/libc.a(libc_a-atexit.o)
 .debug_line    0x00000000      0x194 /opt/local/lib/gcc/arm-none-eabi/14.2.0/../../../../arm-none-eabi/lib/thumb/v8-m.main+fp/hard/libc.a(libc_a-atexit.o)
 .debug_str     0x00000000      0x296 /opt/local/lib/gcc/arm-none-eabi/14.2.0/../../../../arm-none-eabi/lib/thumb/v8-m.main+fp/hard/libc.a(libc_a-atexit.o)
 .comment       0x00000000       0x13 /opt/local/lib/gcc/arm-none-eabi/14.2.0/../../../../arm-none-eabi/lib/thumb/v8-m.main+fp/hard/libc.a(libc_a-atexit.o)
 .debug_frame   0x00000000       0x20 /opt/local/lib/gcc/arm-none-eabi/14.2.0/../../../../arm-none-eabi/lib/thumb/v8-m.main+fp/hard/libc.a(libc_a-atexit.o)
 .ARM.attributes
                0x00000000       0x38 /opt/local/lib/gcc/arm-none-eabi/14.2.0/../../../../arm-none-eabi/lib/thumb/v8-m.main+fp/hard/libc.a(libc_a-atexit.o)
 .text          0x00000000       0x1c /opt/local/lib/gcc/arm-none-eabi/14.2.0/../../../../arm-none-eabi/lib/thumb/v8-m.main+fp/hard/libc.a(libc_a-exit.o)
 .data          0x00000000        0x0 /opt/local/lib/gcc/arm-none-eabi/14.2.0/../../../../arm-none-eabi/lib/thumb/v8-m.main+fp/hard/libc.a(libc_a-exit.o)
 .bss           0x00000000        0x0 /opt/local/lib/gcc/arm-none-eabi/14.2.0/../../../../arm-none-eabi/lib/thumb/v8-m.main+fp/hard/libc.a(libc_a-exit.o)
 .debug_info    0x00000000      0x10a /opt/local/lib/gcc/arm-none-eabi/14.2.0/../../../../arm-none-eabi/lib/thumb/v8-m.main+fp/hard/libc.a(libc_a-exit.o)
 .debug_abbrev  0x00000000       0xd5 /opt/local/lib/gcc/arm-none-eabi/14.2.0/../../../../arm-none-eabi/lib/thumb/v8-m.main+fp/hard/libc.a(libc_a-exit.o)
 .debug_loclists
                0x00000000       0x1b /opt/local/lib/gcc/arm-none-eabi/14.2.0/../../../../arm-none-eabi/lib/thumb/v8-m.main+fp/hard/libc.a(libc_a-exit.o)
 .debug_aranges
                0x00000000       0x20 /opt/local/lib/gcc/arm-none-eabi/14.2.0/../../../../arm-none-eabi/lib/thumb/v8-m.main+fp/hard/libc.a(libc_a-exit.o)
 .debug_line    0x00000000      0x266 /opt/local/lib/gcc/arm-none-eabi/14.2.0/../../../../arm-none-eabi/lib/thumb/v8-m.main+fp/hard/libc.a(libc_a-exit.o)
 .debug_str     0x00000000      0x27f /opt/local/lib/gcc/arm-none-eabi/14.2.0/../../../../arm-none-eabi/lib/thumb/v8-m.main+fp/hard/libc.a(libc_a-exit.o)
 .comment       0x00000000       0x13 /opt/local/lib/gcc/arm-none-eabi/14.2.0/../../../../arm-none-eabi/lib/thumb/v8-m.main+fp/hard/libc.a(libc_a-exit.o)
 .debug_frame   0x00000000       0x28 /opt/local/lib/gcc/arm-none-eabi/14.2.0/../../../../arm-none-eabi/lib/thumb/v8-m.main+fp/hard/libc.a(libc_a-exit.o)
 .ARM.attributes
                0x00000000       0x38 /opt/local/lib/gcc/arm-none-eabi/14.2.0/../../../../arm-none-eabi/lib/thumb/v8-m.main+fp/hard/libc.a(libc_a-exit.o)
 .data          0x00000000        0x0 /opt/local/lib/gcc/arm-none-eabi/14.2.0/../../../../arm-none-eabi/lib/thumb/v8-m.main+fp/hard/libc.a(libc_a-printf.o)
 .bss           0x00000000        0x0 /opt/local/lib/gcc/arm-none-eabi/14.2.0/../../../../arm-none-eabi/lib/thumb/v8-m.main+fp/hard/libc.a(libc_a-printf.o)
 .data          0x00000000        0x0 /opt/local/lib/gcc/arm-none-eabi/14.2.0/../../../../arm-none-eabi/lib/thumb/v8-m.main+fp/hard/libc.a(libc_a-vfprintf.o)
 .bss           0x00000000        0x0 /opt/local/lib/gcc/arm-none-eabi/14.2.0/../../../../arm-none-eabi/lib/thumb/v8-m.main+fp/hard/libc.a(libc_a-vfprintf.o)
 .data          0x00000000        0x0 /opt/local/lib/gcc/arm-none-eabi/14.2.0/../../../../arm-none-eabi/lib/thumb/v8-m.main+fp/hard/libc.a(libc_a-vfiprintf.o)
 .bss           0x00000000        0x0 /opt/local/lib/gcc/arm-none-eabi/14.2.0/../../../../arm-none-eabi/lib/thumb/v8-m.main+fp/hard/libc.a(libc_a-vfiprintf.o)
 .data          0x00000000        0x0 /opt/local/lib/gcc/arm-none-eabi/14.2.0/../../../../arm-none-eabi/lib/thumb/v8-m.main+fp/hard/libc.a(libc_a-puts.o)
 .bss           0x00000000        0x0 /opt/local/lib/gcc/arm-none-eabi/14.2.0/../../../../arm-none-eabi/lib/thumb/v8-m.main+fp/hard/libc.a(libc_a-puts.o)
 .data          0x00000000        0x0 /opt/local/lib/gcc/arm-none-eabi/14.2.0/../../../../arm-none-eabi/lib/thumb/v8-m.main+fp/hard/libc.a(libc_a-fflush.o)
 .bss           0x00000000        0x0 /opt/local/lib/gcc/arm-none-eabi/14.2.0/../../../../arm-none-eabi/lib/thumb/v8-m.main+fp/hard/libc.a(libc_a-fflush.o)
 .data          0x00000000        0x0 /opt/local/lib/gcc/arm-none-eabi/14.2.0/../../../../arm-none-eabi/lib/thumb/v8-m.main+fp/hard/libc.a(libc_a-fvwrite.o)
 .bss           0x00000000        0x0 /opt/local/lib/gcc/arm-none-eabi/14.2.0/../../../../arm-none-eabi/lib/thumb/v8-m.main+fp/hard/libc.a(libc_a-fvwrite.o)
 .data          0x00000000        0x0 /opt/local/lib/gcc/arm-none-eabi/14.2.0/../../../../arm-none-eabi/lib/thumb/v8-m.main+fp/hard/libc.a(libc_a-fwalk.o)
 .bss           0x00000000        0x0 /opt/local/lib/gcc/arm-none-eabi/14.2.0/../../../../arm-none-eabi/lib/thumb/v8-m.main+fp/hard/libc.a(libc_a-fwalk.o)
 .data          0x00000000        0x0 /opt/local/lib/gcc/arm-none-eabi/14.2.0/../../../../arm-none-eabi/lib/thumb/v8-m.main+fp/hard/libc.a(libc_a-wsetup.o)
 .bss           0x00000000        0x0 /opt/local/lib/gcc/arm-none-eabi/14.2.0/../../../../arm-none-eabi/lib/thumb/v8-m.main+fp/hard/libc.a(libc_a-wsetup.o)
 .data          0x00000000        0x0 /opt/local/lib/gcc/arm-none-eabi/14.2.0/../../../../arm-none-eabi/lib/thumb/v8-m.main+fp/hard/libc.a(libc_a-fputwc.o)
 .bss           0x00000000        0x0 /opt/local/lib/gcc/arm-none-eabi/14.2.0/../../../../arm-none-eabi/lib/thumb/v8-m.main+fp/hard/libc.a(libc_a-fputwc.o)
 .data          0x00000000        0x0 /opt/local/lib/gcc/arm-none-eabi/14.2.0/../../../../arm-none-eabi/lib/thumb/v8-m.main+fp/hard/libc.a(libc_a-memmove.o)
 .bss           0x00000000        0x0 /opt/local/lib/gcc/arm-none-eabi/14.2.0/../../../../arm-none-eabi/lib/thumb/v8-m.main+fp/hard/libc.a(libc_a-memmove.o)
 .data          0x00000000        0x0 /opt/local/lib/gcc/arm-none-eabi/14.2.0/../../../../arm-none-eabi/lib/thumb/v8-m.main+fp/hard/libc.a(libc_a-memset.o)
 .bss           0x00000000        0x0 /opt/local/lib/gcc/arm-none-eabi/14.2.0/../../../../arm-none-eabi/lib/thumb/v8-m.main+fp/hard/libc.a(libc_a-memset.o)
 .bss           0x00000000        0x4 /opt/local/lib/gcc/arm-none-eabi/14.2.0/../../../../arm-none-eabi/lib/thumb/v8-m.main+fp/hard/libc.a(libc_a-locale.o)
 .data          0x00000000        0x0 /opt/local/lib/gcc/arm-none-eabi/14.2.0/../../../../arm-none-eabi/lib/thumb/v8-m.main+fp/hard/libc.a(libc_a-localeconv.o)
 .bss           0x00000000        0x0 /opt/local/lib/gcc/arm-none-eabi/14.2.0/../../../../arm-none-eabi/lib/thumb/v8-m.main+fp/hard/libc.a(libc_a-localeconv.o)
 .text          0x00000000        0x0 /opt/local/lib/gcc/arm-none-eabi/14.2.0/../../../../arm-none-eabi/lib/thumb/v8-m.main+fp/hard/libc.a(libc_a-impure.o)
 .bss           0x00000000        0x0 /opt/local/lib/gcc/arm-none-eabi/14.2.0/../../../../arm-none-eabi/lib/thumb/v8-m.main+fp/hard/libc.a(libc_a-impure.o)
 .data          0x00000000        0x0 /opt/local/lib/gcc/arm-none-eabi/14.2.0/../../../../arm-none-eabi/lib/thumb/v8-m.main+fp/hard/libc.a(libc_a-errno.o)
 .bss           0x00000000        0x0 /opt/local/lib/gcc/arm-none-eabi/14.2.0/../../../../arm-none-eabi/lib/thumb/v8-m.main+fp/hard/libc.a(libc_a-errno.o)
 .data          0x00000000        0x0 /opt/local/lib/gcc/arm-none-eabi/14.2.0/../../../../arm-none-eabi/lib/thumb/v8-m.main+fp/hard/libc.a(libc_a-strcmp.o)
 .bss           0x00000000        0x0 /opt/local/lib/gcc/arm-none-eabi/14.2.0/../../../../arm-none-eabi/lib/thumb/v8-m.main+fp/hard/libc.a(libc_a-strcmp.o)
 .ARM.extab     0x00000000        0x0 /opt/local/lib/gcc/arm-none-eabi/14.2.0/../../../../arm-none-eabi/lib/thumb/v8-m.main+fp/hard/libc.a(libc_a-strcmp.o)
 .data          0x00000000        0x0 /opt/local/lib/gcc/arm-none-eabi/14.2.0/../../../../arm-none-eabi/lib/thumb/v8-m.main+fp/hard/libc.a(libc_a-init.o)
 .bss           0x00000000        0x0 /opt/local/lib/gcc/arm-none-eabi/14.2.0/../../../../arm-none-eabi/lib/thumb/v8-m.main+fp/hard/libc.a(libc_a-init.o)
 .text          0x00000000       0x28 /opt/local/lib/gcc/arm-none-eabi/14.2.0/../../../../arm-none-eabi/lib/thumb/v8-m.main+fp/hard/libc.a(libc_a-fini.o)
 .data          0x00000000        0x0 /opt/local/lib/gcc/arm-none-eabi/14.2.0/../../../../arm-none-eabi/lib/thumb/v8-m.main+fp/hard/libc.a(libc_a-fini.o)
 .bss           0x00000000        0x0 /opt/local/lib/gcc/arm-none-eabi/14.2.0/../../../../arm-none-eabi/lib/thumb/v8-m.main+fp/hard/libc.a(libc_a-fini.o)
 .debug_info    0x00000000       0xf7 /opt/local/lib/gcc/arm-none-eabi/14.2.0/../../../../arm-none-eabi/lib/thumb/v8-m.main+fp/hard/libc.a(libc_a-fini.o)
 .debug_abbrev  0x00000000       0xcc /opt/local/lib/gcc/arm-none-eabi/14.2.0/../../../../arm-none-eabi/lib/thumb/v8-m.main+fp/hard/libc.a(libc_a-fini.o)
 .debug_loclists
                0x00000000       0x42 /opt/local/lib/gcc/arm-none-eabi/14.2.0/../../../../arm-none-eabi/lib/thumb/v8-m.main+fp/hard/libc.a(libc_a-fini.o)
 .debug_aranges
                0x00000000       0x20 /opt/local/lib/gcc/arm-none-eabi/14.2.0/../../../../arm-none-eabi/lib/thumb/v8-m.main+fp/hard/libc.a(libc_a-fini.o)
 .debug_line    0x00000000      0x1ab /opt/local/lib/gcc/arm-none-eabi/14.2.0/../../../../arm-none-eabi/lib/thumb/v8-m.main+fp/hard/libc.a(libc_a-fini.o)
 .debug_str     0x00000000      0x290 /opt/local/lib/gcc/arm-none-eabi/14.2.0/../../../../arm-none-eabi/lib/thumb/v8-m.main+fp/hard/libc.a(libc_a-fini.o)
 .comment       0x00000000       0x13 /opt/local/lib/gcc/arm-none-eabi/14.2.0/../../../../arm-none-eabi/lib/thumb/v8-m.main+fp/hard/libc.a(libc_a-fini.o)
 .debug_frame   0x00000000       0x34 /opt/local/lib/gcc/arm-none-eabi/14.2.0/../../../../arm-none-eabi/lib/thumb/v8-m.main+fp/hard/libc.a(libc_a-fini.o)
 .ARM.attributes
                0x00000000       0x38 /opt/local/lib/gcc/arm-none-eabi/14.2.0/../../../../arm-none-eabi/lib/thumb/v8-m.main+fp/hard/libc.a(libc_a-fini.o)
 .data          0x00000000        0x0 /opt/local/lib/gcc/arm-none-eabi/14.2.0/../../../../arm-none-eabi/lib/thumb/v8-m.main+fp/hard/libc.a(libc_a-memchr-stub.o)
 .bss           0x00000000        0x0 /opt/local/lib/gcc/arm-none-eabi/14.2.0/../../../../arm-none-eabi/lib/thumb/v8-m.main+fp/hard/libc.a(libc_a-memchr-stub.o)
 .data          0x00000000        0x0 /opt/local/lib/gcc/arm-none-eabi/14.2.0/../../../../arm-none-eabi/lib/thumb/v8-m.main+fp/hard/libc.a(libc_a-memcpy.o)
 .bss           0x00000000        0x0 /opt/local/lib/gcc/arm-none-eabi/14.2.0/../../../../arm-none-eabi/lib/thumb/v8-m.main+fp/hard/libc.a(libc_a-memcpy.o)
 .ARM.extab     0x00000000        0x0 /opt/local/lib/gcc/arm-none-eabi/14.2.0/../../../../arm-none-eabi/lib/thumb/v8-m.main+fp/hard/libc.a(libc_a-memcpy.o)
 .eh_frame      0x00000000       0x2c /opt/local/lib/gcc/arm-none-eabi/14.2.0/../../../../arm-none-eabi/lib/thumb/v8-m.main+fp/hard/libc.a(libc_a-memcpy.o)
 .data          0x00000000        0x0 /opt/local/lib/gcc/arm-none-eabi/14.2.0/../../../../arm-none-eabi/lib/thumb/v8-m.main+fp/hard/libc.a(libc_a-strlen-stub.o)
 .bss           0x00000000        0x0 /opt/local/lib/gcc/arm-none-eabi/14.2.0/../../../../arm-none-eabi/lib/thumb/v8-m.main+fp/hard/libc.a(libc_a-strlen-stub.o)
 .data          0x00000000        0x0 /opt/local/lib/gcc/arm-none-eabi/14.2.0/../../../../arm-none-eabi/lib/thumb/v8-m.main+fp/hard/libc.a(libc_a-wcrtomb.o)
 .bss           0x00000000        0x0 /opt/local/lib/gcc/arm-none-eabi/14.2.0/../../../../arm-none-eabi/lib/thumb/v8-m.main+fp/hard/libc.a(libc_a-wcrtomb.o)
 .text          0x00000000        0x0 /opt/local/lib/gcc/arm-none-eabi/14.2.0/../../../../arm-none-eabi/lib/thumb/v8-m.main+fp/hard/libc.a(libc_a-ctype_.o)
 .data          0x00000000        0x0 /opt/local/lib/gcc/arm-none-eabi/14.2.0/../../../../arm-none-eabi/lib/thumb/v8-m.main+fp/hard/libc.a(libc_a-ctype_.o)
 .bss           0x00000000        0x0 /opt/local/lib/gcc/arm-none-eabi/14.2.0/../../../../arm-none-eabi/lib/thumb/v8-m.main+fp/hard/libc.a(libc_a-ctype_.o)
 .text          0x00000000       0x64 /opt/local/lib/gcc/arm-none-eabi/14.2.0/../../../../arm-none-eabi/lib/thumb/v8-m.main+fp/hard/libc.a(libc_a-__atexit.o)
 .data          0x00000000        0x0 /opt/local/lib/gcc/arm-none-eabi/14.2.0/../../../../arm-none-eabi/lib/thumb/v8-m.main+fp/hard/libc.a(libc_a-__atexit.o)
 .bss           0x00000000      0x190 /opt/local/lib/gcc/arm-none-eabi/14.2.0/../../../../arm-none-eabi/lib/thumb/v8-m.main+fp/hard/libc.a(libc_a-__atexit.o)
 .debug_info    0x00000000      0x1fd /opt/local/lib/gcc/arm-none-eabi/14.2.0/../../../../arm-none-eabi/lib/thumb/v8-m.main+fp/hard/libc.a(libc_a-__atexit.o)
 .debug_abbrev  0x00000000      0x157 /opt/local/lib/gcc/arm-none-eabi/14.2.0/../../../../arm-none-eabi/lib/thumb/v8-m.main+fp/hard/libc.a(libc_a-__atexit.o)
 .debug_loclists
                0x00000000       0xe6 /opt/local/lib/gcc/arm-none-eabi/14.2.0/../../../../arm-none-eabi/lib/thumb/v8-m.main+fp/hard/libc.a(libc_a-__atexit.o)
 .debug_aranges
                0x00000000       0x20 /opt/local/lib/gcc/arm-none-eabi/14.2.0/../../../../arm-none-eabi/lib/thumb/v8-m.main+fp/hard/libc.a(libc_a-__atexit.o)
 .debug_line    0x00000000      0x225 /opt/local/lib/gcc/arm-none-eabi/14.2.0/../../../../arm-none-eabi/lib/thumb/v8-m.main+fp/hard/libc.a(libc_a-__atexit.o)
 .debug_str     0x00000000      0x301 /opt/local/lib/gcc/arm-none-eabi/14.2.0/../../../../arm-none-eabi/lib/thumb/v8-m.main+fp/hard/libc.a(libc_a-__atexit.o)
 .comment       0x00000000       0x13 /opt/local/lib/gcc/arm-none-eabi/14.2.0/../../../../arm-none-eabi/lib/thumb/v8-m.main+fp/hard/libc.a(libc_a-__atexit.o)
 .debug_frame   0x00000000       0x34 /opt/local/lib/gcc/arm-none-eabi/14.2.0/../../../../arm-none-eabi/lib/thumb/v8-m.main+fp/hard/libc.a(libc_a-__atexit.o)
 .ARM.attributes
                0x00000000       0x38 /opt/local/lib/gcc/arm-none-eabi/14.2.0/../../../../arm-none-eabi/lib/thumb/v8-m.main+fp/hard/libc.a(libc_a-__atexit.o)
 .text          0x00000000       0xac /opt/local/lib/gcc/arm-none-eabi/14.2.0/../../../../arm-none-eabi/lib/thumb/v8-m.main+fp/hard/libc.a(libc_a-__call_atexit.o)
 .data          0x00000000        0x0 /opt/local/lib/gcc/arm-none-eabi/14.2.0/../../../../arm-none-eabi/lib/thumb/v8-m.main+fp/hard/libc.a(libc_a-__call_atexit.o)
 .bss           0x00000000        0x4 /opt/local/lib/gcc/arm-none-eabi/14.2.0/../../../../arm-none-eabi/lib/thumb/v8-m.main+fp/hard/libc.a(libc_a-__call_atexit.o)
 .debug_info    0x00000000      0x232 /opt/local/lib/gcc/arm-none-eabi/14.2.0/../../../../arm-none-eabi/lib/thumb/v8-m.main+fp/hard/libc.a(libc_a-__call_atexit.o)
 .debug_abbrev  0x00000000      0x16a /opt/local/lib/gcc/arm-none-eabi/14.2.0/../../../../arm-none-eabi/lib/thumb/v8-m.main+fp/hard/libc.a(libc_a-__call_atexit.o)
 .debug_loclists
                0x00000000       0xe3 /opt/local/lib/gcc/arm-none-eabi/14.2.0/../../../../arm-none-eabi/lib/thumb/v8-m.main+fp/hard/libc.a(libc_a-__call_atexit.o)
 .debug_aranges
                0x00000000       0x20 /opt/local/lib/gcc/arm-none-eabi/14.2.0/../../../../arm-none-eabi/lib/thumb/v8-m.main+fp/hard/libc.a(libc_a-__call_atexit.o)
 .debug_rnglists
                0x00000000       0x2b /opt/local/lib/gcc/arm-none-eabi/14.2.0/../../../../arm-none-eabi/lib/thumb/v8-m.main+fp/hard/libc.a(libc_a-__call_atexit.o)
 .debug_line    0x00000000      0x2e6 /opt/local/lib/gcc/arm-none-eabi/14.2.0/../../../../arm-none-eabi/lib/thumb/v8-m.main+fp/hard/libc.a(libc_a-__call_atexit.o)
 .debug_str     0x00000000      0x2f0 /opt/local/lib/gcc/arm-none-eabi/14.2.0/../../../../arm-none-eabi/lib/thumb/v8-m.main+fp/hard/libc.a(libc_a-__call_atexit.o)
 .comment       0x00000000       0x13 /opt/local/lib/gcc/arm-none-eabi/14.2.0/../../../../arm-none-eabi/lib/thumb/v8-m.main+fp/hard/libc.a(libc_a-__call_atexit.o)
 .debug_frame   0x00000000       0x44 /opt/local/lib/gcc/arm-none-eabi/14.2.0/../../../../arm-none-eabi/lib/thumb/v8-m.main+fp/hard/libc.a(libc_a-__call_atexit.o)
 .ARM.attributes
                0x00000000       0x38 /opt/local/lib/gcc/arm-none-eabi/14.2.0/../../../../arm-none-eabi/lib/thumb/v8-m.main+fp/hard/libc.a(libc_a-__call_atexit.o)
 .data          0x00000000        0x0 /opt/local/lib/gcc/arm-none-eabi/14.2.0/../../../../arm-none-eabi/lib/thumb/v8-m.main+fp/hard/libc.a(libc_a-dtoa.o)
 .bss           0x00000000        0x0 /opt/local/lib/gcc/arm-none-eabi/14.2.0/../../../../arm-none-eabi/lib/thumb/v8-m.main+fp/hard/libc.a(libc_a-dtoa.o)
 .data          0x00000000        0x0 /opt/local/lib/gcc/arm-none-eabi/14.2.0/../../../../arm-none-eabi/lib/thumb/v8-m.main+fp/hard/libc.a(libc_a-freer.o)
 .bss           0x00000000        0x0 /opt/local/lib/gcc/arm-none-eabi/14.2.0/../../../../arm-none-eabi/lib/thumb/v8-m.main+fp/hard/libc.a(libc_a-freer.o)
 .data          0x00000000        0x0 /opt/local/lib/gcc/arm-none-eabi/14.2.0/../../../../arm-none-eabi/lib/thumb/v8-m.main+fp/hard/libc.a(libc_a-mbtowc_r.o)
 .bss           0x00000000        0x0 /opt/local/lib/gcc/arm-none-eabi/14.2.0/../../../../arm-none-eabi/lib/thumb/v8-m.main+fp/hard/libc.a(libc_a-mbtowc_r.o)
 .data          0x00000000        0x0 /opt/local/lib/gcc/arm-none-eabi/14.2.0/../../../../arm-none-eabi/lib/thumb/v8-m.main+fp/hard/libc.a(libc_a-makebuf.o)
 .bss           0x00000000        0x0 /opt/local/lib/gcc/arm-none-eabi/14.2.0/../../../../arm-none-eabi/lib/thumb/v8-m.main+fp/hard/libc.a(libc_a-makebuf.o)
 .data          0x00000000        0x0 /opt/local/lib/gcc/arm-none-eabi/14.2.0/../../../../arm-none-eabi/lib/thumb/v8-m.main+fp/hard/libc.a(libc_a-mlock.o)
 .bss           0x00000000        0x0 /opt/local/lib/gcc/arm-none-eabi/14.2.0/../../../../arm-none-eabi/lib/thumb/v8-m.main+fp/hard/libc.a(libc_a-mlock.o)
 .data          0x00000000        0x0 /opt/local/lib/gcc/arm-none-eabi/14.2.0/../../../../arm-none-eabi/lib/thumb/v8-m.main+fp/hard/libc.a(libc_a-mprec.o)
 .bss           0x00000000        0x0 /opt/local/lib/gcc/arm-none-eabi/14.2.0/../../../../arm-none-eabi/lib/thumb/v8-m.main+fp/hard/libc.a(libc_a-mprec.o)
 .data          0x00000000        0x0 /opt/local/lib/gcc/arm-none-eabi/14.2.0/../../../../arm-none-eabi/lib/thumb/v8-m.main+fp/hard/libc.a(libc_a-fclose.o)
 .bss           0x00000000        0x0 /opt/local/lib/gcc/arm-none-eabi/14.2.0/../../../../arm-none-eabi/lib/thumb/v8-m.main+fp/hard/libc.a(libc_a-fclose.o)
 .data          0x00000000        0x0 /opt/local/lib/gcc/arm-none-eabi/14.2.0/../../../../arm-none-eabi/lib/thumb/v8-m.main+fp/hard/libc.a(libc_a-reallocr.o)
 .bss           0x00000000        0x0 /opt/local/lib/gcc/arm-none-eabi/14.2.0/../../../../arm-none-eabi/lib/thumb/v8-m.main+fp/hard/libc.a(libc_a-reallocr.o)
 .data          0x00000000        0x0 /opt/local/lib/gcc/arm-none-eabi/14.2.0/../../../../arm-none-eabi/lib/thumb/v8-m.main+fp/hard/libc.a(libc_a-stdio.o)
 .bss           0x00000000        0x0 /opt/local/lib/gcc/arm-none-eabi/14.2.0/../../../../arm-none-eabi/lib/thumb/v8-m.main+fp/hard/libc.a(libc_a-stdio.o)
 .data          0x00000000        0x0 /opt/local/lib/gcc/arm-none-eabi/14.2.0/../../../../arm-none-eabi/lib/thumb/v8-m.main+fp/hard/libc.a(libc_a-wctomb_r.o)
 .bss           0x00000000        0x0 /opt/local/lib/gcc/arm-none-eabi/14.2.0/../../../../arm-none-eabi/lib/thumb/v8-m.main+fp/hard/libc.a(libc_a-wctomb_r.o)
 .data          0x00000000        0x0 /opt/local/lib/gcc/arm-none-eabi/14.2.0/../../../../arm-none-eabi/lib/thumb/v8-m.main+fp/hard/libc.a(libc_a-wbuf.o)
 .bss           0x00000000        0x0 /opt/local/lib/gcc/arm-none-eabi/14.2.0/../../../../arm-none-eabi/lib/thumb/v8-m.main+fp/hard/libc.a(libc_a-wbuf.o)
 .data          0x00000000        0x0 /opt/local/lib/gcc/arm-none-eabi/14.2.0/../../../../arm-none-eabi/lib/thumb/v8-m.main+fp/hard/libc.a(libc_a-closer.o)
 .bss           0x00000000        0x0 /opt/local/lib/gcc/arm-none-eabi/14.2.0/../../../../arm-none-eabi/lib/thumb/v8-m.main+fp/hard/libc.a(libc_a-closer.o)
 .text          0x00000000       0x5c /opt/local/lib/gcc/arm-none-eabi/14.2.0/../../../../arm-none-eabi/lib/thumb/v8-m.main+fp/hard/libc.a(libc_a-reent.o)
 .data          0x00000000        0x0 /opt/local/lib/gcc/arm-none-eabi/14.2.0/../../../../arm-none-eabi/lib/thumb/v8-m.main+fp/hard/libc.a(libc_a-reent.o)
 .data          0x00000000        0x0 /opt/local/lib/gcc/arm-none-eabi/14.2.0/../../../../arm-none-eabi/lib/thumb/v8-m.main+fp/hard/libc.a(libc_a-fstatr.o)
 .bss           0x00000000        0x0 /opt/local/lib/gcc/arm-none-eabi/14.2.0/../../../../arm-none-eabi/lib/thumb/v8-m.main+fp/hard/libc.a(libc_a-fstatr.o)
 .data          0x00000000        0x0 /opt/local/lib/gcc/arm-none-eabi/14.2.0/../../../../arm-none-eabi/lib/thumb/v8-m.main+fp/hard/libc.a(libc_a-isattyr.o)
 .bss           0x00000000        0x0 /opt/local/lib/gcc/arm-none-eabi/14.2.0/../../../../arm-none-eabi/lib/thumb/v8-m.main+fp/hard/libc.a(libc_a-isattyr.o)
 .data          0x00000000        0x0 /opt/local/lib/gcc/arm-none-eabi/14.2.0/../../../../arm-none-eabi/lib/thumb/v8-m.main+fp/hard/libc.a(libc_a-lseekr.o)
 .bss           0x00000000        0x0 /opt/local/lib/gcc/arm-none-eabi/14.2.0/../../../../arm-none-eabi/lib/thumb/v8-m.main+fp/hard/libc.a(libc_a-lseekr.o)
 .data          0x00000000        0x0 /opt/local/lib/gcc/arm-none-eabi/14.2.0/../../../../arm-none-eabi/lib/thumb/v8-m.main+fp/hard/libc.a(libc_a-readr.o)
 .bss           0x00000000        0x0 /opt/local/lib/gcc/arm-none-eabi/14.2.0/../../../../arm-none-eabi/lib/thumb/v8-m.main+fp/hard/libc.a(libc_a-readr.o)
 .data          0x00000000        0x0 /opt/local/lib/gcc/arm-none-eabi/14.2.0/../../../../arm-none-eabi/lib/thumb/v8-m.main+fp/hard/libc.a(libc_a-sbrkr.o)
 .bss           0x00000000        0x0 /opt/local/lib/gcc/arm-none-eabi/14.2.0/../../../../arm-none-eabi/lib/thumb/v8-m.main+fp/hard/libc.a(libc_a-sbrkr.o)
 .data          0x00000000        0x0 /opt/local/lib/gcc/arm-none-eabi/14.2.0/../../../../arm-none-eabi/lib/thumb/v8-m.main+fp/hard/libc.a(libc_a-writer.o)
 .bss           0x00000000        0x0 /opt/local/lib/gcc/arm-none-eabi/14.2.0/../../../../arm-none-eabi/lib/thumb/v8-m.main+fp/hard/libc.a(libc_a-writer.o)
 .data          0x00000000        0x0 /opt/local/lib/gcc/arm-none-eabi/14.2.0/../../../../arm-none-eabi/lib/thumb/v8-m.main+fp/hard/libc.a(libc_a-sysconf.o)
 .bss           0x00000000        0x0 /opt/local/lib/gcc/arm-none-eabi/14.2.0/../../../../arm-none-eabi/lib/thumb/v8-m.main+fp/hard/libc.a(libc_a-sysconf.o)
 .data          0x00000000        0x0 /opt/local/lib/gcc/arm-none-eabi/14.2.0/../../../../arm-none-eabi/lib/thumb/v8-m.main+fp/hard/libc.a(libc_a-assert.o)
 .bss           0x00000000        0x0 /opt/local/lib/gcc/arm-none-eabi/14.2.0/../../../../arm-none-eabi/lib/thumb/v8-m.main+fp/hard/libc.a(libc_a-assert.o)
 .data          0x00000000        0x0 /opt/local/lib/gcc/arm-none-eabi/14.2.0/../../../../arm-none-eabi/lib/thumb/v8-m.main+fp/hard/libc.a(libc_a-callocr.o)
 .bss           0x00000000        0x0 /opt/local/lib/gcc/arm-none-eabi/14.2.0/../../../../arm-none-eabi/lib/thumb/v8-m.main+fp/hard/libc.a(libc_a-callocr.o)
 .data          0x00000000        0x0 /opt/local/lib/gcc/arm-none-eabi/14.2.0/../../../../arm-none-eabi/lib/thumb/v8-m.main+fp/hard/libc.a(libc_a-fiprintf.o)
 .bss           0x00000000        0x0 /opt/local/lib/gcc/arm-none-eabi/14.2.0/../../../../arm-none-eabi/lib/thumb/v8-m.main+fp/hard/libc.a(libc_a-fiprintf.o)
 .data          0x00000000        0x0 /opt/local/lib/gcc/arm-none-eabi/14.2.0/../../../../arm-none-eabi/lib/thumb/v8-m.main+fp/hard/libc.a(libc_a-abort.o)
 .bss           0x00000000        0x0 /opt/local/lib/gcc/arm-none-eabi/14.2.0/../../../../arm-none-eabi/lib/thumb/v8-m.main+fp/hard/libc.a(libc_a-abort.o)
 .data          0x00000000        0x0 /opt/local/lib/gcc/arm-none-eabi/14.2.0/../../../../arm-none-eabi/lib/thumb/v8-m.main+fp/hard/libc.a(libc_a-signal.o)
 .bss           0x00000000        0x0 /opt/local/lib/gcc/arm-none-eabi/14.2.0/../../../../arm-none-eabi/lib/thumb/v8-m.main+fp/hard/libc.a(libc_a-signal.o)
 .data          0x00000000        0x0 /opt/local/lib/gcc/arm-none-eabi/14.2.0/../../../../arm-none-eabi/lib/thumb/v8-m.main+fp/hard/libc.a(libc_a-signalr.o)
 .bss           0x00000000        0x0 /opt/local/lib/gcc/arm-none-eabi/14.2.0/../../../../arm-none-eabi/lib/thumb/v8-m.main+fp/hard/libc.a(libc_a-signalr.o)
 .text          0x00000000      0x254 /opt/local/lib/gcc/arm-none-eabi/14.2.0/thumb/v8-m.main+fp/hard/libgcc.a(_arm_muldf3.o)
 .data          0x00000000        0x0 /opt/local/lib/gcc/arm-none-eabi/14.2.0/thumb/v8-m.main+fp/hard/libgcc.a(_arm_muldf3.o)
 .bss           0x00000000        0x0 /opt/local/lib/gcc/arm-none-eabi/14.2.0/thumb/v8-m.main+fp/hard/libgcc.a(_arm_muldf3.o)
 .debug_line    0x00000000       0xf5 /opt/local/lib/gcc/arm-none-eabi/14.2.0/thumb/v8-m.main+fp/hard/libgcc.a(_arm_muldf3.o)
 .debug_line_str
                0x00000000      0x155 /opt/local/lib/gcc/arm-none-eabi/14.2.0/thumb/v8-m.main+fp/hard/libgcc.a(_arm_muldf3.o)
 .debug_info    0x00000000       0x3f /opt/local/lib/gcc/arm-none-eabi/14.2.0/thumb/v8-m.main+fp/hard/libgcc.a(_arm_muldf3.o)
 .debug_abbrev  0x00000000       0x26 /opt/local/lib/gcc/arm-none-eabi/14.2.0/thumb/v8-m.main+fp/hard/libgcc.a(_arm_muldf3.o)
 .debug_aranges
                0x00000000       0x20 /opt/local/lib/gcc/arm-none-eabi/14.2.0/thumb/v8-m.main+fp/hard/libgcc.a(_arm_muldf3.o)
 .debug_str     0x00000000      0x177 /opt/local/lib/gcc/arm-none-eabi/14.2.0/thumb/v8-m.main+fp/hard/libgcc.a(_arm_muldf3.o)
 .debug_frame   0x00000000       0x30 /opt/local/lib/gcc/arm-none-eabi/14.2.0/thumb/v8-m.main+fp/hard/libgcc.a(_arm_muldf3.o)
 .ARM.attributes
                0x00000000       0x26 /opt/local/lib/gcc/arm-none-eabi/14.2.0/thumb/v8-m.main+fp/hard/libgcc.a(_arm_muldf3.o)
 .data          0x00000000        0x0 /opt/local/lib/gcc/arm-none-eabi/14.2.0/thumb/v8-m.main+fp/hard/libgcc.a(_arm_addsubdf3.o)
 .bss           0x00000000        0x0 /opt/local/lib/gcc/arm-none-eabi/14.2.0/thumb/v8-m.main+fp/hard/libgcc.a(_arm_addsubdf3.o)
 .data          0x00000000        0x0 /opt/local/lib/gcc/arm-none-eabi/14.2.0/thumb/v8-m.main+fp/hard/libgcc.a(_arm_muldivdf3.o)
 .bss           0x00000000        0x0 /opt/local/lib/gcc/arm-none-eabi/14.2.0/thumb/v8-m.main+fp/hard/libgcc.a(_arm_muldivdf3.o)
 .data          0x00000000        0x0 /opt/local/lib/gcc/arm-none-eabi/14.2.0/thumb/v8-m.main+fp/hard/libgcc.a(_arm_cmpdf2.o)
 .bss           0x00000000        0x0 /opt/local/lib/gcc/arm-none-eabi/14.2.0/thumb/v8-m.main+fp/hard/libgcc.a(_arm_cmpdf2.o)
 .data          0x00000000        0x0 /opt/local/lib/gcc/arm-none-eabi/14.2.0/thumb/v8-m.main+fp/hard/libgcc.a(_arm_unorddf2.o)
 .bss           0x00000000        0x0 /opt/local/lib/gcc/arm-none-eabi/14.2.0/thumb/v8-m.main+fp/hard/libgcc.a(_arm_unorddf2.o)
 .data          0x00000000        0x0 /opt/local/lib/gcc/arm-none-eabi/14.2.0/thumb/v8-m.main+fp/hard/libgcc.a(_arm_fixdfsi.o)
 .bss           0x00000000        0x0 /opt/local/lib/gcc/arm-none-eabi/14.2.0/thumb/v8-m.main+fp/hard/libgcc.a(_arm_fixdfsi.o)
 .data          0x00000000        0x0 /opt/local/lib/gcc/arm-none-eabi/14.2.0/thumb/v8-m.main+fp/hard/libgcc.a(_aeabi_uldivmod.o)
 .bss           0x00000000        0x0 /opt/local/lib/gcc/arm-none-eabi/14.2.0/thumb/v8-m.main+fp/hard/libgcc.a(_aeabi_uldivmod.o)
 .data          0x00000000        0x0 /opt/local/lib/gcc/arm-none-eabi/14.2.0/thumb/v8-m.main+fp/hard/libgcc.a(_udivmoddi4.o)
 .bss           0x00000000        0x0 /opt/local/lib/gcc/arm-none-eabi/14.2.0/thumb/v8-m.main+fp/hard/libgcc.a(_udivmoddi4.o)
 .ARM.extab     0x00000000        0x0 /opt/local/lib/gcc/arm-none-eabi/14.2.0/thumb/v8-m.main+fp/hard/libgcc.a(_udivmoddi4.o)
 .data          0x00000000        0x0 /opt/local/lib/gcc/arm-none-eabi/14.2.0/thumb/v8-m.main+fp/hard/libgcc.a(_dvmd_tls.o)
 .bss           0x00000000        0x0 /opt/local/lib/gcc/arm-none-eabi/14.2.0/thumb/v8-m.main+fp/hard/libgcc.a(_dvmd_tls.o)
 .text          0x00000000        0x0 /opt/local/lib/gcc/arm-none-eabi/14.2.0/thumb/v8-m.main+fp/hard/crtend.o
 .data          0x00000000        0x0 /opt/local/lib/gcc/arm-none-eabi/14.2.0/thumb/v8-m.main+fp/hard/crtend.o
 .bss           0x00000000        0x0 /opt/local/lib/gcc/arm-none-eabi/14.2.0/thumb/v8-m.main+fp/hard/crtend.o
 .rodata        0x00000000       0x24 /opt/local/lib/gcc/arm-none-eabi/14.2.0/thumb/v8-m.main+fp/hard/crtend.o
 .eh_frame      0x00000000        0x4 /opt/local/lib/gcc/arm-none-eabi/14.2.0/thumb/v8-m.main+fp/hard/crtend.o
 .text          0x00000000        0x0 /opt/local/lib/gcc/arm-none-eabi/14.2.0/thumb/v8-m.main+fp/hard/crtn.o
 .data          0x00000000        0x0 /opt/local/lib/gcc/arm-none-eabi/14.2.0/thumb/v8-m.main+fp/hard/crtn.o
 .bss           0x00000000        0x0 /opt/local/lib/gcc/arm-none-eabi/14.2.0/thumb/v8-m.main+fp/hard/crtn.o

Memory Configuration

Name             Origin             Length             Attributes
RAM              0x20000000         0x00008000         xrw
FLASH            0x08000000         0x00020000         xr
*default*        0x00000000         0xffffffff

Linker script and memory map

LOAD /opt/local/lib/gcc/arm-none-eabi/14.2.0/thumb/v8-m.main+fp/hard/crti.o
LOAD /opt/local/lib/gcc/arm-none-eabi/14.2.0/thumb/v8-m.main+fp/hard/crtbegin.o
LOAD /opt/local/lib/gcc/arm-none-eabi/14.2.0/../../../../arm-none-eabi/lib/thumb/v8-m.main+fp/hard/crt0.o
LOAD build/main.o
LOAD build/stm32h5xx_it.o
LOAD build/stm32h5xx_hal_msp.o
LOAD build/stm32h5xx_nucleo.o
LOAD build/stm32h5xx_hal_cortex.o
LOAD build/stm32h5xx_hal_rcc.o
LOAD build/stm32h5xx_hal_rcc_ex.o
LOAD build/stm32h5xx_hal_flash.o
LOAD build/stm32h5xx_hal_flash_ex.o
LOAD build/stm32h5xx_hal_gpio.o
LOAD build/stm32h5xx_hal_dma.o
LOAD build/stm32h5xx_hal_dma_ex.o
LOAD build/stm32h5xx_hal_pwr.o
LOAD build/stm32h5xx_hal_pwr_ex.o
LOAD build/stm32h5xx_hal.o
LOAD build/stm32h5xx_hal_exti.o
LOAD build/stm32h5xx_hal_tim.o
LOAD build/stm32h5xx_hal_tim_ex.o
LOAD build/stm32h5xx_hal_usart.o
LOAD build/stm32h5xx_hal_usart_ex.o
LOAD build/stm32h5xx_hal_uart_ex.o
LOAD build/stm32h5xx_hal_uart.o
LOAD build/system_stm32h5xx.o
LOAD build/sysmem.o
LOAD build/syscalls.o
LOAD build/stm32h5xx_hal_icache.o
LOAD build/stm32h5xx_hal_adc.o
LOAD build/stm32h5xx_hal_adc_ex.o
LOAD build/stm32h5xx_hal_spi.o
LOAD build/stm32h5xx_hal_spi_ex.o
LOAD build/stm32h5xx_hal_pcd.o
LOAD build/stm32h5xx_hal_pcd_ex.o
LOAD build/stm32h5xx_ll_usb.o
LOAD build/startup_stm32h503xx.o
LOAD /opt/local/lib/gcc/arm-none-eabi/14.2.0/../../../../arm-none-eabi/lib/thumb/v8-m.main+fp/hard/libc.a
LOAD /opt/local/lib/gcc/arm-none-eabi/14.2.0/../../../../arm-none-eabi/lib/thumb/v8-m.main+fp/hard/libm.a
LOAD /opt/local/lib/gcc/arm-none-eabi/14.2.0/../../../../arm-none-eabi/lib/thumb/v8-m.main+fp/hard/libnosys.a
START GROUP
LOAD /opt/local/lib/gcc/arm-none-eabi/14.2.0/thumb/v8-m.main+fp/hard/libgcc.a
LOAD /opt/local/lib/gcc/arm-none-eabi/14.2.0/../../../../arm-none-eabi/lib/thumb/v8-m.main+fp/hard/libc.a
END GROUP
LOAD /opt/local/lib/gcc/arm-none-eabi/14.2.0/thumb/v8-m.main+fp/hard/crtend.o
LOAD /opt/local/lib/gcc/arm-none-eabi/14.2.0/thumb/v8-m.main+fp/hard/crtn.o
                0x20008000                        _estack = (ORIGIN (RAM) + LENGTH (RAM))
                0x00000200                        _Min_Heap_Size = 0x200
                0x00000400                        _Min_Stack_Size = 0x400

.isr_vector     0x08000000      0x258
                0x08000000                        . = ALIGN (0x4)
 *(.isr_vector)
 .isr_vector    0x08000000      0x258 build/startup_stm32h503xx.o
                0x08000000                g_pfnVectors
                0x08000258                        . = ALIGN (0x4)

.text           0x08000258     0xbf90
                0x08000258                        . = ALIGN (0x4)
 *(.text)
 .text          0x08000258       0x8c /opt/local/lib/gcc/arm-none-eabi/14.2.0/thumb/v8-m.main+fp/hard/crtbegin.o
 .text          0x080002e4       0x48 /opt/local/lib/gcc/arm-none-eabi/14.2.0/../../../../arm-none-eabi/lib/thumb/v8-m.main+fp/hard/libc.a(libc_a-printf.o)
                0x080002e4                _printf_r
                0x08000304                printf
 *fill*         0x0800032c        0x4 
 .text          0x08000330     0x17f4 /opt/local/lib/gcc/arm-none-eabi/14.2.0/../../../../arm-none-eabi/lib/thumb/v8-m.main+fp/hard/libc.a(libc_a-vfprintf.o)
                0x08000330                _vfprintf_r
                0x08001aa0                vfprintf
 .text          0x08001b24      0xe48 /opt/local/lib/gcc/arm-none-eabi/14.2.0/../../../../arm-none-eabi/lib/thumb/v8-m.main+fp/hard/libc.a(libc_a-vfiprintf.o)
                0x08001b9c                __sprint_r
                0x08001bb4                _vfiprintf_r
                0x080028e8                vfiprintf
 .text          0x0800296c       0x78 /opt/local/lib/gcc/arm-none-eabi/14.2.0/../../../../arm-none-eabi/lib/thumb/v8-m.main+fp/hard/libc.a(libc_a-puts.o)
                0x0800296c                _puts_r
                0x080029d4                puts
 .text          0x080029e4      0x1a8 /opt/local/lib/gcc/arm-none-eabi/14.2.0/../../../../arm-none-eabi/lib/thumb/v8-m.main+fp/hard/libc.a(libc_a-fflush.o)
                0x080029e4                __sflush_r
                0x08002b18                _fflush_r
                0x08002b44                fflush
 .text          0x08002b8c      0x224 /opt/local/lib/gcc/arm-none-eabi/14.2.0/../../../../arm-none-eabi/lib/thumb/v8-m.main+fp/hard/libc.a(libc_a-findfp.o)
                0x08002cbc                __sfp
                0x08002d60                __sinit
                0x08002d80                __sfp_lock_acquire
                0x08002d84                __sfp_lock_release
                0x08002d88                __fp_lock_all
                0x08002d9c                __fp_unlock_all
 .text          0x08002db0      0x2e4 /opt/local/lib/gcc/arm-none-eabi/14.2.0/../../../../arm-none-eabi/lib/thumb/v8-m.main+fp/hard/libc.a(libc_a-fvwrite.o)
                0x08002db0                __sfvwrite_r
 .text          0x08003094       0x44 /opt/local/lib/gcc/arm-none-eabi/14.2.0/../../../../arm-none-eabi/lib/thumb/v8-m.main+fp/hard/libc.a(libc_a-fwalk.o)
                0x08003094                _fwalk_sglue
 .text          0x080030d8       0xf8 /opt/local/lib/gcc/arm-none-eabi/14.2.0/../../../../arm-none-eabi/lib/thumb/v8-m.main+fp/hard/libc.a(libc_a-wsetup.o)
                0x080030d8                __swsetup_r
 .text          0x080031d0       0xe4 /opt/local/lib/gcc/arm-none-eabi/14.2.0/../../../../arm-none-eabi/lib/thumb/v8-m.main+fp/hard/libc.a(libc_a-fputwc.o)
                0x080031d0                __fputwc
                0x08003244                _fputwc_r
                0x0800326c                fputwc
 .text          0x080032b4       0xfc /opt/local/lib/gcc/arm-none-eabi/14.2.0/../../../../arm-none-eabi/lib/thumb/v8-m.main+fp/hard/libc.a(libc_a-memmove.o)
                0x080032b4                memmove
 .text          0x080033b0       0x9c /opt/local/lib/gcc/arm-none-eabi/14.2.0/../../../../arm-none-eabi/lib/thumb/v8-m.main+fp/hard/libc.a(libc_a-memset.o)
                0x080033b0                memset
 .text          0x0800344c       0x8c /opt/local/lib/gcc/arm-none-eabi/14.2.0/../../../../arm-none-eabi/lib/thumb/v8-m.main+fp/hard/libc.a(libc_a-locale.o)
                0x0800344c                _setlocale_r
                0x0800348c                __locale_mb_cur_max
                0x08003498                setlocale
 .text          0x080034d8       0x14 /opt/local/lib/gcc/arm-none-eabi/14.2.0/../../../../arm-none-eabi/lib/thumb/v8-m.main+fp/hard/libc.a(libc_a-localeconv.o)
                0x080034d8                __localeconv_l
                0x080034dc                _localeconv_r
                0x080034e4                localeconv
 .text          0x080034ec        0xc /opt/local/lib/gcc/arm-none-eabi/14.2.0/../../../../arm-none-eabi/lib/thumb/v8-m.main+fp/hard/libc.a(libc_a-errno.o)
                0x080034ec                __errno
 .text          0x080034f8      0x1bc /opt/local/lib/gcc/arm-none-eabi/14.2.0/../../../../arm-none-eabi/lib/thumb/v8-m.main+fp/hard/libc.a(libc_a-strcmp.o)
                0x080034f8                strcmp
 .text          0x080036b4       0x50 /opt/local/lib/gcc/arm-none-eabi/14.2.0/../../../../arm-none-eabi/lib/thumb/v8-m.main+fp/hard/libc.a(libc_a-init.o)
                0x080036b4                __libc_init_array
 .text          0x08003704       0x80 /opt/local/lib/gcc/arm-none-eabi/14.2.0/../../../../arm-none-eabi/lib/thumb/v8-m.main+fp/hard/libc.a(libc_a-memchr-stub.o)
                0x08003704                memchr
 .text          0x08003784       0xec /opt/local/lib/gcc/arm-none-eabi/14.2.0/../../../../arm-none-eabi/lib/thumb/v8-m.main+fp/hard/libc.a(libc_a-memcpy.o)
                0x08003784                memcpy
 .text          0x08003870       0x5c /opt/local/lib/gcc/arm-none-eabi/14.2.0/../../../../arm-none-eabi/lib/thumb/v8-m.main+fp/hard/libc.a(libc_a-strlen-stub.o)
                0x08003870                strlen
 .text          0x080038cc       0x7c /opt/local/lib/gcc/arm-none-eabi/14.2.0/../../../../arm-none-eabi/lib/thumb/v8-m.main+fp/hard/libc.a(libc_a-wcrtomb.o)
                0x080038cc                _wcrtomb_r
                0x08003900                wcrtomb
 .text          0x08003948     0x1134 /opt/local/lib/gcc/arm-none-eabi/14.2.0/../../../../arm-none-eabi/lib/thumb/v8-m.main+fp/hard/libc.a(libc_a-dtoa.o)
                0x08003a80                _dtoa_r
 .text          0x08004a7c      0x2a0 /opt/local/lib/gcc/arm-none-eabi/14.2.0/../../../../arm-none-eabi/lib/thumb/v8-m.main+fp/hard/libc.a(libc_a-freer.o)
                0x08004a7c                _malloc_trim_r
                0x08004b34                _free_r
 .text          0x08004d1c      0x570 /opt/local/lib/gcc/arm-none-eabi/14.2.0/../../../../arm-none-eabi/lib/thumb/v8-m.main+fp/hard/libc.a(libc_a-mallocr.o)
                0x08004d1c                _malloc_r
 .text          0x0800528c       0x40 /opt/local/lib/gcc/arm-none-eabi/14.2.0/../../../../arm-none-eabi/lib/thumb/v8-m.main+fp/hard/libc.a(libc_a-mbtowc_r.o)
                0x0800528c                _mbtowc_r
                0x080052a0                __ascii_mbtowc
 .text          0x080052cc      0x130 /opt/local/lib/gcc/arm-none-eabi/14.2.0/../../../../arm-none-eabi/lib/thumb/v8-m.main+fp/hard/libc.a(libc_a-makebuf.o)
                0x080052cc                __smakebuf_r
                0x0800539c                __swhatbuf_r
 .text          0x080053fc        0x8 /opt/local/lib/gcc/arm-none-eabi/14.2.0/../../../../arm-none-eabi/lib/thumb/v8-m.main+fp/hard/libc.a(libc_a-mlock.o)
                0x080053fc                __malloc_lock
                0x08005400                __malloc_unlock
 .text          0x08005404      0xad8 /opt/local/lib/gcc/arm-none-eabi/14.2.0/../../../../arm-none-eabi/lib/thumb/v8-m.main+fp/hard/libc.a(libc_a-mprec.o)
                0x08005404                _Balloc
                0x08005450                _Bfree
                0x08005464                __multadd
                0x08005508                __s2b
                0x080055b8                __hi0bits
                0x0800560c                __lo0bits
                0x0800568c                __i2b
                0x080056e8                __multiply
                0x08005850                __pow5mult
                0x08005910                __lshift
                0x080059f4                __mcmp
                0x08005a38                __mdiff
                0x08005ba8                __ulp
                0x08005c0c                __b2d
                0x08005cc8                __d2b
                0x08005d84                __ratio
                0x08005de4                _mprec_log10
                0x08005e24                __copybits
                0x08005e80                __any_on
 .text          0x08005edc       0x90 /opt/local/lib/gcc/arm-none-eabi/14.2.0/../../../../arm-none-eabi/lib/thumb/v8-m.main+fp/hard/libc.a(libc_a-fclose.o)
                0x08005edc                _fclose_r
                0x08005f5c                fclose
 .text          0x08005f6c      0x374 /opt/local/lib/gcc/arm-none-eabi/14.2.0/../../../../arm-none-eabi/lib/thumb/v8-m.main+fp/hard/libc.a(libc_a-reallocr.o)
                0x08005f6c                _realloc_r
 .text          0x080062e0       0x98 /opt/local/lib/gcc/arm-none-eabi/14.2.0/../../../../arm-none-eabi/lib/thumb/v8-m.main+fp/hard/libc.a(libc_a-stdio.o)
                0x080062e0                __sread
                0x08006304                __seofread
                0x08006308                __swrite
                0x08006348                __sseek
                0x08006370                __sclose
 .text          0x08006378       0x30 /opt/local/lib/gcc/arm-none-eabi/14.2.0/../../../../arm-none-eabi/lib/thumb/v8-m.main+fp/hard/libc.a(libc_a-wctomb_r.o)
                0x08006378                _wctomb_r
                0x0800638c                __ascii_wctomb
 .text          0x080063a8       0xbc /opt/local/lib/gcc/arm-none-eabi/14.2.0/../../../../arm-none-eabi/lib/thumb/v8-m.main+fp/hard/libc.a(libc_a-wbuf.o)
                0x080063a8                __swbuf_r
                0x08006454                __swbuf
 .text          0x08006464       0x24 /opt/local/lib/gcc/arm-none-eabi/14.2.0/../../../../arm-none-eabi/lib/thumb/v8-m.main+fp/hard/libc.a(libc_a-closer.o)
                0x08006464                _close_r
 .text          0x08006488       0x2c /opt/local/lib/gcc/arm-none-eabi/14.2.0/../../../../arm-none-eabi/lib/thumb/v8-m.main+fp/hard/libc.a(libc_a-fstatr.o)
                0x08006488                _fstat_r
 .text          0x080064b4       0x24 /opt/local/lib/gcc/arm-none-eabi/14.2.0/../../../../arm-none-eabi/lib/thumb/v8-m.main+fp/hard/libc.a(libc_a-isattyr.o)
                0x080064b4                _isatty_r
 .text          0x080064d8       0x2c /opt/local/lib/gcc/arm-none-eabi/14.2.0/../../../../arm-none-eabi/lib/thumb/v8-m.main+fp/hard/libc.a(libc_a-lseekr.o)
                0x080064d8                _lseek_r
 .text          0x08006504       0x2c /opt/local/lib/gcc/arm-none-eabi/14.2.0/../../../../arm-none-eabi/lib/thumb/v8-m.main+fp/hard/libc.a(libc_a-readr.o)
                0x08006504                _read_r
 .text          0x08006530       0x24 /opt/local/lib/gcc/arm-none-eabi/14.2.0/../../../../arm-none-eabi/lib/thumb/v8-m.main+fp/hard/libc.a(libc_a-sbrkr.o)
                0x08006530                _sbrk_r
 .text          0x08006554       0x2c /opt/local/lib/gcc/arm-none-eabi/14.2.0/../../../../arm-none-eabi/lib/thumb/v8-m.main+fp/hard/libc.a(libc_a-writer.o)
                0x08006554                _write_r
 .text          0x08006580       0x1c /opt/local/lib/gcc/arm-none-eabi/14.2.0/../../../../arm-none-eabi/lib/thumb/v8-m.main+fp/hard/libc.a(libc_a-sysconf.o)
                0x08006580                sysconf
 .text          0x0800659c       0x48 /opt/local/lib/gcc/arm-none-eabi/14.2.0/../../../../arm-none-eabi/lib/thumb/v8-m.main+fp/hard/libc.a(libc_a-assert.o)
                0x0800659c                __assert_func
                0x080065d8                __assert
 .text          0x080065e4       0x70 /opt/local/lib/gcc/arm-none-eabi/14.2.0/../../../../arm-none-eabi/lib/thumb/v8-m.main+fp/hard/libc.a(libc_a-callocr.o)
                0x080065e4                _calloc_r
 .text          0x08006654       0x44 /opt/local/lib/gcc/arm-none-eabi/14.2.0/../../../../arm-none-eabi/lib/thumb/v8-m.main+fp/hard/libc.a(libc_a-fiprintf.o)
                0x08006654                _fiprintf_r
                0x08006670                fiprintf
 .text          0x08006698       0x10 /opt/local/lib/gcc/arm-none-eabi/14.2.0/../../../../arm-none-eabi/lib/thumb/v8-m.main+fp/hard/libc.a(libc_a-abort.o)
                0x08006698                abort
 .text          0x080066a8      0x27c /opt/local/lib/gcc/arm-none-eabi/14.2.0/../../../../arm-none-eabi/lib/thumb/v8-m.main+fp/hard/libc.a(libc_a-signal.o)
                0x080066a8                _init_signal_r
                0x080066d8                _signal_r
                0x08006728                _raise_r
                0x0800677c                __sigtramp_r
                0x080067e0                raise
                0x08006838                signal
                0x08006888                _init_signal
                0x080068c0                __sigtramp
 .text          0x08006924       0x30 /opt/local/lib/gcc/arm-none-eabi/14.2.0/../../../../arm-none-eabi/lib/thumb/v8-m.main+fp/hard/libc.a(libc_a-signalr.o)
                0x08006924                _kill_r
                0x08006950                _getpid_r
 .text          0x08006954      0x378 /opt/local/lib/gcc/arm-none-eabi/14.2.0/thumb/v8-m.main+fp/hard/libgcc.a(_arm_addsubdf3.o)
                0x08006954                __aeabi_drsub
                0x0800695c                __subdf3
                0x0800695c                __aeabi_dsub
                0x08006960                __aeabi_dadd
                0x08006960                __adddf3
                0x08006bd8                __aeabi_ui2d
                0x08006bd8                __floatunsidf
                0x08006bf8                __floatsidf
                0x08006bf8                __aeabi_i2d
                0x08006c1c                __extendsfdf2
                0x08006c1c                __aeabi_f2d
                0x08006c60                __aeabi_ul2d
                0x08006c60                __floatundidf
                0x08006c70                __aeabi_l2d
                0x08006c70                __floatdidf
 .text          0x08006ccc      0x424 /opt/local/lib/gcc/arm-none-eabi/14.2.0/thumb/v8-m.main+fp/hard/libgcc.a(_arm_muldivdf3.o)
                0x08006ccc                __aeabi_dmul
                0x08006ccc                __muldf3
                0x08006f20                __aeabi_ddiv
                0x08006f20                __divdf3
 .text          0x080070f0      0x110 /opt/local/lib/gcc/arm-none-eabi/14.2.0/thumb/v8-m.main+fp/hard/libgcc.a(_arm_cmpdf2.o)
                0x080070f0                __gedf2
                0x080070f0                __gtdf2
                0x080070f8                __ledf2
                0x080070f8                __ltdf2
                0x08007100                __cmpdf2
                0x08007100                __eqdf2
                0x08007100                __nedf2
                0x0800717c                __aeabi_cdrcmple
                0x0800718c                __aeabi_cdcmple
                0x0800718c                __aeabi_cdcmpeq
                0x0800719c                __aeabi_dcmpeq
                0x080071b0                __aeabi_dcmplt
                0x080071c4                __aeabi_dcmple
                0x080071d8                __aeabi_dcmpge
                0x080071ec                __aeabi_dcmpgt
 .text          0x08007200       0x2c /opt/local/lib/gcc/arm-none-eabi/14.2.0/thumb/v8-m.main+fp/hard/libgcc.a(_arm_unorddf2.o)
                0x08007200                __aeabi_dcmpun
                0x08007200                __unorddf2
 .text          0x0800722c       0x50 /opt/local/lib/gcc/arm-none-eabi/14.2.0/thumb/v8-m.main+fp/hard/libgcc.a(_arm_fixdfsi.o)
                0x0800722c                __fixdfsi
                0x0800722c                __aeabi_d2iz
 .text          0x0800727c       0x30 /opt/local/lib/gcc/arm-none-eabi/14.2.0/thumb/v8-m.main+fp/hard/libgcc.a(_aeabi_uldivmod.o)
                0x0800727c                __aeabi_uldivmod
 .text          0x080072ac      0x34c /opt/local/lib/gcc/arm-none-eabi/14.2.0/thumb/v8-m.main+fp/hard/libgcc.a(_udivmoddi4.o)
                0x080072ac                __udivmoddi4
 .text          0x080075f8        0x4 /opt/local/lib/gcc/arm-none-eabi/14.2.0/thumb/v8-m.main+fp/hard/libgcc.a(_dvmd_tls.o)
                0x080075f8                __aeabi_ldiv0
                0x080075f8                __aeabi_idiv0
 *(.text*)
 .text.MX_GPIO_Init
                0x080075fc       0xd0 build/main.o
 .text.MX_GPDMA1_Init
                0x080076cc       0x38 build/main.o
 .text.BSP_PB_Callback
                0x08007704       0x10 build/main.o
                0x08007704                BSP_PB_Callback
 .text.Error_Handler
                0x08007714        0x4 build/main.o
                0x08007714                Error_Handler
 .text.MX_SPI2_Init
                0x08007718       0x5c build/main.o
 .text.MX_TIM1_Init
                0x08007774      0x110 build/main.o
 .text.MX_ICACHE_Init
                0x08007884        0xe build/main.o
 *fill*         0x08007892        0x2 
 .text.MX_USB_PCD_Init
                0x08007894       0x38 build/main.o
 .text.MX_ADC1_Init
                0x080078cc       0x80 build/main.o
 .text.SystemClock_Config
                0x0800794c       0xac build/main.o
                0x0800794c                SystemClock_Config
 .text.PeriphCommonClock_Config
                0x080079f8       0x4c build/main.o
                0x080079f8                PeriphCommonClock_Config
 .text.main     0x08007a44       0x98 build/main.o
                0x08007a44                main
 .text.NMI_Handler
                0x08007adc        0x2 build/stm32h5xx_it.o
                0x08007adc                NMI_Handler
 .text.HardFault_Handler
                0x08007ade        0x2 build/stm32h5xx_it.o
                0x08007ade                HardFault_Handler
 .text.MemManage_Handler
                0x08007ae0        0x2 build/stm32h5xx_it.o
                0x08007ae0                MemManage_Handler
 .text.BusFault_Handler
                0x08007ae2        0x2 build/stm32h5xx_it.o
                0x08007ae2                BusFault_Handler
 .text.UsageFault_Handler
                0x08007ae4        0x2 build/stm32h5xx_it.o
                0x08007ae4                UsageFault_Handler
 .text.SVC_Handler
                0x08007ae6        0x2 build/stm32h5xx_it.o
                0x08007ae6                SVC_Handler
 .text.DebugMon_Handler
                0x08007ae8        0x2 build/stm32h5xx_it.o
                0x08007ae8                DebugMon_Handler
 .text.PendSV_Handler
                0x08007aea        0x2 build/stm32h5xx_it.o
                0x08007aea                PendSV_Handler
 .text.SysTick_Handler
                0x08007aec        0x8 build/stm32h5xx_it.o
                0x08007aec                SysTick_Handler
 .text.EXTI8_IRQHandler
                0x08007af4        0xc build/stm32h5xx_it.o
                0x08007af4                EXTI8_IRQHandler
 .text.EXTI13_IRQHandler
                0x08007b00        0xa build/stm32h5xx_it.o
                0x08007b00                EXTI13_IRQHandler
 *fill*         0x08007b0a        0x2 
 .text.GPDMA1_Channel5_IRQHandler
                0x08007b0c       0x10 build/stm32h5xx_it.o
                0x08007b0c                GPDMA1_Channel5_IRQHandler
 .text.HAL_MspInit
                0x08007b1c        0x2 build/stm32h5xx_hal_msp.o
                0x08007b1c                HAL_MspInit
 *fill*         0x08007b1e        0x2 
 .text.HAL_ADC_MspInit
                0x08007b20       0x6c build/stm32h5xx_hal_msp.o
                0x08007b20                HAL_ADC_MspInit
 .text.HAL_SPI_MspInit
                0x08007b8c       0x9c build/stm32h5xx_hal_msp.o
                0x08007b8c                HAL_SPI_MspInit
 .text.HAL_TIM_Base_MspInit
                0x08007c28       0x94 build/stm32h5xx_hal_msp.o
                0x08007c28                HAL_TIM_Base_MspInit
 .text.HAL_TIM_MspPostInit
                0x08007cbc       0x5c build/stm32h5xx_hal_msp.o
                0x08007cbc                HAL_TIM_MspPostInit
 .text.HAL_PCD_MspInit
                0x08007d18       0x34 build/stm32h5xx_hal_msp.o
                0x08007d18                HAL_PCD_MspInit
 .text.COM1_MspInit
                0x08007d4c       0x88 build/stm32h5xx_nucleo.o
 .text.BSP_LED_Init
                0x08007dd4       0x58 build/stm32h5xx_nucleo.o
                0x08007dd4                BSP_LED_Init
 .text.BSP_LED_On
                0x08007e2c       0x1c build/stm32h5xx_nucleo.o
                0x08007e2c                BSP_LED_On
 .text.BSP_LED_Toggle
                0x08007e48       0x1c build/stm32h5xx_nucleo.o
                0x08007e48                BSP_LED_Toggle
 .text.BSP_PB_Init
                0x08007e64       0x94 build/stm32h5xx_nucleo.o
                0x08007e64                BSP_PB_Init
 .text.BSP_PB_IRQHandler
                0x08007ef8       0x18 build/stm32h5xx_nucleo.o
                0x08007ef8                BSP_PB_IRQHandler
 .text.BUTTON_USER_EXTI_Callback
                0x08007f10        0xa build/stm32h5xx_nucleo.o
 *fill*         0x08007f1a        0x2 
 .text.MX_USART_Init
                0x08007f1c       0x34 build/stm32h5xx_nucleo.o
                0x08007f1c                MX_USART_Init
 .text.BSP_COM_Init
                0x08007f50       0x30 build/stm32h5xx_nucleo.o
                0x08007f50                BSP_COM_Init
 .text.__io_putchar
                0x08007f80       0x30 build/stm32h5xx_nucleo.o
                0x08007f80                __io_putchar
 .text.__NVIC_EnableIRQ
                0x08007fb0       0x1c build/stm32h5xx_hal_cortex.o
 .text.__NVIC_SetPriority
                0x08007fcc       0x28 build/stm32h5xx_hal_cortex.o
 .text.NVIC_EncodePriority
                0x08007ff4       0x3e build/stm32h5xx_hal_cortex.o
 *fill*         0x08008032        0x2 
 .text.HAL_NVIC_SetPriorityGrouping
                0x08008034       0x24 build/stm32h5xx_hal_cortex.o
                0x08008034                HAL_NVIC_SetPriorityGrouping
 .text.HAL_NVIC_SetPriority
                0x08008058       0x20 build/stm32h5xx_hal_cortex.o
                0x08008058                HAL_NVIC_SetPriority
 .text.HAL_NVIC_EnableIRQ
                0x08008078        0x8 build/stm32h5xx_hal_cortex.o
                0x08008078                HAL_NVIC_EnableIRQ
 .text.HAL_SYSTICK_Config
                0x08008080       0x20 build/stm32h5xx_hal_cortex.o
                0x08008080                HAL_SYSTICK_Config
 .text.HAL_SYSTICK_CLKSourceConfig
                0x080080a0       0x7c build/stm32h5xx_hal_cortex.o
                0x080080a0                HAL_SYSTICK_CLKSourceConfig
 .text.HAL_SYSTICK_GetCLKSourceConfig
                0x0800811c       0x30 build/stm32h5xx_hal_cortex.o
                0x0800811c                HAL_SYSTICK_GetCLKSourceConfig
 .text.HAL_RCC_GetSysClockFreq
                0x0800814c      0x1d8 build/stm32h5xx_hal_rcc.o
                0x0800814c                HAL_RCC_GetSysClockFreq
 .text.HAL_RCC_ClockConfig
                0x08008324      0x298 build/stm32h5xx_hal_rcc.o
                0x08008324                HAL_RCC_ClockConfig
 .text.HAL_RCC_GetHCLKFreq
                0x080085bc       0x2c build/stm32h5xx_hal_rcc.o
                0x080085bc                HAL_RCC_GetHCLKFreq
 .text.HAL_RCC_OscConfig
                0x080085e8      0x68c build/stm32h5xx_hal_rcc.o
                0x080085e8                HAL_RCC_OscConfig
 .text.HAL_RCC_GetPCLK1Freq
                0x08008c74       0x24 build/stm32h5xx_hal_rcc.o
                0x08008c74                HAL_RCC_GetPCLK1Freq
 .text.HAL_RCC_GetPCLK2Freq
                0x08008c98       0x24 build/stm32h5xx_hal_rcc.o
                0x08008c98                HAL_RCC_GetPCLK2Freq
 .text.HAL_RCC_GetPCLK3Freq
                0x08008cbc       0x24 build/stm32h5xx_hal_rcc.o
                0x08008cbc                HAL_RCC_GetPCLK3Freq
 .text.RCCEx_PLL2_Config
                0x08008ce0       0xdc build/stm32h5xx_hal_rcc_ex.o
 .text.HAL_RCCEx_PeriphCLKConfig
                0x08008dbc      0x6b8 build/stm32h5xx_hal_rcc_ex.o
                0x08008dbc                HAL_RCCEx_PeriphCLKConfig
 .text.HAL_RCCEx_GetPLL1ClockFreq
                0x08009474      0x218 build/stm32h5xx_hal_rcc_ex.o
                0x08009474                HAL_RCCEx_GetPLL1ClockFreq
 .text.HAL_RCCEx_GetPLL2ClockFreq
                0x0800968c      0x218 build/stm32h5xx_hal_rcc_ex.o
                0x0800968c                HAL_RCCEx_GetPLL2ClockFreq
 .text.HAL_RCCEx_GetPeriphCLKFreq
                0x080098a4      0xa0c build/stm32h5xx_hal_rcc_ex.o
                0x080098a4                HAL_RCCEx_GetPeriphCLKFreq
 .text.HAL_GPIO_Init
                0x0800a2b0      0x15c build/stm32h5xx_hal_gpio.o
                0x0800a2b0                HAL_GPIO_Init
 .text.HAL_GPIO_WritePin
                0x0800a40c        0xa build/stm32h5xx_hal_gpio.o
                0x0800a40c                HAL_GPIO_WritePin
 .text.HAL_GPIO_TogglePin
                0x0800a416       0x12 build/stm32h5xx_hal_gpio.o
                0x0800a416                HAL_GPIO_TogglePin
 .text.HAL_GPIO_EXTI_Rising_Callback
                0x0800a428        0x2 build/stm32h5xx_hal_gpio.o
                0x0800a428                HAL_GPIO_EXTI_Rising_Callback
 .text.HAL_GPIO_EXTI_Falling_Callback
                0x0800a42a        0x2 build/stm32h5xx_hal_gpio.o
                0x0800a42a                HAL_GPIO_EXTI_Falling_Callback
 .text.HAL_GPIO_EXTI_IRQHandler
                0x0800a42c       0x30 build/stm32h5xx_hal_gpio.o
                0x0800a42c                HAL_GPIO_EXTI_IRQHandler
 .text.DMA_Init
                0x0800a45c      0x184 build/stm32h5xx_hal_dma.o
 .text.HAL_DMA_Init
                0x0800a5e0       0x5e build/stm32h5xx_hal_dma.o
                0x0800a5e0                HAL_DMA_Init
 .text.HAL_DMA_IRQHandler
                0x0800a63e      0x1b0 build/stm32h5xx_hal_dma.o
                0x0800a63e                HAL_DMA_IRQHandler
 .text.HAL_DMA_ConfigChannelAttributes
                0x0800a7ee       0x46 build/stm32h5xx_hal_dma.o
                0x0800a7ee                HAL_DMA_ConfigChannelAttributes
 .text.HAL_InitTick
                0x0800a834       0xac build/stm32h5xx_hal.o
                0x0800a834                HAL_InitTick
 .text.HAL_Init
                0x0800a8e0       0x48 build/stm32h5xx_hal.o
                0x0800a8e0                HAL_Init
 .text.HAL_IncTick
                0x0800a928       0x18 build/stm32h5xx_hal.o
                0x0800a928                HAL_IncTick
 .text.HAL_GetTick
                0x0800a940        0xc build/stm32h5xx_hal.o
                0x0800a940                HAL_GetTick
 .text.HAL_EXTI_RegisterCallback
                0x0800a94c       0x22 build/stm32h5xx_hal_exti.o
                0x0800a94c                HAL_EXTI_RegisterCallback
 .text.HAL_EXTI_GetHandle
                0x0800a96e        0xc build/stm32h5xx_hal_exti.o
                0x0800a96e                HAL_EXTI_GetHandle
 *fill*         0x0800a97a        0x2 
 .text.HAL_EXTI_IRQHandler
                0x0800a97c       0x40 build/stm32h5xx_hal_exti.o
                0x0800a97c                HAL_EXTI_IRQHandler
 .text.TIM_OC1_SetConfig
                0x0800a9bc       0x58 build/stm32h5xx_hal_tim.o
 .text.TIM_OC3_SetConfig
                0x0800aa14       0x60 build/stm32h5xx_hal_tim.o
 .text.TIM_OC4_SetConfig
                0x0800aa74       0x60 build/stm32h5xx_hal_tim.o
 .text.TIM_OC5_SetConfig
                0x0800aad4       0x4c build/stm32h5xx_hal_tim.o
 .text.TIM_OC6_SetConfig
                0x0800ab20       0x4c build/stm32h5xx_hal_tim.o
 .text.TIM_TI1_ConfigInputStage
                0x0800ab6c       0x26 build/stm32h5xx_hal_tim.o
 .text.TIM_TI2_ConfigInputStage
                0x0800ab92       0x28 build/stm32h5xx_hal_tim.o
 .text.TIM_ITRx_SetConfig
                0x0800abba       0x14 build/stm32h5xx_hal_tim.o
 .text.HAL_TIM_PWM_MspInit
                0x0800abce        0x2 build/stm32h5xx_hal_tim.o
                0x0800abce                HAL_TIM_PWM_MspInit
 .text.TIM_Base_SetConfig
                0x0800abd0       0x74 build/stm32h5xx_hal_tim.o
                0x0800abd0                TIM_Base_SetConfig
 .text.HAL_TIM_Base_Init
                0x0800ac44       0x60 build/stm32h5xx_hal_tim.o
                0x0800ac44                HAL_TIM_Base_Init
 .text.HAL_TIM_PWM_Init
                0x0800aca4       0x60 build/stm32h5xx_hal_tim.o
                0x0800aca4                HAL_TIM_PWM_Init
 .text.TIM_OC2_SetConfig
                0x0800ad04       0x60 build/stm32h5xx_hal_tim.o
                0x0800ad04                TIM_OC2_SetConfig
 .text.HAL_TIM_PWM_ConfigChannel
                0x0800ad64      0x13a build/stm32h5xx_hal_tim.o
                0x0800ad64                HAL_TIM_PWM_ConfigChannel
 .text.TIM_ETR_SetConfig
                0x0800ae9e       0x1a build/stm32h5xx_hal_tim.o
                0x0800ae9e                TIM_ETR_SetConfig
 .text.HAL_TIM_ConfigClockSource
                0x0800aeb8      0x160 build/stm32h5xx_hal_tim.o
                0x0800aeb8                HAL_TIM_ConfigClockSource
 .text.HAL_TIMEx_MasterConfigSynchronization
                0x0800b018       0x74 build/stm32h5xx_hal_tim_ex.o
                0x0800b018                HAL_TIMEx_MasterConfigSynchronization
 .text.HAL_TIMEx_ConfigBreakDeadTime
                0x0800b08c       0x98 build/stm32h5xx_hal_tim_ex.o
                0x0800b08c                HAL_TIMEx_ConfigBreakDeadTime
 .text.UART_EndRxTransfer
                0x0800b124       0x56 build/stm32h5xx_hal_uart.o
 .text.HAL_UART_MspInit
                0x0800b17a        0x2 build/stm32h5xx_hal_uart.o
                0x0800b17a                HAL_UART_MspInit
 .text.UART_SetConfig
                0x0800b17c      0x1b0 build/stm32h5xx_hal_uart.o
                0x0800b17c                UART_SetConfig
 .text.UART_AdvFeatureConfig
                0x0800b32c       0xca build/stm32h5xx_hal_uart.o
                0x0800b32c                UART_AdvFeatureConfig
 .text.UART_WaitOnFlagUntilTimeout
                0x0800b3f6       0x9e build/stm32h5xx_hal_uart.o
                0x0800b3f6                UART_WaitOnFlagUntilTimeout
 .text.HAL_UART_Transmit
                0x0800b494       0xe6 build/stm32h5xx_hal_uart.o
                0x0800b494                HAL_UART_Transmit
 .text.UART_CheckIdleState
                0x0800b57a       0xca build/stm32h5xx_hal_uart.o
                0x0800b57a                UART_CheckIdleState
 .text.HAL_UART_Init
                0x0800b644       0x66 build/stm32h5xx_hal_uart.o
                0x0800b644                HAL_UART_Init
 *fill*         0x0800b6aa        0x2 
 .text.SystemInit
                0x0800b6ac       0x9c build/system_stm32h5xx.o
                0x0800b6ac                SystemInit
 .text._sbrk    0x0800b748       0x48 build/sysmem.o
                0x0800b748                _sbrk
 .text._getpid  0x0800b790        0x4 build/syscalls.o
                0x0800b790                _getpid
 .text._kill    0x0800b794       0x10 build/syscalls.o
                0x0800b794                _kill
 .text._exit    0x0800b7a4        0xc build/syscalls.o
                0x0800b7a4                _exit
 .text._read    0x0800b7b0       0x20 build/syscalls.o
                0x0800b7b0                _read
 .text._write   0x0800b7d0       0x1c build/syscalls.o
                0x0800b7d0                _write
 .text._close   0x0800b7ec        0x6 build/syscalls.o
                0x0800b7ec                _close
 .text._fstat   0x0800b7f2        0xa build/syscalls.o
                0x0800b7f2                _fstat
 .text._isatty  0x0800b7fc        0x4 build/syscalls.o
                0x0800b7fc                _isatty
 .text._lseek   0x0800b800        0x4 build/syscalls.o
                0x0800b800                _lseek
 .text.HAL_ICACHE_Enable
                0x0800b804       0x14 build/stm32h5xx_hal_icache.o
                0x0800b804                HAL_ICACHE_Enable
 .text.LL_ADC_REG_SetSequencerRanks
                0x0800b818       0x30 build/stm32h5xx_hal_adc.o
 .text.LL_ADC_SetChannelSamplingTime
                0x0800b848       0x2c build/stm32h5xx_hal_adc.o
 .text.HAL_ADC_Init
                0x0800b874      0x1d8 build/stm32h5xx_hal_adc.o
                0x0800b874                HAL_ADC_Init
 .text.HAL_ADC_ConfigChannel
                0x0800ba4c      0x490 build/stm32h5xx_hal_adc.o
                0x0800ba4c                HAL_ADC_ConfigChannel
 .text.SPI_GetPacketSize
                0x0800bedc       0x10 build/stm32h5xx_hal_spi.o
 .text.HAL_SPI_Init
                0x0800beec      0x154 build/stm32h5xx_hal_spi.o
                0x0800beec                HAL_SPI_Init
 .text.HAL_PCD_Init
                0x0800c040       0xbe build/stm32h5xx_hal_pcd.o
                0x0800c040                HAL_PCD_Init
 .text.HAL_PCDEx_ActivateLPM
                0x0800c0fe       0x20 build/stm32h5xx_hal_pcd_ex.o
                0x0800c0fe                HAL_PCDEx_ActivateLPM
 .text.USB_DisableGlobalInt
                0x0800c11e       0x10 build/stm32h5xx_ll_usb.o
                0x0800c11e                USB_DisableGlobalInt
 .text.USB_SetCurrentMode
                0x0800c12e       0x22 build/stm32h5xx_ll_usb.o
                0x0800c12e                USB_SetCurrentMode
 .text.USB_DevInit
                0x0800c150       0x2c build/stm32h5xx_ll_usb.o
                0x0800c150                USB_DevInit
 .text.Reset_Handler
                0x0800c17c       0x50 build/startup_stm32h503xx.o
                0x0800c17c                Reset_Handler
 .text.Default_Handler
                0x0800c1cc        0x2 build/startup_stm32h503xx.o
                0x0800c1cc                HASH_IRQHandler
                0x0800c1cc                EXTI5_IRQHandler
                0x0800c1cc                I3C1_ER_IRQHandler
                0x0800c1cc                GPDMA2_Channel1_IRQHandler
                0x0800c1cc                TIM1_CC_IRQHandler
                0x0800c1cc                GPDMA2_Channel3_IRQHandler
                0x0800c1cc                TAMP_IRQHandler
                0x0800c1cc                TIM6_IRQHandler
                0x0800c1cc                EXTI12_IRQHandler
                0x0800c1cc                USB_DRD_FS_IRQHandler
                0x0800c1cc                EXTI3_IRQHandler
                0x0800c1cc                GPDMA2_Channel5_IRQHandler
                0x0800c1cc                LPTIM2_IRQHandler
                0x0800c1cc                GPDMA2_Channel2_IRQHandler
                0x0800c1cc                EXTI0_IRQHandler
                0x0800c1cc                I2C2_EV_IRQHandler
                0x0800c1cc                FPU_IRQHandler
                0x0800c1cc                GPDMA1_Channel3_IRQHandler
                0x0800c1cc                GPDMA1_Channel7_IRQHandler
                0x0800c1cc                FDCAN1_IT1_IRQHandler
                0x0800c1cc                RAMCFG_IRQHandler
                0x0800c1cc                SPI1_IRQHandler
                0x0800c1cc                GPDMA1_Channel2_IRQHandler
                0x0800c1cc                ADC1_IRQHandler
                0x0800c1cc                I3C2_ER_IRQHandler
                0x0800c1cc                EXTI15_IRQHandler
                0x0800c1cc                USART3_IRQHandler
                0x0800c1cc                RTC_IRQHandler
                0x0800c1cc                EXTI9_IRQHandler
                0x0800c1cc                I3C2_EV_IRQHandler
                0x0800c1cc                I2C1_EV_IRQHandler
                0x0800c1cc                GPDMA1_Channel1_IRQHandler
                0x0800c1cc                TIM3_IRQHandler
                0x0800c1cc                RCC_IRQHandler
                0x0800c1cc                TIM1_TRG_COM_IRQHandler
                0x0800c1cc                Default_Handler
                0x0800c1cc                GPDMA2_Channel4_IRQHandler
                0x0800c1cc                TIM7_IRQHandler
                0x0800c1cc                GPDMA1_Channel0_IRQHandler
                0x0800c1cc                I3C1_EV_IRQHandler
                0x0800c1cc                PVD_AVD_IRQHandler
                0x0800c1cc                SPI2_IRQHandler
                0x0800c1cc                EXTI14_IRQHandler
                0x0800c1cc                EXTI11_IRQHandler
                0x0800c1cc                CRS_IRQHandler
                0x0800c1cc                EXTI4_IRQHandler
                0x0800c1cc                GPDMA2_Channel0_IRQHandler
                0x0800c1cc                RNG_IRQHandler
                0x0800c1cc                GPDMA2_Channel6_IRQHandler
                0x0800c1cc                TIM1_UP_IRQHandler
                0x0800c1cc                WWDG_IRQHandler
                0x0800c1cc                IWDG_IRQHandler
                0x0800c1cc                LPUART1_IRQHandler
                0x0800c1cc                FDCAN1_IT0_IRQHandler
                0x0800c1cc                TIM2_IRQHandler
                0x0800c1cc                GPDMA1_Channel4_IRQHandler
                0x0800c1cc                EXTI7_IRQHandler
                0x0800c1cc                TIM1_BRK_IRQHandler
                0x0800c1cc                EXTI1_IRQHandler
                0x0800c1cc                DAC1_IRQHandler
                0x0800c1cc                DTS_IRQHandler
                0x0800c1cc                GTZC_IRQHandler
                0x0800c1cc                USART2_IRQHandler
                0x0800c1cc                GPDMA1_Channel6_IRQHandler
                0x0800c1cc                GPDMA2_Channel7_IRQHandler
                0x0800c1cc                I2C2_ER_IRQHandler
                0x0800c1cc                FLASH_IRQHandler
                0x0800c1cc                USART1_IRQHandler
                0x0800c1cc                EXTI10_IRQHandler
                0x0800c1cc                SPI3_IRQHandler
                0x0800c1cc                I2C1_ER_IRQHandler
                0x0800c1cc                EXTI6_IRQHandler
                0x0800c1cc                COMP1_IRQHandler
                0x0800c1cc                LPTIM1_IRQHandler
                0x0800c1cc                ICACHE_IRQHandler
                0x0800c1cc                EXTI2_IRQHandler
 *(.glue_7)
 .glue_7        0x0800c1ce        0x0 linker stubs
 *(.glue_7t)
 .glue_7t       0x0800c1ce        0x0 linker stubs
 *(.eh_frame)
 *fill*         0x0800c1ce        0x2 
 .eh_frame      0x0800c1d0        0x0 /opt/local/lib/gcc/arm-none-eabi/14.2.0/thumb/v8-m.main+fp/hard/crtbegin.o
 *(.init)
 .init          0x0800c1d0        0x4 /opt/local/lib/gcc/arm-none-eabi/14.2.0/thumb/v8-m.main+fp/hard/crti.o
                0x0800c1d0                _init
 .init          0x0800c1d4        0x8 /opt/local/lib/gcc/arm-none-eabi/14.2.0/thumb/v8-m.main+fp/hard/crtn.o
 *(.fini)
 .fini          0x0800c1dc        0x4 /opt/local/lib/gcc/arm-none-eabi/14.2.0/thumb/v8-m.main+fp/hard/crti.o
                0x0800c1dc                _fini
 .fini          0x0800c1e0        0x8 /opt/local/lib/gcc/arm-none-eabi/14.2.0/thumb/v8-m.main+fp/hard/crtn.o
                0x0800c1e8                        . = ALIGN (0x4)
                0x0800c1e8                        _etext = .

.vfp11_veneer   0x0800c1e8        0x0
 .vfp11_veneer  0x0800c1e8        0x0 linker stubs

.v4_bx          0x0800c1e8        0x0
 .v4_bx         0x0800c1e8        0x0 linker stubs

.iplt           0x0800c1e8        0x0
 .iplt          0x0800c1e8        0x0 /opt/local/lib/gcc/arm-none-eabi/14.2.0/thumb/v8-m.main+fp/hard/crtbegin.o

.rodata         0x0800c1e8      0x4cc
                0x0800c1e8                        . = ALIGN (0x4)
 *(.rodata)
 .rodata        0x0800c1e8       0x20 /opt/local/lib/gcc/arm-none-eabi/14.2.0/../../../../arm-none-eabi/lib/thumb/v8-m.main+fp/hard/libc.a(libc_a-vfprintf.o)
 .rodata        0x0800c208       0x20 /opt/local/lib/gcc/arm-none-eabi/14.2.0/../../../../arm-none-eabi/lib/thumb/v8-m.main+fp/hard/libc.a(libc_a-vfiprintf.o)
 .rodata        0x0800c228      0x101 /opt/local/lib/gcc/arm-none-eabi/14.2.0/../../../../arm-none-eabi/lib/thumb/v8-m.main+fp/hard/libc.a(libc_a-ctype_.o)
                0x0800c228                _ctype_
 *fill*         0x0800c329        0x7 
 .rodata        0x0800c330      0x128 /opt/local/lib/gcc/arm-none-eabi/14.2.0/../../../../arm-none-eabi/lib/thumb/v8-m.main+fp/hard/libc.a(libc_a-mprec.o)
                0x0800c340                __mprec_tens
                0x0800c408                __mprec_tinytens
                0x0800c430                __mprec_bigtens
 *(.rodata*)
 .rodata.main.str1.4
                0x0800c458      0x22b build/main.o
                                 0x25 (size before relaxing)
 *fill*         0x0800c683        0x1 
 .rodata.UARTPrescTable
                0x0800c684       0x18 build/stm32h5xx_hal_uart.o
                0x0800c684                UARTPrescTable
 .rodata.APBPrescTable
                0x0800c69c        0x8 build/system_stm32h5xx.o
                0x0800c69c                APBPrescTable
 .rodata.AHBPrescTable
                0x0800c6a4       0x10 build/system_stm32h5xx.o
                0x0800c6a4                AHBPrescTable
 .rodata.str1.4
                0x0800c6b4       0x42 /opt/local/lib/gcc/arm-none-eabi/14.2.0/../../../../arm-none-eabi/lib/thumb/v8-m.main+fp/hard/libc.a(libc_a-vfprintf.o)
 .rodata.str1.4
                0x0800c6b4       0x2f /opt/local/lib/gcc/arm-none-eabi/14.2.0/../../../../arm-none-eabi/lib/thumb/v8-m.main+fp/hard/libc.a(libc_a-vfiprintf.o)
 .rodata.str1.4
                0x0800c6b4        0x2 /opt/local/lib/gcc/arm-none-eabi/14.2.0/../../../../arm-none-eabi/lib/thumb/v8-m.main+fp/hard/libc.a(libc_a-puts.o)
 .rodata.str1.4
                0x0800c6b4       0x12 /opt/local/lib/gcc/arm-none-eabi/14.2.0/../../../../arm-none-eabi/lib/thumb/v8-m.main+fp/hard/libc.a(libc_a-locale.o)
 .rodata.str1.4
                0x0800c6b4       0xc9 /opt/local/lib/gcc/arm-none-eabi/14.2.0/../../../../arm-none-eabi/lib/thumb/v8-m.main+fp/hard/libc.a(libc_a-dtoa.o)
 .rodata.str1.4
                0x0800c6b4       0xb6 /opt/local/lib/gcc/arm-none-eabi/14.2.0/../../../../arm-none-eabi/lib/thumb/v8-m.main+fp/hard/libc.a(libc_a-mprec.o)
 .rodata.str1.4
                0x0800c6b4       0x43 /opt/local/lib/gcc/arm-none-eabi/14.2.0/../../../../arm-none-eabi/lib/thumb/v8-m.main+fp/hard/libc.a(libc_a-assert.o)
                0x0800c780                        . = ALIGN (0x4)

.ARM.extab      0x0800c6b4        0x0
                0x0800c6b4                        . = ALIGN (0x4)
 *(.ARM.extab* .gnu.linkonce.armextab.*)
                0x0800c6b4                        . = ALIGN (0x4)

.ARM            0x0800c6b4        0x8
                0x0800c6b4                        . = ALIGN (0x4)
                0x0800c6b4                        __exidx_start = .
 *(.ARM.exidx*)
 .ARM.exidx     0x0800c6b4        0x8 /opt/local/lib/gcc/arm-none-eabi/14.2.0/../../../../arm-none-eabi/lib/thumb/v8-m.main+fp/hard/libc.a(libc_a-strcmp.o)
 .ARM.exidx     0x0800c6bc        0x0 /opt/local/lib/gcc/arm-none-eabi/14.2.0/../../../../arm-none-eabi/lib/thumb/v8-m.main+fp/hard/libc.a(libc_a-memcpy.o)
                                  0x8 (size before relaxing)
 .ARM.exidx     0x0800c6bc        0x0 /opt/local/lib/gcc/arm-none-eabi/14.2.0/thumb/v8-m.main+fp/hard/libgcc.a(_udivmoddi4.o)
                                  0x8 (size before relaxing)
                0x0800c6bc                        __exidx_end = .
                0x0800c6bc                        . = ALIGN (0x4)

.preinit_array  0x0800c6bc        0x0
                0x0800c6bc                        . = ALIGN (0x4)
                0x0800c6bc                        PROVIDE (__preinit_array_start = .)
 *(.preinit_array*)
                0x0800c6bc                        PROVIDE (__preinit_array_end = .)
                0x0800c6bc                        . = ALIGN (0x4)

.init_array     0x0800c6bc        0x4
                0x0800c6bc                        . = ALIGN (0x4)
                0x0800c6bc                        PROVIDE (__init_array_start = .)
 *(SORT_BY_NAME(.init_array.*))
 *(.init_array*)
 .init_array    0x0800c6bc        0x4 /opt/local/lib/gcc/arm-none-eabi/14.2.0/thumb/v8-m.main+fp/hard/crtbegin.o
                0x0800c6c0                        PROVIDE (__init_array_end = .)
                0x0800c6c0                        . = ALIGN (0x4)

.fini_array     0x0800c6c0        0x4
                0x0800c6c0                        . = ALIGN (0x4)
                0x0800c6c0                        PROVIDE (__fini_array_start = .)
 *(SORT_BY_NAME(.fini_array.*))
 *(.fini_array*)
 .fini_array    0x0800c6c0        0x4 /opt/local/lib/gcc/arm-none-eabi/14.2.0/thumb/v8-m.main+fp/hard/crtbegin.o
                0x0800c6c4                        PROVIDE (__fini_array_end = .)
                0x0800c6c4                        . = ALIGN (0x4)
                0x0800c6c4                        _sidata = LOADADDR (.data)

.rel.dyn        0x0800c6c4        0x0
 .rel.iplt      0x0800c6c4        0x0 /opt/local/lib/gcc/arm-none-eabi/14.2.0/thumb/v8-m.main+fp/hard/crtbegin.o

.data           0x20000000      0x6c0 load address 0x0800c6c4
                0x20000000                        . = ALIGN (0x4)
                0x20000000                        _sdata = .
 *(.data)
 .data          0x20000000        0xc /opt/local/lib/gcc/arm-none-eabi/14.2.0/../../../../arm-none-eabi/lib/thumb/v8-m.main+fp/hard/libc.a(libc_a-findfp.o)
                0x20000000                __sglue
 .data          0x2000000c      0x16c /opt/local/lib/gcc/arm-none-eabi/14.2.0/../../../../arm-none-eabi/lib/thumb/v8-m.main+fp/hard/libc.a(libc_a-locale.o)
                0x2000000c                __global_locale
 .data          0x20000178      0x128 /opt/local/lib/gcc/arm-none-eabi/14.2.0/../../../../arm-none-eabi/lib/thumb/v8-m.main+fp/hard/libc.a(libc_a-impure.o)
                0x20000178                _impure_ptr
                0x20000180                _impure_data
 .data          0x200002a0      0x410 /opt/local/lib/gcc/arm-none-eabi/14.2.0/../../../../arm-none-eabi/lib/thumb/v8-m.main+fp/hard/libc.a(libc_a-mallocr.o)
                0x200002a0                __malloc_av_
                0x200006a8                __malloc_sbrk_base
                0x200006ac                __malloc_trim_threshold
 *(.data*)
 .data.COM_USART
                0x200006b0        0x4 build/stm32h5xx_nucleo.o
                0x200006b0                COM_USART
 .data.uwTickFreq
                0x200006b4        0x1 build/stm32h5xx_hal.o
                0x200006b4                uwTickFreq
 *fill*         0x200006b5        0x3 
 .data.uwTickPrio
                0x200006b8        0x4 build/stm32h5xx_hal.o
                0x200006b8                uwTickPrio
 .data.SystemCoreClock
                0x200006bc        0x4 build/system_stm32h5xx.o
                0x200006bc                SystemCoreClock
 *(.RamFunc)
 *(.RamFunc*)
                0x200006c0                        . = ALIGN (0x4)
                0x200006c0                        _edata = .

.tm_clone_table
                0x200006c0        0x0 load address 0x0800cd84
 .tm_clone_table
                0x200006c0        0x0 /opt/local/lib/gcc/arm-none-eabi/14.2.0/thumb/v8-m.main+fp/hard/crtbegin.o
 .tm_clone_table
                0x200006c0        0x0 /opt/local/lib/gcc/arm-none-eabi/14.2.0/thumb/v8-m.main+fp/hard/crtend.o

.igot.plt       0x200006c0        0x0 load address 0x0800cd84
 .igot.plt      0x200006c0        0x0 /opt/local/lib/gcc/arm-none-eabi/14.2.0/thumb/v8-m.main+fp/hard/crtbegin.o
                0x200006c0                        . = ALIGN (0x4)

.bss            0x200006c0      0x6ec load address 0x0800cd84
                0x200006c0                        _sbss = .
                0x200006c0                        __bss_start__ = _sbss
 *(.bss)
 .bss           0x200006c0       0x1c /opt/local/lib/gcc/arm-none-eabi/14.2.0/thumb/v8-m.main+fp/hard/crtbegin.o
 .bss           0x200006dc      0x13c /opt/local/lib/gcc/arm-none-eabi/14.2.0/../../../../arm-none-eabi/lib/thumb/v8-m.main+fp/hard/libc.a(libc_a-findfp.o)
                0x200006dc                __sf
                0x20000814                __stdio_exit_handler
 .bss           0x20000818       0x34 /opt/local/lib/gcc/arm-none-eabi/14.2.0/../../../../arm-none-eabi/lib/thumb/v8-m.main+fp/hard/libc.a(libc_a-mallocr.o)
                0x20000818                __malloc_top_pad
                0x2000081c                __malloc_current_mallinfo
                0x20000844                __malloc_max_sbrked_mem
                0x20000848                __malloc_max_total_mem
 .bss           0x2000084c        0x4 /opt/local/lib/gcc/arm-none-eabi/14.2.0/../../../../arm-none-eabi/lib/thumb/v8-m.main+fp/hard/libc.a(libc_a-reent.o)
                0x2000084c                errno
 *(.bss*)
 .bss.hpcd_USB_DRD_FS
                0x20000850      0x2e0 build/main.o
                0x20000850                hpcd_USB_DRD_FS
 .bss.handle_GPDMA1_Channel5
                0x20000b30       0x78 build/main.o
                0x20000b30                handle_GPDMA1_Channel5
 .bss.htim1     0x20000ba8       0x4c build/main.o
                0x20000ba8                htim1
 .bss.hspi2     0x20000bf4       0x90 build/main.o
                0x20000bf4                hspi2
 .bss.hadc1     0x20000c84       0x68 build/main.o
                0x20000c84                hadc1
 .bss.BspButtonState
                0x20000cec        0x4 build/main.o
                0x20000cec                BspButtonState
 .bss.BspCOMInit
                0x20000cf0       0x10 build/main.o
                0x20000cf0                BspCOMInit
 .bss.COM_ActiveLogPort
                0x20000d00        0x1 build/stm32h5xx_nucleo.o
 *fill*         0x20000d01        0x3 
 .bss.hcom_uart
                0x20000d04       0x94 build/stm32h5xx_nucleo.o
                0x20000d04                hcom_uart
 .bss.hpb_exti  0x20000d98        0xc build/stm32h5xx_nucleo.o
                0x20000d98                hpb_exti
 .bss.uwTick    0x20000da4        0x4 build/stm32h5xx_hal.o
                0x20000da4                uwTick
 .bss.__sbrk_heap_end
                0x20000da8        0x4 build/sysmem.o
 *(COMMON)
                0x20000dac                        . = ALIGN (0x4)
                0x20000dac                        _ebss = .
                0x20000dac                        __bss_end__ = _ebss

._user_heap_stack
                0x20000dac      0x604 load address 0x0800cd84
                0x20000db0                        . = ALIGN (0x8)
 *fill*         0x20000dac        0x4 
                [!provide]                        PROVIDE (end = .)
                0x20000db0                        PROVIDE (_end = .)
                0x20000fb0                        . = (. + _Min_Heap_Size)
 *fill*         0x20000db0      0x200 
                0x200013b0                        . = (. + _Min_Stack_Size)
 *fill*         0x20000fb0      0x400 
                0x200013b0                        . = ALIGN (0x8)

/DISCARD/
 libc.a(*)
 libm.a(*)
 libgcc.a(*)

.ARM.attributes
                0x00000000       0x36
 *(.ARM.attributes)
 .ARM.attributes
                0x00000000       0x26 /opt/local/lib/gcc/arm-none-eabi/14.2.0/thumb/v8-m.main+fp/hard/crti.o
 .ARM.attributes
                0x00000026       0x38 /opt/local/lib/gcc/arm-none-eabi/14.2.0/thumb/v8-m.main+fp/hard/crtbegin.o
 .ARM.attributes
                0x0000005e       0x3a build/main.o
 .ARM.attributes
                0x00000098       0x3a build/stm32h5xx_it.o
 .ARM.attributes
                0x000000d2       0x3a build/stm32h5xx_hal_msp.o
 .ARM.attributes
                0x0000010c       0x3a build/stm32h5xx_nucleo.o
 .ARM.attributes
                0x00000146       0x3a build/stm32h5xx_hal_cortex.o
 .ARM.attributes
                0x00000180       0x3a build/stm32h5xx_hal_rcc.o
 .ARM.attributes
                0x000001ba       0x3a build/stm32h5xx_hal_rcc_ex.o
 .ARM.attributes
                0x000001f4       0x3a build/stm32h5xx_hal_gpio.o
 .ARM.attributes
                0x0000022e       0x3a build/stm32h5xx_hal_dma.o
 .ARM.attributes
                0x00000268       0x3a build/stm32h5xx_hal.o
 .ARM.attributes
                0x000002a2       0x3a build/stm32h5xx_hal_exti.o
 .ARM.attributes
                0x000002dc       0x3a build/stm32h5xx_hal_tim.o
 .ARM.attributes
                0x00000316       0x3a build/stm32h5xx_hal_tim_ex.o
 .ARM.attributes
                0x00000350       0x3a build/stm32h5xx_hal_uart.o
 .ARM.attributes
                0x0000038a       0x3a build/system_stm32h5xx.o
 .ARM.attributes
                0x000003c4       0x3a build/sysmem.o
 .ARM.attributes
                0x000003fe       0x3a build/syscalls.o
 .ARM.attributes
                0x00000438       0x3a build/stm32h5xx_hal_icache.o
 .ARM.attributes
                0x00000472       0x3a build/stm32h5xx_hal_adc.o
 .ARM.attributes
                0x000004ac       0x3a build/stm32h5xx_hal_spi.o
 .ARM.attributes
                0x000004e6       0x3a build/stm32h5xx_hal_pcd.o
 .ARM.attributes
                0x00000520       0x3a build/stm32h5xx_hal_pcd_ex.o
 .ARM.attributes
                0x0000055a       0x3a build/stm32h5xx_ll_usb.o
 .ARM.attributes
                0x00000594       0x24 build/startup_stm32h503xx.o
 .ARM.attributes
                0x000005b8       0x38 /opt/local/lib/gcc/arm-none-eabi/14.2.0/../../../../arm-none-eabi/lib/thumb/v8-m.main+fp/hard/libc.a(libc_a-printf.o)
 .ARM.attributes
                0x000005f0       0x38 /opt/local/lib/gcc/arm-none-eabi/14.2.0/../../../../arm-none-eabi/lib/thumb/v8-m.main+fp/hard/libc.a(libc_a-vfprintf.o)
 .ARM.attributes
                0x00000628       0x38 /opt/local/lib/gcc/arm-none-eabi/14.2.0/../../../../arm-none-eabi/lib/thumb/v8-m.main+fp/hard/libc.a(libc_a-vfiprintf.o)
 .ARM.attributes
                0x00000660       0x38 /opt/local/lib/gcc/arm-none-eabi/14.2.0/../../../../arm-none-eabi/lib/thumb/v8-m.main+fp/hard/libc.a(libc_a-puts.o)
 .ARM.attributes
                0x00000698       0x38 /opt/local/lib/gcc/arm-none-eabi/14.2.0/../../../../arm-none-eabi/lib/thumb/v8-m.main+fp/hard/libc.a(libc_a-fflush.o)
 .ARM.attributes
                0x000006d0       0x38 /opt/local/lib/gcc/arm-none-eabi/14.2.0/../../../../arm-none-eabi/lib/thumb/v8-m.main+fp/hard/libc.a(libc_a-findfp.o)
 .ARM.attributes
                0x00000708       0x38 /opt/local/lib/gcc/arm-none-eabi/14.2.0/../../../../arm-none-eabi/lib/thumb/v8-m.main+fp/hard/libc.a(libc_a-fvwrite.o)
 .ARM.attributes
                0x00000740       0x38 /opt/local/lib/gcc/arm-none-eabi/14.2.0/../../../../arm-none-eabi/lib/thumb/v8-m.main+fp/hard/libc.a(libc_a-fwalk.o)
 .ARM.attributes
                0x00000778       0x38 /opt/local/lib/gcc/arm-none-eabi/14.2.0/../../../../arm-none-eabi/lib/thumb/v8-m.main+fp/hard/libc.a(libc_a-wsetup.o)
 .ARM.attributes
                0x000007b0       0x38 /opt/local/lib/gcc/arm-none-eabi/14.2.0/../../../../arm-none-eabi/lib/thumb/v8-m.main+fp/hard/libc.a(libc_a-fputwc.o)
 .ARM.attributes
                0x000007e8       0x38 /opt/local/lib/gcc/arm-none-eabi/14.2.0/../../../../arm-none-eabi/lib/thumb/v8-m.main+fp/hard/libc.a(libc_a-memmove.o)
 .ARM.attributes
                0x00000820       0x38 /opt/local/lib/gcc/arm-none-eabi/14.2.0/../../../../arm-none-eabi/lib/thumb/v8-m.main+fp/hard/libc.a(libc_a-memset.o)
 .ARM.attributes
                0x00000858       0x38 /opt/local/lib/gcc/arm-none-eabi/14.2.0/../../../../arm-none-eabi/lib/thumb/v8-m.main+fp/hard/libc.a(libc_a-locale.o)
 .ARM.attributes
                0x00000890       0x38 /opt/local/lib/gcc/arm-none-eabi/14.2.0/../../../../arm-none-eabi/lib/thumb/v8-m.main+fp/hard/libc.a(libc_a-localeconv.o)
 .ARM.attributes
                0x000008c8       0x38 /opt/local/lib/gcc/arm-none-eabi/14.2.0/../../../../arm-none-eabi/lib/thumb/v8-m.main+fp/hard/libc.a(libc_a-impure.o)
 .ARM.attributes
                0x00000900       0x38 /opt/local/lib/gcc/arm-none-eabi/14.2.0/../../../../arm-none-eabi/lib/thumb/v8-m.main+fp/hard/libc.a(libc_a-errno.o)
 .ARM.attributes
                0x00000938       0x24 /opt/local/lib/gcc/arm-none-eabi/14.2.0/../../../../arm-none-eabi/lib/thumb/v8-m.main+fp/hard/libc.a(libc_a-strcmp.o)
 .ARM.attributes
                0x0000095c       0x38 /opt/local/lib/gcc/arm-none-eabi/14.2.0/../../../../arm-none-eabi/lib/thumb/v8-m.main+fp/hard/libc.a(libc_a-init.o)
 .ARM.attributes
                0x00000994       0x38 /opt/local/lib/gcc/arm-none-eabi/14.2.0/../../../../arm-none-eabi/lib/thumb/v8-m.main+fp/hard/libc.a(libc_a-memchr-stub.o)
 .ARM.attributes
                0x000009cc       0x24 /opt/local/lib/gcc/arm-none-eabi/14.2.0/../../../../arm-none-eabi/lib/thumb/v8-m.main+fp/hard/libc.a(libc_a-memcpy.o)
 .ARM.attributes
                0x000009f0       0x38 /opt/local/lib/gcc/arm-none-eabi/14.2.0/../../../../arm-none-eabi/lib/thumb/v8-m.main+fp/hard/libc.a(libc_a-strlen-stub.o)
 .ARM.attributes
                0x00000a28       0x38 /opt/local/lib/gcc/arm-none-eabi/14.2.0/../../../../arm-none-eabi/lib/thumb/v8-m.main+fp/hard/libc.a(libc_a-wcrtomb.o)
 .ARM.attributes
                0x00000a60       0x38 /opt/local/lib/gcc/arm-none-eabi/14.2.0/../../../../arm-none-eabi/lib/thumb/v8-m.main+fp/hard/libc.a(libc_a-ctype_.o)
 .ARM.attributes
                0x00000a98       0x38 /opt/local/lib/gcc/arm-none-eabi/14.2.0/../../../../arm-none-eabi/lib/thumb/v8-m.main+fp/hard/libc.a(libc_a-dtoa.o)
 .ARM.attributes
                0x00000ad0       0x38 /opt/local/lib/gcc/arm-none-eabi/14.2.0/../../../../arm-none-eabi/lib/thumb/v8-m.main+fp/hard/libc.a(libc_a-freer.o)
 .ARM.attributes
                0x00000b08       0x38 /opt/local/lib/gcc/arm-none-eabi/14.2.0/../../../../arm-none-eabi/lib/thumb/v8-m.main+fp/hard/libc.a(libc_a-mallocr.o)
 .ARM.attributes
                0x00000b40       0x38 /opt/local/lib/gcc/arm-none-eabi/14.2.0/../../../../arm-none-eabi/lib/thumb/v8-m.main+fp/hard/libc.a(libc_a-mbtowc_r.o)
 .ARM.attributes
                0x00000b78       0x38 /opt/local/lib/gcc/arm-none-eabi/14.2.0/../../../../arm-none-eabi/lib/thumb/v8-m.main+fp/hard/libc.a(libc_a-makebuf.o)
 .ARM.attributes
                0x00000bb0       0x38 /opt/local/lib/gcc/arm-none-eabi/14.2.0/../../../../arm-none-eabi/lib/thumb/v8-m.main+fp/hard/libc.a(libc_a-mlock.o)
 .ARM.attributes
                0x00000be8       0x38 /opt/local/lib/gcc/arm-none-eabi/14.2.0/../../../../arm-none-eabi/lib/thumb/v8-m.main+fp/hard/libc.a(libc_a-mprec.o)
 .ARM.attributes
                0x00000c20       0x38 /opt/local/lib/gcc/arm-none-eabi/14.2.0/../../../../arm-none-eabi/lib/thumb/v8-m.main+fp/hard/libc.a(libc_a-fclose.o)
 .ARM.attributes
                0x00000c58       0x38 /opt/local/lib/gcc/arm-none-eabi/14.2.0/../../../../arm-none-eabi/lib/thumb/v8-m.main+fp/hard/libc.a(libc_a-reallocr.o)
 .ARM.attributes
                0x00000c90       0x38 /opt/local/lib/gcc/arm-none-eabi/14.2.0/../../../../arm-none-eabi/lib/thumb/v8-m.main+fp/hard/libc.a(libc_a-stdio.o)
 .ARM.attributes
                0x00000cc8       0x38 /opt/local/lib/gcc/arm-none-eabi/14.2.0/../../../../arm-none-eabi/lib/thumb/v8-m.main+fp/hard/libc.a(libc_a-wctomb_r.o)
 .ARM.attributes
                0x00000d00       0x38 /opt/local/lib/gcc/arm-none-eabi/14.2.0/../../../../arm-none-eabi/lib/thumb/v8-m.main+fp/hard/libc.a(libc_a-wbuf.o)
 .ARM.attributes
                0x00000d38       0x38 /opt/local/lib/gcc/arm-none-eabi/14.2.0/../../../../arm-none-eabi/lib/thumb/v8-m.main+fp/hard/libc.a(libc_a-closer.o)
 .ARM.attributes
                0x00000d70       0x38 /opt/local/lib/gcc/arm-none-eabi/14.2.0/../../../../arm-none-eabi/lib/thumb/v8-m.main+fp/hard/libc.a(libc_a-reent.o)
 .ARM.attributes
                0x00000da8       0x38 /opt/local/lib/gcc/arm-none-eabi/14.2.0/../../../../arm-none-eabi/lib/thumb/v8-m.main+fp/hard/libc.a(libc_a-fstatr.o)
 .ARM.attributes
                0x00000de0       0x38 /opt/local/lib/gcc/arm-none-eabi/14.2.0/../../../../arm-none-eabi/lib/thumb/v8-m.main+fp/hard/libc.a(libc_a-isattyr.o)
 .ARM.attributes
                0x00000e18       0x38 /opt/local/lib/gcc/arm-none-eabi/14.2.0/../../../../arm-none-eabi/lib/thumb/v8-m.main+fp/hard/libc.a(libc_a-lseekr.o)
 .ARM.attributes
                0x00000e50       0x38 /opt/local/lib/gcc/arm-none-eabi/14.2.0/../../../../arm-none-eabi/lib/thumb/v8-m.main+fp/hard/libc.a(libc_a-readr.o)
 .ARM.attributes
                0x00000e88       0x38 /opt/local/lib/gcc/arm-none-eabi/14.2.0/../../../../arm-none-eabi/lib/thumb/v8-m.main+fp/hard/libc.a(libc_a-sbrkr.o)
 .ARM.attributes
                0x00000ec0       0x38 /opt/local/lib/gcc/arm-none-eabi/14.2.0/../../../../arm-none-eabi/lib/thumb/v8-m.main+fp/hard/libc.a(libc_a-writer.o)
 .ARM.attributes
                0x00000ef8       0x38 /opt/local/lib/gcc/arm-none-eabi/14.2.0/../../../../arm-none-eabi/lib/thumb/v8-m.main+fp/hard/libc.a(libc_a-sysconf.o)
 .ARM.attributes
                0x00000f30       0x38 /opt/local/lib/gcc/arm-none-eabi/14.2.0/../../../../arm-none-eabi/lib/thumb/v8-m.main+fp/hard/libc.a(libc_a-assert.o)
 .ARM.attributes
                0x00000f68       0x38 /opt/local/lib/gcc/arm-none-eabi/14.2.0/../../../../arm-none-eabi/lib/thumb/v8-m.main+fp/hard/libc.a(libc_a-callocr.o)
 .ARM.attributes
                0x00000fa0       0x38 /opt/local/lib/gcc/arm-none-eabi/14.2.0/../../../../arm-none-eabi/lib/thumb/v8-m.main+fp/hard/libc.a(libc_a-fiprintf.o)
 .ARM.attributes
                0x00000fd8       0x38 /opt/local/lib/gcc/arm-none-eabi/14.2.0/../../../../arm-none-eabi/lib/thumb/v8-m.main+fp/hard/libc.a(libc_a-abort.o)
 .ARM.attributes
                0x00001010       0x38 /opt/local/lib/gcc/arm-none-eabi/14.2.0/../../../../arm-none-eabi/lib/thumb/v8-m.main+fp/hard/libc.a(libc_a-signal.o)
 .ARM.attributes
                0x00001048       0x38 /opt/local/lib/gcc/arm-none-eabi/14.2.0/../../../../arm-none-eabi/lib/thumb/v8-m.main+fp/hard/libc.a(libc_a-signalr.o)
 .ARM.attributes
                0x00001080       0x26 /opt/local/lib/gcc/arm-none-eabi/14.2.0/thumb/v8-m.main+fp/hard/libgcc.a(_arm_addsubdf3.o)
 .ARM.attributes
                0x000010a6       0x26 /opt/local/lib/gcc/arm-none-eabi/14.2.0/thumb/v8-m.main+fp/hard/libgcc.a(_arm_muldivdf3.o)
 .ARM.attributes
                0x000010cc       0x26 /opt/local/lib/gcc/arm-none-eabi/14.2.0/thumb/v8-m.main+fp/hard/libgcc.a(_arm_cmpdf2.o)
 .ARM.attributes
                0x000010f2       0x26 /opt/local/lib/gcc/arm-none-eabi/14.2.0/thumb/v8-m.main+fp/hard/libgcc.a(_arm_unorddf2.o)
 .ARM.attributes
                0x00001118       0x26 /opt/local/lib/gcc/arm-none-eabi/14.2.0/thumb/v8-m.main+fp/hard/libgcc.a(_arm_fixdfsi.o)
 .ARM.attributes
                0x0000113e       0x26 /opt/local/lib/gcc/arm-none-eabi/14.2.0/thumb/v8-m.main+fp/hard/libgcc.a(_aeabi_uldivmod.o)
 .ARM.attributes
                0x00001164       0x38 /opt/local/lib/gcc/arm-none-eabi/14.2.0/thumb/v8-m.main+fp/hard/libgcc.a(_udivmoddi4.o)
 .ARM.attributes
                0x0000119c       0x26 /opt/local/lib/gcc/arm-none-eabi/14.2.0/thumb/v8-m.main+fp/hard/libgcc.a(_dvmd_tls.o)
 .ARM.attributes
                0x000011c2       0x38 /opt/local/lib/gcc/arm-none-eabi/14.2.0/thumb/v8-m.main+fp/hard/crtend.o
 .ARM.attributes
                0x000011fa       0x26 /opt/local/lib/gcc/arm-none-eabi/14.2.0/thumb/v8-m.main+fp/hard/crtn.o
OUTPUT(build/nucleoSTM503.elf elf32-littlearm)
LOAD linker stubs
LOAD /opt/local/lib/gcc/arm-none-eabi/14.2.0/../../../../arm-none-eabi/lib/thumb/v8-m.main+fp/hard/libc.a
LOAD /opt/local/lib/gcc/arm-none-eabi/14.2.0/../../../../arm-none-eabi/lib/thumb/v8-m.main+fp/hard/libm.a
LOAD /opt/local/lib/gcc/arm-none-eabi/14.2.0/thumb/v8-m.main+fp/hard/libgcc.a

.comment        0x00000000       0x12
 .comment       0x00000000       0x12 /opt/local/lib/gcc/arm-none-eabi/14.2.0/thumb/v8-m.main+fp/hard/crtbegin.o
                                 0x13 (size before relaxing)
 .comment       0x00000012       0x13 build/main.o
 .comment       0x00000012       0x13 build/stm32h5xx_it.o
 .comment       0x00000012       0x13 build/stm32h5xx_hal_msp.o
 .comment       0x00000012       0x13 build/stm32h5xx_nucleo.o
 .comment       0x00000012       0x13 build/stm32h5xx_hal_cortex.o
 .comment       0x00000012       0x13 build/stm32h5xx_hal_rcc.o
 .comment       0x00000012       0x13 build/stm32h5xx_hal_rcc_ex.o
 .comment       0x00000012       0x13 build/stm32h5xx_hal_gpio.o
 .comment       0x00000012       0x13 build/stm32h5xx_hal_dma.o
 .comment       0x00000012       0x13 build/stm32h5xx_hal.o
 .comment       0x00000012       0x13 build/stm32h5xx_hal_exti.o
 .comment       0x00000012       0x13 build/stm32h5xx_hal_tim.o
 .comment       0x00000012       0x13 build/stm32h5xx_hal_tim_ex.o
 .comment       0x00000012       0x13 build/stm32h5xx_hal_uart.o
 .comment       0x00000012       0x13 build/system_stm32h5xx.o
 .comment       0x00000012       0x13 build/sysmem.o
 .comment       0x00000012       0x13 build/syscalls.o
 .comment       0x00000012       0x13 build/stm32h5xx_hal_icache.o
 .comment       0x00000012       0x13 build/stm32h5xx_hal_adc.o
 .comment       0x00000012       0x13 build/stm32h5xx_hal_spi.o
 .comment       0x00000012       0x13 build/stm32h5xx_hal_pcd.o
 .comment       0x00000012       0x13 build/stm32h5xx_hal_pcd_ex.o
 .comment       0x00000012       0x13 build/stm32h5xx_ll_usb.o
 .comment       0x00000012       0x13 /opt/local/lib/gcc/arm-none-eabi/14.2.0/../../../../arm-none-eabi/lib/thumb/v8-m.main+fp/hard/libc.a(libc_a-printf.o)
 .comment       0x00000012       0x13 /opt/local/lib/gcc/arm-none-eabi/14.2.0/../../../../arm-none-eabi/lib/thumb/v8-m.main+fp/hard/libc.a(libc_a-vfprintf.o)
 .comment       0x00000012       0x13 /opt/local/lib/gcc/arm-none-eabi/14.2.0/../../../../arm-none-eabi/lib/thumb/v8-m.main+fp/hard/libc.a(libc_a-vfiprintf.o)
 .comment       0x00000012       0x13 /opt/local/lib/gcc/arm-none-eabi/14.2.0/../../../../arm-none-eabi/lib/thumb/v8-m.main+fp/hard/libc.a(libc_a-puts.o)
 .comment       0x00000012       0x13 /opt/local/lib/gcc/arm-none-eabi/14.2.0/../../../../arm-none-eabi/lib/thumb/v8-m.main+fp/hard/libc.a(libc_a-fflush.o)
 .comment       0x00000012       0x13 /opt/local/lib/gcc/arm-none-eabi/14.2.0/../../../../arm-none-eabi/lib/thumb/v8-m.main+fp/hard/libc.a(libc_a-findfp.o)
 .comment       0x00000012       0x13 /opt/local/lib/gcc/arm-none-eabi/14.2.0/../../../../arm-none-eabi/lib/thumb/v8-m.main+fp/hard/libc.a(libc_a-fvwrite.o)
 .comment       0x00000012       0x13 /opt/local/lib/gcc/arm-none-eabi/14.2.0/../../../../arm-none-eabi/lib/thumb/v8-m.main+fp/hard/libc.a(libc_a-fwalk.o)
 .comment       0x00000012       0x13 /opt/local/lib/gcc/arm-none-eabi/14.2.0/../../../../arm-none-eabi/lib/thumb/v8-m.main+fp/hard/libc.a(libc_a-wsetup.o)
 .comment       0x00000012       0x13 /opt/local/lib/gcc/arm-none-eabi/14.2.0/../../../../arm-none-eabi/lib/thumb/v8-m.main+fp/hard/libc.a(libc_a-fputwc.o)
 .comment       0x00000012       0x13 /opt/local/lib/gcc/arm-none-eabi/14.2.0/../../../../arm-none-eabi/lib/thumb/v8-m.main+fp/hard/libc.a(libc_a-memmove.o)
 .comment       0x00000012       0x13 /opt/local/lib/gcc/arm-none-eabi/14.2.0/../../../../arm-none-eabi/lib/thumb/v8-m.main+fp/hard/libc.a(libc_a-memset.o)
 .comment       0x00000012       0x13 /opt/local/lib/gcc/arm-none-eabi/14.2.0/../../../../arm-none-eabi/lib/thumb/v8-m.main+fp/hard/libc.a(libc_a-locale.o)
 .comment       0x00000012       0x13 /opt/local/lib/gcc/arm-none-eabi/14.2.0/../../../../arm-none-eabi/lib/thumb/v8-m.main+fp/hard/libc.a(libc_a-localeconv.o)
 .comment       0x00000012       0x13 /opt/local/lib/gcc/arm-none-eabi/14.2.0/../../../../arm-none-eabi/lib/thumb/v8-m.main+fp/hard/libc.a(libc_a-impure.o)
 .comment       0x00000012       0x13 /opt/local/lib/gcc/arm-none-eabi/14.2.0/../../../../arm-none-eabi/lib/thumb/v8-m.main+fp/hard/libc.a(libc_a-errno.o)
 .comment       0x00000012       0x13 /opt/local/lib/gcc/arm-none-eabi/14.2.0/../../../../arm-none-eabi/lib/thumb/v8-m.main+fp/hard/libc.a(libc_a-init.o)
 .comment       0x00000012       0x13 /opt/local/lib/gcc/arm-none-eabi/14.2.0/../../../../arm-none-eabi/lib/thumb/v8-m.main+fp/hard/libc.a(libc_a-memchr-stub.o)
 .comment       0x00000012       0x13 /opt/local/lib/gcc/arm-none-eabi/14.2.0/../../../../arm-none-eabi/lib/thumb/v8-m.main+fp/hard/libc.a(libc_a-strlen-stub.o)
 .comment       0x00000012       0x13 /opt/local/lib/gcc/arm-none-eabi/14.2.0/../../../../arm-none-eabi/lib/thumb/v8-m.main+fp/hard/libc.a(libc_a-wcrtomb.o)
 .comment       0x00000012       0x13 /opt/local/lib/gcc/arm-none-eabi/14.2.0/../../../../arm-none-eabi/lib/thumb/v8-m.main+fp/hard/libc.a(libc_a-ctype_.o)
 .comment       0x00000012       0x13 /opt/local/lib/gcc/arm-none-eabi/14.2.0/../../../../arm-none-eabi/lib/thumb/v8-m.main+fp/hard/libc.a(libc_a-dtoa.o)
 .comment       0x00000012       0x13 /opt/local/lib/gcc/arm-none-eabi/14.2.0/../../../../arm-none-eabi/lib/thumb/v8-m.main+fp/hard/libc.a(libc_a-freer.o)
 .comment       0x00000012       0x13 /opt/local/lib/gcc/arm-none-eabi/14.2.0/../../../../arm-none-eabi/lib/thumb/v8-m.main+fp/hard/libc.a(libc_a-mallocr.o)
 .comment       0x00000012       0x13 /opt/local/lib/gcc/arm-none-eabi/14.2.0/../../../../arm-none-eabi/lib/thumb/v8-m.main+fp/hard/libc.a(libc_a-mbtowc_r.o)
 .comment       0x00000012       0x13 /opt/local/lib/gcc/arm-none-eabi/14.2.0/../../../../arm-none-eabi/lib/thumb/v8-m.main+fp/hard/libc.a(libc_a-makebuf.o)
 .comment       0x00000012       0x13 /opt/local/lib/gcc/arm-none-eabi/14.2.0/../../../../arm-none-eabi/lib/thumb/v8-m.main+fp/hard/libc.a(libc_a-mlock.o)
 .comment       0x00000012       0x13 /opt/local/lib/gcc/arm-none-eabi/14.2.0/../../../../arm-none-eabi/lib/thumb/v8-m.main+fp/hard/libc.a(libc_a-mprec.o)
 .comment       0x00000012       0x13 /opt/local/lib/gcc/arm-none-eabi/14.2.0/../../../../arm-none-eabi/lib/thumb/v8-m.main+fp/hard/libc.a(libc_a-fclose.o)
 .comment       0x00000012       0x13 /opt/local/lib/gcc/arm-none-eabi/14.2.0/../../../../arm-none-eabi/lib/thumb/v8-m.main+fp/hard/libc.a(libc_a-reallocr.o)
 .comment       0x00000012       0x13 /opt/local/lib/gcc/arm-none-eabi/14.2.0/../../../../arm-none-eabi/lib/thumb/v8-m.main+fp/hard/libc.a(libc_a-stdio.o)
 .comment       0x00000012       0x13 /opt/local/lib/gcc/arm-none-eabi/14.2.0/../../../../arm-none-eabi/lib/thumb/v8-m.main+fp/hard/libc.a(libc_a-wctomb_r.o)
 .comment       0x00000012       0x13 /opt/local/lib/gcc/arm-none-eabi/14.2.0/../../../../arm-none-eabi/lib/thumb/v8-m.main+fp/hard/libc.a(libc_a-wbuf.o)
 .comment       0x00000012       0x13 /opt/local/lib/gcc/arm-none-eabi/14.2.0/../../../../arm-none-eabi/lib/thumb/v8-m.main+fp/hard/libc.a(libc_a-closer.o)
 .comment       0x00000012       0x13 /opt/local/lib/gcc/arm-none-eabi/14.2.0/../../../../arm-none-eabi/lib/thumb/v8-m.main+fp/hard/libc.a(libc_a-reent.o)
 .comment       0x00000012       0x13 /opt/local/lib/gcc/arm-none-eabi/14.2.0/../../../../arm-none-eabi/lib/thumb/v8-m.main+fp/hard/libc.a(libc_a-fstatr.o)
 .comment       0x00000012       0x13 /opt/local/lib/gcc/arm-none-eabi/14.2.0/../../../../arm-none-eabi/lib/thumb/v8-m.main+fp/hard/libc.a(libc_a-isattyr.o)
 .comment       0x00000012       0x13 /opt/local/lib/gcc/arm-none-eabi/14.2.0/../../../../arm-none-eabi/lib/thumb/v8-m.main+fp/hard/libc.a(libc_a-lseekr.o)
 .comment       0x00000012       0x13 /opt/local/lib/gcc/arm-none-eabi/14.2.0/../../../../arm-none-eabi/lib/thumb/v8-m.main+fp/hard/libc.a(libc_a-readr.o)
 .comment       0x00000012       0x13 /opt/local/lib/gcc/arm-none-eabi/14.2.0/../../../../arm-none-eabi/lib/thumb/v8-m.main+fp/hard/libc.a(libc_a-sbrkr.o)
 .comment       0x00000012       0x13 /opt/local/lib/gcc/arm-none-eabi/14.2.0/../../../../arm-none-eabi/lib/thumb/v8-m.main+fp/hard/libc.a(libc_a-writer.o)
 .comment       0x00000012       0x13 /opt/local/lib/gcc/arm-none-eabi/14.2.0/../../../../arm-none-eabi/lib/thumb/v8-m.main+fp/hard/libc.a(libc_a-sysconf.o)
 .comment       0x00000012       0x13 /opt/local/lib/gcc/arm-none-eabi/14.2.0/../../../../arm-none-eabi/lib/thumb/v8-m.main+fp/hard/libc.a(libc_a-assert.o)
 .comment       0x00000012       0x13 /opt/local/lib/gcc/arm-none-eabi/14.2.0/../../../../arm-none-eabi/lib/thumb/v8-m.main+fp/hard/libc.a(libc_a-callocr.o)
 .comment       0x00000012       0x13 /opt/local/lib/gcc/arm-none-eabi/14.2.0/../../../../arm-none-eabi/lib/thumb/v8-m.main+fp/hard/libc.a(libc_a-fiprintf.o)
 .comment       0x00000012       0x13 /opt/local/lib/gcc/arm-none-eabi/14.2.0/../../../../arm-none-eabi/lib/thumb/v8-m.main+fp/hard/libc.a(libc_a-abort.o)
 .comment       0x00000012       0x13 /opt/local/lib/gcc/arm-none-eabi/14.2.0/../../../../arm-none-eabi/lib/thumb/v8-m.main+fp/hard/libc.a(libc_a-signal.o)
 .comment       0x00000012       0x13 /opt/local/lib/gcc/arm-none-eabi/14.2.0/../../../../arm-none-eabi/lib/thumb/v8-m.main+fp/hard/libc.a(libc_a-signalr.o)
 .comment       0x00000012       0x13 /opt/local/lib/gcc/arm-none-eabi/14.2.0/thumb/v8-m.main+fp/hard/libgcc.a(_udivmoddi4.o)
 .comment       0x00000012       0x13 /opt/local/lib/gcc/arm-none-eabi/14.2.0/thumb/v8-m.main+fp/hard/crtend.o

.debug_info     0x00000000    0x45983
 .debug_info    0x00000000     0x3913 build/main.o
 .debug_info    0x00003913      0x764 build/stm32h5xx_it.o
 .debug_info    0x00004077     0x24a5 build/stm32h5xx_hal_msp.o
 .debug_info    0x0000651c     0x2059 build/stm32h5xx_nucleo.o
 .debug_info    0x00008575     0x1a13 build/stm32h5xx_hal_cortex.o
 .debug_info    0x00009f88     0x15d7 build/stm32h5xx_hal_rcc.o
 .debug_info    0x0000b55f     0x16f8 build/stm32h5xx_hal_rcc_ex.o
 .debug_info    0x0000cc57      0x810 build/stm32h5xx_hal_gpio.o
 .debug_info    0x0000d467      0xd7d build/stm32h5xx_hal_dma.o
 .debug_info    0x0000e1e4     0x13e7 build/stm32h5xx_hal.o
 .debug_info    0x0000f5cb      0x9cc build/stm32h5xx_hal_exti.o
 .debug_info    0x0000ff97     0x46e8 build/stm32h5xx_hal_tim.o
 .debug_info    0x0001467f     0x29d9 build/stm32h5xx_hal_tim_ex.o
 .debug_info    0x00017058     0x5c8e build/stm32h5xx_hal_uart.o
 .debug_info    0x0001cce6      0xdc9 build/system_stm32h5xx.o
 .debug_info    0x0001daaf      0x18c build/sysmem.o
 .debug_info    0x0001dc3b      0x848 build/syscalls.o
 .debug_info    0x0001e483      0x47b build/stm32h5xx_hal_icache.o
 .debug_info    0x0001e8fe     0x39cb build/stm32h5xx_hal_adc.o
 .debug_info    0x000222c9     0x1ec8 build/stm32h5xx_hal_spi.o
 .debug_info    0x00024191     0x1c13 build/stm32h5xx_hal_pcd.o
 .debug_info    0x00025da4      0xa30 build/stm32h5xx_hal_pcd_ex.o
 .debug_info    0x000267d4     0x21f0 build/stm32h5xx_ll_usb.o
 .debug_info    0x000289c4       0x30 build/startup_stm32h503xx.o
 .debug_info    0x000289f4      0x855 /opt/local/lib/gcc/arm-none-eabi/14.2.0/../../../../arm-none-eabi/lib/thumb/v8-m.main+fp/hard/libc.a(libc_a-printf.o)
 .debug_info    0x00029249     0x19ab /opt/local/lib/gcc/arm-none-eabi/14.2.0/../../../../arm-none-eabi/lib/thumb/v8-m.main+fp/hard/libc.a(libc_a-vfprintf.o)
 .debug_info    0x0002abf4     0x174b /opt/local/lib/gcc/arm-none-eabi/14.2.0/../../../../arm-none-eabi/lib/thumb/v8-m.main+fp/hard/libc.a(libc_a-vfiprintf.o)
 .debug_info    0x0002c33f      0x8f8 /opt/local/lib/gcc/arm-none-eabi/14.2.0/../../../../arm-none-eabi/lib/thumb/v8-m.main+fp/hard/libc.a(libc_a-puts.o)
 .debug_info    0x0002cc37      0xa4f /opt/local/lib/gcc/arm-none-eabi/14.2.0/../../../../arm-none-eabi/lib/thumb/v8-m.main+fp/hard/libc.a(libc_a-fflush.o)
 .debug_info    0x0002d686      0xea8 /opt/local/lib/gcc/arm-none-eabi/14.2.0/../../../../arm-none-eabi/lib/thumb/v8-m.main+fp/hard/libc.a(libc_a-findfp.o)
 .debug_info    0x0002e52e      0xb48 /opt/local/lib/gcc/arm-none-eabi/14.2.0/../../../../arm-none-eabi/lib/thumb/v8-m.main+fp/hard/libc.a(libc_a-fvwrite.o)
 .debug_info    0x0002f076      0x7e4 /opt/local/lib/gcc/arm-none-eabi/14.2.0/../../../../arm-none-eabi/lib/thumb/v8-m.main+fp/hard/libc.a(libc_a-fwalk.o)
 .debug_info    0x0002f85a      0x7cf /opt/local/lib/gcc/arm-none-eabi/14.2.0/../../../../arm-none-eabi/lib/thumb/v8-m.main+fp/hard/libc.a(libc_a-wsetup.o)
 .debug_info    0x00030029      0xa5a /opt/local/lib/gcc/arm-none-eabi/14.2.0/../../../../arm-none-eabi/lib/thumb/v8-m.main+fp/hard/libc.a(libc_a-fputwc.o)
 .debug_info    0x00030a83      0x148 /opt/local/lib/gcc/arm-none-eabi/14.2.0/../../../../arm-none-eabi/lib/thumb/v8-m.main+fp/hard/libc.a(libc_a-memmove.o)
 .debug_info    0x00030bcb      0x135 /opt/local/lib/gcc/arm-none-eabi/14.2.0/../../../../arm-none-eabi/lib/thumb/v8-m.main+fp/hard/libc.a(libc_a-memset.o)
 .debug_info    0x00030d00      0xbd7 /opt/local/lib/gcc/arm-none-eabi/14.2.0/../../../../arm-none-eabi/lib/thumb/v8-m.main+fp/hard/libc.a(libc_a-locale.o)
 .debug_info    0x000318d7      0xa2c /opt/local/lib/gcc/arm-none-eabi/14.2.0/../../../../arm-none-eabi/lib/thumb/v8-m.main+fp/hard/libc.a(libc_a-localeconv.o)
 .debug_info    0x00032303      0x729 /opt/local/lib/gcc/arm-none-eabi/14.2.0/../../../../arm-none-eabi/lib/thumb/v8-m.main+fp/hard/libc.a(libc_a-impure.o)
 .debug_info    0x00032a2c      0x70f /opt/local/lib/gcc/arm-none-eabi/14.2.0/../../../../arm-none-eabi/lib/thumb/v8-m.main+fp/hard/libc.a(libc_a-errno.o)
 .debug_info    0x0003313b       0x33 /opt/local/lib/gcc/arm-none-eabi/14.2.0/../../../../arm-none-eabi/lib/thumb/v8-m.main+fp/hard/libc.a(libc_a-strcmp.o)
 .debug_info    0x0003316e      0x10b /opt/local/lib/gcc/arm-none-eabi/14.2.0/../../../../arm-none-eabi/lib/thumb/v8-m.main+fp/hard/libc.a(libc_a-init.o)
 .debug_info    0x00033279      0x144 /opt/local/lib/gcc/arm-none-eabi/14.2.0/../../../../arm-none-eabi/lib/thumb/v8-m.main+fp/hard/libc.a(libc_a-memchr-stub.o)
 .debug_info    0x000333bd       0x33 /opt/local/lib/gcc/arm-none-eabi/14.2.0/../../../../arm-none-eabi/lib/thumb/v8-m.main+fp/hard/libc.a(libc_a-memcpy.o)
 .debug_info    0x000333f0       0xbd /opt/local/lib/gcc/arm-none-eabi/14.2.0/../../../../arm-none-eabi/lib/thumb/v8-m.main+fp/hard/libc.a(libc_a-strlen-stub.o)
 .debug_info    0x000334ad      0xb50 /opt/local/lib/gcc/arm-none-eabi/14.2.0/../../../../arm-none-eabi/lib/thumb/v8-m.main+fp/hard/libc.a(libc_a-wcrtomb.o)
 .debug_info    0x00033ffd       0xb9 /opt/local/lib/gcc/arm-none-eabi/14.2.0/../../../../arm-none-eabi/lib/thumb/v8-m.main+fp/hard/libc.a(libc_a-ctype_.o)
 .debug_info    0x000340b6     0x193d /opt/local/lib/gcc/arm-none-eabi/14.2.0/../../../../arm-none-eabi/lib/thumb/v8-m.main+fp/hard/libc.a(libc_a-dtoa.o)
 .debug_info    0x000359f3      0xb55 /opt/local/lib/gcc/arm-none-eabi/14.2.0/../../../../arm-none-eabi/lib/thumb/v8-m.main+fp/hard/libc.a(libc_a-freer.o)
 .debug_info    0x00036548      0xcd9 /opt/local/lib/gcc/arm-none-eabi/14.2.0/../../../../arm-none-eabi/lib/thumb/v8-m.main+fp/hard/libc.a(libc_a-mallocr.o)
 .debug_info    0x00037221      0xace /opt/local/lib/gcc/arm-none-eabi/14.2.0/../../../../arm-none-eabi/lib/thumb/v8-m.main+fp/hard/libc.a(libc_a-mbtowc_r.o)
 .debug_info    0x00037cef      0xc10 /opt/local/lib/gcc/arm-none-eabi/14.2.0/../../../../arm-none-eabi/lib/thumb/v8-m.main+fp/hard/libc.a(libc_a-makebuf.o)
 .debug_info    0x000388ff      0x73a /opt/local/lib/gcc/arm-none-eabi/14.2.0/../../../../arm-none-eabi/lib/thumb/v8-m.main+fp/hard/libc.a(libc_a-mlock.o)
 .debug_info    0x00039039     0x1e45 /opt/local/lib/gcc/arm-none-eabi/14.2.0/../../../../arm-none-eabi/lib/thumb/v8-m.main+fp/hard/libc.a(libc_a-mprec.o)
 .debug_info    0x0003ae7e      0x8e6 /opt/local/lib/gcc/arm-none-eabi/14.2.0/../../../../arm-none-eabi/lib/thumb/v8-m.main+fp/hard/libc.a(libc_a-fclose.o)
 .debug_info    0x0003b764      0xbc9 /opt/local/lib/gcc/arm-none-eabi/14.2.0/../../../../arm-none-eabi/lib/thumb/v8-m.main+fp/hard/libc.a(libc_a-reallocr.o)
 .debug_info    0x0003c32d      0xa9e /opt/local/lib/gcc/arm-none-eabi/14.2.0/../../../../arm-none-eabi/lib/thumb/v8-m.main+fp/hard/libc.a(libc_a-stdio.o)
 .debug_info    0x0003cdcb      0xa8e /opt/local/lib/gcc/arm-none-eabi/14.2.0/../../../../arm-none-eabi/lib/thumb/v8-m.main+fp/hard/libc.a(libc_a-wctomb_r.o)
 .debug_info    0x0003d859      0x881 /opt/local/lib/gcc/arm-none-eabi/14.2.0/../../../../arm-none-eabi/lib/thumb/v8-m.main+fp/hard/libc.a(libc_a-wbuf.o)
 .debug_info    0x0003e0da      0x770 /opt/local/lib/gcc/arm-none-eabi/14.2.0/../../../../arm-none-eabi/lib/thumb/v8-m.main+fp/hard/libc.a(libc_a-closer.o)
 .debug_info    0x0003e84a      0x7eb /opt/local/lib/gcc/arm-none-eabi/14.2.0/../../../../arm-none-eabi/lib/thumb/v8-m.main+fp/hard/libc.a(libc_a-reent.o)
 .debug_info    0x0003f035      0x995 /opt/local/lib/gcc/arm-none-eabi/14.2.0/../../../../arm-none-eabi/lib/thumb/v8-m.main+fp/hard/libc.a(libc_a-fstatr.o)
 .debug_info    0x0003f9ca      0x770 /opt/local/lib/gcc/arm-none-eabi/14.2.0/../../../../arm-none-eabi/lib/thumb/v8-m.main+fp/hard/libc.a(libc_a-isattyr.o)
 .debug_info    0x0004013a      0x7bc /opt/local/lib/gcc/arm-none-eabi/14.2.0/../../../../arm-none-eabi/lib/thumb/v8-m.main+fp/hard/libc.a(libc_a-lseekr.o)
 .debug_info    0x000408f6      0x7d3 /opt/local/lib/gcc/arm-none-eabi/14.2.0/../../../../arm-none-eabi/lib/thumb/v8-m.main+fp/hard/libc.a(libc_a-readr.o)
 .debug_info    0x000410c9      0x796 /opt/local/lib/gcc/arm-none-eabi/14.2.0/../../../../arm-none-eabi/lib/thumb/v8-m.main+fp/hard/libc.a(libc_a-sbrkr.o)
 .debug_info    0x0004185f      0x7d9 /opt/local/lib/gcc/arm-none-eabi/14.2.0/../../../../arm-none-eabi/lib/thumb/v8-m.main+fp/hard/libc.a(libc_a-writer.o)
 .debug_info    0x00042038       0xc1 /opt/local/lib/gcc/arm-none-eabi/14.2.0/../../../../arm-none-eabi/lib/thumb/v8-m.main+fp/hard/libc.a(libc_a-sysconf.o)
 .debug_info    0x000420f9      0x83d /opt/local/lib/gcc/arm-none-eabi/14.2.0/../../../../arm-none-eabi/lib/thumb/v8-m.main+fp/hard/libc.a(libc_a-assert.o)
 .debug_info    0x00042936      0x8d9 /opt/local/lib/gcc/arm-none-eabi/14.2.0/../../../../arm-none-eabi/lib/thumb/v8-m.main+fp/hard/libc.a(libc_a-callocr.o)
 .debug_info    0x0004320f      0x872 /opt/local/lib/gcc/arm-none-eabi/14.2.0/../../../../arm-none-eabi/lib/thumb/v8-m.main+fp/hard/libc.a(libc_a-fiprintf.o)
 .debug_info    0x00043a81       0xd8 /opt/local/lib/gcc/arm-none-eabi/14.2.0/../../../../arm-none-eabi/lib/thumb/v8-m.main+fp/hard/libc.a(libc_a-abort.o)
 .debug_info    0x00043b59      0xc57 /opt/local/lib/gcc/arm-none-eabi/14.2.0/../../../../arm-none-eabi/lib/thumb/v8-m.main+fp/hard/libc.a(libc_a-signal.o)
 .debug_info    0x000447b0      0x7fd /opt/local/lib/gcc/arm-none-eabi/14.2.0/../../../../arm-none-eabi/lib/thumb/v8-m.main+fp/hard/libc.a(libc_a-signalr.o)
 .debug_info    0x00044fad       0xd3 /opt/local/lib/gcc/arm-none-eabi/14.2.0/thumb/v8-m.main+fp/hard/libgcc.a(_arm_addsubdf3.o)
 .debug_info    0x00045080       0x57 /opt/local/lib/gcc/arm-none-eabi/14.2.0/thumb/v8-m.main+fp/hard/libgcc.a(_arm_muldivdf3.o)
 .debug_info    0x000450d7       0xdf /opt/local/lib/gcc/arm-none-eabi/14.2.0/thumb/v8-m.main+fp/hard/libgcc.a(_arm_cmpdf2.o)
 .debug_info    0x000451b6       0x3c /opt/local/lib/gcc/arm-none-eabi/14.2.0/thumb/v8-m.main+fp/hard/libgcc.a(_arm_unorddf2.o)
 .debug_info    0x000451f2       0x3c /opt/local/lib/gcc/arm-none-eabi/14.2.0/thumb/v8-m.main+fp/hard/libgcc.a(_arm_fixdfsi.o)
 .debug_info    0x0004522e       0x24 /opt/local/lib/gcc/arm-none-eabi/14.2.0/thumb/v8-m.main+fp/hard/libgcc.a(_aeabi_uldivmod.o)
 .debug_info    0x00045252      0x6f5 /opt/local/lib/gcc/arm-none-eabi/14.2.0/thumb/v8-m.main+fp/hard/libgcc.a(_udivmoddi4.o)
 .debug_info    0x00045947       0x3c /opt/local/lib/gcc/arm-none-eabi/14.2.0/thumb/v8-m.main+fp/hard/libgcc.a(_dvmd_tls.o)

.debug_abbrev   0x00000000     0xa983
 .debug_abbrev  0x00000000      0x329 build/main.o
 .debug_abbrev  0x00000329      0x19b build/stm32h5xx_it.o
 .debug_abbrev  0x000004c4      0x2ba build/stm32h5xx_hal_msp.o
 .debug_abbrev  0x0000077e      0x36d build/stm32h5xx_nucleo.o
 .debug_abbrev  0x00000aeb      0x3df build/stm32h5xx_hal_cortex.o
 .debug_abbrev  0x00000eca      0x289 build/stm32h5xx_hal_rcc.o
 .debug_abbrev  0x00001153      0x27f build/stm32h5xx_hal_rcc_ex.o
 .debug_abbrev  0x000013d2      0x23a build/stm32h5xx_hal_gpio.o
 .debug_abbrev  0x0000160c      0x242 build/stm32h5xx_hal_dma.o
 .debug_abbrev  0x0000184e      0x2d9 build/stm32h5xx_hal.o
 .debug_abbrev  0x00001b27      0x1e3 build/stm32h5xx_hal_exti.o
 .debug_abbrev  0x00001d0a      0x2e0 build/stm32h5xx_hal_tim.o
 .debug_abbrev  0x00001fea      0x2db build/stm32h5xx_hal_tim_ex.o
 .debug_abbrev  0x000022c5      0x365 build/stm32h5xx_hal_uart.o
 .debug_abbrev  0x0000262a      0x12f build/system_stm32h5xx.o
 .debug_abbrev  0x00002759       0xeb build/sysmem.o
 .debug_abbrev  0x00002844      0x1e3 build/syscalls.o
 .debug_abbrev  0x00002a27      0x1f2 build/stm32h5xx_hal_icache.o
 .debug_abbrev  0x00002c19      0x32b build/stm32h5xx_hal_adc.o
 .debug_abbrev  0x00002f44      0x309 build/stm32h5xx_hal_spi.o
 .debug_abbrev  0x0000324d      0x332 build/stm32h5xx_hal_pcd.o
 .debug_abbrev  0x0000357f      0x25a build/stm32h5xx_hal_pcd_ex.o
 .debug_abbrev  0x000037d9      0x32b build/stm32h5xx_ll_usb.o
 .debug_abbrev  0x00003b04       0x1d build/startup_stm32h503xx.o
 .debug_abbrev  0x00003b21      0x256 /opt/local/lib/gcc/arm-none-eabi/14.2.0/../../../../arm-none-eabi/lib/thumb/v8-m.main+fp/hard/libc.a(libc_a-printf.o)
 .debug_abbrev  0x00003d77      0x483 /opt/local/lib/gcc/arm-none-eabi/14.2.0/../../../../arm-none-eabi/lib/thumb/v8-m.main+fp/hard/libc.a(libc_a-vfprintf.o)
 .debug_abbrev  0x000041fa      0x453 /opt/local/lib/gcc/arm-none-eabi/14.2.0/../../../../arm-none-eabi/lib/thumb/v8-m.main+fp/hard/libc.a(libc_a-vfiprintf.o)
 .debug_abbrev  0x0000464d      0x282 /opt/local/lib/gcc/arm-none-eabi/14.2.0/../../../../arm-none-eabi/lib/thumb/v8-m.main+fp/hard/libc.a(libc_a-puts.o)
 .debug_abbrev  0x000048cf      0x322 /opt/local/lib/gcc/arm-none-eabi/14.2.0/../../../../arm-none-eabi/lib/thumb/v8-m.main+fp/hard/libc.a(libc_a-fflush.o)
 .debug_abbrev  0x00004bf1      0x446 /opt/local/lib/gcc/arm-none-eabi/14.2.0/../../../../arm-none-eabi/lib/thumb/v8-m.main+fp/hard/libc.a(libc_a-findfp.o)
 .debug_abbrev  0x00005037      0x257 /opt/local/lib/gcc/arm-none-eabi/14.2.0/../../../../arm-none-eabi/lib/thumb/v8-m.main+fp/hard/libc.a(libc_a-fvwrite.o)
 .debug_abbrev  0x0000528e      0x1d9 /opt/local/lib/gcc/arm-none-eabi/14.2.0/../../../../arm-none-eabi/lib/thumb/v8-m.main+fp/hard/libc.a(libc_a-fwalk.o)
 .debug_abbrev  0x00005467      0x21e /opt/local/lib/gcc/arm-none-eabi/14.2.0/../../../../arm-none-eabi/lib/thumb/v8-m.main+fp/hard/libc.a(libc_a-wsetup.o)
 .debug_abbrev  0x00005685      0x341 /opt/local/lib/gcc/arm-none-eabi/14.2.0/../../../../arm-none-eabi/lib/thumb/v8-m.main+fp/hard/libc.a(libc_a-fputwc.o)
 .debug_abbrev  0x000059c6       0xc3 /opt/local/lib/gcc/arm-none-eabi/14.2.0/../../../../arm-none-eabi/lib/thumb/v8-m.main+fp/hard/libc.a(libc_a-memmove.o)
 .debug_abbrev  0x00005a89       0xb7 /opt/local/lib/gcc/arm-none-eabi/14.2.0/../../../../arm-none-eabi/lib/thumb/v8-m.main+fp/hard/libc.a(libc_a-memset.o)
 .debug_abbrev  0x00005b40      0x2d9 /opt/local/lib/gcc/arm-none-eabi/14.2.0/../../../../arm-none-eabi/lib/thumb/v8-m.main+fp/hard/libc.a(libc_a-locale.o)
 .debug_abbrev  0x00005e19      0x26a /opt/local/lib/gcc/arm-none-eabi/14.2.0/../../../../arm-none-eabi/lib/thumb/v8-m.main+fp/hard/libc.a(libc_a-localeconv.o)
 .debug_abbrev  0x00006083      0x185 /opt/local/lib/gcc/arm-none-eabi/14.2.0/../../../../arm-none-eabi/lib/thumb/v8-m.main+fp/hard/libc.a(libc_a-impure.o)
 .debug_abbrev  0x00006208      0x19a /opt/local/lib/gcc/arm-none-eabi/14.2.0/../../../../arm-none-eabi/lib/thumb/v8-m.main+fp/hard/libc.a(libc_a-errno.o)
 .debug_abbrev  0x000063a2       0x28 /opt/local/lib/gcc/arm-none-eabi/14.2.0/../../../../arm-none-eabi/lib/thumb/v8-m.main+fp/hard/libc.a(libc_a-strcmp.o)
 .debug_abbrev  0x000063ca       0xc9 /opt/local/lib/gcc/arm-none-eabi/14.2.0/../../../../arm-none-eabi/lib/thumb/v8-m.main+fp/hard/libc.a(libc_a-init.o)
 .debug_abbrev  0x00006493       0xd8 /opt/local/lib/gcc/arm-none-eabi/14.2.0/../../../../arm-none-eabi/lib/thumb/v8-m.main+fp/hard/libc.a(libc_a-memchr-stub.o)
 .debug_abbrev  0x0000656b       0x28 /opt/local/lib/gcc/arm-none-eabi/14.2.0/../../../../arm-none-eabi/lib/thumb/v8-m.main+fp/hard/libc.a(libc_a-memcpy.o)
 .debug_abbrev  0x00006593       0x78 /opt/local/lib/gcc/arm-none-eabi/14.2.0/../../../../arm-none-eabi/lib/thumb/v8-m.main+fp/hard/libc.a(libc_a-strlen-stub.o)
 .debug_abbrev  0x0000660b      0x24f /opt/local/lib/gcc/arm-none-eabi/14.2.0/../../../../arm-none-eabi/lib/thumb/v8-m.main+fp/hard/libc.a(libc_a-wcrtomb.o)
 .debug_abbrev  0x0000685a       0x62 /opt/local/lib/gcc/arm-none-eabi/14.2.0/../../../../arm-none-eabi/lib/thumb/v8-m.main+fp/hard/libc.a(libc_a-ctype_.o)
 .debug_abbrev  0x000068bc      0x364 /opt/local/lib/gcc/arm-none-eabi/14.2.0/../../../../arm-none-eabi/lib/thumb/v8-m.main+fp/hard/libc.a(libc_a-dtoa.o)
 .debug_abbrev  0x00006c20      0x27f /opt/local/lib/gcc/arm-none-eabi/14.2.0/../../../../arm-none-eabi/lib/thumb/v8-m.main+fp/hard/libc.a(libc_a-freer.o)
 .debug_abbrev  0x00006e9f      0x2d7 /opt/local/lib/gcc/arm-none-eabi/14.2.0/../../../../arm-none-eabi/lib/thumb/v8-m.main+fp/hard/libc.a(libc_a-mallocr.o)
 .debug_abbrev  0x00007176      0x244 /opt/local/lib/gcc/arm-none-eabi/14.2.0/../../../../arm-none-eabi/lib/thumb/v8-m.main+fp/hard/libc.a(libc_a-mbtowc_r.o)
 .debug_abbrev  0x000073ba      0x2c1 /opt/local/lib/gcc/arm-none-eabi/14.2.0/../../../../arm-none-eabi/lib/thumb/v8-m.main+fp/hard/libc.a(libc_a-makebuf.o)
 .debug_abbrev  0x0000767b      0x1ce /opt/local/lib/gcc/arm-none-eabi/14.2.0/../../../../arm-none-eabi/lib/thumb/v8-m.main+fp/hard/libc.a(libc_a-mlock.o)
 .debug_abbrev  0x00007849      0x502 /opt/local/lib/gcc/arm-none-eabi/14.2.0/../../../../arm-none-eabi/lib/thumb/v8-m.main+fp/hard/libc.a(libc_a-mprec.o)
 .debug_abbrev  0x00007d4b      0x2ed /opt/local/lib/gcc/arm-none-eabi/14.2.0/../../../../arm-none-eabi/lib/thumb/v8-m.main+fp/hard/libc.a(libc_a-fclose.o)
 .debug_abbrev  0x00008038      0x2a3 /opt/local/lib/gcc/arm-none-eabi/14.2.0/../../../../arm-none-eabi/lib/thumb/v8-m.main+fp/hard/libc.a(libc_a-reallocr.o)
 .debug_abbrev  0x000082db      0x260 /opt/local/lib/gcc/arm-none-eabi/14.2.0/../../../../arm-none-eabi/lib/thumb/v8-m.main+fp/hard/libc.a(libc_a-stdio.o)
 .debug_abbrev  0x0000853b      0x23d /opt/local/lib/gcc/arm-none-eabi/14.2.0/../../../../arm-none-eabi/lib/thumb/v8-m.main+fp/hard/libc.a(libc_a-wctomb_r.o)
 .debug_abbrev  0x00008778      0x272 /opt/local/lib/gcc/arm-none-eabi/14.2.0/../../../../arm-none-eabi/lib/thumb/v8-m.main+fp/hard/libc.a(libc_a-wbuf.o)
 .debug_abbrev  0x000089ea      0x1ec /opt/local/lib/gcc/arm-none-eabi/14.2.0/../../../../arm-none-eabi/lib/thumb/v8-m.main+fp/hard/libc.a(libc_a-closer.o)
 .debug_abbrev  0x00008bd6      0x22b /opt/local/lib/gcc/arm-none-eabi/14.2.0/../../../../arm-none-eabi/lib/thumb/v8-m.main+fp/hard/libc.a(libc_a-reent.o)
 .debug_abbrev  0x00008e01      0x1ff /opt/local/lib/gcc/arm-none-eabi/14.2.0/../../../../arm-none-eabi/lib/thumb/v8-m.main+fp/hard/libc.a(libc_a-fstatr.o)
 .debug_abbrev  0x00009000      0x1ec /opt/local/lib/gcc/arm-none-eabi/14.2.0/../../../../arm-none-eabi/lib/thumb/v8-m.main+fp/hard/libc.a(libc_a-isattyr.o)
 .debug_abbrev  0x000091ec      0x200 /opt/local/lib/gcc/arm-none-eabi/14.2.0/../../../../arm-none-eabi/lib/thumb/v8-m.main+fp/hard/libc.a(libc_a-lseekr.o)
 .debug_abbrev  0x000093ec      0x1ec /opt/local/lib/gcc/arm-none-eabi/14.2.0/../../../../arm-none-eabi/lib/thumb/v8-m.main+fp/hard/libc.a(libc_a-readr.o)
 .debug_abbrev  0x000095d8      0x216 /opt/local/lib/gcc/arm-none-eabi/14.2.0/../../../../arm-none-eabi/lib/thumb/v8-m.main+fp/hard/libc.a(libc_a-sbrkr.o)
 .debug_abbrev  0x000097ee      0x1f1 /opt/local/lib/gcc/arm-none-eabi/14.2.0/../../../../arm-none-eabi/lib/thumb/v8-m.main+fp/hard/libc.a(libc_a-writer.o)
 .debug_abbrev  0x000099df       0x80 /opt/local/lib/gcc/arm-none-eabi/14.2.0/../../../../arm-none-eabi/lib/thumb/v8-m.main+fp/hard/libc.a(libc_a-sysconf.o)
 .debug_abbrev  0x00009a5f      0x226 /opt/local/lib/gcc/arm-none-eabi/14.2.0/../../../../arm-none-eabi/lib/thumb/v8-m.main+fp/hard/libc.a(libc_a-assert.o)
 .debug_abbrev  0x00009c85      0x25b /opt/local/lib/gcc/arm-none-eabi/14.2.0/../../../../arm-none-eabi/lib/thumb/v8-m.main+fp/hard/libc.a(libc_a-callocr.o)
 .debug_abbrev  0x00009ee0      0x252 /opt/local/lib/gcc/arm-none-eabi/14.2.0/../../../../arm-none-eabi/lib/thumb/v8-m.main+fp/hard/libc.a(libc_a-fiprintf.o)
 .debug_abbrev  0x0000a132       0x99 /opt/local/lib/gcc/arm-none-eabi/14.2.0/../../../../arm-none-eabi/lib/thumb/v8-m.main+fp/hard/libc.a(libc_a-abort.o)
 .debug_abbrev  0x0000a1cb      0x313 /opt/local/lib/gcc/arm-none-eabi/14.2.0/../../../../arm-none-eabi/lib/thumb/v8-m.main+fp/hard/libc.a(libc_a-signal.o)
 .debug_abbrev  0x0000a4de      0x239 /opt/local/lib/gcc/arm-none-eabi/14.2.0/../../../../arm-none-eabi/lib/thumb/v8-m.main+fp/hard/libc.a(libc_a-signalr.o)
 .debug_abbrev  0x0000a717       0x28 /opt/local/lib/gcc/arm-none-eabi/14.2.0/thumb/v8-m.main+fp/hard/libgcc.a(_arm_addsubdf3.o)
 .debug_abbrev  0x0000a73f       0x28 /opt/local/lib/gcc/arm-none-eabi/14.2.0/thumb/v8-m.main+fp/hard/libgcc.a(_arm_muldivdf3.o)
 .debug_abbrev  0x0000a767       0x28 /opt/local/lib/gcc/arm-none-eabi/14.2.0/thumb/v8-m.main+fp/hard/libgcc.a(_arm_cmpdf2.o)
 .debug_abbrev  0x0000a78f       0x28 /opt/local/lib/gcc/arm-none-eabi/14.2.0/thumb/v8-m.main+fp/hard/libgcc.a(_arm_unorddf2.o)
 .debug_abbrev  0x0000a7b7       0x28 /opt/local/lib/gcc/arm-none-eabi/14.2.0/thumb/v8-m.main+fp/hard/libgcc.a(_arm_fixdfsi.o)
 .debug_abbrev  0x0000a7df       0x14 /opt/local/lib/gcc/arm-none-eabi/14.2.0/thumb/v8-m.main+fp/hard/libgcc.a(_aeabi_uldivmod.o)
 .debug_abbrev  0x0000a7f3      0x16a /opt/local/lib/gcc/arm-none-eabi/14.2.0/thumb/v8-m.main+fp/hard/libgcc.a(_udivmoddi4.o)
 .debug_abbrev  0x0000a95d       0x26 /opt/local/lib/gcc/arm-none-eabi/14.2.0/thumb/v8-m.main+fp/hard/libgcc.a(_dvmd_tls.o)

.debug_loc      0x00000000    0x201c5
 .debug_loc     0x00000000      0x23d build/main.o
 .debug_loc     0x0000023d       0x80 build/stm32h5xx_it.o
 .debug_loc     0x000002bd      0x368 build/stm32h5xx_hal_msp.o
 .debug_loc     0x00000625      0x96d build/stm32h5xx_nucleo.o
 .debug_loc     0x00000f92      0xa33 build/stm32h5xx_hal_cortex.o
 .debug_loc     0x000019c5      0xafb build/stm32h5xx_hal_rcc.o
 .debug_loc     0x000024c0     0x2247 build/stm32h5xx_hal_rcc_ex.o
 .debug_loc     0x00004707      0x46c build/stm32h5xx_hal_gpio.o
 .debug_loc     0x00004b73      0xb8e build/stm32h5xx_hal_dma.o
 .debug_loc     0x00005701      0x3e9 build/stm32h5xx_hal.o
 .debug_loc     0x00005aea      0xfb2 build/stm32h5xx_hal_exti.o
 .debug_loc     0x00006a9c     0x7179 build/stm32h5xx_hal_tim.o
 .debug_loc     0x0000dc15     0x351c build/stm32h5xx_hal_tim_ex.o
 .debug_loc     0x00011131     0x5aa0 build/stm32h5xx_hal_uart.o
 .debug_loc     0x00016bd1      0x153 build/system_stm32h5xx.o
 .debug_loc     0x00016d24       0x90 build/sysmem.o
 .debug_loc     0x00016db4      0x583 build/syscalls.o
 .debug_loc     0x00017337      0x286 build/stm32h5xx_hal_icache.o
 .debug_loc     0x000175bd     0x2ab7 build/stm32h5xx_hal_adc.o
 .debug_loc     0x0001a074     0x1de1 build/stm32h5xx_hal_spi.o
 .debug_loc     0x0001be55     0x1946 build/stm32h5xx_hal_pcd.o
 .debug_loc     0x0001d79b      0x2fa build/stm32h5xx_hal_pcd_ex.o
 .debug_loc     0x0001da95     0x2730 build/stm32h5xx_ll_usb.o

.debug_aranges  0x00000000     0x1ec8
 .debug_aranges
                0x00000000       0x78 build/main.o
 .debug_aranges
                0x00000078       0x78 build/stm32h5xx_it.o
 .debug_aranges
                0x000000f0       0x68 build/stm32h5xx_hal_msp.o
 .debug_aranges
                0x00000158       0xc8 build/stm32h5xx_nucleo.o
 .debug_aranges
                0x00000220      0x110 build/stm32h5xx_hal_cortex.o
 .debug_aranges
                0x00000330       0xa0 build/stm32h5xx_hal_rcc.o
 .debug_aranges
                0x000003d0       0xe8 build/stm32h5xx_hal_rcc_ex.o
 .debug_aranges
                0x000004b8       0x78 build/stm32h5xx_hal_gpio.o
 .debug_aranges
                0x00000530       0x98 build/stm32h5xx_hal_dma.o
 .debug_aranges
                0x000005c8      0x1a0 build/stm32h5xx_hal.o
 .debug_aranges
                0x00000768       0x70 build/stm32h5xx_hal_exti.o
 .debug_aranges
                0x000007d8      0x3e8 build/stm32h5xx_hal_tim.o
 .debug_aranges
                0x00000bc0      0x240 build/stm32h5xx_hal_tim_ex.o
 .debug_aranges
                0x00000e00      0x248 build/stm32h5xx_hal_uart.o
 .debug_aranges
                0x00001048       0x28 build/system_stm32h5xx.o
 .debug_aranges
                0x00001070       0x20 build/sysmem.o
 .debug_aranges
                0x00001090       0xa8 build/syscalls.o
 .debug_aranges
                0x00001138       0x98 build/stm32h5xx_hal_icache.o
 .debug_aranges
                0x000011d0      0x120 build/stm32h5xx_hal_adc.o
 .debug_aranges
                0x000012f0      0x1a8 build/stm32h5xx_hal_spi.o
 .debug_aranges
                0x00001498      0x150 build/stm32h5xx_hal_pcd.o
 .debug_aranges
                0x000015e8       0x58 build/stm32h5xx_hal_pcd_ex.o
 .debug_aranges
                0x00001640      0x130 build/stm32h5xx_ll_usb.o
 .debug_aranges
                0x00001770       0x28 build/startup_stm32h503xx.o
 .debug_aranges
                0x00001798       0x20 /opt/local/lib/gcc/arm-none-eabi/14.2.0/../../../../arm-none-eabi/lib/thumb/v8-m.main+fp/hard/libc.a(libc_a-printf.o)
 .debug_aranges
                0x000017b8       0x20 /opt/local/lib/gcc/arm-none-eabi/14.2.0/../../../../arm-none-eabi/lib/thumb/v8-m.main+fp/hard/libc.a(libc_a-vfprintf.o)
 .debug_aranges
                0x000017d8       0x20 /opt/local/lib/gcc/arm-none-eabi/14.2.0/../../../../arm-none-eabi/lib/thumb/v8-m.main+fp/hard/libc.a(libc_a-vfiprintf.o)
 .debug_aranges
                0x000017f8       0x20 /opt/local/lib/gcc/arm-none-eabi/14.2.0/../../../../arm-none-eabi/lib/thumb/v8-m.main+fp/hard/libc.a(libc_a-puts.o)
 .debug_aranges
                0x00001818       0x20 /opt/local/lib/gcc/arm-none-eabi/14.2.0/../../../../arm-none-eabi/lib/thumb/v8-m.main+fp/hard/libc.a(libc_a-fflush.o)
 .debug_aranges
                0x00001838       0x20 /opt/local/lib/gcc/arm-none-eabi/14.2.0/../../../../arm-none-eabi/lib/thumb/v8-m.main+fp/hard/libc.a(libc_a-findfp.o)
 .debug_aranges
                0x00001858       0x20 /opt/local/lib/gcc/arm-none-eabi/14.2.0/../../../../arm-none-eabi/lib/thumb/v8-m.main+fp/hard/libc.a(libc_a-fvwrite.o)
 .debug_aranges
                0x00001878       0x20 /opt/local/lib/gcc/arm-none-eabi/14.2.0/../../../../arm-none-eabi/lib/thumb/v8-m.main+fp/hard/libc.a(libc_a-fwalk.o)
 .debug_aranges
                0x00001898       0x20 /opt/local/lib/gcc/arm-none-eabi/14.2.0/../../../../arm-none-eabi/lib/thumb/v8-m.main+fp/hard/libc.a(libc_a-wsetup.o)
 .debug_aranges
                0x000018b8       0x20 /opt/local/lib/gcc/arm-none-eabi/14.2.0/../../../../arm-none-eabi/lib/thumb/v8-m.main+fp/hard/libc.a(libc_a-fputwc.o)
 .debug_aranges
                0x000018d8       0x20 /opt/local/lib/gcc/arm-none-eabi/14.2.0/../../../../arm-none-eabi/lib/thumb/v8-m.main+fp/hard/libc.a(libc_a-memmove.o)
 .debug_aranges
                0x000018f8       0x20 /opt/local/lib/gcc/arm-none-eabi/14.2.0/../../../../arm-none-eabi/lib/thumb/v8-m.main+fp/hard/libc.a(libc_a-memset.o)
 .debug_aranges
                0x00001918       0x20 /opt/local/lib/gcc/arm-none-eabi/14.2.0/../../../../arm-none-eabi/lib/thumb/v8-m.main+fp/hard/libc.a(libc_a-locale.o)
 .debug_aranges
                0x00001938       0x20 /opt/local/lib/gcc/arm-none-eabi/14.2.0/../../../../arm-none-eabi/lib/thumb/v8-m.main+fp/hard/libc.a(libc_a-localeconv.o)
 .debug_aranges
                0x00001958       0x18 /opt/local/lib/gcc/arm-none-eabi/14.2.0/../../../../arm-none-eabi/lib/thumb/v8-m.main+fp/hard/libc.a(libc_a-impure.o)
 .debug_aranges
                0x00001970       0x20 /opt/local/lib/gcc/arm-none-eabi/14.2.0/../../../../arm-none-eabi/lib/thumb/v8-m.main+fp/hard/libc.a(libc_a-errno.o)
 .debug_aranges
                0x00001990       0x20 /opt/local/lib/gcc/arm-none-eabi/14.2.0/../../../../arm-none-eabi/lib/thumb/v8-m.main+fp/hard/libc.a(libc_a-strcmp.o)
 .debug_aranges
                0x000019b0       0x20 /opt/local/lib/gcc/arm-none-eabi/14.2.0/../../../../arm-none-eabi/lib/thumb/v8-m.main+fp/hard/libc.a(libc_a-init.o)
 .debug_aranges
                0x000019d0       0x20 /opt/local/lib/gcc/arm-none-eabi/14.2.0/../../../../arm-none-eabi/lib/thumb/v8-m.main+fp/hard/libc.a(libc_a-memchr-stub.o)
 .debug_aranges
                0x000019f0       0x20 /opt/local/lib/gcc/arm-none-eabi/14.2.0/../../../../arm-none-eabi/lib/thumb/v8-m.main+fp/hard/libc.a(libc_a-memcpy.o)
 .debug_aranges
                0x00001a10       0x20 /opt/local/lib/gcc/arm-none-eabi/14.2.0/../../../../arm-none-eabi/lib/thumb/v8-m.main+fp/hard/libc.a(libc_a-strlen-stub.o)
 .debug_aranges
                0x00001a30       0x20 /opt/local/lib/gcc/arm-none-eabi/14.2.0/../../../../arm-none-eabi/lib/thumb/v8-m.main+fp/hard/libc.a(libc_a-wcrtomb.o)
 .debug_aranges
                0x00001a50       0x18 /opt/local/lib/gcc/arm-none-eabi/14.2.0/../../../../arm-none-eabi/lib/thumb/v8-m.main+fp/hard/libc.a(libc_a-ctype_.o)
 .debug_aranges
                0x00001a68       0x20 /opt/local/lib/gcc/arm-none-eabi/14.2.0/../../../../arm-none-eabi/lib/thumb/v8-m.main+fp/hard/libc.a(libc_a-dtoa.o)
 .debug_aranges
                0x00001a88       0x20 /opt/local/lib/gcc/arm-none-eabi/14.2.0/../../../../arm-none-eabi/lib/thumb/v8-m.main+fp/hard/libc.a(libc_a-freer.o)
 .debug_aranges
                0x00001aa8       0x20 /opt/local/lib/gcc/arm-none-eabi/14.2.0/../../../../arm-none-eabi/lib/thumb/v8-m.main+fp/hard/libc.a(libc_a-mallocr.o)
 .debug_aranges
                0x00001ac8       0x20 /opt/local/lib/gcc/arm-none-eabi/14.2.0/../../../../arm-none-eabi/lib/thumb/v8-m.main+fp/hard/libc.a(libc_a-mbtowc_r.o)
 .debug_aranges
                0x00001ae8       0x20 /opt/local/lib/gcc/arm-none-eabi/14.2.0/../../../../arm-none-eabi/lib/thumb/v8-m.main+fp/hard/libc.a(libc_a-makebuf.o)
 .debug_aranges
                0x00001b08       0x20 /opt/local/lib/gcc/arm-none-eabi/14.2.0/../../../../arm-none-eabi/lib/thumb/v8-m.main+fp/hard/libc.a(libc_a-mlock.o)
 .debug_aranges
                0x00001b28       0x20 /opt/local/lib/gcc/arm-none-eabi/14.2.0/../../../../arm-none-eabi/lib/thumb/v8-m.main+fp/hard/libc.a(libc_a-mprec.o)
 .debug_aranges
                0x00001b48       0x20 /opt/local/lib/gcc/arm-none-eabi/14.2.0/../../../../arm-none-eabi/lib/thumb/v8-m.main+fp/hard/libc.a(libc_a-fclose.o)
 .debug_aranges
                0x00001b68       0x20 /opt/local/lib/gcc/arm-none-eabi/14.2.0/../../../../arm-none-eabi/lib/thumb/v8-m.main+fp/hard/libc.a(libc_a-reallocr.o)
 .debug_aranges
                0x00001b88       0x20 /opt/local/lib/gcc/arm-none-eabi/14.2.0/../../../../arm-none-eabi/lib/thumb/v8-m.main+fp/hard/libc.a(libc_a-stdio.o)
 .debug_aranges
                0x00001ba8       0x20 /opt/local/lib/gcc/arm-none-eabi/14.2.0/../../../../arm-none-eabi/lib/thumb/v8-m.main+fp/hard/libc.a(libc_a-wctomb_r.o)
 .debug_aranges
                0x00001bc8       0x20 /opt/local/lib/gcc/arm-none-eabi/14.2.0/../../../../arm-none-eabi/lib/thumb/v8-m.main+fp/hard/libc.a(libc_a-wbuf.o)
 .debug_aranges
                0x00001be8       0x20 /opt/local/lib/gcc/arm-none-eabi/14.2.0/../../../../arm-none-eabi/lib/thumb/v8-m.main+fp/hard/libc.a(libc_a-closer.o)
 .debug_aranges
                0x00001c08       0x20 /opt/local/lib/gcc/arm-none-eabi/14.2.0/../../../../arm-none-eabi/lib/thumb/v8-m.main+fp/hard/libc.a(libc_a-reent.o)
 .debug_aranges
                0x00001c28       0x20 /opt/local/lib/gcc/arm-none-eabi/14.2.0/../../../../arm-none-eabi/lib/thumb/v8-m.main+fp/hard/libc.a(libc_a-fstatr.o)
 .debug_aranges
                0x00001c48       0x20 /opt/local/lib/gcc/arm-none-eabi/14.2.0/../../../../arm-none-eabi/lib/thumb/v8-m.main+fp/hard/libc.a(libc_a-isattyr.o)
 .debug_aranges
                0x00001c68       0x20 /opt/local/lib/gcc/arm-none-eabi/14.2.0/../../../../arm-none-eabi/lib/thumb/v8-m.main+fp/hard/libc.a(libc_a-lseekr.o)
 .debug_aranges
                0x00001c88       0x20 /opt/local/lib/gcc/arm-none-eabi/14.2.0/../../../../arm-none-eabi/lib/thumb/v8-m.main+fp/hard/libc.a(libc_a-readr.o)
 .debug_aranges
                0x00001ca8       0x20 /opt/local/lib/gcc/arm-none-eabi/14.2.0/../../../../arm-none-eabi/lib/thumb/v8-m.main+fp/hard/libc.a(libc_a-sbrkr.o)
 .debug_aranges
                0x00001cc8       0x20 /opt/local/lib/gcc/arm-none-eabi/14.2.0/../../../../arm-none-eabi/lib/thumb/v8-m.main+fp/hard/libc.a(libc_a-writer.o)
 .debug_aranges
                0x00001ce8       0x20 /opt/local/lib/gcc/arm-none-eabi/14.2.0/../../../../arm-none-eabi/lib/thumb/v8-m.main+fp/hard/libc.a(libc_a-sysconf.o)
 .debug_aranges
                0x00001d08       0x20 /opt/local/lib/gcc/arm-none-eabi/14.2.0/../../../../arm-none-eabi/lib/thumb/v8-m.main+fp/hard/libc.a(libc_a-assert.o)
 .debug_aranges
                0x00001d28       0x20 /opt/local/lib/gcc/arm-none-eabi/14.2.0/../../../../arm-none-eabi/lib/thumb/v8-m.main+fp/hard/libc.a(libc_a-callocr.o)
 .debug_aranges
                0x00001d48       0x20 /opt/local/lib/gcc/arm-none-eabi/14.2.0/../../../../arm-none-eabi/lib/thumb/v8-m.main+fp/hard/libc.a(libc_a-fiprintf.o)
 .debug_aranges
                0x00001d68       0x20 /opt/local/lib/gcc/arm-none-eabi/14.2.0/../../../../arm-none-eabi/lib/thumb/v8-m.main+fp/hard/libc.a(libc_a-abort.o)
 .debug_aranges
                0x00001d88       0x20 /opt/local/lib/gcc/arm-none-eabi/14.2.0/../../../../arm-none-eabi/lib/thumb/v8-m.main+fp/hard/libc.a(libc_a-signal.o)
 .debug_aranges
                0x00001da8       0x20 /opt/local/lib/gcc/arm-none-eabi/14.2.0/../../../../arm-none-eabi/lib/thumb/v8-m.main+fp/hard/libc.a(libc_a-signalr.o)
 .debug_aranges
                0x00001dc8       0x20 /opt/local/lib/gcc/arm-none-eabi/14.2.0/thumb/v8-m.main+fp/hard/libgcc.a(_arm_addsubdf3.o)
 .debug_aranges
                0x00001de8       0x20 /opt/local/lib/gcc/arm-none-eabi/14.2.0/thumb/v8-m.main+fp/hard/libgcc.a(_arm_muldivdf3.o)
 .debug_aranges
                0x00001e08       0x20 /opt/local/lib/gcc/arm-none-eabi/14.2.0/thumb/v8-m.main+fp/hard/libgcc.a(_arm_cmpdf2.o)
 .debug_aranges
                0x00001e28       0x20 /opt/local/lib/gcc/arm-none-eabi/14.2.0/thumb/v8-m.main+fp/hard/libgcc.a(_arm_unorddf2.o)
 .debug_aranges
                0x00001e48       0x20 /opt/local/lib/gcc/arm-none-eabi/14.2.0/thumb/v8-m.main+fp/hard/libgcc.a(_arm_fixdfsi.o)
 .debug_aranges
                0x00001e68       0x20 /opt/local/lib/gcc/arm-none-eabi/14.2.0/thumb/v8-m.main+fp/hard/libgcc.a(_aeabi_uldivmod.o)
 .debug_aranges
                0x00001e88       0x20 /opt/local/lib/gcc/arm-none-eabi/14.2.0/thumb/v8-m.main+fp/hard/libgcc.a(_udivmoddi4.o)
 .debug_aranges
                0x00001ea8       0x20 /opt/local/lib/gcc/arm-none-eabi/14.2.0/thumb/v8-m.main+fp/hard/libgcc.a(_dvmd_tls.o)

.debug_ranges   0x00000000     0x19c8
 .debug_ranges  0x00000000       0x68 build/main.o
 .debug_ranges  0x00000068       0x68 build/stm32h5xx_it.o
 .debug_ranges  0x000000d0       0x58 build/stm32h5xx_hal_msp.o
 .debug_ranges  0x00000128       0xb8 build/stm32h5xx_nucleo.o
 .debug_ranges  0x000001e0      0x100 build/stm32h5xx_hal_cortex.o
 .debug_ranges  0x000002e0       0x90 build/stm32h5xx_hal_rcc.o
 .debug_ranges  0x00000370       0xd8 build/stm32h5xx_hal_rcc_ex.o
 .debug_ranges  0x00000448       0x68 build/stm32h5xx_hal_gpio.o
 .debug_ranges  0x000004b0       0x88 build/stm32h5xx_hal_dma.o
 .debug_ranges  0x00000538      0x190 build/stm32h5xx_hal.o
 .debug_ranges  0x000006c8       0x60 build/stm32h5xx_hal_exti.o
 .debug_ranges  0x00000728      0x3d8 build/stm32h5xx_hal_tim.o
 .debug_ranges  0x00000b00      0x230 build/stm32h5xx_hal_tim_ex.o
 .debug_ranges  0x00000d30      0x250 build/stm32h5xx_hal_uart.o
 .debug_ranges  0x00000f80       0x18 build/system_stm32h5xx.o
 .debug_ranges  0x00000f98       0x10 build/sysmem.o
 .debug_ranges  0x00000fa8       0x98 build/syscalls.o
 .debug_ranges  0x00001040       0x88 build/stm32h5xx_hal_icache.o
 .debug_ranges  0x000010c8      0x2f0 build/stm32h5xx_hal_adc.o
 .debug_ranges  0x000013b8      0x198 build/stm32h5xx_hal_spi.o
 .debug_ranges  0x00001550      0x1a0 build/stm32h5xx_hal_pcd.o
 .debug_ranges  0x000016f0       0x48 build/stm32h5xx_hal_pcd_ex.o
 .debug_ranges  0x00001738      0x270 build/stm32h5xx_ll_usb.o
 .debug_ranges  0x000019a8       0x20 build/startup_stm32h503xx.o

.debug_line     0x00000000    0x2e667
 .debug_line    0x00000000      0xa50 build/main.o
 .debug_line    0x00000a50      0x2c5 build/stm32h5xx_it.o
 .debug_line    0x00000d15      0x52a build/stm32h5xx_hal_msp.o
 .debug_line    0x0000123f      0x707 build/stm32h5xx_nucleo.o
 .debug_line    0x00001946      0x8af build/stm32h5xx_hal_cortex.o
 .debug_line    0x000021f5     0x1249 build/stm32h5xx_hal_rcc.o
 .debug_line    0x0000343e     0x1e1f build/stm32h5xx_hal_rcc_ex.o
 .debug_line    0x0000525d      0x655 build/stm32h5xx_hal_gpio.o
 .debug_line    0x000058b2      0xe41 build/stm32h5xx_hal_dma.o
 .debug_line    0x000066f3      0x85a build/stm32h5xx_hal.o
 .debug_line    0x00006f4d      0x855 build/stm32h5xx_hal_exti.o
 .debug_line    0x000077a2     0x4b68 build/stm32h5xx_hal_tim.o
 .debug_line    0x0000c30a     0x20dc build/stm32h5xx_hal_tim_ex.o
 .debug_line    0x0000e3e6     0x4962 build/stm32h5xx_hal_uart.o
 .debug_line    0x00012d48      0x36f build/system_stm32h5xx.o
 .debug_line    0x000130b7      0x14e build/sysmem.o
 .debug_line    0x00013205      0x38c build/syscalls.o
 .debug_line    0x00013591      0x418 build/stm32h5xx_hal_icache.o
 .debug_line    0x000139a9     0x217a build/stm32h5xx_hal_adc.o
 .debug_line    0x00015b23     0x2704 build/stm32h5xx_hal_spi.o
 .debug_line    0x00018227     0x15c2 build/stm32h5xx_hal_pcd.o
 .debug_line    0x000197e9      0x3fb build/stm32h5xx_hal_pcd_ex.o
 .debug_line    0x00019be4     0x1e30 build/stm32h5xx_ll_usb.o
 .debug_line    0x0001ba14       0x70 build/startup_stm32h503xx.o
 .debug_line    0x0001ba84      0x359 /opt/local/lib/gcc/arm-none-eabi/14.2.0/../../../../arm-none-eabi/lib/thumb/v8-m.main+fp/hard/libc.a(libc_a-printf.o)
 .debug_line    0x0001bddd     0x24b7 /opt/local/lib/gcc/arm-none-eabi/14.2.0/../../../../arm-none-eabi/lib/thumb/v8-m.main+fp/hard/libc.a(libc_a-vfprintf.o)
 .debug_line    0x0001e294     0x1a87 /opt/local/lib/gcc/arm-none-eabi/14.2.0/../../../../arm-none-eabi/lib/thumb/v8-m.main+fp/hard/libc.a(libc_a-vfiprintf.o)
 .debug_line    0x0001fd1b      0x3d8 /opt/local/lib/gcc/arm-none-eabi/14.2.0/../../../../arm-none-eabi/lib/thumb/v8-m.main+fp/hard/libc.a(libc_a-puts.o)
 .debug_line    0x000200f3      0x5f1 /opt/local/lib/gcc/arm-none-eabi/14.2.0/../../../../arm-none-eabi/lib/thumb/v8-m.main+fp/hard/libc.a(libc_a-fflush.o)
 .debug_line    0x000206e4      0x6a7 /opt/local/lib/gcc/arm-none-eabi/14.2.0/../../../../arm-none-eabi/lib/thumb/v8-m.main+fp/hard/libc.a(libc_a-findfp.o)
 .debug_line    0x00020d8b      0x754 /opt/local/lib/gcc/arm-none-eabi/14.2.0/../../../../arm-none-eabi/lib/thumb/v8-m.main+fp/hard/libc.a(libc_a-fvwrite.o)
 .debug_line    0x000214df      0x35f /opt/local/lib/gcc/arm-none-eabi/14.2.0/../../../../arm-none-eabi/lib/thumb/v8-m.main+fp/hard/libc.a(libc_a-fwalk.o)
 .debug_line    0x0002183e      0x4b8 /opt/local/lib/gcc/arm-none-eabi/14.2.0/../../../../arm-none-eabi/lib/thumb/v8-m.main+fp/hard/libc.a(libc_a-wsetup.o)
 .debug_line    0x00021cf6      0x49f /opt/local/lib/gcc/arm-none-eabi/14.2.0/../../../../arm-none-eabi/lib/thumb/v8-m.main+fp/hard/libc.a(libc_a-fputwc.o)
 .debug_line    0x00022195      0x359 /opt/local/lib/gcc/arm-none-eabi/14.2.0/../../../../arm-none-eabi/lib/thumb/v8-m.main+fp/hard/libc.a(libc_a-memmove.o)
 .debug_line    0x000224ee      0x2da /opt/local/lib/gcc/arm-none-eabi/14.2.0/../../../../arm-none-eabi/lib/thumb/v8-m.main+fp/hard/libc.a(libc_a-memset.o)
 .debug_line    0x000227c8      0x4a7 /opt/local/lib/gcc/arm-none-eabi/14.2.0/../../../../arm-none-eabi/lib/thumb/v8-m.main+fp/hard/libc.a(libc_a-locale.o)
 .debug_line    0x00022c6f      0x30f /opt/local/lib/gcc/arm-none-eabi/14.2.0/../../../../arm-none-eabi/lib/thumb/v8-m.main+fp/hard/libc.a(libc_a-localeconv.o)
 .debug_line    0x00022f7e      0x21c /opt/local/lib/gcc/arm-none-eabi/14.2.0/../../../../arm-none-eabi/lib/thumb/v8-m.main+fp/hard/libc.a(libc_a-impure.o)
 .debug_line    0x0002319a      0x241 /opt/local/lib/gcc/arm-none-eabi/14.2.0/../../../../arm-none-eabi/lib/thumb/v8-m.main+fp/hard/libc.a(libc_a-errno.o)
 .debug_line    0x000233db       0xdd /opt/local/lib/gcc/arm-none-eabi/14.2.0/../../../../arm-none-eabi/lib/thumb/v8-m.main+fp/hard/libc.a(libc_a-strcmp.o)
 .debug_line    0x000234b8      0x202 /opt/local/lib/gcc/arm-none-eabi/14.2.0/../../../../arm-none-eabi/lib/thumb/v8-m.main+fp/hard/libc.a(libc_a-init.o)
 .debug_line    0x000236ba      0x370 /opt/local/lib/gcc/arm-none-eabi/14.2.0/../../../../arm-none-eabi/lib/thumb/v8-m.main+fp/hard/libc.a(libc_a-memchr-stub.o)
 .debug_line    0x00023a2a       0xbd /opt/local/lib/gcc/arm-none-eabi/14.2.0/../../../../arm-none-eabi/lib/thumb/v8-m.main+fp/hard/libc.a(libc_a-memcpy.o)
 .debug_line    0x00023ae7      0x229 /opt/local/lib/gcc/arm-none-eabi/14.2.0/../../../../arm-none-eabi/lib/thumb/v8-m.main+fp/hard/libc.a(libc_a-strlen-stub.o)
 .debug_line    0x00023d10      0x4ba /opt/local/lib/gcc/arm-none-eabi/14.2.0/../../../../arm-none-eabi/lib/thumb/v8-m.main+fp/hard/libc.a(libc_a-wcrtomb.o)
 .debug_line    0x000241ca      0x168 /opt/local/lib/gcc/arm-none-eabi/14.2.0/../../../../arm-none-eabi/lib/thumb/v8-m.main+fp/hard/libc.a(libc_a-ctype_.o)
 .debug_line    0x00024332     0x1809 /opt/local/lib/gcc/arm-none-eabi/14.2.0/../../../../arm-none-eabi/lib/thumb/v8-m.main+fp/hard/libc.a(libc_a-dtoa.o)
 .debug_line    0x00025b3b      0x6ce /opt/local/lib/gcc/arm-none-eabi/14.2.0/../../../../arm-none-eabi/lib/thumb/v8-m.main+fp/hard/libc.a(libc_a-freer.o)
 .debug_line    0x00026209      0xa8a /opt/local/lib/gcc/arm-none-eabi/14.2.0/../../../../arm-none-eabi/lib/thumb/v8-m.main+fp/hard/libc.a(libc_a-mallocr.o)
 .debug_line    0x00026c93      0x41c /opt/local/lib/gcc/arm-none-eabi/14.2.0/../../../../arm-none-eabi/lib/thumb/v8-m.main+fp/hard/libc.a(libc_a-mbtowc_r.o)
 .debug_line    0x000270af      0x5c3 /opt/local/lib/gcc/arm-none-eabi/14.2.0/../../../../arm-none-eabi/lib/thumb/v8-m.main+fp/hard/libc.a(libc_a-makebuf.o)
 .debug_line    0x00027672      0x2e4 /opt/local/lib/gcc/arm-none-eabi/14.2.0/../../../../arm-none-eabi/lib/thumb/v8-m.main+fp/hard/libc.a(libc_a-mlock.o)
 .debug_line    0x00027956     0x16f6 /opt/local/lib/gcc/arm-none-eabi/14.2.0/../../../../arm-none-eabi/lib/thumb/v8-m.main+fp/hard/libc.a(libc_a-mprec.o)
 .debug_line    0x0002904c      0x3e4 /opt/local/lib/gcc/arm-none-eabi/14.2.0/../../../../arm-none-eabi/lib/thumb/v8-m.main+fp/hard/libc.a(libc_a-fclose.o)
 .debug_line    0x00029430      0x7be /opt/local/lib/gcc/arm-none-eabi/14.2.0/../../../../arm-none-eabi/lib/thumb/v8-m.main+fp/hard/libc.a(libc_a-reallocr.o)
 .debug_line    0x00029bee      0x3d5 /opt/local/lib/gcc/arm-none-eabi/14.2.0/../../../../arm-none-eabi/lib/thumb/v8-m.main+fp/hard/libc.a(libc_a-stdio.o)
 .debug_line    0x00029fc3      0x413 /opt/local/lib/gcc/arm-none-eabi/14.2.0/../../../../arm-none-eabi/lib/thumb/v8-m.main+fp/hard/libc.a(libc_a-wctomb_r.o)
 .debug_line    0x0002a3d6      0x42a /opt/local/lib/gcc/arm-none-eabi/14.2.0/../../../../arm-none-eabi/lib/thumb/v8-m.main+fp/hard/libc.a(libc_a-wbuf.o)
 .debug_line    0x0002a800      0x324 /opt/local/lib/gcc/arm-none-eabi/14.2.0/../../../../arm-none-eabi/lib/thumb/v8-m.main+fp/hard/libc.a(libc_a-closer.o)
 .debug_line    0x0002ab24      0x364 /opt/local/lib/gcc/arm-none-eabi/14.2.0/../../../../arm-none-eabi/lib/thumb/v8-m.main+fp/hard/libc.a(libc_a-reent.o)
 .debug_line    0x0002ae88      0x403 /opt/local/lib/gcc/arm-none-eabi/14.2.0/../../../../arm-none-eabi/lib/thumb/v8-m.main+fp/hard/libc.a(libc_a-fstatr.o)
 .debug_line    0x0002b28b      0x325 /opt/local/lib/gcc/arm-none-eabi/14.2.0/../../../../arm-none-eabi/lib/thumb/v8-m.main+fp/hard/libc.a(libc_a-isattyr.o)
 .debug_line    0x0002b5b0      0x32e /opt/local/lib/gcc/arm-none-eabi/14.2.0/../../../../arm-none-eabi/lib/thumb/v8-m.main+fp/hard/libc.a(libc_a-lseekr.o)
 .debug_line    0x0002b8de      0x32d /opt/local/lib/gcc/arm-none-eabi/14.2.0/../../../../arm-none-eabi/lib/thumb/v8-m.main+fp/hard/libc.a(libc_a-readr.o)
 .debug_line    0x0002bc0b      0x324 /opt/local/lib/gcc/arm-none-eabi/14.2.0/../../../../arm-none-eabi/lib/thumb/v8-m.main+fp/hard/libc.a(libc_a-sbrkr.o)
 .debug_line    0x0002bf2f      0x32e /opt/local/lib/gcc/arm-none-eabi/14.2.0/../../../../arm-none-eabi/lib/thumb/v8-m.main+fp/hard/libc.a(libc_a-writer.o)
 .debug_line    0x0002c25d      0x1c1 /opt/local/lib/gcc/arm-none-eabi/14.2.0/../../../../arm-none-eabi/lib/thumb/v8-m.main+fp/hard/libc.a(libc_a-sysconf.o)
 .debug_line    0x0002c41e      0x33a /opt/local/lib/gcc/arm-none-eabi/14.2.0/../../../../arm-none-eabi/lib/thumb/v8-m.main+fp/hard/libc.a(libc_a-assert.o)
 .debug_line    0x0002c758      0x340 /opt/local/lib/gcc/arm-none-eabi/14.2.0/../../../../arm-none-eabi/lib/thumb/v8-m.main+fp/hard/libc.a(libc_a-callocr.o)
 .debug_line    0x0002ca98      0x33b /opt/local/lib/gcc/arm-none-eabi/14.2.0/../../../../arm-none-eabi/lib/thumb/v8-m.main+fp/hard/libc.a(libc_a-fiprintf.o)
 .debug_line    0x0002cdd3      0x242 /opt/local/lib/gcc/arm-none-eabi/14.2.0/../../../../arm-none-eabi/lib/thumb/v8-m.main+fp/hard/libc.a(libc_a-abort.o)
 .debug_line    0x0002d015      0x804 /opt/local/lib/gcc/arm-none-eabi/14.2.0/../../../../arm-none-eabi/lib/thumb/v8-m.main+fp/hard/libc.a(libc_a-signal.o)
 .debug_line    0x0002d819      0x350 /opt/local/lib/gcc/arm-none-eabi/14.2.0/../../../../arm-none-eabi/lib/thumb/v8-m.main+fp/hard/libc.a(libc_a-signalr.o)
 .debug_line    0x0002db69      0x16f /opt/local/lib/gcc/arm-none-eabi/14.2.0/thumb/v8-m.main+fp/hard/libgcc.a(_arm_addsubdf3.o)
 .debug_line    0x0002dcd8      0x184 /opt/local/lib/gcc/arm-none-eabi/14.2.0/thumb/v8-m.main+fp/hard/libgcc.a(_arm_muldivdf3.o)
 .debug_line    0x0002de5c       0xa6 /opt/local/lib/gcc/arm-none-eabi/14.2.0/thumb/v8-m.main+fp/hard/libgcc.a(_arm_cmpdf2.o)
 .debug_line    0x0002df02       0x57 /opt/local/lib/gcc/arm-none-eabi/14.2.0/thumb/v8-m.main+fp/hard/libgcc.a(_arm_unorddf2.o)
 .debug_line    0x0002df59       0x62 /opt/local/lib/gcc/arm-none-eabi/14.2.0/thumb/v8-m.main+fp/hard/libgcc.a(_arm_fixdfsi.o)
 .debug_line    0x0002dfbb       0x4e /opt/local/lib/gcc/arm-none-eabi/14.2.0/thumb/v8-m.main+fp/hard/libgcc.a(_aeabi_uldivmod.o)
 .debug_line    0x0002e009      0x614 /opt/local/lib/gcc/arm-none-eabi/14.2.0/thumb/v8-m.main+fp/hard/libgcc.a(_udivmoddi4.o)
 .debug_line    0x0002e61d       0x4a /opt/local/lib/gcc/arm-none-eabi/14.2.0/thumb/v8-m.main+fp/hard/libgcc.a(_dvmd_tls.o)

.debug_str      0x00000000     0xbe8b
 .debug_str     0x00000000     0xbe8b build/main.o
                               0x25a6 (size before relaxing)
 .debug_str     0x0000be8b      0x6a2 build/stm32h5xx_it.o
 .debug_str     0x0000be8b     0x17b5 build/stm32h5xx_hal_msp.o
 .debug_str     0x0000be8b     0x1511 build/stm32h5xx_nucleo.o
 .debug_str     0x0000be8b      0xf85 build/stm32h5xx_hal_cortex.o
 .debug_str     0x0000be8b      0xa7c build/stm32h5xx_hal_rcc.o
 .debug_str     0x0000be8b      0xcfb build/stm32h5xx_hal_rcc_ex.o
 .debug_str     0x0000be8b      0x4b9 build/stm32h5xx_hal_gpio.o
 .debug_str     0x0000be8b      0x8db build/stm32h5xx_hal_dma.o
 .debug_str     0x0000be8b     0x106e build/stm32h5xx_hal.o
 .debug_str     0x0000be8b      0x4ee build/stm32h5xx_hal_exti.o
 .debug_str     0x0000be8b     0x19b4 build/stm32h5xx_hal_tim.o
 .debug_str     0x0000be8b     0x15dd build/stm32h5xx_hal_tim_ex.o
 .debug_str     0x0000be8b     0x1113 build/stm32h5xx_hal_uart.o
 .debug_str     0x0000be8b      0x692 build/system_stm32h5xx.o
 .debug_str     0x0000be8b      0x203 build/sysmem.o
 .debug_str     0x0000be8b      0x3d7 build/syscalls.o
 .debug_str     0x0000be8b      0x3f8 build/stm32h5xx_hal_icache.o
 .debug_str     0x0000be8b     0x14fe build/stm32h5xx_hal_adc.o
 .debug_str     0x0000be8b      0xe54 build/stm32h5xx_hal_spi.o
 .debug_str     0x0000be8b      0xb3c build/stm32h5xx_hal_pcd.o
 .debug_str     0x0000be8b      0x781 build/stm32h5xx_hal_pcd_ex.o
 .debug_str     0x0000be8b      0x958 build/stm32h5xx_ll_usb.o
 .debug_str     0x0000be8b       0x5e build/startup_stm32h503xx.o
 .debug_str     0x0000be8b      0x5a7 /opt/local/lib/gcc/arm-none-eabi/14.2.0/../../../../arm-none-eabi/lib/thumb/v8-m.main+fp/hard/libc.a(libc_a-printf.o)
 .debug_str     0x0000be8b      0x9e3 /opt/local/lib/gcc/arm-none-eabi/14.2.0/../../../../arm-none-eabi/lib/thumb/v8-m.main+fp/hard/libc.a(libc_a-vfprintf.o)
 .debug_str     0x0000be8b      0x910 /opt/local/lib/gcc/arm-none-eabi/14.2.0/../../../../arm-none-eabi/lib/thumb/v8-m.main+fp/hard/libc.a(libc_a-vfiprintf.o)
 .debug_str     0x0000be8b      0x5e5 /opt/local/lib/gcc/arm-none-eabi/14.2.0/../../../../arm-none-eabi/lib/thumb/v8-m.main+fp/hard/libc.a(libc_a-puts.o)
 .debug_str     0x0000be8b      0x5f3 /opt/local/lib/gcc/arm-none-eabi/14.2.0/../../../../arm-none-eabi/lib/thumb/v8-m.main+fp/hard/libc.a(libc_a-fflush.o)
 .debug_str     0x0000be8b      0x774 /opt/local/lib/gcc/arm-none-eabi/14.2.0/../../../../arm-none-eabi/lib/thumb/v8-m.main+fp/hard/libc.a(libc_a-findfp.o)
 .debug_str     0x0000be8b      0x610 /opt/local/lib/gcc/arm-none-eabi/14.2.0/../../../../arm-none-eabi/lib/thumb/v8-m.main+fp/hard/libc.a(libc_a-fvwrite.o)
 .debug_str     0x0000be8b      0x57c /opt/local/lib/gcc/arm-none-eabi/14.2.0/../../../../arm-none-eabi/lib/thumb/v8-m.main+fp/hard/libc.a(libc_a-fwalk.o)
 .debug_str     0x0000be8b      0x59d /opt/local/lib/gcc/arm-none-eabi/14.2.0/../../../../arm-none-eabi/lib/thumb/v8-m.main+fp/hard/libc.a(libc_a-wsetup.o)
 .debug_str     0x0000be8b      0x5ed /opt/local/lib/gcc/arm-none-eabi/14.2.0/../../../../arm-none-eabi/lib/thumb/v8-m.main+fp/hard/libc.a(libc_a-fputwc.o)
 .debug_str     0x0000be8b      0x28c /opt/local/lib/gcc/arm-none-eabi/14.2.0/../../../../arm-none-eabi/lib/thumb/v8-m.main+fp/hard/libc.a(libc_a-memmove.o)
 .debug_str     0x0000be8b      0x26d /opt/local/lib/gcc/arm-none-eabi/14.2.0/../../../../arm-none-eabi/lib/thumb/v8-m.main+fp/hard/libc.a(libc_a-memset.o)
 .debug_str     0x0000be8b      0x7eb /opt/local/lib/gcc/arm-none-eabi/14.2.0/../../../../arm-none-eabi/lib/thumb/v8-m.main+fp/hard/libc.a(libc_a-locale.o)
 .debug_str     0x0000be8b      0x7b2 /opt/local/lib/gcc/arm-none-eabi/14.2.0/../../../../arm-none-eabi/lib/thumb/v8-m.main+fp/hard/libc.a(libc_a-localeconv.o)
 .debug_str     0x0000be8b      0x571 /opt/local/lib/gcc/arm-none-eabi/14.2.0/../../../../arm-none-eabi/lib/thumb/v8-m.main+fp/hard/libc.a(libc_a-impure.o)
 .debug_str     0x0000be8b      0x566 /opt/local/lib/gcc/arm-none-eabi/14.2.0/../../../../arm-none-eabi/lib/thumb/v8-m.main+fp/hard/libc.a(libc_a-errno.o)
 .debug_str     0x0000be8b      0x171 /opt/local/lib/gcc/arm-none-eabi/14.2.0/../../../../arm-none-eabi/lib/thumb/v8-m.main+fp/hard/libc.a(libc_a-strcmp.o)
 .debug_str     0x0000be8b      0x2ba /opt/local/lib/gcc/arm-none-eabi/14.2.0/../../../../arm-none-eabi/lib/thumb/v8-m.main+fp/hard/libc.a(libc_a-init.o)
 .debug_str     0x0000be8b      0x27d /opt/local/lib/gcc/arm-none-eabi/14.2.0/../../../../arm-none-eabi/lib/thumb/v8-m.main+fp/hard/libc.a(libc_a-memchr-stub.o)
 .debug_str     0x0000be8b      0x171 /opt/local/lib/gcc/arm-none-eabi/14.2.0/../../../../arm-none-eabi/lib/thumb/v8-m.main+fp/hard/libc.a(libc_a-memcpy.o)
 .debug_str     0x0000be8b      0x263 /opt/local/lib/gcc/arm-none-eabi/14.2.0/../../../../arm-none-eabi/lib/thumb/v8-m.main+fp/hard/libc.a(libc_a-strlen-stub.o)
 .debug_str     0x0000be8b      0x798 /opt/local/lib/gcc/arm-none-eabi/14.2.0/../../../../arm-none-eabi/lib/thumb/v8-m.main+fp/hard/libc.a(libc_a-wcrtomb.o)
 .debug_str     0x0000be8b      0x252 /opt/local/lib/gcc/arm-none-eabi/14.2.0/../../../../arm-none-eabi/lib/thumb/v8-m.main+fp/hard/libc.a(libc_a-ctype_.o)
 .debug_str     0x0000be8b      0x944 /opt/local/lib/gcc/arm-none-eabi/14.2.0/../../../../arm-none-eabi/lib/thumb/v8-m.main+fp/hard/libc.a(libc_a-dtoa.o)
 .debug_str     0x0000be8b      0x6dc /opt/local/lib/gcc/arm-none-eabi/14.2.0/../../../../arm-none-eabi/lib/thumb/v8-m.main+fp/hard/libc.a(libc_a-freer.o)
 .debug_str     0x0000be8b      0x794 /opt/local/lib/gcc/arm-none-eabi/14.2.0/../../../../arm-none-eabi/lib/thumb/v8-m.main+fp/hard/libc.a(libc_a-mallocr.o)
 .debug_str     0x0000be8b      0x792 /opt/local/lib/gcc/arm-none-eabi/14.2.0/../../../../arm-none-eabi/lib/thumb/v8-m.main+fp/hard/libc.a(libc_a-mbtowc_r.o)
 .debug_str     0x0000be8b      0x6ff /opt/local/lib/gcc/arm-none-eabi/14.2.0/../../../../arm-none-eabi/lib/thumb/v8-m.main+fp/hard/libc.a(libc_a-makebuf.o)
 .debug_str     0x0000be8b      0x58a /opt/local/lib/gcc/arm-none-eabi/14.2.0/../../../../arm-none-eabi/lib/thumb/v8-m.main+fp/hard/libc.a(libc_a-mlock.o)
 .debug_str     0x0000be8b      0x882 /opt/local/lib/gcc/arm-none-eabi/14.2.0/../../../../arm-none-eabi/lib/thumb/v8-m.main+fp/hard/libc.a(libc_a-mprec.o)
 .debug_str     0x0000be8b      0x5cb /opt/local/lib/gcc/arm-none-eabi/14.2.0/../../../../arm-none-eabi/lib/thumb/v8-m.main+fp/hard/libc.a(libc_a-fclose.o)
 .debug_str     0x0000be8b      0x65f /opt/local/lib/gcc/arm-none-eabi/14.2.0/../../../../arm-none-eabi/lib/thumb/v8-m.main+fp/hard/libc.a(libc_a-reallocr.o)
 .debug_str     0x0000be8b      0x5d9 /opt/local/lib/gcc/arm-none-eabi/14.2.0/../../../../arm-none-eabi/lib/thumb/v8-m.main+fp/hard/libc.a(libc_a-stdio.o)
 .debug_str     0x0000be8b      0x799 /opt/local/lib/gcc/arm-none-eabi/14.2.0/../../../../arm-none-eabi/lib/thumb/v8-m.main+fp/hard/libc.a(libc_a-wctomb_r.o)
 .debug_str     0x0000be8b      0x5a2 /opt/local/lib/gcc/arm-none-eabi/14.2.0/../../../../arm-none-eabi/lib/thumb/v8-m.main+fp/hard/libc.a(libc_a-wbuf.o)
 .debug_str     0x0000be8b      0x562 /opt/local/lib/gcc/arm-none-eabi/14.2.0/../../../../arm-none-eabi/lib/thumb/v8-m.main+fp/hard/libc.a(libc_a-closer.o)
 .debug_str     0x0000be8b      0x58b /opt/local/lib/gcc/arm-none-eabi/14.2.0/../../../../arm-none-eabi/lib/thumb/v8-m.main+fp/hard/libc.a(libc_a-reent.o)
 .debug_str     0x0000be8b      0x6b4 /opt/local/lib/gcc/arm-none-eabi/14.2.0/../../../../arm-none-eabi/lib/thumb/v8-m.main+fp/hard/libc.a(libc_a-fstatr.o)
 .debug_str     0x0000be8b      0x56c /opt/local/lib/gcc/arm-none-eabi/14.2.0/../../../../arm-none-eabi/lib/thumb/v8-m.main+fp/hard/libc.a(libc_a-isattyr.o)
 .debug_str     0x0000be8b      0x570 /opt/local/lib/gcc/arm-none-eabi/14.2.0/../../../../arm-none-eabi/lib/thumb/v8-m.main+fp/hard/libc.a(libc_a-lseekr.o)
 .debug_str     0x0000be8b      0x570 /opt/local/lib/gcc/arm-none-eabi/14.2.0/../../../../arm-none-eabi/lib/thumb/v8-m.main+fp/hard/libc.a(libc_a-readr.o)
 .debug_str     0x0000be8b      0x575 /opt/local/lib/gcc/arm-none-eabi/14.2.0/../../../../arm-none-eabi/lib/thumb/v8-m.main+fp/hard/libc.a(libc_a-sbrkr.o)
 .debug_str     0x0000be8b      0x572 /opt/local/lib/gcc/arm-none-eabi/14.2.0/../../../../arm-none-eabi/lib/thumb/v8-m.main+fp/hard/libc.a(libc_a-writer.o)
 .debug_str     0x0000be8b      0x262 /opt/local/lib/gcc/arm-none-eabi/14.2.0/../../../../arm-none-eabi/lib/thumb/v8-m.main+fp/hard/libc.a(libc_a-sysconf.o)
 .debug_str     0x0000be8b      0x5a5 /opt/local/lib/gcc/arm-none-eabi/14.2.0/../../../../arm-none-eabi/lib/thumb/v8-m.main+fp/hard/libc.a(libc_a-assert.o)
 .debug_str     0x0000be8b      0x5be /opt/local/lib/gcc/arm-none-eabi/14.2.0/../../../../arm-none-eabi/lib/thumb/v8-m.main+fp/hard/libc.a(libc_a-callocr.o)
 .debug_str     0x0000be8b      0x5ae /opt/local/lib/gcc/arm-none-eabi/14.2.0/../../../../arm-none-eabi/lib/thumb/v8-m.main+fp/hard/libc.a(libc_a-fiprintf.o)
 .debug_str     0x0000be8b      0x25c /opt/local/lib/gcc/arm-none-eabi/14.2.0/../../../../arm-none-eabi/lib/thumb/v8-m.main+fp/hard/libc.a(libc_a-abort.o)
 .debug_str     0x0000be8b      0x5f3 /opt/local/lib/gcc/arm-none-eabi/14.2.0/../../../../arm-none-eabi/lib/thumb/v8-m.main+fp/hard/libc.a(libc_a-signal.o)
 .debug_str     0x0000be8b      0x588 /opt/local/lib/gcc/arm-none-eabi/14.2.0/../../../../arm-none-eabi/lib/thumb/v8-m.main+fp/hard/libc.a(libc_a-signalr.o)
 .debug_str     0x0000be8b      0x20d /opt/local/lib/gcc/arm-none-eabi/14.2.0/thumb/v8-m.main+fp/hard/libgcc.a(_arm_addsubdf3.o)
 .debug_str     0x0000be8b      0x18d /opt/local/lib/gcc/arm-none-eabi/14.2.0/thumb/v8-m.main+fp/hard/libgcc.a(_arm_muldivdf3.o)
 .debug_str     0x0000be8b      0x216 /opt/local/lib/gcc/arm-none-eabi/14.2.0/thumb/v8-m.main+fp/hard/libgcc.a(_arm_cmpdf2.o)
 .debug_str     0x0000be8b      0x17b /opt/local/lib/gcc/arm-none-eabi/14.2.0/thumb/v8-m.main+fp/hard/libgcc.a(_arm_unorddf2.o)
 .debug_str     0x0000be8b      0x178 /opt/local/lib/gcc/arm-none-eabi/14.2.0/thumb/v8-m.main+fp/hard/libgcc.a(_arm_fixdfsi.o)
 .debug_str     0x0000be8b      0x15c /opt/local/lib/gcc/arm-none-eabi/14.2.0/thumb/v8-m.main+fp/hard/libgcc.a(_aeabi_uldivmod.o)
 .debug_str     0x0000be8b      0x739 /opt/local/lib/gcc/arm-none-eabi/14.2.0/thumb/v8-m.main+fp/hard/libgcc.a(_udivmoddi4.o)
 .debug_str     0x0000be8b      0x17c /opt/local/lib/gcc/arm-none-eabi/14.2.0/thumb/v8-m.main+fp/hard/libgcc.a(_dvmd_tls.o)

.debug_frame    0x00000000     0x51f8
 .debug_frame   0x00000000      0x158 build/main.o
 .debug_frame   0x00000158       0xf0 build/stm32h5xx_it.o
 .debug_frame   0x00000248      0x114 build/stm32h5xx_hal_msp.o
 .debug_frame   0x0000035c      0x274 build/stm32h5xx_nucleo.o
 .debug_frame   0x000005d0      0x254 build/stm32h5xx_hal_cortex.o
 .debug_frame   0x00000824      0x1d0 build/stm32h5xx_hal_rcc.o
 .debug_frame   0x000009f4      0x258 build/stm32h5xx_hal_rcc_ex.o
 .debug_frame   0x00000c4c      0x110 build/stm32h5xx_hal_gpio.o
 .debug_frame   0x00000d5c      0x19c build/stm32h5xx_hal_dma.o
 .debug_frame   0x00000ef8      0x350 build/stm32h5xx_hal.o
 .debug_frame   0x00001248      0x128 build/stm32h5xx_hal_exti.o
 .debug_frame   0x00001370      0xb80 build/stm32h5xx_hal_tim.o
 .debug_frame   0x00001ef0      0x624 build/stm32h5xx_hal_tim_ex.o
 .debug_frame   0x00002514      0x694 build/stm32h5xx_hal_uart.o
 .debug_frame   0x00002ba8       0x3c build/system_stm32h5xx.o
 .debug_frame   0x00002be4       0x28 build/sysmem.o
 .debug_frame   0x00002c0c      0x190 build/syscalls.o
 .debug_frame   0x00002d9c      0x130 build/stm32h5xx_hal_icache.o
 .debug_frame   0x00002ecc      0x354 build/stm32h5xx_hal_adc.o
 .debug_frame   0x00003220      0x4ac build/stm32h5xx_hal_spi.o
 .debug_frame   0x000036cc      0x3a4 build/stm32h5xx_hal_pcd.o
 .debug_frame   0x00003a70       0x9c build/stm32h5xx_hal_pcd_ex.o
 .debug_frame   0x00003b0c      0x2fc build/stm32h5xx_ll_usb.o
 .debug_frame   0x00003e08       0x74 /opt/local/lib/gcc/arm-none-eabi/14.2.0/../../../../arm-none-eabi/lib/thumb/v8-m.main+fp/hard/libc.a(libc_a-printf.o)
 .debug_frame   0x00003e7c       0x94 /opt/local/lib/gcc/arm-none-eabi/14.2.0/../../../../arm-none-eabi/lib/thumb/v8-m.main+fp/hard/libc.a(libc_a-vfprintf.o)
 .debug_frame   0x00003f10       0xdc /opt/local/lib/gcc/arm-none-eabi/14.2.0/../../../../arm-none-eabi/lib/thumb/v8-m.main+fp/hard/libc.a(libc_a-vfiprintf.o)
 .debug_frame   0x00003fec       0x44 /opt/local/lib/gcc/arm-none-eabi/14.2.0/../../../../arm-none-eabi/lib/thumb/v8-m.main+fp/hard/libc.a(libc_a-puts.o)
 .debug_frame   0x00004030       0x88 /opt/local/lib/gcc/arm-none-eabi/14.2.0/../../../../arm-none-eabi/lib/thumb/v8-m.main+fp/hard/libc.a(libc_a-fflush.o)
 .debug_frame   0x000040b8       0xf4 /opt/local/lib/gcc/arm-none-eabi/14.2.0/../../../../arm-none-eabi/lib/thumb/v8-m.main+fp/hard/libc.a(libc_a-findfp.o)
 .debug_frame   0x000041ac       0x60 /opt/local/lib/gcc/arm-none-eabi/14.2.0/../../../../arm-none-eabi/lib/thumb/v8-m.main+fp/hard/libc.a(libc_a-fvwrite.o)
 .debug_frame   0x0000420c       0x34 /opt/local/lib/gcc/arm-none-eabi/14.2.0/../../../../arm-none-eabi/lib/thumb/v8-m.main+fp/hard/libc.a(libc_a-fwalk.o)
 .debug_frame   0x00004240       0x2c /opt/local/lib/gcc/arm-none-eabi/14.2.0/../../../../arm-none-eabi/lib/thumb/v8-m.main+fp/hard/libc.a(libc_a-wsetup.o)
 .debug_frame   0x0000426c       0x78 /opt/local/lib/gcc/arm-none-eabi/14.2.0/../../../../arm-none-eabi/lib/thumb/v8-m.main+fp/hard/libc.a(libc_a-fputwc.o)
 .debug_frame   0x000042e4       0x44 /opt/local/lib/gcc/arm-none-eabi/14.2.0/../../../../arm-none-eabi/lib/thumb/v8-m.main+fp/hard/libc.a(libc_a-memmove.o)
 .debug_frame   0x00004328       0x2c /opt/local/lib/gcc/arm-none-eabi/14.2.0/../../../../arm-none-eabi/lib/thumb/v8-m.main+fp/hard/libc.a(libc_a-memset.o)
 .debug_frame   0x00004354       0x68 /opt/local/lib/gcc/arm-none-eabi/14.2.0/../../../../arm-none-eabi/lib/thumb/v8-m.main+fp/hard/libc.a(libc_a-locale.o)
 .debug_frame   0x000043bc       0x40 /opt/local/lib/gcc/arm-none-eabi/14.2.0/../../../../arm-none-eabi/lib/thumb/v8-m.main+fp/hard/libc.a(libc_a-localeconv.o)
 .debug_frame   0x000043fc       0x20 /opt/local/lib/gcc/arm-none-eabi/14.2.0/../../../../arm-none-eabi/lib/thumb/v8-m.main+fp/hard/libc.a(libc_a-errno.o)
 .debug_frame   0x0000441c       0x3c /opt/local/lib/gcc/arm-none-eabi/14.2.0/../../../../arm-none-eabi/lib/thumb/v8-m.main+fp/hard/libc.a(libc_a-strcmp.o)
 .debug_frame   0x00004458       0x2c /opt/local/lib/gcc/arm-none-eabi/14.2.0/../../../../arm-none-eabi/lib/thumb/v8-m.main+fp/hard/libc.a(libc_a-init.o)
 .debug_frame   0x00004484       0x2c /opt/local/lib/gcc/arm-none-eabi/14.2.0/../../../../arm-none-eabi/lib/thumb/v8-m.main+fp/hard/libc.a(libc_a-memchr-stub.o)
 .debug_frame   0x000044b0       0x20 /opt/local/lib/gcc/arm-none-eabi/14.2.0/../../../../arm-none-eabi/lib/thumb/v8-m.main+fp/hard/libc.a(libc_a-strlen-stub.o)
 .debug_frame   0x000044d0       0x60 /opt/local/lib/gcc/arm-none-eabi/14.2.0/../../../../arm-none-eabi/lib/thumb/v8-m.main+fp/hard/libc.a(libc_a-wcrtomb.o)
 .debug_frame   0x00004530       0x84 /opt/local/lib/gcc/arm-none-eabi/14.2.0/../../../../arm-none-eabi/lib/thumb/v8-m.main+fp/hard/libc.a(libc_a-dtoa.o)
 .debug_frame   0x000045b4       0x84 /opt/local/lib/gcc/arm-none-eabi/14.2.0/../../../../arm-none-eabi/lib/thumb/v8-m.main+fp/hard/libc.a(libc_a-freer.o)
 .debug_frame   0x00004638       0x4c /opt/local/lib/gcc/arm-none-eabi/14.2.0/../../../../arm-none-eabi/lib/thumb/v8-m.main+fp/hard/libc.a(libc_a-mallocr.o)
 .debug_frame   0x00004684       0x4c /opt/local/lib/gcc/arm-none-eabi/14.2.0/../../../../arm-none-eabi/lib/thumb/v8-m.main+fp/hard/libc.a(libc_a-mbtowc_r.o)
 .debug_frame   0x000046d0       0x6c /opt/local/lib/gcc/arm-none-eabi/14.2.0/../../../../arm-none-eabi/lib/thumb/v8-m.main+fp/hard/libc.a(libc_a-makebuf.o)
 .debug_frame   0x0000473c       0x30 /opt/local/lib/gcc/arm-none-eabi/14.2.0/../../../../arm-none-eabi/lib/thumb/v8-m.main+fp/hard/libc.a(libc_a-mlock.o)
 .debug_frame   0x0000476c      0x28c /opt/local/lib/gcc/arm-none-eabi/14.2.0/../../../../arm-none-eabi/lib/thumb/v8-m.main+fp/hard/libc.a(libc_a-mprec.o)
 .debug_frame   0x000049f8       0x3c /opt/local/lib/gcc/arm-none-eabi/14.2.0/../../../../arm-none-eabi/lib/thumb/v8-m.main+fp/hard/libc.a(libc_a-fclose.o)
 .debug_frame   0x00004a34       0x60 /opt/local/lib/gcc/arm-none-eabi/14.2.0/../../../../arm-none-eabi/lib/thumb/v8-m.main+fp/hard/libc.a(libc_a-reallocr.o)
 .debug_frame   0x00004a94       0x8c /opt/local/lib/gcc/arm-none-eabi/14.2.0/../../../../arm-none-eabi/lib/thumb/v8-m.main+fp/hard/libc.a(libc_a-stdio.o)
 .debug_frame   0x00004b20       0x3c /opt/local/lib/gcc/arm-none-eabi/14.2.0/../../../../arm-none-eabi/lib/thumb/v8-m.main+fp/hard/libc.a(libc_a-wctomb_r.o)
 .debug_frame   0x00004b5c       0x40 /opt/local/lib/gcc/arm-none-eabi/14.2.0/../../../../arm-none-eabi/lib/thumb/v8-m.main+fp/hard/libc.a(libc_a-wbuf.o)
 .debug_frame   0x00004b9c       0x2c /opt/local/lib/gcc/arm-none-eabi/14.2.0/../../../../arm-none-eabi/lib/thumb/v8-m.main+fp/hard/libc.a(libc_a-closer.o)
 .debug_frame   0x00004bc8       0x3c /opt/local/lib/gcc/arm-none-eabi/14.2.0/../../../../arm-none-eabi/lib/thumb/v8-m.main+fp/hard/libc.a(libc_a-reent.o)
 .debug_frame   0x00004c04       0x2c /opt/local/lib/gcc/arm-none-eabi/14.2.0/../../../../arm-none-eabi/lib/thumb/v8-m.main+fp/hard/libc.a(libc_a-fstatr.o)
 .debug_frame   0x00004c30       0x2c /opt/local/lib/gcc/arm-none-eabi/14.2.0/../../../../arm-none-eabi/lib/thumb/v8-m.main+fp/hard/libc.a(libc_a-isattyr.o)
 .debug_frame   0x00004c5c       0x2c /opt/local/lib/gcc/arm-none-eabi/14.2.0/../../../../arm-none-eabi/lib/thumb/v8-m.main+fp/hard/libc.a(libc_a-lseekr.o)
 .debug_frame   0x00004c88       0x2c /opt/local/lib/gcc/arm-none-eabi/14.2.0/../../../../arm-none-eabi/lib/thumb/v8-m.main+fp/hard/libc.a(libc_a-readr.o)
 .debug_frame   0x00004cb4       0x2c /opt/local/lib/gcc/arm-none-eabi/14.2.0/../../../../arm-none-eabi/lib/thumb/v8-m.main+fp/hard/libc.a(libc_a-sbrkr.o)
 .debug_frame   0x00004ce0       0x2c /opt/local/lib/gcc/arm-none-eabi/14.2.0/../../../../arm-none-eabi/lib/thumb/v8-m.main+fp/hard/libc.a(libc_a-writer.o)
 .debug_frame   0x00004d0c       0x28 /opt/local/lib/gcc/arm-none-eabi/14.2.0/../../../../arm-none-eabi/lib/thumb/v8-m.main+fp/hard/libc.a(libc_a-sysconf.o)
 .debug_frame   0x00004d34       0x40 /opt/local/lib/gcc/arm-none-eabi/14.2.0/../../../../arm-none-eabi/lib/thumb/v8-m.main+fp/hard/libc.a(libc_a-assert.o)
 .debug_frame   0x00004d74       0x2c /opt/local/lib/gcc/arm-none-eabi/14.2.0/../../../../arm-none-eabi/lib/thumb/v8-m.main+fp/hard/libc.a(libc_a-callocr.o)
 .debug_frame   0x00004da0       0x70 /opt/local/lib/gcc/arm-none-eabi/14.2.0/../../../../arm-none-eabi/lib/thumb/v8-m.main+fp/hard/libc.a(libc_a-fiprintf.o)
 .debug_frame   0x00004e10       0x28 /opt/local/lib/gcc/arm-none-eabi/14.2.0/../../../../arm-none-eabi/lib/thumb/v8-m.main+fp/hard/libc.a(libc_a-abort.o)
 .debug_frame   0x00004e38      0x11c /opt/local/lib/gcc/arm-none-eabi/14.2.0/../../../../arm-none-eabi/lib/thumb/v8-m.main+fp/hard/libc.a(libc_a-signal.o)
 .debug_frame   0x00004f54       0x3c /opt/local/lib/gcc/arm-none-eabi/14.2.0/../../../../arm-none-eabi/lib/thumb/v8-m.main+fp/hard/libc.a(libc_a-signalr.o)
 .debug_frame   0x00004f90       0xac /opt/local/lib/gcc/arm-none-eabi/14.2.0/thumb/v8-m.main+fp/hard/libgcc.a(_arm_addsubdf3.o)
 .debug_frame   0x0000503c       0x50 /opt/local/lib/gcc/arm-none-eabi/14.2.0/thumb/v8-m.main+fp/hard/libgcc.a(_arm_muldivdf3.o)
 .debug_frame   0x0000508c       0xc4 /opt/local/lib/gcc/arm-none-eabi/14.2.0/thumb/v8-m.main+fp/hard/libgcc.a(_arm_cmpdf2.o)
 .debug_frame   0x00005150       0x20 /opt/local/lib/gcc/arm-none-eabi/14.2.0/thumb/v8-m.main+fp/hard/libgcc.a(_arm_unorddf2.o)
 .debug_frame   0x00005170       0x24 /opt/local/lib/gcc/arm-none-eabi/14.2.0/thumb/v8-m.main+fp/hard/libgcc.a(_arm_fixdfsi.o)
 .debug_frame   0x00005194       0x2c /opt/local/lib/gcc/arm-none-eabi/14.2.0/thumb/v8-m.main+fp/hard/libgcc.a(_aeabi_uldivmod.o)
 .debug_frame   0x000051c0       0x38 /opt/local/lib/gcc/arm-none-eabi/14.2.0/thumb/v8-m.main+fp/hard/libgcc.a(_udivmoddi4.o)

.debug_loclists
                0x00000000     0xdec6
 .debug_loclists
                0x00000000       0x3c /opt/local/lib/gcc/arm-none-eabi/14.2.0/../../../../arm-none-eabi/lib/thumb/v8-m.main+fp/hard/libc.a(libc_a-printf.o)
 .debug_loclists
                0x0000003c     0x2e5d /opt/local/lib/gcc/arm-none-eabi/14.2.0/../../../../arm-none-eabi/lib/thumb/v8-m.main+fp/hard/libc.a(libc_a-vfprintf.o)
 .debug_loclists
                0x00002e99     0x1b76 /opt/local/lib/gcc/arm-none-eabi/14.2.0/../../../../arm-none-eabi/lib/thumb/v8-m.main+fp/hard/libc.a(libc_a-vfiprintf.o)
 .debug_loclists
                0x00004a0f       0xcb /opt/local/lib/gcc/arm-none-eabi/14.2.0/../../../../arm-none-eabi/lib/thumb/v8-m.main+fp/hard/libc.a(libc_a-puts.o)
 .debug_loclists
                0x00004ada      0x2ad /opt/local/lib/gcc/arm-none-eabi/14.2.0/../../../../arm-none-eabi/lib/thumb/v8-m.main+fp/hard/libc.a(libc_a-fflush.o)
 .debug_loclists
                0x00004d87      0x1d0 /opt/local/lib/gcc/arm-none-eabi/14.2.0/../../../../arm-none-eabi/lib/thumb/v8-m.main+fp/hard/libc.a(libc_a-findfp.o)
 .debug_loclists
                0x00004f57      0x4eb /opt/local/lib/gcc/arm-none-eabi/14.2.0/../../../../arm-none-eabi/lib/thumb/v8-m.main+fp/hard/libc.a(libc_a-fvwrite.o)
 .debug_loclists
                0x00005442       0x87 /opt/local/lib/gcc/arm-none-eabi/14.2.0/../../../../arm-none-eabi/lib/thumb/v8-m.main+fp/hard/libc.a(libc_a-fwalk.o)
 .debug_loclists
                0x000054c9       0xe9 /opt/local/lib/gcc/arm-none-eabi/14.2.0/../../../../arm-none-eabi/lib/thumb/v8-m.main+fp/hard/libc.a(libc_a-wsetup.o)
 .debug_loclists
                0x000055b2      0x209 /opt/local/lib/gcc/arm-none-eabi/14.2.0/../../../../arm-none-eabi/lib/thumb/v8-m.main+fp/hard/libc.a(libc_a-fputwc.o)
 .debug_loclists
                0x000057bb      0x269 /opt/local/lib/gcc/arm-none-eabi/14.2.0/../../../../arm-none-eabi/lib/thumb/v8-m.main+fp/hard/libc.a(libc_a-memmove.o)
 .debug_loclists
                0x00005a24      0x18a /opt/local/lib/gcc/arm-none-eabi/14.2.0/../../../../arm-none-eabi/lib/thumb/v8-m.main+fp/hard/libc.a(libc_a-memset.o)
 .debug_loclists
                0x00005bae      0x143 /opt/local/lib/gcc/arm-none-eabi/14.2.0/../../../../arm-none-eabi/lib/thumb/v8-m.main+fp/hard/libc.a(libc_a-locale.o)
 .debug_loclists
                0x00005cf1       0x48 /opt/local/lib/gcc/arm-none-eabi/14.2.0/../../../../arm-none-eabi/lib/thumb/v8-m.main+fp/hard/libc.a(libc_a-localeconv.o)
 .debug_loclists
                0x00005d39       0x65 /opt/local/lib/gcc/arm-none-eabi/14.2.0/../../../../arm-none-eabi/lib/thumb/v8-m.main+fp/hard/libc.a(libc_a-init.o)
 .debug_loclists
                0x00005d9e       0xfe /opt/local/lib/gcc/arm-none-eabi/14.2.0/../../../../arm-none-eabi/lib/thumb/v8-m.main+fp/hard/libc.a(libc_a-memchr-stub.o)
 .debug_loclists
                0x00005e9c       0x29 /opt/local/lib/gcc/arm-none-eabi/14.2.0/../../../../arm-none-eabi/lib/thumb/v8-m.main+fp/hard/libc.a(libc_a-strlen-stub.o)
 .debug_loclists
                0x00005ec5      0x1e8 /opt/local/lib/gcc/arm-none-eabi/14.2.0/../../../../arm-none-eabi/lib/thumb/v8-m.main+fp/hard/libc.a(libc_a-wcrtomb.o)
 .debug_loclists
                0x000060ad     0x24b4 /opt/local/lib/gcc/arm-none-eabi/14.2.0/../../../../arm-none-eabi/lib/thumb/v8-m.main+fp/hard/libc.a(libc_a-dtoa.o)
 .debug_loclists
                0x00008561      0x48e /opt/local/lib/gcc/arm-none-eabi/14.2.0/../../../../arm-none-eabi/lib/thumb/v8-m.main+fp/hard/libc.a(libc_a-freer.o)
 .debug_loclists
                0x000089ef      0xa46 /opt/local/lib/gcc/arm-none-eabi/14.2.0/../../../../arm-none-eabi/lib/thumb/v8-m.main+fp/hard/libc.a(libc_a-mallocr.o)
 .debug_loclists
                0x00009435      0x158 /opt/local/lib/gcc/arm-none-eabi/14.2.0/../../../../arm-none-eabi/lib/thumb/v8-m.main+fp/hard/libc.a(libc_a-mbtowc_r.o)
 .debug_loclists
                0x0000958d      0x247 /opt/local/lib/gcc/arm-none-eabi/14.2.0/../../../../arm-none-eabi/lib/thumb/v8-m.main+fp/hard/libc.a(libc_a-makebuf.o)
 .debug_loclists
                0x000097d4     0x1dff /opt/local/lib/gcc/arm-none-eabi/14.2.0/../../../../arm-none-eabi/lib/thumb/v8-m.main+fp/hard/libc.a(libc_a-mprec.o)
 .debug_loclists
                0x0000b5d3       0xf7 /opt/local/lib/gcc/arm-none-eabi/14.2.0/../../../../arm-none-eabi/lib/thumb/v8-m.main+fp/hard/libc.a(libc_a-fclose.o)
 .debug_loclists
                0x0000b6ca      0xbd7 /opt/local/lib/gcc/arm-none-eabi/14.2.0/../../../../arm-none-eabi/lib/thumb/v8-m.main+fp/hard/libc.a(libc_a-reallocr.o)
 .debug_loclists
                0x0000c2a1      0x23b /opt/local/lib/gcc/arm-none-eabi/14.2.0/../../../../arm-none-eabi/lib/thumb/v8-m.main+fp/hard/libc.a(libc_a-stdio.o)
 .debug_loclists
                0x0000c4dc       0xed /opt/local/lib/gcc/arm-none-eabi/14.2.0/../../../../arm-none-eabi/lib/thumb/v8-m.main+fp/hard/libc.a(libc_a-wctomb_r.o)
 .debug_loclists
                0x0000c5c9      0x11d /opt/local/lib/gcc/arm-none-eabi/14.2.0/../../../../arm-none-eabi/lib/thumb/v8-m.main+fp/hard/libc.a(libc_a-wbuf.o)
 .debug_loclists
                0x0000c6e6       0x4b /opt/local/lib/gcc/arm-none-eabi/14.2.0/../../../../arm-none-eabi/lib/thumb/v8-m.main+fp/hard/libc.a(libc_a-closer.o)
 .debug_loclists
                0x0000c731       0x57 /opt/local/lib/gcc/arm-none-eabi/14.2.0/../../../../arm-none-eabi/lib/thumb/v8-m.main+fp/hard/libc.a(libc_a-reent.o)
 .debug_loclists
                0x0000c788       0x71 /opt/local/lib/gcc/arm-none-eabi/14.2.0/../../../../arm-none-eabi/lib/thumb/v8-m.main+fp/hard/libc.a(libc_a-fstatr.o)
 .debug_loclists
                0x0000c7f9       0x4b /opt/local/lib/gcc/arm-none-eabi/14.2.0/../../../../arm-none-eabi/lib/thumb/v8-m.main+fp/hard/libc.a(libc_a-isattyr.o)
 .debug_loclists
                0x0000c844       0x9e /opt/local/lib/gcc/arm-none-eabi/14.2.0/../../../../arm-none-eabi/lib/thumb/v8-m.main+fp/hard/libc.a(libc_a-lseekr.o)
 .debug_loclists
                0x0000c8e2       0x9e /opt/local/lib/gcc/arm-none-eabi/14.2.0/../../../../arm-none-eabi/lib/thumb/v8-m.main+fp/hard/libc.a(libc_a-readr.o)
 .debug_loclists
                0x0000c980       0x4b /opt/local/lib/gcc/arm-none-eabi/14.2.0/../../../../arm-none-eabi/lib/thumb/v8-m.main+fp/hard/libc.a(libc_a-sbrkr.o)
 .debug_loclists
                0x0000c9cb       0x9e /opt/local/lib/gcc/arm-none-eabi/14.2.0/../../../../arm-none-eabi/lib/thumb/v8-m.main+fp/hard/libc.a(libc_a-writer.o)
 .debug_loclists
                0x0000ca69       0x3b /opt/local/lib/gcc/arm-none-eabi/14.2.0/../../../../arm-none-eabi/lib/thumb/v8-m.main+fp/hard/libc.a(libc_a-sysconf.o)
 .debug_loclists
                0x0000caa4       0xfa /opt/local/lib/gcc/arm-none-eabi/14.2.0/../../../../arm-none-eabi/lib/thumb/v8-m.main+fp/hard/libc.a(libc_a-assert.o)
 .debug_loclists
                0x0000cb9e      0x242 /opt/local/lib/gcc/arm-none-eabi/14.2.0/../../../../arm-none-eabi/lib/thumb/v8-m.main+fp/hard/libc.a(libc_a-callocr.o)
 .debug_loclists
                0x0000cde0       0x6b /opt/local/lib/gcc/arm-none-eabi/14.2.0/../../../../arm-none-eabi/lib/thumb/v8-m.main+fp/hard/libc.a(libc_a-fiprintf.o)
 .debug_loclists
                0x0000ce4b      0x5b4 /opt/local/lib/gcc/arm-none-eabi/14.2.0/../../../../arm-none-eabi/lib/thumb/v8-m.main+fp/hard/libc.a(libc_a-signal.o)
 .debug_loclists
                0x0000d3ff       0x89 /opt/local/lib/gcc/arm-none-eabi/14.2.0/../../../../arm-none-eabi/lib/thumb/v8-m.main+fp/hard/libc.a(libc_a-signalr.o)
 .debug_loclists
                0x0000d488      0xa3e /opt/local/lib/gcc/arm-none-eabi/14.2.0/thumb/v8-m.main+fp/hard/libgcc.a(_udivmoddi4.o)

.debug_rnglists
                0x00000000      0x6d2
 .debug_rnglists
                0x00000000      0x11f /opt/local/lib/gcc/arm-none-eabi/14.2.0/../../../../arm-none-eabi/lib/thumb/v8-m.main+fp/hard/libc.a(libc_a-vfprintf.o)
 .debug_rnglists
                0x0000011f       0xe7 /opt/local/lib/gcc/arm-none-eabi/14.2.0/../../../../arm-none-eabi/lib/thumb/v8-m.main+fp/hard/libc.a(libc_a-vfiprintf.o)
 .debug_rnglists
                0x00000206       0x16 /opt/local/lib/gcc/arm-none-eabi/14.2.0/../../../../arm-none-eabi/lib/thumb/v8-m.main+fp/hard/libc.a(libc_a-puts.o)
 .debug_rnglists
                0x0000021c       0x59 /opt/local/lib/gcc/arm-none-eabi/14.2.0/../../../../arm-none-eabi/lib/thumb/v8-m.main+fp/hard/libc.a(libc_a-fflush.o)
 .debug_rnglists
                0x00000275       0x66 /opt/local/lib/gcc/arm-none-eabi/14.2.0/../../../../arm-none-eabi/lib/thumb/v8-m.main+fp/hard/libc.a(libc_a-findfp.o)
 .debug_rnglists
                0x000002db       0x2b /opt/local/lib/gcc/arm-none-eabi/14.2.0/../../../../arm-none-eabi/lib/thumb/v8-m.main+fp/hard/libc.a(libc_a-fvwrite.o)
 .debug_rnglists
                0x00000306       0x1b /opt/local/lib/gcc/arm-none-eabi/14.2.0/../../../../arm-none-eabi/lib/thumb/v8-m.main+fp/hard/libc.a(libc_a-wsetup.o)
 .debug_rnglists
                0x00000321       0x31 /opt/local/lib/gcc/arm-none-eabi/14.2.0/../../../../arm-none-eabi/lib/thumb/v8-m.main+fp/hard/libc.a(libc_a-fputwc.o)
 .debug_rnglists
                0x00000352       0x19 /opt/local/lib/gcc/arm-none-eabi/14.2.0/../../../../arm-none-eabi/lib/thumb/v8-m.main+fp/hard/libc.a(libc_a-locale.o)
 .debug_rnglists
                0x0000036b       0x13 /opt/local/lib/gcc/arm-none-eabi/14.2.0/../../../../arm-none-eabi/lib/thumb/v8-m.main+fp/hard/libc.a(libc_a-strlen-stub.o)
 .debug_rnglists
                0x0000037e       0x13 /opt/local/lib/gcc/arm-none-eabi/14.2.0/../../../../arm-none-eabi/lib/thumb/v8-m.main+fp/hard/libc.a(libc_a-wcrtomb.o)
 .debug_rnglists
                0x00000391       0x2c /opt/local/lib/gcc/arm-none-eabi/14.2.0/../../../../arm-none-eabi/lib/thumb/v8-m.main+fp/hard/libc.a(libc_a-dtoa.o)
 .debug_rnglists
                0x000003bd       0x30 /opt/local/lib/gcc/arm-none-eabi/14.2.0/../../../../arm-none-eabi/lib/thumb/v8-m.main+fp/hard/libc.a(libc_a-mallocr.o)
 .debug_rnglists
                0x000003ed       0x33 /opt/local/lib/gcc/arm-none-eabi/14.2.0/../../../../arm-none-eabi/lib/thumb/v8-m.main+fp/hard/libc.a(libc_a-makebuf.o)
 .debug_rnglists
                0x00000420       0xb2 /opt/local/lib/gcc/arm-none-eabi/14.2.0/../../../../arm-none-eabi/lib/thumb/v8-m.main+fp/hard/libc.a(libc_a-mprec.o)
 .debug_rnglists
                0x000004d2       0x1b /opt/local/lib/gcc/arm-none-eabi/14.2.0/../../../../arm-none-eabi/lib/thumb/v8-m.main+fp/hard/libc.a(libc_a-fclose.o)
 .debug_rnglists
                0x000004ed       0xa8 /opt/local/lib/gcc/arm-none-eabi/14.2.0/../../../../arm-none-eabi/lib/thumb/v8-m.main+fp/hard/libc.a(libc_a-reallocr.o)
 .debug_rnglists
                0x00000595       0x1b /opt/local/lib/gcc/arm-none-eabi/14.2.0/../../../../arm-none-eabi/lib/thumb/v8-m.main+fp/hard/libc.a(libc_a-wbuf.o)
 .debug_rnglists
                0x000005b0       0x2f /opt/local/lib/gcc/arm-none-eabi/14.2.0/../../../../arm-none-eabi/lib/thumb/v8-m.main+fp/hard/libc.a(libc_a-callocr.o)
 .debug_rnglists
                0x000005df       0x65 /opt/local/lib/gcc/arm-none-eabi/14.2.0/../../../../arm-none-eabi/lib/thumb/v8-m.main+fp/hard/libc.a(libc_a-signal.o)
 .debug_rnglists
                0x00000644       0x8e /opt/local/lib/gcc/arm-none-eabi/14.2.0/thumb/v8-m.main+fp/hard/libgcc.a(_udivmoddi4.o)

.debug_line_str
                0x00000000      0x2d7
 .debug_line_str
                0x00000000      0x2d7 /opt/local/lib/gcc/arm-none-eabi/14.2.0/../../../../arm-none-eabi/lib/thumb/v8-m.main+fp/hard/libc.a(libc_a-strcmp.o)
                                0x15e (size before relaxing)
 .debug_line_str
                0x000002d7      0x15e /opt/local/lib/gcc/arm-none-eabi/14.2.0/../../../../arm-none-eabi/lib/thumb/v8-m.main+fp/hard/libc.a(libc_a-memcpy.o)
 .debug_line_str
                0x000002d7      0x155 /opt/local/lib/gcc/arm-none-eabi/14.2.0/thumb/v8-m.main+fp/hard/libgcc.a(_arm_addsubdf3.o)
 .debug_line_str
                0x000002d7      0x155 /opt/local/lib/gcc/arm-none-eabi/14.2.0/thumb/v8-m.main+fp/hard/libgcc.a(_arm_muldivdf3.o)
 .debug_line_str
                0x000002d7      0x155 /opt/local/lib/gcc/arm-none-eabi/14.2.0/thumb/v8-m.main+fp/hard/libgcc.a(_arm_cmpdf2.o)
 .debug_line_str
                0x000002d7      0x155 /opt/local/lib/gcc/arm-none-eabi/14.2.0/thumb/v8-m.main+fp/hard/libgcc.a(_arm_unorddf2.o)
 .debug_line_str
                0x000002d7      0x155 /opt/local/lib/gcc/arm-none-eabi/14.2.0/thumb/v8-m.main+fp/hard/libgcc.a(_arm_fixdfsi.o)
 .debug_line_str
                0x000002d7      0x150 /opt/local/lib/gcc/arm-none-eabi/14.2.0/thumb/v8-m.main+fp/hard/libgcc.a(_aeabi_uldivmod.o)
 .debug_line_str
                0x000002d7      0x154 /opt/local/lib/gcc/arm-none-eabi/14.2.0/thumb/v8-m.main+fp/hard/libgcc.a(_dvmd_tls.o)

Cross Reference Table

Symbol                                            File
ADC1_IRQHandler                                   build/startup_stm32h503xx.o
ADC_ConversionStop                                build/stm32h5xx_hal_adc.o
                                                  build/stm32h5xx_hal_adc_ex.o
ADC_DMAConvCplt                                   build/stm32h5xx_hal_adc.o
ADC_DMAError                                      build/stm32h5xx_hal_adc.o
ADC_DMAHalfConvCplt                               build/stm32h5xx_hal_adc.o
ADC_Disable                                       build/stm32h5xx_hal_adc.o
                                                  build/stm32h5xx_hal_adc_ex.o
ADC_Enable                                        build/stm32h5xx_hal_adc.o
                                                  build/stm32h5xx_hal_adc_ex.o
AHBPrescTable                                     build/system_stm32h5xx.o
                                                  build/stm32h5xx_hal.o
                                                  build/stm32h5xx_hal_rcc.o
APBPrescTable                                     build/system_stm32h5xx.o
                                                  build/stm32h5xx_hal_rcc.o
BSP_COM_DeInit                                    build/stm32h5xx_nucleo.o
BSP_COM_Init                                      build/stm32h5xx_nucleo.o
                                                  build/main.o
BSP_COM_SelectLogPort                             build/stm32h5xx_nucleo.o
BSP_GetBoardID                                    build/stm32h5xx_nucleo.o
BSP_GetBoardName                                  build/stm32h5xx_nucleo.o
BSP_GetVersion                                    build/stm32h5xx_nucleo.o
BSP_LED_DeInit                                    build/stm32h5xx_nucleo.o
BSP_LED_GetState                                  build/stm32h5xx_nucleo.o
BSP_LED_Init                                      build/stm32h5xx_nucleo.o
                                                  build/main.o
BSP_LED_Off                                       build/stm32h5xx_nucleo.o
BSP_LED_On                                        build/stm32h5xx_nucleo.o
                                                  build/main.o
BSP_LED_Toggle                                    build/stm32h5xx_nucleo.o
                                                  build/main.o
BSP_PB_Callback                                   build/main.o
BSP_PB_DeInit                                     build/stm32h5xx_nucleo.o
BSP_PB_GetState                                   build/stm32h5xx_nucleo.o
BSP_PB_IRQHandler                                 build/stm32h5xx_nucleo.o
                                                  build/stm32h5xx_it.o
BSP_PB_Init                                       build/stm32h5xx_nucleo.o
                                                  build/main.o
BspButtonState                                    build/main.o
BspCOMInit                                        build/main.o
BusFault_Handler                                  build/stm32h5xx_it.o
COMP1_IRQHandler                                  build/startup_stm32h503xx.o
COM_USART                                         build/stm32h5xx_nucleo.o
CRS_IRQHandler                                    build/startup_stm32h503xx.o
DAC1_IRQHandler                                   build/startup_stm32h503xx.o
DTS_IRQHandler                                    build/startup_stm32h503xx.o
DebugMon_Handler                                  build/stm32h5xx_it.o
Default_Handler                                   build/startup_stm32h503xx.o
EXTI0_IRQHandler                                  build/startup_stm32h503xx.o
EXTI10_IRQHandler                                 build/startup_stm32h503xx.o
EXTI11_IRQHandler                                 build/startup_stm32h503xx.o
EXTI12_IRQHandler                                 build/startup_stm32h503xx.o
EXTI13_IRQHandler                                 build/stm32h5xx_it.o
EXTI14_IRQHandler                                 build/startup_stm32h503xx.o
EXTI15_IRQHandler                                 build/startup_stm32h503xx.o
EXTI1_IRQHandler                                  build/startup_stm32h503xx.o
EXTI2_IRQHandler                                  build/startup_stm32h503xx.o
EXTI3_IRQHandler                                  build/startup_stm32h503xx.o
EXTI4_IRQHandler                                  build/startup_stm32h503xx.o
EXTI5_IRQHandler                                  build/startup_stm32h503xx.o
EXTI6_IRQHandler                                  build/startup_stm32h503xx.o
EXTI7_IRQHandler                                  build/startup_stm32h503xx.o
EXTI8_IRQHandler                                  build/stm32h5xx_it.o
EXTI9_IRQHandler                                  build/startup_stm32h503xx.o
Error_Handler                                     build/main.o
                                                  build/stm32h5xx_hal_msp.o
FDCAN1_IT0_IRQHandler                             build/startup_stm32h503xx.o
FDCAN1_IT1_IRQHandler                             build/startup_stm32h503xx.o
FLASH_Erase_Sector                                build/stm32h5xx_hal_flash_ex.o
                                                  build/stm32h5xx_hal_flash.o
FLASH_IRQHandler                                  build/startup_stm32h503xx.o
FLASH_WaitForLastOperation                        build/stm32h5xx_hal_flash.o
                                                  build/stm32h5xx_hal_flash_ex.o
FPU_IRQHandler                                    build/startup_stm32h503xx.o
GPDMA1_Channel0_IRQHandler                        build/startup_stm32h503xx.o
GPDMA1_Channel1_IRQHandler                        build/startup_stm32h503xx.o
GPDMA1_Channel2_IRQHandler                        build/startup_stm32h503xx.o
GPDMA1_Channel3_IRQHandler                        build/startup_stm32h503xx.o
GPDMA1_Channel4_IRQHandler                        build/startup_stm32h503xx.o
GPDMA1_Channel5_IRQHandler                        build/stm32h5xx_it.o
GPDMA1_Channel6_IRQHandler                        build/startup_stm32h503xx.o
GPDMA1_Channel7_IRQHandler                        build/startup_stm32h503xx.o
GPDMA2_Channel0_IRQHandler                        build/startup_stm32h503xx.o
GPDMA2_Channel1_IRQHandler                        build/startup_stm32h503xx.o
GPDMA2_Channel2_IRQHandler                        build/startup_stm32h503xx.o
GPDMA2_Channel3_IRQHandler                        build/startup_stm32h503xx.o
GPDMA2_Channel4_IRQHandler                        build/startup_stm32h503xx.o
GPDMA2_Channel5_IRQHandler                        build/startup_stm32h503xx.o
GPDMA2_Channel6_IRQHandler                        build/startup_stm32h503xx.o
GPDMA2_Channel7_IRQHandler                        build/startup_stm32h503xx.o
GTZC_IRQHandler                                   build/startup_stm32h503xx.o
HAL_ADCEx_Calibration_GetValue                    build/stm32h5xx_hal_adc_ex.o
HAL_ADCEx_Calibration_SetValue                    build/stm32h5xx_hal_adc_ex.o
HAL_ADCEx_Calibration_Start                       build/stm32h5xx_hal_adc_ex.o
HAL_ADCEx_DisableInjectedQueue                    build/stm32h5xx_hal_adc_ex.o
HAL_ADCEx_DisableVoltageRegulator                 build/stm32h5xx_hal_adc_ex.o
HAL_ADCEx_EnableInjectedQueue                     build/stm32h5xx_hal_adc_ex.o
HAL_ADCEx_EndOfSamplingCallback                   build/stm32h5xx_hal_adc_ex.o
                                                  build/stm32h5xx_hal_adc.o
HAL_ADCEx_EnterADCDeepPowerDownMode               build/stm32h5xx_hal_adc_ex.o
HAL_ADCEx_InjectedConfigChannel                   build/stm32h5xx_hal_adc_ex.o
HAL_ADCEx_InjectedConvCpltCallback                build/stm32h5xx_hal_adc_ex.o
                                                  build/stm32h5xx_hal_adc.o
HAL_ADCEx_InjectedGetValue                        build/stm32h5xx_hal_adc_ex.o
HAL_ADCEx_InjectedPollForConversion               build/stm32h5xx_hal_adc_ex.o
HAL_ADCEx_InjectedQueueOverflowCallback           build/stm32h5xx_hal_adc_ex.o
                                                  build/stm32h5xx_hal_adc.o
HAL_ADCEx_InjectedStart                           build/stm32h5xx_hal_adc_ex.o
HAL_ADCEx_InjectedStart_IT                        build/stm32h5xx_hal_adc_ex.o
HAL_ADCEx_InjectedStop                            build/stm32h5xx_hal_adc_ex.o
HAL_ADCEx_InjectedStop_IT                         build/stm32h5xx_hal_adc_ex.o
HAL_ADCEx_LevelOutOfWindow2Callback               build/stm32h5xx_hal_adc_ex.o
                                                  build/stm32h5xx_hal_adc.o
HAL_ADCEx_LevelOutOfWindow3Callback               build/stm32h5xx_hal_adc_ex.o
                                                  build/stm32h5xx_hal_adc.o
HAL_ADCEx_RegularStop                             build/stm32h5xx_hal_adc_ex.o
HAL_ADCEx_RegularStop_DMA                         build/stm32h5xx_hal_adc_ex.o
HAL_ADCEx_RegularStop_IT                          build/stm32h5xx_hal_adc_ex.o
HAL_ADC_AnalogWDGConfig                           build/stm32h5xx_hal_adc.o
HAL_ADC_ConfigChannel                             build/stm32h5xx_hal_adc.o
                                                  build/main.o
HAL_ADC_ConvCpltCallback                          build/stm32h5xx_hal_adc.o
HAL_ADC_ConvHalfCpltCallback                      build/stm32h5xx_hal_adc.o
HAL_ADC_DeInit                                    build/stm32h5xx_hal_adc.o
HAL_ADC_ErrorCallback                             build/stm32h5xx_hal_adc.o
HAL_ADC_GetError                                  build/stm32h5xx_hal_adc.o
HAL_ADC_GetState                                  build/stm32h5xx_hal_adc.o
HAL_ADC_GetValue                                  build/stm32h5xx_hal_adc.o
HAL_ADC_IRQHandler                                build/stm32h5xx_hal_adc.o
HAL_ADC_Init                                      build/stm32h5xx_hal_adc.o
                                                  build/main.o
HAL_ADC_LevelOutOfWindowCallback                  build/stm32h5xx_hal_adc.o
HAL_ADC_MspDeInit                                 build/stm32h5xx_hal_msp.o
HAL_ADC_MspInit                                   build/stm32h5xx_hal_msp.o
HAL_ADC_PollForConversion                         build/stm32h5xx_hal_adc.o
HAL_ADC_PollForEvent                              build/stm32h5xx_hal_adc.o
HAL_ADC_Start                                     build/stm32h5xx_hal_adc.o
HAL_ADC_StartSampling                             build/stm32h5xx_hal_adc.o
HAL_ADC_Start_DMA                                 build/stm32h5xx_hal_adc.o
HAL_ADC_Start_IT                                  build/stm32h5xx_hal_adc.o
HAL_ADC_Stop                                      build/stm32h5xx_hal_adc.o
HAL_ADC_StopSampling                              build/stm32h5xx_hal_adc.o
HAL_ADC_Stop_DMA                                  build/stm32h5xx_hal_adc.o
HAL_ADC_Stop_IT                                   build/stm32h5xx_hal_adc.o
HAL_DBGMCU_DisableDBGStandbyMode                  build/stm32h5xx_hal.o
HAL_DBGMCU_DisableDBGStopMode                     build/stm32h5xx_hal.o
HAL_DBGMCU_EnableDBGStandbyMode                   build/stm32h5xx_hal.o
HAL_DBGMCU_EnableDBGStopMode                      build/stm32h5xx_hal.o
HAL_DMAEx_ConfigDataHandling                      build/stm32h5xx_hal_dma_ex.o
HAL_DMAEx_ConfigRepeatBlock                       build/stm32h5xx_hal_dma_ex.o
HAL_DMAEx_ConfigTrigger                           build/stm32h5xx_hal_dma_ex.o
HAL_DMAEx_GetFifoLevel                            build/stm32h5xx_hal_dma_ex.o
HAL_DMAEx_List_BuildNode                          build/stm32h5xx_hal_dma_ex.o
HAL_DMAEx_List_ClearCircularMode                  build/stm32h5xx_hal_dma_ex.o
HAL_DMAEx_List_ConvertQToDynamic                  build/stm32h5xx_hal_dma_ex.o
HAL_DMAEx_List_ConvertQToStatic                   build/stm32h5xx_hal_dma_ex.o
HAL_DMAEx_List_DeInit                             build/stm32h5xx_hal_dma_ex.o
HAL_DMAEx_List_GetNodeConfig                      build/stm32h5xx_hal_dma_ex.o
                                                  build/stm32h5xx_hal_adc.o
HAL_DMAEx_List_Init                               build/stm32h5xx_hal_dma_ex.o
HAL_DMAEx_List_InsertNode                         build/stm32h5xx_hal_dma_ex.o
HAL_DMAEx_List_InsertNode_Head                    build/stm32h5xx_hal_dma_ex.o
HAL_DMAEx_List_InsertNode_Tail                    build/stm32h5xx_hal_dma_ex.o
HAL_DMAEx_List_InsertQ                            build/stm32h5xx_hal_dma_ex.o
HAL_DMAEx_List_InsertQ_Head                       build/stm32h5xx_hal_dma_ex.o
HAL_DMAEx_List_InsertQ_Tail                       build/stm32h5xx_hal_dma_ex.o
HAL_DMAEx_List_LinkQ                              build/stm32h5xx_hal_dma_ex.o
HAL_DMAEx_List_RemoveNode                         build/stm32h5xx_hal_dma_ex.o
HAL_DMAEx_List_RemoveNode_Head                    build/stm32h5xx_hal_dma_ex.o
HAL_DMAEx_List_RemoveNode_Tail                    build/stm32h5xx_hal_dma_ex.o
HAL_DMAEx_List_ReplaceNode                        build/stm32h5xx_hal_dma_ex.o
HAL_DMAEx_List_ReplaceNode_Head                   build/stm32h5xx_hal_dma_ex.o
HAL_DMAEx_List_ReplaceNode_Tail                   build/stm32h5xx_hal_dma_ex.o
HAL_DMAEx_List_ResetQ                             build/stm32h5xx_hal_dma_ex.o
HAL_DMAEx_List_SetCircularMode                    build/stm32h5xx_hal_dma_ex.o
HAL_DMAEx_List_SetCircularModeConfig              build/stm32h5xx_hal_dma_ex.o
HAL_DMAEx_List_Start                              build/stm32h5xx_hal_dma_ex.o
HAL_DMAEx_List_Start_IT                           build/stm32h5xx_hal_dma_ex.o
                                                  build/stm32h5xx_hal_spi.o
                                                  build/stm32h5xx_hal_adc.o
                                                  build/stm32h5xx_hal_uart.o
                                                  build/stm32h5xx_hal_tim.o
HAL_DMAEx_List_UnLinkQ                            build/stm32h5xx_hal_dma_ex.o
HAL_DMAEx_Resume                                  build/stm32h5xx_hal_dma_ex.o
                                                  build/stm32h5xx_hal_uart.o
HAL_DMAEx_Suspend                                 build/stm32h5xx_hal_dma_ex.o
                                                  build/stm32h5xx_hal_uart.o
HAL_DMAEx_Suspend_IT                              build/stm32h5xx_hal_dma_ex.o
HAL_DMA_Abort                                     build/stm32h5xx_hal_dma.o
                                                  build/stm32h5xx_hal_spi.o
                                                  build/stm32h5xx_hal_adc_ex.o
                                                  build/stm32h5xx_hal_adc.o
                                                  build/stm32h5xx_hal_uart.o
HAL_DMA_Abort_IT                                  build/stm32h5xx_hal_dma.o
                                                  build/stm32h5xx_hal_spi.o
                                                  build/stm32h5xx_hal_uart.o
                                                  build/stm32h5xx_hal_tim_ex.o
                                                  build/stm32h5xx_hal_tim.o
HAL_DMA_ConfigChannelAttributes                   build/stm32h5xx_hal_dma.o
                                                  build/stm32h5xx_hal_msp.o
HAL_DMA_DeInit                                    build/stm32h5xx_hal_dma.o
                                                  build/stm32h5xx_hal_msp.o
HAL_DMA_GetConfigChannelAttributes                build/stm32h5xx_hal_dma.o
HAL_DMA_GetError                                  build/stm32h5xx_hal_dma.o
                                                  build/stm32h5xx_hal_spi.o
                                                  build/stm32h5xx_hal_uart.o
HAL_DMA_GetState                                  build/stm32h5xx_hal_dma.o
HAL_DMA_IRQHandler                                build/stm32h5xx_hal_dma.o
                                                  build/stm32h5xx_it.o
HAL_DMA_Init                                      build/stm32h5xx_hal_dma.o
                                                  build/stm32h5xx_hal_msp.o
HAL_DMA_PollForTransfer                           build/stm32h5xx_hal_dma.o
HAL_DMA_RegisterCallback                          build/stm32h5xx_hal_dma.o
HAL_DMA_Start                                     build/stm32h5xx_hal_dma.o
HAL_DMA_Start_IT                                  build/stm32h5xx_hal_dma.o
                                                  build/stm32h5xx_hal_spi.o
                                                  build/stm32h5xx_hal_adc.o
                                                  build/stm32h5xx_hal_uart.o
                                                  build/stm32h5xx_hal_tim.o
HAL_DMA_UnRegisterCallback                        build/stm32h5xx_hal_dma.o
HAL_DeInit                                        build/stm32h5xx_hal.o
HAL_Delay                                         build/stm32h5xx_hal.o
                                                  build/stm32h5xx_ll_usb.o
                                                  build/stm32h5xx_hal_pcd_ex.o
HAL_EXTI_ClearConfigLine                          build/stm32h5xx_hal_exti.o
HAL_EXTI_ClearPending                             build/stm32h5xx_hal_exti.o
HAL_EXTI_ConfigLineAttributes                     build/stm32h5xx_hal_exti.o
HAL_EXTI_GenerateSWI                              build/stm32h5xx_hal_exti.o
HAL_EXTI_GetConfigLine                            build/stm32h5xx_hal_exti.o
HAL_EXTI_GetConfigLineAttributes                  build/stm32h5xx_hal_exti.o
HAL_EXTI_GetHandle                                build/stm32h5xx_hal_exti.o
                                                  build/stm32h5xx_nucleo.o
HAL_EXTI_GetPending                               build/stm32h5xx_hal_exti.o
HAL_EXTI_IRQHandler                               build/stm32h5xx_hal_exti.o
                                                  build/stm32h5xx_nucleo.o
HAL_EXTI_RegisterCallback                         build/stm32h5xx_hal_exti.o
                                                  build/stm32h5xx_nucleo.o
HAL_EXTI_SetConfigLine                            build/stm32h5xx_hal_exti.o
HAL_FLASHEx_ConfigBBAttributes                    build/stm32h5xx_hal_flash_ex.o
HAL_FLASHEx_ConfigHDPExtension                    build/stm32h5xx_hal_flash_ex.o
HAL_FLASHEx_ConfigPrivMode                        build/stm32h5xx_hal_flash_ex.o
HAL_FLASHEx_DisableEccCorrectionInterrupt         build/stm32h5xx_hal_flash_ex.o
HAL_FLASHEx_ECCD_IRQHandler                       build/stm32h5xx_hal_flash_ex.o
HAL_FLASHEx_EccCorrectionCallback                 build/stm32h5xx_hal_flash_ex.o
                                                  build/stm32h5xx_hal_flash.o
HAL_FLASHEx_EccDetectionCallback                  build/stm32h5xx_hal_flash_ex.o
HAL_FLASHEx_EnableEccCorrectionInterrupt          build/stm32h5xx_hal_flash_ex.o
HAL_FLASHEx_Erase                                 build/stm32h5xx_hal_flash_ex.o
HAL_FLASHEx_Erase_IT                              build/stm32h5xx_hal_flash_ex.o
HAL_FLASHEx_GetConfigBBAttributes                 build/stm32h5xx_hal_flash_ex.o
HAL_FLASHEx_GetEccInfo                            build/stm32h5xx_hal_flash_ex.o
HAL_FLASHEx_GetOperation                          build/stm32h5xx_hal_flash_ex.o
HAL_FLASHEx_GetPrivMode                           build/stm32h5xx_hal_flash_ex.o
HAL_FLASHEx_OBGetConfig                           build/stm32h5xx_hal_flash_ex.o
HAL_FLASHEx_OBProgram                             build/stm32h5xx_hal_flash_ex.o
HAL_FLASH_EndOfOperationCallback                  build/stm32h5xx_hal_flash.o
HAL_FLASH_GetError                                build/stm32h5xx_hal_flash.o
HAL_FLASH_IRQHandler                              build/stm32h5xx_hal_flash.o
HAL_FLASH_Lock                                    build/stm32h5xx_hal_flash.o
HAL_FLASH_OB_Launch                               build/stm32h5xx_hal_flash.o
HAL_FLASH_OB_Lock                                 build/stm32h5xx_hal_flash.o
HAL_FLASH_OB_Unlock                               build/stm32h5xx_hal_flash.o
HAL_FLASH_OperationErrorCallback                  build/stm32h5xx_hal_flash.o
HAL_FLASH_Program                                 build/stm32h5xx_hal_flash.o
HAL_FLASH_Program_IT                              build/stm32h5xx_hal_flash.o
HAL_FLASH_Unlock                                  build/stm32h5xx_hal_flash.o
HAL_GPIO_DeInit                                   build/stm32h5xx_hal_gpio.o
                                                  build/stm32h5xx_nucleo.o
                                                  build/stm32h5xx_hal_msp.o
HAL_GPIO_DisableHighSPeedLowVoltage               build/stm32h5xx_hal_gpio.o
HAL_GPIO_EXTI_Falling_Callback                    build/stm32h5xx_hal_gpio.o
HAL_GPIO_EXTI_IRQHandler                          build/stm32h5xx_hal_gpio.o
                                                  build/stm32h5xx_it.o
HAL_GPIO_EXTI_Rising_Callback                     build/stm32h5xx_hal_gpio.o
HAL_GPIO_EnableHighSPeedLowVoltage                build/stm32h5xx_hal_gpio.o
HAL_GPIO_Init                                     build/stm32h5xx_hal_gpio.o
                                                  build/stm32h5xx_hal_rcc.o
                                                  build/stm32h5xx_nucleo.o
                                                  build/stm32h5xx_hal_msp.o
                                                  build/main.o
HAL_GPIO_LockPin                                  build/stm32h5xx_hal_gpio.o
HAL_GPIO_ReadPin                                  build/stm32h5xx_hal_gpio.o
                                                  build/stm32h5xx_nucleo.o
HAL_GPIO_TogglePin                                build/stm32h5xx_hal_gpio.o
                                                  build/stm32h5xx_nucleo.o
HAL_GPIO_WriteMultipleStatePin                    build/stm32h5xx_hal_gpio.o
HAL_GPIO_WritePin                                 build/stm32h5xx_hal_gpio.o
                                                  build/stm32h5xx_nucleo.o
                                                  build/main.o
HAL_GetDEVID                                      build/stm32h5xx_hal.o
HAL_GetHalVersion                                 build/stm32h5xx_hal.o
HAL_GetREVID                                      build/stm32h5xx_hal.o
HAL_GetTick                                       build/stm32h5xx_hal.o
                                                  build/stm32h5xx_hal_pcd_ex.o
                                                  build/stm32h5xx_hal_spi.o
                                                  build/stm32h5xx_hal_adc_ex.o
                                                  build/stm32h5xx_hal_adc.o
                                                  build/stm32h5xx_hal_icache.o
                                                  build/stm32h5xx_hal_uart.o
                                                  build/stm32h5xx_hal_uart_ex.o
                                                  build/stm32h5xx_hal_tim_ex.o
                                                  build/stm32h5xx_hal_pwr_ex.o
                                                  build/stm32h5xx_hal_dma_ex.o
                                                  build/stm32h5xx_hal_dma.o
                                                  build/stm32h5xx_hal_flash.o
                                                  build/stm32h5xx_hal_rcc_ex.o
                                                  build/stm32h5xx_hal_rcc.o
                                                  build/main.o
HAL_GetTickFreq                                   build/stm32h5xx_hal.o
HAL_GetTickPrio                                   build/stm32h5xx_hal.o
HAL_GetUIDw0                                      build/stm32h5xx_hal.o
HAL_GetUIDw1                                      build/stm32h5xx_hal.o
HAL_GetUIDw2                                      build/stm32h5xx_hal.o
HAL_HalfDuplex_EnableReceiver                     build/stm32h5xx_hal_uart.o
HAL_HalfDuplex_EnableTransmitter                  build/stm32h5xx_hal_uart.o
HAL_HalfDuplex_Init                               build/stm32h5xx_hal_uart.o
HAL_ICACHE_ConfigAssociativityMode                build/stm32h5xx_hal_icache.o
HAL_ICACHE_DeInit                                 build/stm32h5xx_hal_icache.o
HAL_ICACHE_Disable                                build/stm32h5xx_hal_icache.o
HAL_ICACHE_Enable                                 build/stm32h5xx_hal_icache.o
                                                  build/main.o
HAL_ICACHE_ErrorCallback                          build/stm32h5xx_hal_icache.o
HAL_ICACHE_IRQHandler                             build/stm32h5xx_hal_icache.o
HAL_ICACHE_Invalidate                             build/stm32h5xx_hal_icache.o
HAL_ICACHE_InvalidateCompleteCallback             build/stm32h5xx_hal_icache.o
HAL_ICACHE_Invalidate_IT                          build/stm32h5xx_hal_icache.o
HAL_ICACHE_IsEnabled                              build/stm32h5xx_hal_icache.o
HAL_ICACHE_Monitor_GetHitValue                    build/stm32h5xx_hal_icache.o
HAL_ICACHE_Monitor_GetMissValue                   build/stm32h5xx_hal_icache.o
HAL_ICACHE_Monitor_Reset                          build/stm32h5xx_hal_icache.o
HAL_ICACHE_Monitor_Start                          build/stm32h5xx_hal_icache.o
HAL_ICACHE_Monitor_Stop                           build/stm32h5xx_hal_icache.o
HAL_ICACHE_WaitForInvalidateComplete              build/stm32h5xx_hal_icache.o
HAL_IncTick                                       build/stm32h5xx_hal.o
                                                  build/stm32h5xx_it.o
HAL_Init                                          build/stm32h5xx_hal.o
                                                  build/main.o
HAL_InitTick                                      build/stm32h5xx_hal.o
                                                  build/stm32h5xx_hal_rcc.o
HAL_LIN_Init                                      build/stm32h5xx_hal_uart.o
HAL_LIN_SendBreak                                 build/stm32h5xx_hal_uart.o
HAL_MPU_ConfigMemoryAttributes                    build/stm32h5xx_hal_cortex.o
HAL_MPU_ConfigRegion                              build/stm32h5xx_hal_cortex.o
HAL_MPU_Disable                                   build/stm32h5xx_hal_cortex.o
HAL_MPU_DisableRegion                             build/stm32h5xx_hal_cortex.o
HAL_MPU_Enable                                    build/stm32h5xx_hal_cortex.o
HAL_MPU_EnableRegion                              build/stm32h5xx_hal_cortex.o
HAL_MspDeInit                                     build/stm32h5xx_hal.o
HAL_MspInit                                       build/stm32h5xx_hal_msp.o
HAL_MultiProcessorEx_AddressLength_Set            build/stm32h5xx_hal_uart_ex.o
HAL_MultiProcessor_DisableMuteMode                build/stm32h5xx_hal_uart.o
HAL_MultiProcessor_EnableMuteMode                 build/stm32h5xx_hal_uart.o
HAL_MultiProcessor_EnterMuteMode                  build/stm32h5xx_hal_uart.o
HAL_MultiProcessor_Init                           build/stm32h5xx_hal_uart.o
HAL_NVIC_ClearPendingIRQ                          build/stm32h5xx_hal_cortex.o
HAL_NVIC_DisableIRQ                               build/stm32h5xx_hal_cortex.o
                                                  build/stm32h5xx_nucleo.o
HAL_NVIC_EnableIRQ                                build/stm32h5xx_hal_cortex.o
                                                  build/stm32h5xx_nucleo.o
                                                  build/main.o
HAL_NVIC_GetActive                                build/stm32h5xx_hal_cortex.o
HAL_NVIC_GetPendingIRQ                            build/stm32h5xx_hal_cortex.o
HAL_NVIC_GetPriority                              build/stm32h5xx_hal_cortex.o
HAL_NVIC_GetPriorityGrouping                      build/stm32h5xx_hal_cortex.o
HAL_NVIC_SetPendingIRQ                            build/stm32h5xx_hal_cortex.o
HAL_NVIC_SetPriority                              build/stm32h5xx_hal_cortex.o
                                                  build/stm32h5xx_hal.o
                                                  build/stm32h5xx_nucleo.o
                                                  build/main.o
HAL_NVIC_SetPriorityGrouping                      build/stm32h5xx_hal_cortex.o
                                                  build/stm32h5xx_hal.o
HAL_NVIC_SystemReset                              build/stm32h5xx_hal_cortex.o
HAL_PCDEx_ActivateBCD                             build/stm32h5xx_hal_pcd_ex.o
HAL_PCDEx_ActivateLPM                             build/stm32h5xx_hal_pcd_ex.o
                                                  build/stm32h5xx_hal_pcd.o
HAL_PCDEx_BCD_Callback                            build/stm32h5xx_hal_pcd_ex.o
HAL_PCDEx_BCD_VBUSDetect                          build/stm32h5xx_hal_pcd_ex.o
HAL_PCDEx_DeActivateBCD                           build/stm32h5xx_hal_pcd_ex.o
HAL_PCDEx_DeActivateLPM                           build/stm32h5xx_hal_pcd_ex.o
HAL_PCDEx_LPM_Callback                            build/stm32h5xx_hal_pcd_ex.o
                                                  build/stm32h5xx_hal_pcd.o
HAL_PCDEx_PMAConfig                               build/stm32h5xx_hal_pcd_ex.o
HAL_PCD_ActivateRemoteWakeup                      build/stm32h5xx_hal_pcd.o
HAL_PCD_ConnectCallback                           build/stm32h5xx_hal_pcd.o
HAL_PCD_DataInStageCallback                       build/stm32h5xx_hal_pcd.o
HAL_PCD_DataOutStageCallback                      build/stm32h5xx_hal_pcd.o
HAL_PCD_DeActivateRemoteWakeup                    build/stm32h5xx_hal_pcd.o
HAL_PCD_DeInit                                    build/stm32h5xx_hal_pcd.o
HAL_PCD_DevConnect                                build/stm32h5xx_hal_pcd.o
HAL_PCD_DevDisconnect                             build/stm32h5xx_hal_pcd.o
HAL_PCD_DisconnectCallback                        build/stm32h5xx_hal_pcd.o
HAL_PCD_EP_Abort                                  build/stm32h5xx_hal_pcd.o
HAL_PCD_EP_Close                                  build/stm32h5xx_hal_pcd.o
HAL_PCD_EP_ClrStall                               build/stm32h5xx_hal_pcd.o
HAL_PCD_EP_Flush                                  build/stm32h5xx_hal_pcd.o
HAL_PCD_EP_GetRxCount                             build/stm32h5xx_hal_pcd.o
HAL_PCD_EP_Open                                   build/stm32h5xx_hal_pcd.o
HAL_PCD_EP_Receive                                build/stm32h5xx_hal_pcd.o
HAL_PCD_EP_SetStall                               build/stm32h5xx_hal_pcd.o
HAL_PCD_EP_Transmit                               build/stm32h5xx_hal_pcd.o
HAL_PCD_GetState                                  build/stm32h5xx_hal_pcd.o
HAL_PCD_IRQHandler                                build/stm32h5xx_hal_pcd.o
HAL_PCD_ISOINIncompleteCallback                   build/stm32h5xx_hal_pcd.o
HAL_PCD_ISOOUTIncompleteCallback                  build/stm32h5xx_hal_pcd.o
HAL_PCD_Init                                      build/stm32h5xx_hal_pcd.o
                                                  build/main.o
HAL_PCD_MspDeInit                                 build/stm32h5xx_hal_msp.o
HAL_PCD_MspInit                                   build/stm32h5xx_hal_msp.o
HAL_PCD_ResetCallback                             build/stm32h5xx_hal_pcd.o
HAL_PCD_ResumeCallback                            build/stm32h5xx_hal_pcd.o
HAL_PCD_SOFCallback                               build/stm32h5xx_hal_pcd.o
HAL_PCD_SetAddress                                build/stm32h5xx_hal_pcd.o
HAL_PCD_SetupStageCallback                        build/stm32h5xx_hal_pcd.o
HAL_PCD_Start                                     build/stm32h5xx_hal_pcd.o
HAL_PCD_Stop                                      build/stm32h5xx_hal_pcd.o
HAL_PCD_SuspendCallback                           build/stm32h5xx_hal_pcd.o
HAL_PWREx_ConfigAVD                               build/stm32h5xx_hal_pwr_ex.o
HAL_PWREx_ConfigSupply                            build/stm32h5xx_hal_pwr_ex.o
HAL_PWREx_ControlStopModeVoltageScaling           build/stm32h5xx_hal_pwr_ex.o
HAL_PWREx_ControlVoltageScaling                   build/stm32h5xx_hal_pwr_ex.o
HAL_PWREx_DisableAVD                              build/stm32h5xx_hal_pwr_ex.o
HAL_PWREx_DisableAnalogBooster                    build/stm32h5xx_hal_pwr_ex.o
HAL_PWREx_DisableBatteryCharging                  build/stm32h5xx_hal_pwr_ex.o
HAL_PWREx_DisableBkupRAMRetention                 build/stm32h5xx_hal_pwr_ex.o
HAL_PWREx_DisableFlashPowerDown                   build/stm32h5xx_hal_pwr_ex.o
HAL_PWREx_DisableMemoryShutOff                    build/stm32h5xx_hal_pwr_ex.o
HAL_PWREx_DisableMonitoring                       build/stm32h5xx_hal_pwr_ex.o
HAL_PWREx_DisableStandbyIORetention               build/stm32h5xx_hal_pwr_ex.o
HAL_PWREx_DisableStandbyJTAGIORetention           build/stm32h5xx_hal_pwr_ex.o
HAL_PWREx_DisableWakeUpPin                        build/stm32h5xx_hal_pwr_ex.o
HAL_PWREx_EnableAVD                               build/stm32h5xx_hal_pwr_ex.o
HAL_PWREx_EnableAnalogBooster                     build/stm32h5xx_hal_pwr_ex.o
HAL_PWREx_EnableBatteryCharging                   build/stm32h5xx_hal_pwr_ex.o
HAL_PWREx_EnableBkupRAMRetention                  build/stm32h5xx_hal_pwr_ex.o
HAL_PWREx_EnableFlashPowerDown                    build/stm32h5xx_hal_pwr_ex.o
HAL_PWREx_EnableMemoryShutOff                     build/stm32h5xx_hal_pwr_ex.o
HAL_PWREx_EnableMonitoring                        build/stm32h5xx_hal_pwr_ex.o
HAL_PWREx_EnableStandbyIORetention                build/stm32h5xx_hal_pwr_ex.o
HAL_PWREx_EnableStandbyJTAGIORetention            build/stm32h5xx_hal_pwr_ex.o
HAL_PWREx_EnableWakeUpPin                         build/stm32h5xx_hal_pwr_ex.o
HAL_PWREx_GetStopModeVoltageRange                 build/stm32h5xx_hal_pwr_ex.o
HAL_PWREx_GetSupplyConfig                         build/stm32h5xx_hal_pwr_ex.o
HAL_PWREx_GetVoltageRange                         build/stm32h5xx_hal_pwr_ex.o
HAL_PWREx_PVD_AVD_Falling_Callback                build/stm32h5xx_hal_pwr_ex.o
HAL_PWREx_PVD_AVD_IRQHandler                      build/stm32h5xx_hal_pwr_ex.o
HAL_PWREx_PVD_AVD_Rising_Callback                 build/stm32h5xx_hal_pwr_ex.o
HAL_PWR_ConfigAttributes                          build/stm32h5xx_hal_pwr.o
HAL_PWR_ConfigPVD                                 build/stm32h5xx_hal_pwr.o
HAL_PWR_DeInit                                    build/stm32h5xx_hal_pwr.o
HAL_PWR_DisableBkUpAccess                         build/stm32h5xx_hal_pwr.o
                                                  build/stm32h5xx_hal_rcc_ex.o
HAL_PWR_DisablePVD                                build/stm32h5xx_hal_pwr.o
HAL_PWR_DisableSEVOnPend                          build/stm32h5xx_hal_pwr.o
HAL_PWR_DisableSleepOnExit                        build/stm32h5xx_hal_pwr.o
HAL_PWR_DisableWakeUpPin                          build/stm32h5xx_hal_pwr.o
HAL_PWR_EnableBkUpAccess                          build/stm32h5xx_hal_pwr.o
                                                  build/stm32h5xx_hal_rcc_ex.o
HAL_PWR_EnablePVD                                 build/stm32h5xx_hal_pwr.o
HAL_PWR_EnableSEVOnPend                           build/stm32h5xx_hal_pwr.o
HAL_PWR_EnableSleepOnExit                         build/stm32h5xx_hal_pwr.o
HAL_PWR_EnableWakeUpPin                           build/stm32h5xx_hal_pwr.o
HAL_PWR_EnterSLEEPMode                            build/stm32h5xx_hal_pwr.o
HAL_PWR_EnterSTANDBYMode                          build/stm32h5xx_hal_pwr.o
HAL_PWR_EnterSTOPMode                             build/stm32h5xx_hal_pwr.o
HAL_PWR_GetConfigAttributes                       build/stm32h5xx_hal_pwr.o
HAL_PWR_PVDCallback                               build/stm32h5xx_hal_pwr.o
HAL_PWR_PVD_IRQHandler                            build/stm32h5xx_hal_pwr.o
HAL_RCCEx_CRSConfig                               build/stm32h5xx_hal_rcc_ex.o
HAL_RCCEx_CRSGetSynchronizationInfo               build/stm32h5xx_hal_rcc_ex.o
HAL_RCCEx_CRSSoftwareSynchronizationGenerate      build/stm32h5xx_hal_rcc_ex.o
HAL_RCCEx_CRSWaitSynchronization                  build/stm32h5xx_hal_rcc_ex.o
HAL_RCCEx_CRS_ErrorCallback                       build/stm32h5xx_hal_rcc_ex.o
HAL_RCCEx_CRS_ExpectedSyncCallback                build/stm32h5xx_hal_rcc_ex.o
HAL_RCCEx_CRS_IRQHandler                          build/stm32h5xx_hal_rcc_ex.o
HAL_RCCEx_CRS_SyncOkCallback                      build/stm32h5xx_hal_rcc_ex.o
HAL_RCCEx_CRS_SyncWarnCallback                    build/stm32h5xx_hal_rcc_ex.o
HAL_RCCEx_DisableLSCO                             build/stm32h5xx_hal_rcc_ex.o
HAL_RCCEx_DisableLSECSS                           build/stm32h5xx_hal_rcc_ex.o
HAL_RCCEx_DisablePLL2                             build/stm32h5xx_hal_rcc_ex.o
HAL_RCCEx_EnableLSCO                              build/stm32h5xx_hal_rcc_ex.o
HAL_RCCEx_EnableLSECSS                            build/stm32h5xx_hal_rcc_ex.o
HAL_RCCEx_EnablePLL2                              build/stm32h5xx_hal_rcc_ex.o
HAL_RCCEx_GetPLL1ClockFreq                        build/stm32h5xx_hal_rcc_ex.o
HAL_RCCEx_GetPLL2ClockFreq                        build/stm32h5xx_hal_rcc_ex.o
HAL_RCCEx_GetPeriphCLKConfig                      build/stm32h5xx_hal_rcc_ex.o
HAL_RCCEx_GetPeriphCLKFreq                        build/stm32h5xx_hal_rcc_ex.o
                                                  build/stm32h5xx_hal_uart.o
HAL_RCCEx_KerWakeUpStopCLKConfig                  build/stm32h5xx_hal_rcc_ex.o
HAL_RCCEx_LSECSS_Callback                         build/stm32h5xx_hal_rcc_ex.o
HAL_RCCEx_LSECSS_IRQHandler                       build/stm32h5xx_hal_rcc_ex.o
HAL_RCCEx_PeriphCLKConfig                         build/stm32h5xx_hal_rcc_ex.o
                                                  build/stm32h5xx_hal_msp.o
                                                  build/main.o
HAL_RCCEx_WakeUpStopCLKConfig                     build/stm32h5xx_hal_rcc_ex.o
HAL_RCC_CSSCallback                               build/stm32h5xx_hal_rcc.o
HAL_RCC_ClockConfig                               build/stm32h5xx_hal_rcc.o
                                                  build/main.o
HAL_RCC_ConfigAttributes                          build/stm32h5xx_hal_rcc.o
HAL_RCC_DeInit                                    build/stm32h5xx_hal_rcc.o
HAL_RCC_EnableCSS                                 build/stm32h5xx_hal_rcc.o
HAL_RCC_GetClockConfig                            build/stm32h5xx_hal_rcc.o
HAL_RCC_GetConfigAttributes                       build/stm32h5xx_hal_rcc.o
HAL_RCC_GetHCLKFreq                               build/stm32h5xx_hal_rcc.o
                                                  build/stm32h5xx_hal_rcc_ex.o
HAL_RCC_GetOscConfig                              build/stm32h5xx_hal_rcc.o
HAL_RCC_GetPCLK1Freq                              build/stm32h5xx_hal_rcc.o
                                                  build/stm32h5xx_hal_rcc_ex.o
HAL_RCC_GetPCLK2Freq                              build/stm32h5xx_hal_rcc.o
                                                  build/stm32h5xx_hal_rcc_ex.o
HAL_RCC_GetPCLK3Freq                              build/stm32h5xx_hal_rcc.o
                                                  build/stm32h5xx_hal_rcc_ex.o
HAL_RCC_GetResetSource                            build/stm32h5xx_hal_rcc.o
HAL_RCC_GetSysClockFreq                           build/stm32h5xx_hal_rcc.o
                                                  build/stm32h5xx_hal.o
                                                  build/stm32h5xx_hal_rcc_ex.o
HAL_RCC_MCOConfig                                 build/stm32h5xx_hal_rcc.o
HAL_RCC_NMI_IRQHandler                            build/stm32h5xx_hal_rcc.o
HAL_RCC_OscConfig                                 build/stm32h5xx_hal_rcc.o
                                                  build/main.o
HAL_RS485Ex_Init                                  build/stm32h5xx_hal_uart_ex.o
HAL_ResumeTick                                    build/stm32h5xx_hal.o
HAL_SBS_ConfigDebugLevel                          build/stm32h5xx_hal.o
HAL_SBS_DisableVddIO1CompensationCell             build/stm32h5xx_hal.o
HAL_SBS_DisableVddIO2CompensationCell             build/stm32h5xx_hal.o
HAL_SBS_EnableVddIO1CompensationCell              build/stm32h5xx_hal.o
HAL_SBS_EnableVddIO2CompensationCell              build/stm32h5xx_hal.o
HAL_SBS_FLASH_DisableECCNMI                       build/stm32h5xx_hal.o
HAL_SBS_FLASH_ECCNMI_IsDisabled                   build/stm32h5xx_hal.o
HAL_SBS_FLASH_EnableECCNMI                        build/stm32h5xx_hal.o
HAL_SBS_GetDebugLevel                             build/stm32h5xx_hal.o
HAL_SBS_GetHDPLValue                              build/stm32h5xx_hal.o
HAL_SBS_GetLock                                   build/stm32h5xx_hal.o
HAL_SBS_GetNMOSVddCompensationValue               build/stm32h5xx_hal.o
HAL_SBS_GetNMOSVddIO2CompensationValue            build/stm32h5xx_hal.o
HAL_SBS_GetPMOSVddCompensationValue               build/stm32h5xx_hal.o
HAL_SBS_GetPMOSVddIO2CompensationValue            build/stm32h5xx_hal.o
HAL_SBS_GetVddIO1CompensationCellReadyFlag        build/stm32h5xx_hal.o
HAL_SBS_GetVddIO2CompensationCellReadyFlag        build/stm32h5xx_hal.o
HAL_SBS_IncrementHDPLValue                        build/stm32h5xx_hal.o
HAL_SBS_Lock                                      build/stm32h5xx_hal.o
HAL_SBS_LockDebugConfig                           build/stm32h5xx_hal.o
HAL_SBS_OpenAccessPort                            build/stm32h5xx_hal.o
HAL_SBS_OpenDebug                                 build/stm32h5xx_hal.o
HAL_SBS_VDDCompensationCodeConfig                 build/stm32h5xx_hal.o
HAL_SBS_VDDCompensationCodeSelect                 build/stm32h5xx_hal.o
HAL_SBS_VDDIOCompensationCodeConfig               build/stm32h5xx_hal.o
HAL_SBS_VDDIOCompensationCodeSelect               build/stm32h5xx_hal.o
HAL_SPIEx_ConfigureUnderrun                       build/stm32h5xx_hal_spi_ex.o
HAL_SPIEx_EnableLockConfiguration                 build/stm32h5xx_hal_spi_ex.o
HAL_SPIEx_FlushRxFifo                             build/stm32h5xx_hal_spi_ex.o
HAL_SPI_Abort                                     build/stm32h5xx_hal_spi.o
HAL_SPI_AbortCpltCallback                         build/stm32h5xx_hal_spi.o
HAL_SPI_Abort_IT                                  build/stm32h5xx_hal_spi.o
HAL_SPI_DMAPause                                  build/stm32h5xx_hal_spi.o
HAL_SPI_DMAResume                                 build/stm32h5xx_hal_spi.o
HAL_SPI_DMAStop                                   build/stm32h5xx_hal_spi.o
HAL_SPI_DeInit                                    build/stm32h5xx_hal_spi.o
HAL_SPI_ErrorCallback                             build/stm32h5xx_hal_spi.o
HAL_SPI_GetError                                  build/stm32h5xx_hal_spi.o
HAL_SPI_GetState                                  build/stm32h5xx_hal_spi.o
HAL_SPI_IRQHandler                                build/stm32h5xx_hal_spi.o
HAL_SPI_Init                                      build/stm32h5xx_hal_spi.o
                                                  build/main.o
HAL_SPI_MspDeInit                                 build/stm32h5xx_hal_msp.o
HAL_SPI_MspInit                                   build/stm32h5xx_hal_msp.o
HAL_SPI_Receive                                   build/stm32h5xx_hal_spi.o
HAL_SPI_Receive_DMA                               build/stm32h5xx_hal_spi.o
HAL_SPI_Receive_IT                                build/stm32h5xx_hal_spi.o
HAL_SPI_RxCpltCallback                            build/stm32h5xx_hal_spi.o
HAL_SPI_RxHalfCpltCallback                        build/stm32h5xx_hal_spi.o
HAL_SPI_SuspendCallback                           build/stm32h5xx_hal_spi.o
HAL_SPI_Transmit                                  build/stm32h5xx_hal_spi.o
HAL_SPI_TransmitReceive                           build/stm32h5xx_hal_spi.o
HAL_SPI_TransmitReceive_DMA                       build/stm32h5xx_hal_spi.o
HAL_SPI_TransmitReceive_IT                        build/stm32h5xx_hal_spi.o
HAL_SPI_Transmit_DMA                              build/stm32h5xx_hal_spi.o
HAL_SPI_Transmit_IT                               build/stm32h5xx_hal_spi.o
HAL_SPI_TxCpltCallback                            build/stm32h5xx_hal_spi.o
HAL_SPI_TxHalfCpltCallback                        build/stm32h5xx_hal_spi.o
HAL_SPI_TxRxCpltCallback                          build/stm32h5xx_hal_spi.o
HAL_SPI_TxRxHalfCpltCallback                      build/stm32h5xx_hal_spi.o
HAL_SYSTICK_CLKSourceConfig                       build/stm32h5xx_hal_cortex.o
                                                  build/stm32h5xx_hal.o
HAL_SYSTICK_Callback                              build/stm32h5xx_hal_cortex.o
HAL_SYSTICK_Config                                build/stm32h5xx_hal_cortex.o
                                                  build/stm32h5xx_hal.o
HAL_SYSTICK_GetCLKSourceConfig                    build/stm32h5xx_hal_cortex.o
                                                  build/stm32h5xx_hal.o
HAL_SYSTICK_IRQHandler                            build/stm32h5xx_hal_cortex.o
HAL_SetTickFreq                                   build/stm32h5xx_hal.o
HAL_SuspendTick                                   build/stm32h5xx_hal.o
HAL_TIMEx_Break2Callback                          build/stm32h5xx_hal_tim_ex.o
                                                  build/stm32h5xx_hal_tim.o
HAL_TIMEx_BreakCallback                           build/stm32h5xx_hal_tim_ex.o
                                                  build/stm32h5xx_hal_tim.o
HAL_TIMEx_CommutCallback                          build/stm32h5xx_hal_tim_ex.o
                                                  build/stm32h5xx_hal_tim.o
HAL_TIMEx_CommutHalfCpltCallback                  build/stm32h5xx_hal_tim_ex.o
HAL_TIMEx_ConfigAsymmetricalDeadTime              build/stm32h5xx_hal_tim_ex.o
HAL_TIMEx_ConfigBreakDeadTime                     build/stm32h5xx_hal_tim_ex.o
                                                  build/main.o
HAL_TIMEx_ConfigBreakInput                        build/stm32h5xx_hal_tim_ex.o
HAL_TIMEx_ConfigCommutEvent                       build/stm32h5xx_hal_tim_ex.o
HAL_TIMEx_ConfigCommutEvent_DMA                   build/stm32h5xx_hal_tim_ex.o
HAL_TIMEx_ConfigCommutEvent_IT                    build/stm32h5xx_hal_tim_ex.o
HAL_TIMEx_ConfigDeadTime                          build/stm32h5xx_hal_tim_ex.o
HAL_TIMEx_ConfigEncoderIndex                      build/stm32h5xx_hal_tim_ex.o
HAL_TIMEx_ConfigSlaveModePreload                  build/stm32h5xx_hal_tim_ex.o
HAL_TIMEx_DirectionChangeCallback                 build/stm32h5xx_hal_tim_ex.o
                                                  build/stm32h5xx_hal_tim.o
HAL_TIMEx_DisableAsymmetricalDeadTime             build/stm32h5xx_hal_tim_ex.o
HAL_TIMEx_DisableDeadTimePreload                  build/stm32h5xx_hal_tim_ex.o
HAL_TIMEx_DisableEncoderFirstIndex                build/stm32h5xx_hal_tim_ex.o
HAL_TIMEx_DisableEncoderIndex                     build/stm32h5xx_hal_tim_ex.o
HAL_TIMEx_DisableSlaveModePreload                 build/stm32h5xx_hal_tim_ex.o
HAL_TIMEx_DisarmBreakInput                        build/stm32h5xx_hal_tim_ex.o
HAL_TIMEx_DitheringDisable                        build/stm32h5xx_hal_tim_ex.o
HAL_TIMEx_DitheringEnable                         build/stm32h5xx_hal_tim_ex.o
HAL_TIMEx_EnableAsymmetricalDeadTime              build/stm32h5xx_hal_tim_ex.o
HAL_TIMEx_EnableDeadTimePreload                   build/stm32h5xx_hal_tim_ex.o
HAL_TIMEx_EnableEncoderFirstIndex                 build/stm32h5xx_hal_tim_ex.o
HAL_TIMEx_EnableEncoderIndex                      build/stm32h5xx_hal_tim_ex.o
HAL_TIMEx_EnableSlaveModePreload                  build/stm32h5xx_hal_tim_ex.o
HAL_TIMEx_EncoderIndexCallback                    build/stm32h5xx_hal_tim_ex.o
                                                  build/stm32h5xx_hal_tim.o
HAL_TIMEx_GetChannelNState                        build/stm32h5xx_hal_tim_ex.o
HAL_TIMEx_GroupChannel5                           build/stm32h5xx_hal_tim_ex.o
HAL_TIMEx_HallSensor_DeInit                       build/stm32h5xx_hal_tim_ex.o
HAL_TIMEx_HallSensor_GetState                     build/stm32h5xx_hal_tim_ex.o
HAL_TIMEx_HallSensor_Init                         build/stm32h5xx_hal_tim_ex.o
HAL_TIMEx_HallSensor_MspDeInit                    build/stm32h5xx_hal_tim_ex.o
HAL_TIMEx_HallSensor_MspInit                      build/stm32h5xx_hal_tim_ex.o
HAL_TIMEx_HallSensor_Start                        build/stm32h5xx_hal_tim_ex.o
HAL_TIMEx_HallSensor_Start_DMA                    build/stm32h5xx_hal_tim_ex.o
HAL_TIMEx_HallSensor_Start_IT                     build/stm32h5xx_hal_tim_ex.o
HAL_TIMEx_HallSensor_Stop                         build/stm32h5xx_hal_tim_ex.o
HAL_TIMEx_HallSensor_Stop_DMA                     build/stm32h5xx_hal_tim_ex.o
HAL_TIMEx_HallSensor_Stop_IT                      build/stm32h5xx_hal_tim_ex.o
HAL_TIMEx_IndexErrorCallback                      build/stm32h5xx_hal_tim_ex.o
                                                  build/stm32h5xx_hal_tim.o
HAL_TIMEx_MasterConfigSynchronization             build/stm32h5xx_hal_tim_ex.o
                                                  build/main.o
HAL_TIMEx_OCN_Start                               build/stm32h5xx_hal_tim_ex.o
HAL_TIMEx_OCN_Start_DMA                           build/stm32h5xx_hal_tim_ex.o
HAL_TIMEx_OCN_Start_IT                            build/stm32h5xx_hal_tim_ex.o
HAL_TIMEx_OCN_Stop                                build/stm32h5xx_hal_tim_ex.o
HAL_TIMEx_OCN_Stop_DMA                            build/stm32h5xx_hal_tim_ex.o
HAL_TIMEx_OCN_Stop_IT                             build/stm32h5xx_hal_tim_ex.o
HAL_TIMEx_OC_ConfigPulseOnCompare                 build/stm32h5xx_hal_tim_ex.o
HAL_TIMEx_OnePulseN_Start                         build/stm32h5xx_hal_tim_ex.o
HAL_TIMEx_OnePulseN_Start_IT                      build/stm32h5xx_hal_tim_ex.o
HAL_TIMEx_OnePulseN_Stop                          build/stm32h5xx_hal_tim_ex.o
HAL_TIMEx_OnePulseN_Stop_IT                       build/stm32h5xx_hal_tim_ex.o
HAL_TIMEx_PWMN_Start                              build/stm32h5xx_hal_tim_ex.o
HAL_TIMEx_PWMN_Start_DMA                          build/stm32h5xx_hal_tim_ex.o
HAL_TIMEx_PWMN_Start_IT                           build/stm32h5xx_hal_tim_ex.o
HAL_TIMEx_PWMN_Stop                               build/stm32h5xx_hal_tim_ex.o
HAL_TIMEx_PWMN_Stop_DMA                           build/stm32h5xx_hal_tim_ex.o
HAL_TIMEx_PWMN_Stop_IT                            build/stm32h5xx_hal_tim_ex.o
HAL_TIMEx_ReArmBreakInput                         build/stm32h5xx_hal_tim_ex.o
HAL_TIMEx_RemapConfig                             build/stm32h5xx_hal_tim_ex.o
HAL_TIMEx_TISelection                             build/stm32h5xx_hal_tim_ex.o
HAL_TIMEx_TransitionErrorCallback                 build/stm32h5xx_hal_tim_ex.o
                                                  build/stm32h5xx_hal_tim.o
HAL_TIM_Base_DeInit                               build/stm32h5xx_hal_tim.o
HAL_TIM_Base_GetState                             build/stm32h5xx_hal_tim.o
HAL_TIM_Base_Init                                 build/stm32h5xx_hal_tim.o
                                                  build/main.o
HAL_TIM_Base_MspDeInit                            build/stm32h5xx_hal_msp.o
HAL_TIM_Base_MspInit                              build/stm32h5xx_hal_msp.o
HAL_TIM_Base_Start                                build/stm32h5xx_hal_tim.o
HAL_TIM_Base_Start_DMA                            build/stm32h5xx_hal_tim.o
HAL_TIM_Base_Start_IT                             build/stm32h5xx_hal_tim.o
HAL_TIM_Base_Stop                                 build/stm32h5xx_hal_tim.o
HAL_TIM_Base_Stop_DMA                             build/stm32h5xx_hal_tim.o
HAL_TIM_Base_Stop_IT                              build/stm32h5xx_hal_tim.o
HAL_TIM_ConfigClockSource                         build/stm32h5xx_hal_tim.o
                                                  build/main.o
HAL_TIM_ConfigOCrefClear                          build/stm32h5xx_hal_tim.o
HAL_TIM_ConfigTI1Input                            build/stm32h5xx_hal_tim.o
HAL_TIM_DMABurstState                             build/stm32h5xx_hal_tim.o
HAL_TIM_DMABurst_MultiReadStart                   build/stm32h5xx_hal_tim.o
HAL_TIM_DMABurst_MultiWriteStart                  build/stm32h5xx_hal_tim.o
HAL_TIM_DMABurst_ReadStart                        build/stm32h5xx_hal_tim.o
HAL_TIM_DMABurst_ReadStop                         build/stm32h5xx_hal_tim.o
HAL_TIM_DMABurst_WriteStart                       build/stm32h5xx_hal_tim.o
HAL_TIM_DMABurst_WriteStop                        build/stm32h5xx_hal_tim.o
HAL_TIM_Encoder_DeInit                            build/stm32h5xx_hal_tim.o
HAL_TIM_Encoder_GetState                          build/stm32h5xx_hal_tim.o
HAL_TIM_Encoder_Init                              build/stm32h5xx_hal_tim.o
HAL_TIM_Encoder_MspDeInit                         build/stm32h5xx_hal_tim.o
HAL_TIM_Encoder_MspInit                           build/stm32h5xx_hal_tim.o
HAL_TIM_Encoder_Start                             build/stm32h5xx_hal_tim.o
HAL_TIM_Encoder_Start_DMA                         build/stm32h5xx_hal_tim.o
HAL_TIM_Encoder_Start_IT                          build/stm32h5xx_hal_tim.o
HAL_TIM_Encoder_Stop                              build/stm32h5xx_hal_tim.o
HAL_TIM_Encoder_Stop_DMA                          build/stm32h5xx_hal_tim.o
HAL_TIM_Encoder_Stop_IT                           build/stm32h5xx_hal_tim.o
HAL_TIM_ErrorCallback                             build/stm32h5xx_hal_tim.o
                                                  build/stm32h5xx_hal_tim_ex.o
HAL_TIM_GenerateEvent                             build/stm32h5xx_hal_tim.o
HAL_TIM_GetActiveChannel                          build/stm32h5xx_hal_tim.o
HAL_TIM_GetChannelState                           build/stm32h5xx_hal_tim.o
HAL_TIM_IC_CaptureCallback                        build/stm32h5xx_hal_tim.o
HAL_TIM_IC_CaptureHalfCpltCallback                build/stm32h5xx_hal_tim.o
HAL_TIM_IC_ConfigChannel                          build/stm32h5xx_hal_tim.o
HAL_TIM_IC_DeInit                                 build/stm32h5xx_hal_tim.o
HAL_TIM_IC_GetState                               build/stm32h5xx_hal_tim.o
HAL_TIM_IC_Init                                   build/stm32h5xx_hal_tim.o
HAL_TIM_IC_MspDeInit                              build/stm32h5xx_hal_tim.o
HAL_TIM_IC_MspInit                                build/stm32h5xx_hal_tim.o
HAL_TIM_IC_Start                                  build/stm32h5xx_hal_tim.o
HAL_TIM_IC_Start_DMA                              build/stm32h5xx_hal_tim.o
HAL_TIM_IC_Start_IT                               build/stm32h5xx_hal_tim.o
HAL_TIM_IC_Stop                                   build/stm32h5xx_hal_tim.o
HAL_TIM_IC_Stop_DMA                               build/stm32h5xx_hal_tim.o
HAL_TIM_IC_Stop_IT                                build/stm32h5xx_hal_tim.o
HAL_TIM_IRQHandler                                build/stm32h5xx_hal_tim.o
HAL_TIM_MspPostInit                               build/stm32h5xx_hal_msp.o
                                                  build/main.o
HAL_TIM_OC_ConfigChannel                          build/stm32h5xx_hal_tim.o
HAL_TIM_OC_DeInit                                 build/stm32h5xx_hal_tim.o
HAL_TIM_OC_DelayElapsedCallback                   build/stm32h5xx_hal_tim.o
HAL_TIM_OC_GetState                               build/stm32h5xx_hal_tim.o
HAL_TIM_OC_Init                                   build/stm32h5xx_hal_tim.o
HAL_TIM_OC_MspDeInit                              build/stm32h5xx_hal_tim.o
HAL_TIM_OC_MspInit                                build/stm32h5xx_hal_tim.o
HAL_TIM_OC_Start                                  build/stm32h5xx_hal_tim.o
HAL_TIM_OC_Start_DMA                              build/stm32h5xx_hal_tim.o
HAL_TIM_OC_Start_IT                               build/stm32h5xx_hal_tim.o
HAL_TIM_OC_Stop                                   build/stm32h5xx_hal_tim.o
HAL_TIM_OC_Stop_DMA                               build/stm32h5xx_hal_tim.o
HAL_TIM_OC_Stop_IT                                build/stm32h5xx_hal_tim.o
HAL_TIM_OnePulse_ConfigChannel                    build/stm32h5xx_hal_tim.o
HAL_TIM_OnePulse_DeInit                           build/stm32h5xx_hal_tim.o
HAL_TIM_OnePulse_GetState                         build/stm32h5xx_hal_tim.o
HAL_TIM_OnePulse_Init                             build/stm32h5xx_hal_tim.o
HAL_TIM_OnePulse_MspDeInit                        build/stm32h5xx_hal_tim.o
HAL_TIM_OnePulse_MspInit                          build/stm32h5xx_hal_tim.o
HAL_TIM_OnePulse_Start                            build/stm32h5xx_hal_tim.o
HAL_TIM_OnePulse_Start_IT                         build/stm32h5xx_hal_tim.o
HAL_TIM_OnePulse_Stop                             build/stm32h5xx_hal_tim.o
HAL_TIM_OnePulse_Stop_IT                          build/stm32h5xx_hal_tim.o
HAL_TIM_PWM_ConfigChannel                         build/stm32h5xx_hal_tim.o
                                                  build/main.o
HAL_TIM_PWM_DeInit                                build/stm32h5xx_hal_tim.o
HAL_TIM_PWM_GetState                              build/stm32h5xx_hal_tim.o
HAL_TIM_PWM_Init                                  build/stm32h5xx_hal_tim.o
                                                  build/main.o
HAL_TIM_PWM_MspDeInit                             build/stm32h5xx_hal_tim.o
HAL_TIM_PWM_MspInit                               build/stm32h5xx_hal_tim.o
HAL_TIM_PWM_PulseFinishedCallback                 build/stm32h5xx_hal_tim.o
                                                  build/stm32h5xx_hal_tim_ex.o
HAL_TIM_PWM_PulseFinishedHalfCpltCallback         build/stm32h5xx_hal_tim.o
HAL_TIM_PWM_Start                                 build/stm32h5xx_hal_tim.o
HAL_TIM_PWM_Start_DMA                             build/stm32h5xx_hal_tim.o
HAL_TIM_PWM_Start_IT                              build/stm32h5xx_hal_tim.o
HAL_TIM_PWM_Stop                                  build/stm32h5xx_hal_tim.o
HAL_TIM_PWM_Stop_DMA                              build/stm32h5xx_hal_tim.o
HAL_TIM_PWM_Stop_IT                               build/stm32h5xx_hal_tim.o
HAL_TIM_PeriodElapsedCallback                     build/stm32h5xx_hal_tim.o
HAL_TIM_PeriodElapsedHalfCpltCallback             build/stm32h5xx_hal_tim.o
HAL_TIM_ReadCapturedValue                         build/stm32h5xx_hal_tim.o
HAL_TIM_SlaveConfigSynchro                        build/stm32h5xx_hal_tim.o
HAL_TIM_SlaveConfigSynchro_IT                     build/stm32h5xx_hal_tim.o
HAL_TIM_TriggerCallback                           build/stm32h5xx_hal_tim.o
HAL_TIM_TriggerHalfCpltCallback                   build/stm32h5xx_hal_tim.o
HAL_UARTEx_DisableFifoMode                        build/stm32h5xx_hal_uart_ex.o
HAL_UARTEx_DisableStopMode                        build/stm32h5xx_hal_uart_ex.o
HAL_UARTEx_EnableFifoMode                         build/stm32h5xx_hal_uart_ex.o
HAL_UARTEx_EnableStopMode                         build/stm32h5xx_hal_uart_ex.o
HAL_UARTEx_GetRxEventType                         build/stm32h5xx_hal_uart_ex.o
HAL_UARTEx_ReceiveToIdle                          build/stm32h5xx_hal_uart_ex.o
HAL_UARTEx_ReceiveToIdle_DMA                      build/stm32h5xx_hal_uart_ex.o
HAL_UARTEx_ReceiveToIdle_IT                       build/stm32h5xx_hal_uart_ex.o
HAL_UARTEx_RxEventCallback                        build/stm32h5xx_hal_uart.o
HAL_UARTEx_RxFifoFullCallback                     build/stm32h5xx_hal_uart_ex.o
                                                  build/stm32h5xx_hal_uart.o
HAL_UARTEx_SetRxFifoThreshold                     build/stm32h5xx_hal_uart_ex.o
HAL_UARTEx_SetTxFifoThreshold                     build/stm32h5xx_hal_uart_ex.o
HAL_UARTEx_StopModeWakeUpSourceConfig             build/stm32h5xx_hal_uart_ex.o
HAL_UARTEx_TxFifoEmptyCallback                    build/stm32h5xx_hal_uart_ex.o
                                                  build/stm32h5xx_hal_uart.o
HAL_UARTEx_WakeupCallback                         build/stm32h5xx_hal_uart_ex.o
                                                  build/stm32h5xx_hal_uart.o
HAL_UART_Abort                                    build/stm32h5xx_hal_uart.o
HAL_UART_AbortCpltCallback                        build/stm32h5xx_hal_uart.o
HAL_UART_AbortReceive                             build/stm32h5xx_hal_uart.o
HAL_UART_AbortReceiveCpltCallback                 build/stm32h5xx_hal_uart.o
HAL_UART_AbortReceive_IT                          build/stm32h5xx_hal_uart.o
HAL_UART_AbortTransmit                            build/stm32h5xx_hal_uart.o
HAL_UART_AbortTransmitCpltCallback                build/stm32h5xx_hal_uart.o
HAL_UART_AbortTransmit_IT                         build/stm32h5xx_hal_uart.o
HAL_UART_Abort_IT                                 build/stm32h5xx_hal_uart.o
HAL_UART_DMAPause                                 build/stm32h5xx_hal_uart.o
HAL_UART_DMAResume                                build/stm32h5xx_hal_uart.o
HAL_UART_DMAStop                                  build/stm32h5xx_hal_uart.o
HAL_UART_DeInit                                   build/stm32h5xx_hal_uart.o
                                                  build/stm32h5xx_nucleo.o
HAL_UART_DisableReceiverTimeout                   build/stm32h5xx_hal_uart.o
HAL_UART_EnableReceiverTimeout                    build/stm32h5xx_hal_uart.o
HAL_UART_ErrorCallback                            build/stm32h5xx_hal_uart.o
HAL_UART_GetError                                 build/stm32h5xx_hal_uart.o
HAL_UART_GetState                                 build/stm32h5xx_hal_uart.o
HAL_UART_IRQHandler                               build/stm32h5xx_hal_uart.o
HAL_UART_Init                                     build/stm32h5xx_hal_uart.o
                                                  build/stm32h5xx_nucleo.o
HAL_UART_MspDeInit                                build/stm32h5xx_hal_uart.o
HAL_UART_MspInit                                  build/stm32h5xx_hal_uart.o
                                                  build/stm32h5xx_hal_uart_ex.o
HAL_UART_Receive                                  build/stm32h5xx_hal_uart.o
HAL_UART_Receive_DMA                              build/stm32h5xx_hal_uart.o
HAL_UART_Receive_IT                               build/stm32h5xx_hal_uart.o
HAL_UART_ReceiverTimeout_Config                   build/stm32h5xx_hal_uart.o
HAL_UART_RxCpltCallback                           build/stm32h5xx_hal_uart.o
HAL_UART_RxHalfCpltCallback                       build/stm32h5xx_hal_uart.o
HAL_UART_Transmit                                 build/stm32h5xx_hal_uart.o
                                                  build/stm32h5xx_nucleo.o
HAL_UART_Transmit_DMA                             build/stm32h5xx_hal_uart.o
HAL_UART_Transmit_IT                              build/stm32h5xx_hal_uart.o
HAL_UART_TxCpltCallback                           build/stm32h5xx_hal_uart.o
HAL_UART_TxHalfCpltCallback                       build/stm32h5xx_hal_uart.o
HASH_IRQHandler                                   build/startup_stm32h503xx.o
HardFault_Handler                                 build/stm32h5xx_it.o
I2C1_ER_IRQHandler                                build/startup_stm32h503xx.o
I2C1_EV_IRQHandler                                build/startup_stm32h503xx.o
I2C2_ER_IRQHandler                                build/startup_stm32h503xx.o
I2C2_EV_IRQHandler                                build/startup_stm32h503xx.o
I3C1_ER_IRQHandler                                build/startup_stm32h503xx.o
I3C1_EV_IRQHandler                                build/startup_stm32h503xx.o
I3C2_ER_IRQHandler                                build/startup_stm32h503xx.o
I3C2_EV_IRQHandler                                build/startup_stm32h503xx.o
ICACHE_IRQHandler                                 build/startup_stm32h503xx.o
IWDG_IRQHandler                                   build/startup_stm32h503xx.o
LPTIM1_IRQHandler                                 build/startup_stm32h503xx.o
LPTIM2_IRQHandler                                 build/startup_stm32h503xx.o
LPUART1_IRQHandler                                build/startup_stm32h503xx.o
MX_USART_Init                                     build/stm32h5xx_nucleo.o
MemManage_Handler                                 build/stm32h5xx_it.o
NMI_Handler                                       build/stm32h5xx_it.o
PVD_AVD_IRQHandler                                build/startup_stm32h503xx.o
PendSV_Handler                                    build/stm32h5xx_it.o
PeriphCommonClock_Config                          build/main.o
RAMCFG_IRQHandler                                 build/startup_stm32h503xx.o
RCC_IRQHandler                                    build/startup_stm32h503xx.o
RNG_IRQHandler                                    build/startup_stm32h503xx.o
RTC_IRQHandler                                    build/startup_stm32h503xx.o
Reset_Handler                                     build/startup_stm32h503xx.o
SPI1_IRQHandler                                   build/startup_stm32h503xx.o
SPI2_IRQHandler                                   build/startup_stm32h503xx.o
SPI3_IRQHandler                                   build/startup_stm32h503xx.o
SVC_Handler                                       build/stm32h5xx_it.o
SysTick_Handler                                   build/stm32h5xx_it.o
SystemClock_Config                                build/main.o
SystemCoreClock                                   build/system_stm32h5xx.o
                                                  build/stm32h5xx_hal_spi.o
                                                  build/stm32h5xx_hal_adc_ex.o
                                                  build/stm32h5xx_hal_adc.o
                                                  build/stm32h5xx_hal.o
                                                  build/stm32h5xx_hal_rcc.o
SystemCoreClockUpdate                             build/system_stm32h5xx.o
SystemInit                                        build/system_stm32h5xx.o
                                                  build/startup_stm32h503xx.o
TAMP_IRQHandler                                   build/startup_stm32h503xx.o
TIM1_BRK_IRQHandler                               build/startup_stm32h503xx.o
TIM1_CC_IRQHandler                                build/startup_stm32h503xx.o
TIM1_TRG_COM_IRQHandler                           build/startup_stm32h503xx.o
TIM1_UP_IRQHandler                                build/startup_stm32h503xx.o
TIM2_IRQHandler                                   build/startup_stm32h503xx.o
TIM3_IRQHandler                                   build/startup_stm32h503xx.o
TIM6_IRQHandler                                   build/startup_stm32h503xx.o
TIM7_IRQHandler                                   build/startup_stm32h503xx.o
TIMEx_DMACommutationCplt                          build/stm32h5xx_hal_tim_ex.o
                                                  build/stm32h5xx_hal_tim.o
TIMEx_DMACommutationHalfCplt                      build/stm32h5xx_hal_tim_ex.o
                                                  build/stm32h5xx_hal_tim.o
TIM_Base_SetConfig                                build/stm32h5xx_hal_tim.o
                                                  build/stm32h5xx_hal_tim_ex.o
TIM_CCxChannelCmd                                 build/stm32h5xx_hal_tim.o
                                                  build/stm32h5xx_hal_tim_ex.o
TIM_DMACaptureCplt                                build/stm32h5xx_hal_tim.o
                                                  build/stm32h5xx_hal_tim_ex.o
TIM_DMACaptureHalfCplt                            build/stm32h5xx_hal_tim.o
                                                  build/stm32h5xx_hal_tim_ex.o
TIM_DMADelayPulseHalfCplt                         build/stm32h5xx_hal_tim.o
                                                  build/stm32h5xx_hal_tim_ex.o
TIM_DMAError                                      build/stm32h5xx_hal_tim.o
                                                  build/stm32h5xx_hal_tim_ex.o
TIM_DMA_Start_IT                                  build/stm32h5xx_hal_tim.o
                                                  build/stm32h5xx_hal_tim_ex.o
TIM_ETR_SetConfig                                 build/stm32h5xx_hal_tim.o
                                                  build/stm32h5xx_hal_tim_ex.o
TIM_OC2_SetConfig                                 build/stm32h5xx_hal_tim.o
                                                  build/stm32h5xx_hal_tim_ex.o
TIM_TI1_SetConfig                                 build/stm32h5xx_hal_tim.o
                                                  build/stm32h5xx_hal_tim_ex.o
UARTPrescTable                                    build/stm32h5xx_hal_uart.o
UART_AdvFeatureConfig                             build/stm32h5xx_hal_uart.o
                                                  build/stm32h5xx_hal_uart_ex.o
UART_CheckIdleState                               build/stm32h5xx_hal_uart.o
                                                  build/stm32h5xx_hal_uart_ex.o
UART_SetConfig                                    build/stm32h5xx_hal_uart.o
                                                  build/stm32h5xx_hal_uart_ex.o
UART_Start_Receive_DMA                            build/stm32h5xx_hal_uart.o
                                                  build/stm32h5xx_hal_uart_ex.o
UART_Start_Receive_IT                             build/stm32h5xx_hal_uart.o
                                                  build/stm32h5xx_hal_uart_ex.o
UART_WaitOnFlagUntilTimeout                       build/stm32h5xx_hal_uart.o
                                                  build/stm32h5xx_hal_uart_ex.o
USART1_IRQHandler                                 build/startup_stm32h503xx.o
USART2_IRQHandler                                 build/startup_stm32h503xx.o
USART3_IRQHandler                                 build/startup_stm32h503xx.o
USB_ActivateEndpoint                              build/stm32h5xx_ll_usb.o
                                                  build/stm32h5xx_hal_pcd.o
USB_ActivateRemoteWakeup                          build/stm32h5xx_ll_usb.o
                                                  build/stm32h5xx_hal_pcd.o
USB_CoreInit                                      build/stm32h5xx_ll_usb.o
USB_DRD_FS_IRQHandler                             build/startup_stm32h503xx.o
USB_DeActivateRemoteWakeup                        build/stm32h5xx_ll_usb.o
                                                  build/stm32h5xx_hal_pcd.o
USB_DeactivateEndpoint                            build/stm32h5xx_ll_usb.o
                                                  build/stm32h5xx_hal_pcd.o
USB_DevConnect                                    build/stm32h5xx_ll_usb.o
                                                  build/stm32h5xx_hal_pcd.o
USB_DevDisconnect                                 build/stm32h5xx_ll_usb.o
                                                  build/stm32h5xx_hal_pcd.o
USB_DevInit                                       build/stm32h5xx_ll_usb.o
                                                  build/stm32h5xx_hal_pcd.o
USB_DisableGlobalInt                              build/stm32h5xx_ll_usb.o
                                                  build/stm32h5xx_hal_pcd.o
USB_EPClearStall                                  build/stm32h5xx_ll_usb.o
                                                  build/stm32h5xx_hal_pcd.o
USB_EPSetStall                                    build/stm32h5xx_ll_usb.o
                                                  build/stm32h5xx_hal_pcd.o
USB_EPStartXfer                                   build/stm32h5xx_ll_usb.o
                                                  build/stm32h5xx_hal_pcd.o
USB_EPStopXfer                                    build/stm32h5xx_ll_usb.o
                                                  build/stm32h5xx_hal_pcd.o
USB_EnableGlobalInt                               build/stm32h5xx_ll_usb.o
                                                  build/stm32h5xx_hal_pcd.o
USB_FlushRxFifo                                   build/stm32h5xx_ll_usb.o
                                                  build/stm32h5xx_hal_pcd.o
USB_FlushTxFifo                                   build/stm32h5xx_ll_usb.o
                                                  build/stm32h5xx_hal_pcd.o
USB_GetCurrentFrame                               build/stm32h5xx_ll_usb.o
USB_GetHostSpeed                                  build/stm32h5xx_ll_usb.o
USB_HC_DoubleBuffer                               build/stm32h5xx_ll_usb.o
USB_HC_IN_Halt                                    build/stm32h5xx_ll_usb.o
USB_HC_Init                                       build/stm32h5xx_ll_usb.o
USB_HC_OUT_Halt                                   build/stm32h5xx_ll_usb.o
USB_HC_StartXfer                                  build/stm32h5xx_ll_usb.o
USB_HostInit                                      build/stm32h5xx_ll_usb.o
USB_ReadInterrupts                                build/stm32h5xx_ll_usb.o
                                                  build/stm32h5xx_hal_pcd.o
USB_ReadPMA                                       build/stm32h5xx_ll_usb.o
                                                  build/stm32h5xx_hal_pcd.o
USB_ResetPort                                     build/stm32h5xx_ll_usb.o
USB_SetCurrentMode                                build/stm32h5xx_ll_usb.o
USB_SetDevAddress                                 build/stm32h5xx_ll_usb.o
                                                  build/stm32h5xx_hal_pcd.o
USB_StopDevice                                    build/stm32h5xx_ll_usb.o
                                                  build/stm32h5xx_hal_pcd.o
USB_StopHost                                      build/stm32h5xx_ll_usb.o
USB_WritePMA                                      build/stm32h5xx_ll_usb.o
                                                  build/stm32h5xx_hal_pcd.o
UsageFault_Handler                                build/stm32h5xx_it.o
WWDG_IRQHandler                                   build/startup_stm32h503xx.o
_Balloc                                           /opt/local/lib/gcc/arm-none-eabi/14.2.0/../../../../arm-none-eabi/lib/thumb/v8-m.main+fp/hard/libc.a(libc_a-mprec.o)
                                                  /opt/local/lib/gcc/arm-none-eabi/14.2.0/../../../../arm-none-eabi/lib/thumb/v8-m.main+fp/hard/libc.a(libc_a-dtoa.o)
_Bfree                                            /opt/local/lib/gcc/arm-none-eabi/14.2.0/../../../../arm-none-eabi/lib/thumb/v8-m.main+fp/hard/libc.a(libc_a-mprec.o)
                                                  /opt/local/lib/gcc/arm-none-eabi/14.2.0/../../../../arm-none-eabi/lib/thumb/v8-m.main+fp/hard/libc.a(libc_a-dtoa.o)
_ITM_deregisterTMCloneTable                       /opt/local/lib/gcc/arm-none-eabi/14.2.0/thumb/v8-m.main+fp/hard/crtbegin.o
_ITM_registerTMCloneTable                         /opt/local/lib/gcc/arm-none-eabi/14.2.0/thumb/v8-m.main+fp/hard/crtbegin.o
_Min_Stack_Size                                   build/sysmem.o
_PathLocale                                       /opt/local/lib/gcc/arm-none-eabi/14.2.0/../../../../arm-none-eabi/lib/thumb/v8-m.main+fp/hard/libc.a(libc_a-locale.o)
__TMC_END__                                       /opt/local/lib/gcc/arm-none-eabi/14.2.0/thumb/v8-m.main+fp/hard/crtend.o
                                                  /opt/local/lib/gcc/arm-none-eabi/14.2.0/thumb/v8-m.main+fp/hard/crtbegin.o
__adddf3                                          /opt/local/lib/gcc/arm-none-eabi/14.2.0/thumb/v8-m.main+fp/hard/libgcc.a(_arm_addsubdf3.o)
__aeabi_cdcmpeq                                   /opt/local/lib/gcc/arm-none-eabi/14.2.0/thumb/v8-m.main+fp/hard/libgcc.a(_arm_cmpdf2.o)
__aeabi_cdcmple                                   /opt/local/lib/gcc/arm-none-eabi/14.2.0/thumb/v8-m.main+fp/hard/libgcc.a(_arm_cmpdf2.o)
__aeabi_cdrcmple                                  /opt/local/lib/gcc/arm-none-eabi/14.2.0/thumb/v8-m.main+fp/hard/libgcc.a(_arm_cmpdf2.o)
__aeabi_d2iz                                      /opt/local/lib/gcc/arm-none-eabi/14.2.0/thumb/v8-m.main+fp/hard/libgcc.a(_arm_fixdfsi.o)
                                                  /opt/local/lib/gcc/arm-none-eabi/14.2.0/../../../../arm-none-eabi/lib/thumb/v8-m.main+fp/hard/libc.a(libc_a-dtoa.o)
__aeabi_dadd                                      /opt/local/lib/gcc/arm-none-eabi/14.2.0/thumb/v8-m.main+fp/hard/libgcc.a(_arm_addsubdf3.o)
                                                  /opt/local/lib/gcc/arm-none-eabi/14.2.0/../../../../arm-none-eabi/lib/thumb/v8-m.main+fp/hard/libc.a(libc_a-dtoa.o)
__aeabi_dcmpeq                                    /opt/local/lib/gcc/arm-none-eabi/14.2.0/thumb/v8-m.main+fp/hard/libgcc.a(_arm_cmpdf2.o)
                                                  /opt/local/lib/gcc/arm-none-eabi/14.2.0/../../../../arm-none-eabi/lib/thumb/v8-m.main+fp/hard/libc.a(libc_a-dtoa.o)
                                                  /opt/local/lib/gcc/arm-none-eabi/14.2.0/../../../../arm-none-eabi/lib/thumb/v8-m.main+fp/hard/libc.a(libc_a-vfprintf.o)
__aeabi_dcmpge                                    /opt/local/lib/gcc/arm-none-eabi/14.2.0/thumb/v8-m.main+fp/hard/libgcc.a(_arm_cmpdf2.o)
__aeabi_dcmpgt                                    /opt/local/lib/gcc/arm-none-eabi/14.2.0/thumb/v8-m.main+fp/hard/libgcc.a(_arm_cmpdf2.o)
                                                  /opt/local/lib/gcc/arm-none-eabi/14.2.0/../../../../arm-none-eabi/lib/thumb/v8-m.main+fp/hard/libc.a(libc_a-dtoa.o)
__aeabi_dcmple                                    /opt/local/lib/gcc/arm-none-eabi/14.2.0/thumb/v8-m.main+fp/hard/libgcc.a(_arm_cmpdf2.o)
                                                  /opt/local/lib/gcc/arm-none-eabi/14.2.0/../../../../arm-none-eabi/lib/thumb/v8-m.main+fp/hard/libc.a(libc_a-dtoa.o)
                                                  /opt/local/lib/gcc/arm-none-eabi/14.2.0/../../../../arm-none-eabi/lib/thumb/v8-m.main+fp/hard/libc.a(libc_a-vfprintf.o)
__aeabi_dcmplt                                    /opt/local/lib/gcc/arm-none-eabi/14.2.0/thumb/v8-m.main+fp/hard/libgcc.a(_arm_cmpdf2.o)
                                                  /opt/local/lib/gcc/arm-none-eabi/14.2.0/../../../../arm-none-eabi/lib/thumb/v8-m.main+fp/hard/libc.a(libc_a-dtoa.o)
                                                  /opt/local/lib/gcc/arm-none-eabi/14.2.0/../../../../arm-none-eabi/lib/thumb/v8-m.main+fp/hard/libc.a(libc_a-vfprintf.o)
__aeabi_dcmpun                                    /opt/local/lib/gcc/arm-none-eabi/14.2.0/thumb/v8-m.main+fp/hard/libgcc.a(_arm_unorddf2.o)
                                                  /opt/local/lib/gcc/arm-none-eabi/14.2.0/../../../../arm-none-eabi/lib/thumb/v8-m.main+fp/hard/libc.a(libc_a-vfprintf.o)
__aeabi_ddiv                                      /opt/local/lib/gcc/arm-none-eabi/14.2.0/thumb/v8-m.main+fp/hard/libgcc.a(_arm_muldivdf3.o)
                                                  /opt/local/lib/gcc/arm-none-eabi/14.2.0/../../../../arm-none-eabi/lib/thumb/v8-m.main+fp/hard/libc.a(libc_a-mprec.o)
                                                  /opt/local/lib/gcc/arm-none-eabi/14.2.0/../../../../arm-none-eabi/lib/thumb/v8-m.main+fp/hard/libc.a(libc_a-dtoa.o)
__aeabi_dmul                                      /opt/local/lib/gcc/arm-none-eabi/14.2.0/thumb/v8-m.main+fp/hard/libgcc.a(_arm_muldivdf3.o)
                                                  /opt/local/lib/gcc/arm-none-eabi/14.2.0/thumb/v8-m.main+fp/hard/libgcc.a(_arm_muldf3.o)
                                                  /opt/local/lib/gcc/arm-none-eabi/14.2.0/../../../../arm-none-eabi/lib/thumb/v8-m.main+fp/hard/libc.a(libc_a-mprec.o)
                                                  /opt/local/lib/gcc/arm-none-eabi/14.2.0/../../../../arm-none-eabi/lib/thumb/v8-m.main+fp/hard/libc.a(libc_a-dtoa.o)
__aeabi_drsub                                     /opt/local/lib/gcc/arm-none-eabi/14.2.0/thumb/v8-m.main+fp/hard/libgcc.a(_arm_addsubdf3.o)
__aeabi_dsub                                      /opt/local/lib/gcc/arm-none-eabi/14.2.0/thumb/v8-m.main+fp/hard/libgcc.a(_arm_addsubdf3.o)
                                                  /opt/local/lib/gcc/arm-none-eabi/14.2.0/../../../../arm-none-eabi/lib/thumb/v8-m.main+fp/hard/libc.a(libc_a-dtoa.o)
__aeabi_f2d                                       /opt/local/lib/gcc/arm-none-eabi/14.2.0/thumb/v8-m.main+fp/hard/libgcc.a(_arm_addsubdf3.o)
__aeabi_i2d                                       /opt/local/lib/gcc/arm-none-eabi/14.2.0/thumb/v8-m.main+fp/hard/libgcc.a(_arm_addsubdf3.o)
                                                  /opt/local/lib/gcc/arm-none-eabi/14.2.0/../../../../arm-none-eabi/lib/thumb/v8-m.main+fp/hard/libc.a(libc_a-dtoa.o)
__aeabi_idiv0                                     /opt/local/lib/gcc/arm-none-eabi/14.2.0/thumb/v8-m.main+fp/hard/libgcc.a(_dvmd_tls.o)
__aeabi_l2d                                       /opt/local/lib/gcc/arm-none-eabi/14.2.0/thumb/v8-m.main+fp/hard/libgcc.a(_arm_addsubdf3.o)
__aeabi_ldiv0                                     /opt/local/lib/gcc/arm-none-eabi/14.2.0/thumb/v8-m.main+fp/hard/libgcc.a(_dvmd_tls.o)
                                                  /opt/local/lib/gcc/arm-none-eabi/14.2.0/thumb/v8-m.main+fp/hard/libgcc.a(_aeabi_uldivmod.o)
__aeabi_ui2d                                      /opt/local/lib/gcc/arm-none-eabi/14.2.0/thumb/v8-m.main+fp/hard/libgcc.a(_arm_addsubdf3.o)
                                                  /opt/local/lib/gcc/arm-none-eabi/14.2.0/../../../../arm-none-eabi/lib/thumb/v8-m.main+fp/hard/libc.a(libc_a-dtoa.o)
__aeabi_ul2d                                      /opt/local/lib/gcc/arm-none-eabi/14.2.0/thumb/v8-m.main+fp/hard/libgcc.a(_arm_addsubdf3.o)
__aeabi_uldivmod                                  /opt/local/lib/gcc/arm-none-eabi/14.2.0/thumb/v8-m.main+fp/hard/libgcc.a(_aeabi_uldivmod.o)
                                                  build/stm32h5xx_hal_uart.o
__any_on                                          /opt/local/lib/gcc/arm-none-eabi/14.2.0/../../../../arm-none-eabi/lib/thumb/v8-m.main+fp/hard/libc.a(libc_a-mprec.o)
__ascii_mbtowc                                    /opt/local/lib/gcc/arm-none-eabi/14.2.0/../../../../arm-none-eabi/lib/thumb/v8-m.main+fp/hard/libc.a(libc_a-mbtowc_r.o)
                                                  /opt/local/lib/gcc/arm-none-eabi/14.2.0/../../../../arm-none-eabi/lib/thumb/v8-m.main+fp/hard/libc.a(libc_a-locale.o)
__ascii_wctomb                                    /opt/local/lib/gcc/arm-none-eabi/14.2.0/../../../../arm-none-eabi/lib/thumb/v8-m.main+fp/hard/libc.a(libc_a-wctomb_r.o)
                                                  /opt/local/lib/gcc/arm-none-eabi/14.2.0/../../../../arm-none-eabi/lib/thumb/v8-m.main+fp/hard/libc.a(libc_a-locale.o)
__assert                                          /opt/local/lib/gcc/arm-none-eabi/14.2.0/../../../../arm-none-eabi/lib/thumb/v8-m.main+fp/hard/libc.a(libc_a-assert.o)
__assert_func                                     /opt/local/lib/gcc/arm-none-eabi/14.2.0/../../../../arm-none-eabi/lib/thumb/v8-m.main+fp/hard/libc.a(libc_a-assert.o)
                                                  /opt/local/lib/gcc/arm-none-eabi/14.2.0/../../../../arm-none-eabi/lib/thumb/v8-m.main+fp/hard/libc.a(libc_a-mprec.o)
                                                  /opt/local/lib/gcc/arm-none-eabi/14.2.0/../../../../arm-none-eabi/lib/thumb/v8-m.main+fp/hard/libc.a(libc_a-dtoa.o)
__atexit                                          /opt/local/lib/gcc/arm-none-eabi/14.2.0/../../../../arm-none-eabi/lib/thumb/v8-m.main+fp/hard/libc.a(libc_a-__call_atexit.o)
                                                  /opt/local/lib/gcc/arm-none-eabi/14.2.0/../../../../arm-none-eabi/lib/thumb/v8-m.main+fp/hard/libc.a(libc_a-__atexit.o)
__atexit0                                         /opt/local/lib/gcc/arm-none-eabi/14.2.0/../../../../arm-none-eabi/lib/thumb/v8-m.main+fp/hard/libc.a(libc_a-__atexit.o)
__b2d                                             /opt/local/lib/gcc/arm-none-eabi/14.2.0/../../../../arm-none-eabi/lib/thumb/v8-m.main+fp/hard/libc.a(libc_a-mprec.o)
__bss_end__                                       /opt/local/lib/gcc/arm-none-eabi/14.2.0/../../../../arm-none-eabi/lib/thumb/v8-m.main+fp/hard/crt0.o
__bss_start__                                     /opt/local/lib/gcc/arm-none-eabi/14.2.0/../../../../arm-none-eabi/lib/thumb/v8-m.main+fp/hard/crt0.o
__call_exitprocs                                  /opt/local/lib/gcc/arm-none-eabi/14.2.0/../../../../arm-none-eabi/lib/thumb/v8-m.main+fp/hard/libc.a(libc_a-__call_atexit.o)
                                                  /opt/local/lib/gcc/arm-none-eabi/14.2.0/../../../../arm-none-eabi/lib/thumb/v8-m.main+fp/hard/libc.a(libc_a-exit.o)
__cmpdf2                                          /opt/local/lib/gcc/arm-none-eabi/14.2.0/thumb/v8-m.main+fp/hard/libgcc.a(_arm_cmpdf2.o)
__copybits                                        /opt/local/lib/gcc/arm-none-eabi/14.2.0/../../../../arm-none-eabi/lib/thumb/v8-m.main+fp/hard/libc.a(libc_a-mprec.o)
__d2b                                             /opt/local/lib/gcc/arm-none-eabi/14.2.0/../../../../arm-none-eabi/lib/thumb/v8-m.main+fp/hard/libc.a(libc_a-mprec.o)
                                                  /opt/local/lib/gcc/arm-none-eabi/14.2.0/../../../../arm-none-eabi/lib/thumb/v8-m.main+fp/hard/libc.a(libc_a-dtoa.o)
__deregister_frame_info                           /opt/local/lib/gcc/arm-none-eabi/14.2.0/thumb/v8-m.main+fp/hard/crtbegin.o
__divdf3                                          /opt/local/lib/gcc/arm-none-eabi/14.2.0/thumb/v8-m.main+fp/hard/libgcc.a(_arm_muldivdf3.o)
__dso_handle                                      /opt/local/lib/gcc/arm-none-eabi/14.2.0/thumb/v8-m.main+fp/hard/crtbegin.o
__env                                             build/syscalls.o
__eqdf2                                           /opt/local/lib/gcc/arm-none-eabi/14.2.0/thumb/v8-m.main+fp/hard/libgcc.a(_arm_cmpdf2.o)
__errno                                           /opt/local/lib/gcc/arm-none-eabi/14.2.0/../../../../arm-none-eabi/lib/thumb/v8-m.main+fp/hard/libc.a(libc_a-errno.o)
                                                  /opt/local/lib/gcc/arm-none-eabi/14.2.0/../../../../arm-none-eabi/lib/thumb/v8-m.main+fp/hard/libc.a(libc_a-callocr.o)
                                                  /opt/local/lib/gcc/arm-none-eabi/14.2.0/../../../../arm-none-eabi/lib/thumb/v8-m.main+fp/hard/libc.a(libc_a-sysconf.o)
                                                  build/syscalls.o
                                                  build/sysmem.o
__extendsfdf2                                     /opt/local/lib/gcc/arm-none-eabi/14.2.0/thumb/v8-m.main+fp/hard/libgcc.a(_arm_addsubdf3.o)
__fini_array_end                                  /opt/local/lib/gcc/arm-none-eabi/14.2.0/../../../../arm-none-eabi/lib/thumb/v8-m.main+fp/hard/libc.a(libc_a-fini.o)
__fini_array_start                                /opt/local/lib/gcc/arm-none-eabi/14.2.0/../../../../arm-none-eabi/lib/thumb/v8-m.main+fp/hard/libc.a(libc_a-fini.o)
__fixdfsi                                         /opt/local/lib/gcc/arm-none-eabi/14.2.0/thumb/v8-m.main+fp/hard/libgcc.a(_arm_fixdfsi.o)
__floatdidf                                       /opt/local/lib/gcc/arm-none-eabi/14.2.0/thumb/v8-m.main+fp/hard/libgcc.a(_arm_addsubdf3.o)
__floatsidf                                       /opt/local/lib/gcc/arm-none-eabi/14.2.0/thumb/v8-m.main+fp/hard/libgcc.a(_arm_addsubdf3.o)
__floatundidf                                     /opt/local/lib/gcc/arm-none-eabi/14.2.0/thumb/v8-m.main+fp/hard/libgcc.a(_arm_addsubdf3.o)
__floatunsidf                                     /opt/local/lib/gcc/arm-none-eabi/14.2.0/thumb/v8-m.main+fp/hard/libgcc.a(_arm_addsubdf3.o)
__fp_lock_all                                     /opt/local/lib/gcc/arm-none-eabi/14.2.0/../../../../arm-none-eabi/lib/thumb/v8-m.main+fp/hard/libc.a(libc_a-findfp.o)
__fp_unlock_all                                   /opt/local/lib/gcc/arm-none-eabi/14.2.0/../../../../arm-none-eabi/lib/thumb/v8-m.main+fp/hard/libc.a(libc_a-findfp.o)
__fputwc                                          /opt/local/lib/gcc/arm-none-eabi/14.2.0/../../../../arm-none-eabi/lib/thumb/v8-m.main+fp/hard/libc.a(libc_a-fputwc.o)
__gedf2                                           /opt/local/lib/gcc/arm-none-eabi/14.2.0/thumb/v8-m.main+fp/hard/libgcc.a(_arm_cmpdf2.o)
__global_locale                                   /opt/local/lib/gcc/arm-none-eabi/14.2.0/../../../../arm-none-eabi/lib/thumb/v8-m.main+fp/hard/libc.a(libc_a-locale.o)
                                                  /opt/local/lib/gcc/arm-none-eabi/14.2.0/../../../../arm-none-eabi/lib/thumb/v8-m.main+fp/hard/libc.a(libc_a-wctomb_r.o)
                                                  /opt/local/lib/gcc/arm-none-eabi/14.2.0/../../../../arm-none-eabi/lib/thumb/v8-m.main+fp/hard/libc.a(libc_a-mbtowc_r.o)
                                                  /opt/local/lib/gcc/arm-none-eabi/14.2.0/../../../../arm-none-eabi/lib/thumb/v8-m.main+fp/hard/libc.a(libc_a-wcrtomb.o)
                                                  /opt/local/lib/gcc/arm-none-eabi/14.2.0/../../../../arm-none-eabi/lib/thumb/v8-m.main+fp/hard/libc.a(libc_a-localeconv.o)
__gtdf2                                           /opt/local/lib/gcc/arm-none-eabi/14.2.0/thumb/v8-m.main+fp/hard/libgcc.a(_arm_cmpdf2.o)
__hi0bits                                         /opt/local/lib/gcc/arm-none-eabi/14.2.0/../../../../arm-none-eabi/lib/thumb/v8-m.main+fp/hard/libc.a(libc_a-mprec.o)
                                                  /opt/local/lib/gcc/arm-none-eabi/14.2.0/../../../../arm-none-eabi/lib/thumb/v8-m.main+fp/hard/libc.a(libc_a-dtoa.o)
__i2b                                             /opt/local/lib/gcc/arm-none-eabi/14.2.0/../../../../arm-none-eabi/lib/thumb/v8-m.main+fp/hard/libc.a(libc_a-mprec.o)
                                                  /opt/local/lib/gcc/arm-none-eabi/14.2.0/../../../../arm-none-eabi/lib/thumb/v8-m.main+fp/hard/libc.a(libc_a-dtoa.o)
__init_array_end                                  /opt/local/lib/gcc/arm-none-eabi/14.2.0/../../../../arm-none-eabi/lib/thumb/v8-m.main+fp/hard/libc.a(libc_a-init.o)
__init_array_start                                /opt/local/lib/gcc/arm-none-eabi/14.2.0/../../../../arm-none-eabi/lib/thumb/v8-m.main+fp/hard/libc.a(libc_a-init.o)
__io_getchar                                      build/syscalls.o
__io_putchar                                      build/stm32h5xx_nucleo.o
                                                  build/syscalls.o
__ledf2                                           /opt/local/lib/gcc/arm-none-eabi/14.2.0/thumb/v8-m.main+fp/hard/libgcc.a(_arm_cmpdf2.o)
__libc_fini_array                                 /opt/local/lib/gcc/arm-none-eabi/14.2.0/../../../../arm-none-eabi/lib/thumb/v8-m.main+fp/hard/libc.a(libc_a-fini.o)
                                                  /opt/local/lib/gcc/arm-none-eabi/14.2.0/../../../../arm-none-eabi/lib/thumb/v8-m.main+fp/hard/crt0.o
__libc_init_array                                 /opt/local/lib/gcc/arm-none-eabi/14.2.0/../../../../arm-none-eabi/lib/thumb/v8-m.main+fp/hard/libc.a(libc_a-init.o)
                                                  build/startup_stm32h503xx.o
                                                  /opt/local/lib/gcc/arm-none-eabi/14.2.0/../../../../arm-none-eabi/lib/thumb/v8-m.main+fp/hard/crt0.o
__lo0bits                                         /opt/local/lib/gcc/arm-none-eabi/14.2.0/../../../../arm-none-eabi/lib/thumb/v8-m.main+fp/hard/libc.a(libc_a-mprec.o)
__locale_mb_cur_max                               /opt/local/lib/gcc/arm-none-eabi/14.2.0/../../../../arm-none-eabi/lib/thumb/v8-m.main+fp/hard/libc.a(libc_a-locale.o)
                                                  /opt/local/lib/gcc/arm-none-eabi/14.2.0/../../../../arm-none-eabi/lib/thumb/v8-m.main+fp/hard/libc.a(libc_a-fputwc.o)
__localeconv_l                                    /opt/local/lib/gcc/arm-none-eabi/14.2.0/../../../../arm-none-eabi/lib/thumb/v8-m.main+fp/hard/libc.a(libc_a-localeconv.o)
__lshift                                          /opt/local/lib/gcc/arm-none-eabi/14.2.0/../../../../arm-none-eabi/lib/thumb/v8-m.main+fp/hard/libc.a(libc_a-mprec.o)
                                                  /opt/local/lib/gcc/arm-none-eabi/14.2.0/../../../../arm-none-eabi/lib/thumb/v8-m.main+fp/hard/libc.a(libc_a-dtoa.o)
__ltdf2                                           /opt/local/lib/gcc/arm-none-eabi/14.2.0/thumb/v8-m.main+fp/hard/libgcc.a(_arm_cmpdf2.o)
__malloc_av_                                      /opt/local/lib/gcc/arm-none-eabi/14.2.0/../../../../arm-none-eabi/lib/thumb/v8-m.main+fp/hard/libc.a(libc_a-mallocr.o)
                                                  /opt/local/lib/gcc/arm-none-eabi/14.2.0/../../../../arm-none-eabi/lib/thumb/v8-m.main+fp/hard/libc.a(libc_a-reallocr.o)
                                                  /opt/local/lib/gcc/arm-none-eabi/14.2.0/../../../../arm-none-eabi/lib/thumb/v8-m.main+fp/hard/libc.a(libc_a-freer.o)
__malloc_current_mallinfo                         /opt/local/lib/gcc/arm-none-eabi/14.2.0/../../../../arm-none-eabi/lib/thumb/v8-m.main+fp/hard/libc.a(libc_a-mallocr.o)
                                                  /opt/local/lib/gcc/arm-none-eabi/14.2.0/../../../../arm-none-eabi/lib/thumb/v8-m.main+fp/hard/libc.a(libc_a-freer.o)
__malloc_lock                                     /opt/local/lib/gcc/arm-none-eabi/14.2.0/../../../../arm-none-eabi/lib/thumb/v8-m.main+fp/hard/libc.a(libc_a-mlock.o)
                                                  /opt/local/lib/gcc/arm-none-eabi/14.2.0/../../../../arm-none-eabi/lib/thumb/v8-m.main+fp/hard/libc.a(libc_a-reallocr.o)
                                                  /opt/local/lib/gcc/arm-none-eabi/14.2.0/../../../../arm-none-eabi/lib/thumb/v8-m.main+fp/hard/libc.a(libc_a-mallocr.o)
                                                  /opt/local/lib/gcc/arm-none-eabi/14.2.0/../../../../arm-none-eabi/lib/thumb/v8-m.main+fp/hard/libc.a(libc_a-freer.o)
__malloc_max_sbrked_mem                           /opt/local/lib/gcc/arm-none-eabi/14.2.0/../../../../arm-none-eabi/lib/thumb/v8-m.main+fp/hard/libc.a(libc_a-mallocr.o)
__malloc_max_total_mem                            /opt/local/lib/gcc/arm-none-eabi/14.2.0/../../../../arm-none-eabi/lib/thumb/v8-m.main+fp/hard/libc.a(libc_a-mallocr.o)
__malloc_sbrk_base                                /opt/local/lib/gcc/arm-none-eabi/14.2.0/../../../../arm-none-eabi/lib/thumb/v8-m.main+fp/hard/libc.a(libc_a-mallocr.o)
                                                  /opt/local/lib/gcc/arm-none-eabi/14.2.0/../../../../arm-none-eabi/lib/thumb/v8-m.main+fp/hard/libc.a(libc_a-freer.o)
__malloc_top_pad                                  /opt/local/lib/gcc/arm-none-eabi/14.2.0/../../../../arm-none-eabi/lib/thumb/v8-m.main+fp/hard/libc.a(libc_a-mallocr.o)
                                                  /opt/local/lib/gcc/arm-none-eabi/14.2.0/../../../../arm-none-eabi/lib/thumb/v8-m.main+fp/hard/libc.a(libc_a-freer.o)
__malloc_trim_threshold                           /opt/local/lib/gcc/arm-none-eabi/14.2.0/../../../../arm-none-eabi/lib/thumb/v8-m.main+fp/hard/libc.a(libc_a-mallocr.o)
                                                  /opt/local/lib/gcc/arm-none-eabi/14.2.0/../../../../arm-none-eabi/lib/thumb/v8-m.main+fp/hard/libc.a(libc_a-freer.o)
__malloc_unlock                                   /opt/local/lib/gcc/arm-none-eabi/14.2.0/../../../../arm-none-eabi/lib/thumb/v8-m.main+fp/hard/libc.a(libc_a-mlock.o)
                                                  /opt/local/lib/gcc/arm-none-eabi/14.2.0/../../../../arm-none-eabi/lib/thumb/v8-m.main+fp/hard/libc.a(libc_a-reallocr.o)
                                                  /opt/local/lib/gcc/arm-none-eabi/14.2.0/../../../../arm-none-eabi/lib/thumb/v8-m.main+fp/hard/libc.a(libc_a-mallocr.o)
                                                  /opt/local/lib/gcc/arm-none-eabi/14.2.0/../../../../arm-none-eabi/lib/thumb/v8-m.main+fp/hard/libc.a(libc_a-freer.o)
__mcmp                                            /opt/local/lib/gcc/arm-none-eabi/14.2.0/../../../../arm-none-eabi/lib/thumb/v8-m.main+fp/hard/libc.a(libc_a-mprec.o)
                                                  /opt/local/lib/gcc/arm-none-eabi/14.2.0/../../../../arm-none-eabi/lib/thumb/v8-m.main+fp/hard/libc.a(libc_a-dtoa.o)
__mdiff                                           /opt/local/lib/gcc/arm-none-eabi/14.2.0/../../../../arm-none-eabi/lib/thumb/v8-m.main+fp/hard/libc.a(libc_a-mprec.o)
                                                  /opt/local/lib/gcc/arm-none-eabi/14.2.0/../../../../arm-none-eabi/lib/thumb/v8-m.main+fp/hard/libc.a(libc_a-dtoa.o)
__mprec_bigtens                                   /opt/local/lib/gcc/arm-none-eabi/14.2.0/../../../../arm-none-eabi/lib/thumb/v8-m.main+fp/hard/libc.a(libc_a-mprec.o)
                                                  /opt/local/lib/gcc/arm-none-eabi/14.2.0/../../../../arm-none-eabi/lib/thumb/v8-m.main+fp/hard/libc.a(libc_a-dtoa.o)
__mprec_tens                                      /opt/local/lib/gcc/arm-none-eabi/14.2.0/../../../../arm-none-eabi/lib/thumb/v8-m.main+fp/hard/libc.a(libc_a-mprec.o)
                                                  /opt/local/lib/gcc/arm-none-eabi/14.2.0/../../../../arm-none-eabi/lib/thumb/v8-m.main+fp/hard/libc.a(libc_a-dtoa.o)
__mprec_tinytens                                  /opt/local/lib/gcc/arm-none-eabi/14.2.0/../../../../arm-none-eabi/lib/thumb/v8-m.main+fp/hard/libc.a(libc_a-mprec.o)
__muldf3                                          /opt/local/lib/gcc/arm-none-eabi/14.2.0/thumb/v8-m.main+fp/hard/libgcc.a(_arm_muldivdf3.o)
                                                  /opt/local/lib/gcc/arm-none-eabi/14.2.0/thumb/v8-m.main+fp/hard/libgcc.a(_arm_muldf3.o)
__multadd                                         /opt/local/lib/gcc/arm-none-eabi/14.2.0/../../../../arm-none-eabi/lib/thumb/v8-m.main+fp/hard/libc.a(libc_a-mprec.o)
                                                  /opt/local/lib/gcc/arm-none-eabi/14.2.0/../../../../arm-none-eabi/lib/thumb/v8-m.main+fp/hard/libc.a(libc_a-dtoa.o)
__multiply                                        /opt/local/lib/gcc/arm-none-eabi/14.2.0/../../../../arm-none-eabi/lib/thumb/v8-m.main+fp/hard/libc.a(libc_a-mprec.o)
                                                  /opt/local/lib/gcc/arm-none-eabi/14.2.0/../../../../arm-none-eabi/lib/thumb/v8-m.main+fp/hard/libc.a(libc_a-dtoa.o)
__nedf2                                           /opt/local/lib/gcc/arm-none-eabi/14.2.0/thumb/v8-m.main+fp/hard/libgcc.a(_arm_cmpdf2.o)
__pow5mult                                        /opt/local/lib/gcc/arm-none-eabi/14.2.0/../../../../arm-none-eabi/lib/thumb/v8-m.main+fp/hard/libc.a(libc_a-mprec.o)
                                                  /opt/local/lib/gcc/arm-none-eabi/14.2.0/../../../../arm-none-eabi/lib/thumb/v8-m.main+fp/hard/libc.a(libc_a-dtoa.o)
__preinit_array_end                               /opt/local/lib/gcc/arm-none-eabi/14.2.0/../../../../arm-none-eabi/lib/thumb/v8-m.main+fp/hard/libc.a(libc_a-init.o)
__preinit_array_start                             /opt/local/lib/gcc/arm-none-eabi/14.2.0/../../../../arm-none-eabi/lib/thumb/v8-m.main+fp/hard/libc.a(libc_a-init.o)
__ratio                                           /opt/local/lib/gcc/arm-none-eabi/14.2.0/../../../../arm-none-eabi/lib/thumb/v8-m.main+fp/hard/libc.a(libc_a-mprec.o)
__register_exitproc                               /opt/local/lib/gcc/arm-none-eabi/14.2.0/../../../../arm-none-eabi/lib/thumb/v8-m.main+fp/hard/libc.a(libc_a-__atexit.o)
                                                  /opt/local/lib/gcc/arm-none-eabi/14.2.0/../../../../arm-none-eabi/lib/thumb/v8-m.main+fp/hard/libc.a(libc_a-atexit.o)
__register_frame_info                             /opt/local/lib/gcc/arm-none-eabi/14.2.0/thumb/v8-m.main+fp/hard/crtbegin.o
__s2b                                             /opt/local/lib/gcc/arm-none-eabi/14.2.0/../../../../arm-none-eabi/lib/thumb/v8-m.main+fp/hard/libc.a(libc_a-mprec.o)
__sclose                                          /opt/local/lib/gcc/arm-none-eabi/14.2.0/../../../../arm-none-eabi/lib/thumb/v8-m.main+fp/hard/libc.a(libc_a-stdio.o)
                                                  /opt/local/lib/gcc/arm-none-eabi/14.2.0/../../../../arm-none-eabi/lib/thumb/v8-m.main+fp/hard/libc.a(libc_a-findfp.o)
__seofread                                        /opt/local/lib/gcc/arm-none-eabi/14.2.0/../../../../arm-none-eabi/lib/thumb/v8-m.main+fp/hard/libc.a(libc_a-stdio.o)
__sf                                              /opt/local/lib/gcc/arm-none-eabi/14.2.0/../../../../arm-none-eabi/lib/thumb/v8-m.main+fp/hard/libc.a(libc_a-findfp.o)
                                                  /opt/local/lib/gcc/arm-none-eabi/14.2.0/../../../../arm-none-eabi/lib/thumb/v8-m.main+fp/hard/libc.a(libc_a-impure.o)
__sflush_r                                        /opt/local/lib/gcc/arm-none-eabi/14.2.0/../../../../arm-none-eabi/lib/thumb/v8-m.main+fp/hard/libc.a(libc_a-fflush.o)
                                                  /opt/local/lib/gcc/arm-none-eabi/14.2.0/../../../../arm-none-eabi/lib/thumb/v8-m.main+fp/hard/libc.a(libc_a-fclose.o)
__sfp                                             /opt/local/lib/gcc/arm-none-eabi/14.2.0/../../../../arm-none-eabi/lib/thumb/v8-m.main+fp/hard/libc.a(libc_a-findfp.o)
__sfp_lock_acquire                                /opt/local/lib/gcc/arm-none-eabi/14.2.0/../../../../arm-none-eabi/lib/thumb/v8-m.main+fp/hard/libc.a(libc_a-findfp.o)
                                                  /opt/local/lib/gcc/arm-none-eabi/14.2.0/../../../../arm-none-eabi/lib/thumb/v8-m.main+fp/hard/libc.a(libc_a-fclose.o)
__sfp_lock_release                                /opt/local/lib/gcc/arm-none-eabi/14.2.0/../../../../arm-none-eabi/lib/thumb/v8-m.main+fp/hard/libc.a(libc_a-findfp.o)
                                                  /opt/local/lib/gcc/arm-none-eabi/14.2.0/../../../../arm-none-eabi/lib/thumb/v8-m.main+fp/hard/libc.a(libc_a-fclose.o)
__sfvwrite_r                                      /opt/local/lib/gcc/arm-none-eabi/14.2.0/../../../../arm-none-eabi/lib/thumb/v8-m.main+fp/hard/libc.a(libc_a-fvwrite.o)
                                                  /opt/local/lib/gcc/arm-none-eabi/14.2.0/../../../../arm-none-eabi/lib/thumb/v8-m.main+fp/hard/libc.a(libc_a-puts.o)
                                                  /opt/local/lib/gcc/arm-none-eabi/14.2.0/../../../../arm-none-eabi/lib/thumb/v8-m.main+fp/hard/libc.a(libc_a-vfiprintf.o)
__sglue                                           /opt/local/lib/gcc/arm-none-eabi/14.2.0/../../../../arm-none-eabi/lib/thumb/v8-m.main+fp/hard/libc.a(libc_a-findfp.o)
                                                  /opt/local/lib/gcc/arm-none-eabi/14.2.0/../../../../arm-none-eabi/lib/thumb/v8-m.main+fp/hard/libc.a(libc_a-fflush.o)
__sigtramp                                        /opt/local/lib/gcc/arm-none-eabi/14.2.0/../../../../arm-none-eabi/lib/thumb/v8-m.main+fp/hard/libc.a(libc_a-signal.o)
__sigtramp_r                                      /opt/local/lib/gcc/arm-none-eabi/14.2.0/../../../../arm-none-eabi/lib/thumb/v8-m.main+fp/hard/libc.a(libc_a-signal.o)
__sinit                                           /opt/local/lib/gcc/arm-none-eabi/14.2.0/../../../../arm-none-eabi/lib/thumb/v8-m.main+fp/hard/libc.a(libc_a-findfp.o)
                                                  /opt/local/lib/gcc/arm-none-eabi/14.2.0/../../../../arm-none-eabi/lib/thumb/v8-m.main+fp/hard/libc.a(libc_a-wbuf.o)
                                                  /opt/local/lib/gcc/arm-none-eabi/14.2.0/../../../../arm-none-eabi/lib/thumb/v8-m.main+fp/hard/libc.a(libc_a-fclose.o)
                                                  /opt/local/lib/gcc/arm-none-eabi/14.2.0/../../../../arm-none-eabi/lib/thumb/v8-m.main+fp/hard/libc.a(libc_a-fputwc.o)
                                                  /opt/local/lib/gcc/arm-none-eabi/14.2.0/../../../../arm-none-eabi/lib/thumb/v8-m.main+fp/hard/libc.a(libc_a-wsetup.o)
                                                  /opt/local/lib/gcc/arm-none-eabi/14.2.0/../../../../arm-none-eabi/lib/thumb/v8-m.main+fp/hard/libc.a(libc_a-fflush.o)
                                                  /opt/local/lib/gcc/arm-none-eabi/14.2.0/../../../../arm-none-eabi/lib/thumb/v8-m.main+fp/hard/libc.a(libc_a-puts.o)
                                                  /opt/local/lib/gcc/arm-none-eabi/14.2.0/../../../../arm-none-eabi/lib/thumb/v8-m.main+fp/hard/libc.a(libc_a-vfiprintf.o)
                                                  /opt/local/lib/gcc/arm-none-eabi/14.2.0/../../../../arm-none-eabi/lib/thumb/v8-m.main+fp/hard/libc.a(libc_a-vfprintf.o)
__smakebuf_r                                      /opt/local/lib/gcc/arm-none-eabi/14.2.0/../../../../arm-none-eabi/lib/thumb/v8-m.main+fp/hard/libc.a(libc_a-makebuf.o)
                                                  /opt/local/lib/gcc/arm-none-eabi/14.2.0/../../../../arm-none-eabi/lib/thumb/v8-m.main+fp/hard/libc.a(libc_a-wsetup.o)
__sprint_r                                        /opt/local/lib/gcc/arm-none-eabi/14.2.0/../../../../arm-none-eabi/lib/thumb/v8-m.main+fp/hard/libc.a(libc_a-vfiprintf.o)
                                                  /opt/local/lib/gcc/arm-none-eabi/14.2.0/../../../../arm-none-eabi/lib/thumb/v8-m.main+fp/hard/libc.a(libc_a-vfprintf.o)
__sread                                           /opt/local/lib/gcc/arm-none-eabi/14.2.0/../../../../arm-none-eabi/lib/thumb/v8-m.main+fp/hard/libc.a(libc_a-stdio.o)
                                                  /opt/local/lib/gcc/arm-none-eabi/14.2.0/../../../../arm-none-eabi/lib/thumb/v8-m.main+fp/hard/libc.a(libc_a-findfp.o)
__sseek                                           /opt/local/lib/gcc/arm-none-eabi/14.2.0/../../../../arm-none-eabi/lib/thumb/v8-m.main+fp/hard/libc.a(libc_a-stdio.o)
                                                  /opt/local/lib/gcc/arm-none-eabi/14.2.0/../../../../arm-none-eabi/lib/thumb/v8-m.main+fp/hard/libc.a(libc_a-findfp.o)
__stack                                           /opt/local/lib/gcc/arm-none-eabi/14.2.0/../../../../arm-none-eabi/lib/thumb/v8-m.main+fp/hard/crt0.o
__stdio_exit_handler                              /opt/local/lib/gcc/arm-none-eabi/14.2.0/../../../../arm-none-eabi/lib/thumb/v8-m.main+fp/hard/libc.a(libc_a-findfp.o)
                                                  /opt/local/lib/gcc/arm-none-eabi/14.2.0/../../../../arm-none-eabi/lib/thumb/v8-m.main+fp/hard/libc.a(libc_a-exit.o)
__subdf3                                          /opt/local/lib/gcc/arm-none-eabi/14.2.0/thumb/v8-m.main+fp/hard/libgcc.a(_arm_addsubdf3.o)
__swbuf                                           /opt/local/lib/gcc/arm-none-eabi/14.2.0/../../../../arm-none-eabi/lib/thumb/v8-m.main+fp/hard/libc.a(libc_a-wbuf.o)
__swbuf_r                                         /opt/local/lib/gcc/arm-none-eabi/14.2.0/../../../../arm-none-eabi/lib/thumb/v8-m.main+fp/hard/libc.a(libc_a-wbuf.o)
                                                  /opt/local/lib/gcc/arm-none-eabi/14.2.0/../../../../arm-none-eabi/lib/thumb/v8-m.main+fp/hard/libc.a(libc_a-fputwc.o)
__swhatbuf_r                                      /opt/local/lib/gcc/arm-none-eabi/14.2.0/../../../../arm-none-eabi/lib/thumb/v8-m.main+fp/hard/libc.a(libc_a-makebuf.o)
__swrite                                          /opt/local/lib/gcc/arm-none-eabi/14.2.0/../../../../arm-none-eabi/lib/thumb/v8-m.main+fp/hard/libc.a(libc_a-stdio.o)
                                                  /opt/local/lib/gcc/arm-none-eabi/14.2.0/../../../../arm-none-eabi/lib/thumb/v8-m.main+fp/hard/libc.a(libc_a-findfp.o)
__swsetup_r                                       /opt/local/lib/gcc/arm-none-eabi/14.2.0/../../../../arm-none-eabi/lib/thumb/v8-m.main+fp/hard/libc.a(libc_a-wsetup.o)
                                                  /opt/local/lib/gcc/arm-none-eabi/14.2.0/../../../../arm-none-eabi/lib/thumb/v8-m.main+fp/hard/libc.a(libc_a-wbuf.o)
                                                  /opt/local/lib/gcc/arm-none-eabi/14.2.0/../../../../arm-none-eabi/lib/thumb/v8-m.main+fp/hard/libc.a(libc_a-fvwrite.o)
                                                  /opt/local/lib/gcc/arm-none-eabi/14.2.0/../../../../arm-none-eabi/lib/thumb/v8-m.main+fp/hard/libc.a(libc_a-vfiprintf.o)
                                                  /opt/local/lib/gcc/arm-none-eabi/14.2.0/../../../../arm-none-eabi/lib/thumb/v8-m.main+fp/hard/libc.a(libc_a-vfprintf.o)
__udivmoddi4                                      /opt/local/lib/gcc/arm-none-eabi/14.2.0/thumb/v8-m.main+fp/hard/libgcc.a(_udivmoddi4.o)
                                                  /opt/local/lib/gcc/arm-none-eabi/14.2.0/thumb/v8-m.main+fp/hard/libgcc.a(_aeabi_uldivmod.o)
__ulp                                             /opt/local/lib/gcc/arm-none-eabi/14.2.0/../../../../arm-none-eabi/lib/thumb/v8-m.main+fp/hard/libc.a(libc_a-mprec.o)
__unorddf2                                        /opt/local/lib/gcc/arm-none-eabi/14.2.0/thumb/v8-m.main+fp/hard/libgcc.a(_arm_unorddf2.o)
_calloc_r                                         /opt/local/lib/gcc/arm-none-eabi/14.2.0/../../../../arm-none-eabi/lib/thumb/v8-m.main+fp/hard/libc.a(libc_a-callocr.o)
                                                  /opt/local/lib/gcc/arm-none-eabi/14.2.0/../../../../arm-none-eabi/lib/thumb/v8-m.main+fp/hard/libc.a(libc_a-mprec.o)
_close                                            build/syscalls.o
                                                  /opt/local/lib/gcc/arm-none-eabi/14.2.0/../../../../arm-none-eabi/lib/thumb/v8-m.main+fp/hard/libc.a(libc_a-closer.o)
_close_r                                          /opt/local/lib/gcc/arm-none-eabi/14.2.0/../../../../arm-none-eabi/lib/thumb/v8-m.main+fp/hard/libc.a(libc_a-closer.o)
                                                  /opt/local/lib/gcc/arm-none-eabi/14.2.0/../../../../arm-none-eabi/lib/thumb/v8-m.main+fp/hard/libc.a(libc_a-stdio.o)
_ctype_                                           /opt/local/lib/gcc/arm-none-eabi/14.2.0/../../../../arm-none-eabi/lib/thumb/v8-m.main+fp/hard/libc.a(libc_a-ctype_.o)
                                                  /opt/local/lib/gcc/arm-none-eabi/14.2.0/../../../../arm-none-eabi/lib/thumb/v8-m.main+fp/hard/libc.a(libc_a-locale.o)
_dtoa_r                                           /opt/local/lib/gcc/arm-none-eabi/14.2.0/../../../../arm-none-eabi/lib/thumb/v8-m.main+fp/hard/libc.a(libc_a-dtoa.o)
                                                  /opt/local/lib/gcc/arm-none-eabi/14.2.0/../../../../arm-none-eabi/lib/thumb/v8-m.main+fp/hard/libc.a(libc_a-vfprintf.o)
_ebss                                             build/startup_stm32h503xx.o
_edata                                            build/startup_stm32h503xx.o
_end                                              build/sysmem.o
_estack                                           build/startup_stm32h503xx.o
                                                  build/sysmem.o
_execve                                           build/syscalls.o
_exit                                             build/syscalls.o
                                                  /opt/local/lib/gcc/arm-none-eabi/14.2.0/../../../../arm-none-eabi/lib/thumb/v8-m.main+fp/hard/libc.a(libc_a-abort.o)
                                                  /opt/local/lib/gcc/arm-none-eabi/14.2.0/../../../../arm-none-eabi/lib/thumb/v8-m.main+fp/hard/libc.a(libc_a-exit.o)
_fclose_r                                         /opt/local/lib/gcc/arm-none-eabi/14.2.0/../../../../arm-none-eabi/lib/thumb/v8-m.main+fp/hard/libc.a(libc_a-fclose.o)
                                                  /opt/local/lib/gcc/arm-none-eabi/14.2.0/../../../../arm-none-eabi/lib/thumb/v8-m.main+fp/hard/libc.a(libc_a-findfp.o)
_fflush_r                                         /opt/local/lib/gcc/arm-none-eabi/14.2.0/../../../../arm-none-eabi/lib/thumb/v8-m.main+fp/hard/libc.a(libc_a-fflush.o)
                                                  /opt/local/lib/gcc/arm-none-eabi/14.2.0/../../../../arm-none-eabi/lib/thumb/v8-m.main+fp/hard/libc.a(libc_a-wbuf.o)
                                                  /opt/local/lib/gcc/arm-none-eabi/14.2.0/../../../../arm-none-eabi/lib/thumb/v8-m.main+fp/hard/libc.a(libc_a-fvwrite.o)
                                                  /opt/local/lib/gcc/arm-none-eabi/14.2.0/../../../../arm-none-eabi/lib/thumb/v8-m.main+fp/hard/libc.a(libc_a-vfiprintf.o)
                                                  /opt/local/lib/gcc/arm-none-eabi/14.2.0/../../../../arm-none-eabi/lib/thumb/v8-m.main+fp/hard/libc.a(libc_a-vfprintf.o)
_fini                                             /opt/local/lib/gcc/arm-none-eabi/14.2.0/thumb/v8-m.main+fp/hard/crti.o
                                                  /opt/local/lib/gcc/arm-none-eabi/14.2.0/../../../../arm-none-eabi/lib/thumb/v8-m.main+fp/hard/libc.a(libc_a-fini.o)
_fiprintf_r                                       /opt/local/lib/gcc/arm-none-eabi/14.2.0/../../../../arm-none-eabi/lib/thumb/v8-m.main+fp/hard/libc.a(libc_a-fiprintf.o)
_fork                                             build/syscalls.o
_fputwc_r                                         /opt/local/lib/gcc/arm-none-eabi/14.2.0/../../../../arm-none-eabi/lib/thumb/v8-m.main+fp/hard/libc.a(libc_a-fputwc.o)
                                                  /opt/local/lib/gcc/arm-none-eabi/14.2.0/../../../../arm-none-eabi/lib/thumb/v8-m.main+fp/hard/libc.a(libc_a-vfiprintf.o)
_free_r                                           /opt/local/lib/gcc/arm-none-eabi/14.2.0/../../../../arm-none-eabi/lib/thumb/v8-m.main+fp/hard/libc.a(libc_a-freer.o)
                                                  /opt/local/lib/gcc/arm-none-eabi/14.2.0/../../../../arm-none-eabi/lib/thumb/v8-m.main+fp/hard/libc.a(libc_a-reent.o)
                                                  /opt/local/lib/gcc/arm-none-eabi/14.2.0/../../../../arm-none-eabi/lib/thumb/v8-m.main+fp/hard/libc.a(libc_a-reallocr.o)
                                                  /opt/local/lib/gcc/arm-none-eabi/14.2.0/../../../../arm-none-eabi/lib/thumb/v8-m.main+fp/hard/libc.a(libc_a-fclose.o)
                                                  /opt/local/lib/gcc/arm-none-eabi/14.2.0/../../../../arm-none-eabi/lib/thumb/v8-m.main+fp/hard/libc.a(libc_a-mallocr.o)
                                                  /opt/local/lib/gcc/arm-none-eabi/14.2.0/../../../../arm-none-eabi/lib/thumb/v8-m.main+fp/hard/libc.a(libc_a-wsetup.o)
                                                  /opt/local/lib/gcc/arm-none-eabi/14.2.0/../../../../arm-none-eabi/lib/thumb/v8-m.main+fp/hard/libc.a(libc_a-fvwrite.o)
                                                  /opt/local/lib/gcc/arm-none-eabi/14.2.0/../../../../arm-none-eabi/lib/thumb/v8-m.main+fp/hard/libc.a(libc_a-fflush.o)
_fstat                                            build/syscalls.o
                                                  /opt/local/lib/gcc/arm-none-eabi/14.2.0/../../../../arm-none-eabi/lib/thumb/v8-m.main+fp/hard/libc.a(libc_a-fstatr.o)
_fstat_r                                          /opt/local/lib/gcc/arm-none-eabi/14.2.0/../../../../arm-none-eabi/lib/thumb/v8-m.main+fp/hard/libc.a(libc_a-fstatr.o)
                                                  /opt/local/lib/gcc/arm-none-eabi/14.2.0/../../../../arm-none-eabi/lib/thumb/v8-m.main+fp/hard/libc.a(libc_a-makebuf.o)
_fwalk_sglue                                      /opt/local/lib/gcc/arm-none-eabi/14.2.0/../../../../arm-none-eabi/lib/thumb/v8-m.main+fp/hard/libc.a(libc_a-fwalk.o)
                                                  /opt/local/lib/gcc/arm-none-eabi/14.2.0/../../../../arm-none-eabi/lib/thumb/v8-m.main+fp/hard/libc.a(libc_a-findfp.o)
                                                  /opt/local/lib/gcc/arm-none-eabi/14.2.0/../../../../arm-none-eabi/lib/thumb/v8-m.main+fp/hard/libc.a(libc_a-fflush.o)
_getpid                                           build/syscalls.o
                                                  /opt/local/lib/gcc/arm-none-eabi/14.2.0/../../../../arm-none-eabi/lib/thumb/v8-m.main+fp/hard/libc.a(libc_a-signalr.o)
_getpid_r                                         /opt/local/lib/gcc/arm-none-eabi/14.2.0/../../../../arm-none-eabi/lib/thumb/v8-m.main+fp/hard/libc.a(libc_a-signalr.o)
                                                  /opt/local/lib/gcc/arm-none-eabi/14.2.0/../../../../arm-none-eabi/lib/thumb/v8-m.main+fp/hard/libc.a(libc_a-signal.o)
_impure_data                                      /opt/local/lib/gcc/arm-none-eabi/14.2.0/../../../../arm-none-eabi/lib/thumb/v8-m.main+fp/hard/libc.a(libc_a-impure.o)
                                                  /opt/local/lib/gcc/arm-none-eabi/14.2.0/../../../../arm-none-eabi/lib/thumb/v8-m.main+fp/hard/libc.a(libc_a-findfp.o)
                                                  /opt/local/lib/gcc/arm-none-eabi/14.2.0/../../../../arm-none-eabi/lib/thumb/v8-m.main+fp/hard/libc.a(libc_a-fflush.o)
_impure_ptr                                       /opt/local/lib/gcc/arm-none-eabi/14.2.0/../../../../arm-none-eabi/lib/thumb/v8-m.main+fp/hard/libc.a(libc_a-impure.o)
                                                  /opt/local/lib/gcc/arm-none-eabi/14.2.0/../../../../arm-none-eabi/lib/thumb/v8-m.main+fp/hard/libc.a(libc_a-signal.o)
                                                  /opt/local/lib/gcc/arm-none-eabi/14.2.0/../../../../arm-none-eabi/lib/thumb/v8-m.main+fp/hard/libc.a(libc_a-fiprintf.o)
                                                  /opt/local/lib/gcc/arm-none-eabi/14.2.0/../../../../arm-none-eabi/lib/thumb/v8-m.main+fp/hard/libc.a(libc_a-assert.o)
                                                  /opt/local/lib/gcc/arm-none-eabi/14.2.0/../../../../arm-none-eabi/lib/thumb/v8-m.main+fp/hard/libc.a(libc_a-reent.o)
                                                  /opt/local/lib/gcc/arm-none-eabi/14.2.0/../../../../arm-none-eabi/lib/thumb/v8-m.main+fp/hard/libc.a(libc_a-wbuf.o)
                                                  /opt/local/lib/gcc/arm-none-eabi/14.2.0/../../../../arm-none-eabi/lib/thumb/v8-m.main+fp/hard/libc.a(libc_a-fclose.o)
                                                  /opt/local/lib/gcc/arm-none-eabi/14.2.0/../../../../arm-none-eabi/lib/thumb/v8-m.main+fp/hard/libc.a(libc_a-wcrtomb.o)
                                                  /opt/local/lib/gcc/arm-none-eabi/14.2.0/../../../../arm-none-eabi/lib/thumb/v8-m.main+fp/hard/libc.a(libc_a-errno.o)
                                                  /opt/local/lib/gcc/arm-none-eabi/14.2.0/../../../../arm-none-eabi/lib/thumb/v8-m.main+fp/hard/libc.a(libc_a-fputwc.o)
                                                  /opt/local/lib/gcc/arm-none-eabi/14.2.0/../../../../arm-none-eabi/lib/thumb/v8-m.main+fp/hard/libc.a(libc_a-wsetup.o)
                                                  /opt/local/lib/gcc/arm-none-eabi/14.2.0/../../../../arm-none-eabi/lib/thumb/v8-m.main+fp/hard/libc.a(libc_a-fflush.o)
                                                  /opt/local/lib/gcc/arm-none-eabi/14.2.0/../../../../arm-none-eabi/lib/thumb/v8-m.main+fp/hard/libc.a(libc_a-puts.o)
                                                  /opt/local/lib/gcc/arm-none-eabi/14.2.0/../../../../arm-none-eabi/lib/thumb/v8-m.main+fp/hard/libc.a(libc_a-vfiprintf.o)
                                                  /opt/local/lib/gcc/arm-none-eabi/14.2.0/../../../../arm-none-eabi/lib/thumb/v8-m.main+fp/hard/libc.a(libc_a-vfprintf.o)
                                                  /opt/local/lib/gcc/arm-none-eabi/14.2.0/../../../../arm-none-eabi/lib/thumb/v8-m.main+fp/hard/libc.a(libc_a-printf.o)
_init                                             /opt/local/lib/gcc/arm-none-eabi/14.2.0/thumb/v8-m.main+fp/hard/crti.o
                                                  /opt/local/lib/gcc/arm-none-eabi/14.2.0/../../../../arm-none-eabi/lib/thumb/v8-m.main+fp/hard/libc.a(libc_a-init.o)
_init_signal                                      /opt/local/lib/gcc/arm-none-eabi/14.2.0/../../../../arm-none-eabi/lib/thumb/v8-m.main+fp/hard/libc.a(libc_a-signal.o)
_init_signal_r                                    /opt/local/lib/gcc/arm-none-eabi/14.2.0/../../../../arm-none-eabi/lib/thumb/v8-m.main+fp/hard/libc.a(libc_a-signal.o)
_isatty                                           build/syscalls.o
                                                  /opt/local/lib/gcc/arm-none-eabi/14.2.0/../../../../arm-none-eabi/lib/thumb/v8-m.main+fp/hard/libc.a(libc_a-isattyr.o)
_isatty_r                                         /opt/local/lib/gcc/arm-none-eabi/14.2.0/../../../../arm-none-eabi/lib/thumb/v8-m.main+fp/hard/libc.a(libc_a-isattyr.o)
                                                  /opt/local/lib/gcc/arm-none-eabi/14.2.0/../../../../arm-none-eabi/lib/thumb/v8-m.main+fp/hard/libc.a(libc_a-makebuf.o)
_kill                                             build/syscalls.o
                                                  /opt/local/lib/gcc/arm-none-eabi/14.2.0/../../../../arm-none-eabi/lib/thumb/v8-m.main+fp/hard/libc.a(libc_a-signalr.o)
_kill_r                                           /opt/local/lib/gcc/arm-none-eabi/14.2.0/../../../../arm-none-eabi/lib/thumb/v8-m.main+fp/hard/libc.a(libc_a-signalr.o)
                                                  /opt/local/lib/gcc/arm-none-eabi/14.2.0/../../../../arm-none-eabi/lib/thumb/v8-m.main+fp/hard/libc.a(libc_a-signal.o)
_link                                             build/syscalls.o
_localeconv_r                                     /opt/local/lib/gcc/arm-none-eabi/14.2.0/../../../../arm-none-eabi/lib/thumb/v8-m.main+fp/hard/libc.a(libc_a-localeconv.o)
                                                  /opt/local/lib/gcc/arm-none-eabi/14.2.0/../../../../arm-none-eabi/lib/thumb/v8-m.main+fp/hard/libc.a(libc_a-vfprintf.o)
_lseek                                            build/syscalls.o
                                                  /opt/local/lib/gcc/arm-none-eabi/14.2.0/../../../../arm-none-eabi/lib/thumb/v8-m.main+fp/hard/libc.a(libc_a-lseekr.o)
_lseek_r                                          /opt/local/lib/gcc/arm-none-eabi/14.2.0/../../../../arm-none-eabi/lib/thumb/v8-m.main+fp/hard/libc.a(libc_a-lseekr.o)
                                                  /opt/local/lib/gcc/arm-none-eabi/14.2.0/../../../../arm-none-eabi/lib/thumb/v8-m.main+fp/hard/libc.a(libc_a-stdio.o)
_mainCRTStartup                                   /opt/local/lib/gcc/arm-none-eabi/14.2.0/../../../../arm-none-eabi/lib/thumb/v8-m.main+fp/hard/crt0.o
_malloc_r                                         /opt/local/lib/gcc/arm-none-eabi/14.2.0/../../../../arm-none-eabi/lib/thumb/v8-m.main+fp/hard/libc.a(libc_a-mallocr.o)
                                                  /opt/local/lib/gcc/arm-none-eabi/14.2.0/../../../../arm-none-eabi/lib/thumb/v8-m.main+fp/hard/libc.a(libc_a-signal.o)
                                                  /opt/local/lib/gcc/arm-none-eabi/14.2.0/../../../../arm-none-eabi/lib/thumb/v8-m.main+fp/hard/libc.a(libc_a-callocr.o)
                                                  /opt/local/lib/gcc/arm-none-eabi/14.2.0/../../../../arm-none-eabi/lib/thumb/v8-m.main+fp/hard/libc.a(libc_a-reallocr.o)
                                                  /opt/local/lib/gcc/arm-none-eabi/14.2.0/../../../../arm-none-eabi/lib/thumb/v8-m.main+fp/hard/libc.a(libc_a-makebuf.o)
                                                  /opt/local/lib/gcc/arm-none-eabi/14.2.0/../../../../arm-none-eabi/lib/thumb/v8-m.main+fp/hard/libc.a(libc_a-fvwrite.o)
                                                  /opt/local/lib/gcc/arm-none-eabi/14.2.0/../../../../arm-none-eabi/lib/thumb/v8-m.main+fp/hard/libc.a(libc_a-findfp.o)
_malloc_trim_r                                    /opt/local/lib/gcc/arm-none-eabi/14.2.0/../../../../arm-none-eabi/lib/thumb/v8-m.main+fp/hard/libc.a(libc_a-freer.o)
_mbtowc_r                                         /opt/local/lib/gcc/arm-none-eabi/14.2.0/../../../../arm-none-eabi/lib/thumb/v8-m.main+fp/hard/libc.a(libc_a-mbtowc_r.o)
_mprec_log10                                      /opt/local/lib/gcc/arm-none-eabi/14.2.0/../../../../arm-none-eabi/lib/thumb/v8-m.main+fp/hard/libc.a(libc_a-mprec.o)
_open                                             build/syscalls.o
_printf_r                                         /opt/local/lib/gcc/arm-none-eabi/14.2.0/../../../../arm-none-eabi/lib/thumb/v8-m.main+fp/hard/libc.a(libc_a-printf.o)
_puts_r                                           /opt/local/lib/gcc/arm-none-eabi/14.2.0/../../../../arm-none-eabi/lib/thumb/v8-m.main+fp/hard/libc.a(libc_a-puts.o)
_raise_r                                          /opt/local/lib/gcc/arm-none-eabi/14.2.0/../../../../arm-none-eabi/lib/thumb/v8-m.main+fp/hard/libc.a(libc_a-signal.o)
_read                                             build/syscalls.o
                                                  /opt/local/lib/gcc/arm-none-eabi/14.2.0/../../../../arm-none-eabi/lib/thumb/v8-m.main+fp/hard/libc.a(libc_a-readr.o)
_read_r                                           /opt/local/lib/gcc/arm-none-eabi/14.2.0/../../../../arm-none-eabi/lib/thumb/v8-m.main+fp/hard/libc.a(libc_a-readr.o)
                                                  /opt/local/lib/gcc/arm-none-eabi/14.2.0/../../../../arm-none-eabi/lib/thumb/v8-m.main+fp/hard/libc.a(libc_a-stdio.o)
_realloc_r                                        /opt/local/lib/gcc/arm-none-eabi/14.2.0/../../../../arm-none-eabi/lib/thumb/v8-m.main+fp/hard/libc.a(libc_a-reallocr.o)
                                                  /opt/local/lib/gcc/arm-none-eabi/14.2.0/../../../../arm-none-eabi/lib/thumb/v8-m.main+fp/hard/libc.a(libc_a-fvwrite.o)
_reclaim_reent                                    /opt/local/lib/gcc/arm-none-eabi/14.2.0/../../../../arm-none-eabi/lib/thumb/v8-m.main+fp/hard/libc.a(libc_a-reent.o)
_sbrk                                             build/sysmem.o
                                                  /opt/local/lib/gcc/arm-none-eabi/14.2.0/../../../../arm-none-eabi/lib/thumb/v8-m.main+fp/hard/libc.a(libc_a-sbrkr.o)
_sbrk_r                                           /opt/local/lib/gcc/arm-none-eabi/14.2.0/../../../../arm-none-eabi/lib/thumb/v8-m.main+fp/hard/libc.a(libc_a-sbrkr.o)
                                                  /opt/local/lib/gcc/arm-none-eabi/14.2.0/../../../../arm-none-eabi/lib/thumb/v8-m.main+fp/hard/libc.a(libc_a-mallocr.o)
                                                  /opt/local/lib/gcc/arm-none-eabi/14.2.0/../../../../arm-none-eabi/lib/thumb/v8-m.main+fp/hard/libc.a(libc_a-freer.o)
_sbss                                             build/startup_stm32h503xx.o
_sdata                                            build/startup_stm32h503xx.o
_setlocale_r                                      /opt/local/lib/gcc/arm-none-eabi/14.2.0/../../../../arm-none-eabi/lib/thumb/v8-m.main+fp/hard/libc.a(libc_a-locale.o)
_sidata                                           build/startup_stm32h503xx.o
_signal_r                                         /opt/local/lib/gcc/arm-none-eabi/14.2.0/../../../../arm-none-eabi/lib/thumb/v8-m.main+fp/hard/libc.a(libc_a-signal.o)
_stack_init                                       /opt/local/lib/gcc/arm-none-eabi/14.2.0/../../../../arm-none-eabi/lib/thumb/v8-m.main+fp/hard/crt0.o
_start                                            /opt/local/lib/gcc/arm-none-eabi/14.2.0/../../../../arm-none-eabi/lib/thumb/v8-m.main+fp/hard/crt0.o
_stat                                             build/syscalls.o
_times                                            build/syscalls.o
_unlink                                           build/syscalls.o
_vfiprintf_r                                      /opt/local/lib/gcc/arm-none-eabi/14.2.0/../../../../arm-none-eabi/lib/thumb/v8-m.main+fp/hard/libc.a(libc_a-vfiprintf.o)
                                                  /opt/local/lib/gcc/arm-none-eabi/14.2.0/../../../../arm-none-eabi/lib/thumb/v8-m.main+fp/hard/libc.a(libc_a-fiprintf.o)
_vfprintf_r                                       /opt/local/lib/gcc/arm-none-eabi/14.2.0/../../../../arm-none-eabi/lib/thumb/v8-m.main+fp/hard/libc.a(libc_a-vfprintf.o)
                                                  /opt/local/lib/gcc/arm-none-eabi/14.2.0/../../../../arm-none-eabi/lib/thumb/v8-m.main+fp/hard/libc.a(libc_a-printf.o)
_wait                                             build/syscalls.o
_wcrtomb_r                                        /opt/local/lib/gcc/arm-none-eabi/14.2.0/../../../../arm-none-eabi/lib/thumb/v8-m.main+fp/hard/libc.a(libc_a-wcrtomb.o)
                                                  /opt/local/lib/gcc/arm-none-eabi/14.2.0/../../../../arm-none-eabi/lib/thumb/v8-m.main+fp/hard/libc.a(libc_a-fputwc.o)
_wctomb_r                                         /opt/local/lib/gcc/arm-none-eabi/14.2.0/../../../../arm-none-eabi/lib/thumb/v8-m.main+fp/hard/libc.a(libc_a-wctomb_r.o)
_write                                            build/syscalls.o
                                                  /opt/local/lib/gcc/arm-none-eabi/14.2.0/../../../../arm-none-eabi/lib/thumb/v8-m.main+fp/hard/libc.a(libc_a-writer.o)
_write_r                                          /opt/local/lib/gcc/arm-none-eabi/14.2.0/../../../../arm-none-eabi/lib/thumb/v8-m.main+fp/hard/libc.a(libc_a-writer.o)
                                                  /opt/local/lib/gcc/arm-none-eabi/14.2.0/../../../../arm-none-eabi/lib/thumb/v8-m.main+fp/hard/libc.a(libc_a-stdio.o)
abort                                             /opt/local/lib/gcc/arm-none-eabi/14.2.0/../../../../arm-none-eabi/lib/thumb/v8-m.main+fp/hard/libc.a(libc_a-abort.o)
                                                  /opt/local/lib/gcc/arm-none-eabi/14.2.0/../../../../arm-none-eabi/lib/thumb/v8-m.main+fp/hard/libc.a(libc_a-assert.o)
atexit                                            /opt/local/lib/gcc/arm-none-eabi/14.2.0/../../../../arm-none-eabi/lib/thumb/v8-m.main+fp/hard/libc.a(libc_a-atexit.o)
                                                  /opt/local/lib/gcc/arm-none-eabi/14.2.0/../../../../arm-none-eabi/lib/thumb/v8-m.main+fp/hard/crt0.o
environ                                           build/syscalls.o
errno                                             /opt/local/lib/gcc/arm-none-eabi/14.2.0/../../../../arm-none-eabi/lib/thumb/v8-m.main+fp/hard/libc.a(libc_a-reent.o)
                                                  /opt/local/lib/gcc/arm-none-eabi/14.2.0/../../../../arm-none-eabi/lib/thumb/v8-m.main+fp/hard/libc.a(libc_a-signalr.o)
                                                  /opt/local/lib/gcc/arm-none-eabi/14.2.0/../../../../arm-none-eabi/lib/thumb/v8-m.main+fp/hard/libc.a(libc_a-writer.o)
                                                  /opt/local/lib/gcc/arm-none-eabi/14.2.0/../../../../arm-none-eabi/lib/thumb/v8-m.main+fp/hard/libc.a(libc_a-sbrkr.o)
                                                  /opt/local/lib/gcc/arm-none-eabi/14.2.0/../../../../arm-none-eabi/lib/thumb/v8-m.main+fp/hard/libc.a(libc_a-readr.o)
                                                  /opt/local/lib/gcc/arm-none-eabi/14.2.0/../../../../arm-none-eabi/lib/thumb/v8-m.main+fp/hard/libc.a(libc_a-lseekr.o)
                                                  /opt/local/lib/gcc/arm-none-eabi/14.2.0/../../../../arm-none-eabi/lib/thumb/v8-m.main+fp/hard/libc.a(libc_a-isattyr.o)
                                                  /opt/local/lib/gcc/arm-none-eabi/14.2.0/../../../../arm-none-eabi/lib/thumb/v8-m.main+fp/hard/libc.a(libc_a-fstatr.o)
                                                  /opt/local/lib/gcc/arm-none-eabi/14.2.0/../../../../arm-none-eabi/lib/thumb/v8-m.main+fp/hard/libc.a(libc_a-closer.o)
exit                                              /opt/local/lib/gcc/arm-none-eabi/14.2.0/../../../../arm-none-eabi/lib/thumb/v8-m.main+fp/hard/libc.a(libc_a-exit.o)
                                                  /opt/local/lib/gcc/arm-none-eabi/14.2.0/../../../../arm-none-eabi/lib/thumb/v8-m.main+fp/hard/crt0.o
fclose                                            /opt/local/lib/gcc/arm-none-eabi/14.2.0/../../../../arm-none-eabi/lib/thumb/v8-m.main+fp/hard/libc.a(libc_a-fclose.o)
fflush                                            /opt/local/lib/gcc/arm-none-eabi/14.2.0/../../../../arm-none-eabi/lib/thumb/v8-m.main+fp/hard/libc.a(libc_a-fflush.o)
fiprintf                                          /opt/local/lib/gcc/arm-none-eabi/14.2.0/../../../../arm-none-eabi/lib/thumb/v8-m.main+fp/hard/libc.a(libc_a-fiprintf.o)
                                                  /opt/local/lib/gcc/arm-none-eabi/14.2.0/../../../../arm-none-eabi/lib/thumb/v8-m.main+fp/hard/libc.a(libc_a-assert.o)
fputwc                                            /opt/local/lib/gcc/arm-none-eabi/14.2.0/../../../../arm-none-eabi/lib/thumb/v8-m.main+fp/hard/libc.a(libc_a-fputwc.o)
g_pfnVectors                                      build/startup_stm32h503xx.o
hadc1                                             build/main.o
handle_GPDMA1_Channel5                            build/main.o
                                                  build/stm32h5xx_hal_msp.o
                                                  build/stm32h5xx_it.o
hardware_init_hook                                /opt/local/lib/gcc/arm-none-eabi/14.2.0/../../../../arm-none-eabi/lib/thumb/v8-m.main+fp/hard/crt0.o
hcom_uart                                         build/stm32h5xx_nucleo.o
hpb_exti                                          build/stm32h5xx_nucleo.o
hpcd_USB_DRD_FS                                   build/main.o
hspi2                                             build/main.o
htim1                                             build/main.o
initialise_monitor_handles                        build/syscalls.o
localeconv                                        /opt/local/lib/gcc/arm-none-eabi/14.2.0/../../../../arm-none-eabi/lib/thumb/v8-m.main+fp/hard/libc.a(libc_a-localeconv.o)
main                                              build/main.o
                                                  build/startup_stm32h503xx.o
                                                  /opt/local/lib/gcc/arm-none-eabi/14.2.0/../../../../arm-none-eabi/lib/thumb/v8-m.main+fp/hard/crt0.o
memchr                                            /opt/local/lib/gcc/arm-none-eabi/14.2.0/../../../../arm-none-eabi/lib/thumb/v8-m.main+fp/hard/libc.a(libc_a-memchr-stub.o)
                                                  /opt/local/lib/gcc/arm-none-eabi/14.2.0/../../../../arm-none-eabi/lib/thumb/v8-m.main+fp/hard/libc.a(libc_a-fvwrite.o)
                                                  /opt/local/lib/gcc/arm-none-eabi/14.2.0/../../../../arm-none-eabi/lib/thumb/v8-m.main+fp/hard/libc.a(libc_a-vfiprintf.o)
                                                  /opt/local/lib/gcc/arm-none-eabi/14.2.0/../../../../arm-none-eabi/lib/thumb/v8-m.main+fp/hard/libc.a(libc_a-vfprintf.o)
memcpy                                            /opt/local/lib/gcc/arm-none-eabi/14.2.0/../../../../arm-none-eabi/lib/thumb/v8-m.main+fp/hard/libc.a(libc_a-memcpy.o)
                                                  /opt/local/lib/gcc/arm-none-eabi/14.2.0/../../../../arm-none-eabi/lib/thumb/v8-m.main+fp/hard/libc.a(libc_a-mprec.o)
                                                  /opt/local/lib/gcc/arm-none-eabi/14.2.0/../../../../arm-none-eabi/lib/thumb/v8-m.main+fp/hard/libc.a(libc_a-dtoa.o)
                                                  /opt/local/lib/gcc/arm-none-eabi/14.2.0/../../../../arm-none-eabi/lib/thumb/v8-m.main+fp/hard/libc.a(libc_a-fvwrite.o)
memmove                                           /opt/local/lib/gcc/arm-none-eabi/14.2.0/../../../../arm-none-eabi/lib/thumb/v8-m.main+fp/hard/libc.a(libc_a-memmove.o)
                                                  /opt/local/lib/gcc/arm-none-eabi/14.2.0/../../../../arm-none-eabi/lib/thumb/v8-m.main+fp/hard/libc.a(libc_a-reallocr.o)
                                                  /opt/local/lib/gcc/arm-none-eabi/14.2.0/../../../../arm-none-eabi/lib/thumb/v8-m.main+fp/hard/libc.a(libc_a-fvwrite.o)
memset                                            /opt/local/lib/gcc/arm-none-eabi/14.2.0/../../../../arm-none-eabi/lib/thumb/v8-m.main+fp/hard/libc.a(libc_a-memset.o)
                                                  /opt/local/lib/gcc/arm-none-eabi/14.2.0/../../../../arm-none-eabi/lib/thumb/v8-m.main+fp/hard/libc.a(libc_a-callocr.o)
                                                  /opt/local/lib/gcc/arm-none-eabi/14.2.0/../../../../arm-none-eabi/lib/thumb/v8-m.main+fp/hard/libc.a(libc_a-findfp.o)
                                                  build/stm32h5xx_hal_msp.o
                                                  build/main.o
                                                  /opt/local/lib/gcc/arm-none-eabi/14.2.0/../../../../arm-none-eabi/lib/thumb/v8-m.main+fp/hard/crt0.o
pFlash                                            build/stm32h5xx_hal_flash.o
                                                  build/stm32h5xx_hal_flash_ex.o
printf                                            /opt/local/lib/gcc/arm-none-eabi/14.2.0/../../../../arm-none-eabi/lib/thumb/v8-m.main+fp/hard/libc.a(libc_a-printf.o)
                                                  build/main.o
puts                                              /opt/local/lib/gcc/arm-none-eabi/14.2.0/../../../../arm-none-eabi/lib/thumb/v8-m.main+fp/hard/libc.a(libc_a-puts.o)
                                                  build/main.o
raise                                             /opt/local/lib/gcc/arm-none-eabi/14.2.0/../../../../arm-none-eabi/lib/thumb/v8-m.main+fp/hard/libc.a(libc_a-signal.o)
                                                  /opt/local/lib/gcc/arm-none-eabi/14.2.0/../../../../arm-none-eabi/lib/thumb/v8-m.main+fp/hard/libc.a(libc_a-abort.o)
setlocale                                         /opt/local/lib/gcc/arm-none-eabi/14.2.0/../../../../arm-none-eabi/lib/thumb/v8-m.main+fp/hard/libc.a(libc_a-locale.o)
signal                                            /opt/local/lib/gcc/arm-none-eabi/14.2.0/../../../../arm-none-eabi/lib/thumb/v8-m.main+fp/hard/libc.a(libc_a-signal.o)
software_init_hook                                /opt/local/lib/gcc/arm-none-eabi/14.2.0/../../../../arm-none-eabi/lib/thumb/v8-m.main+fp/hard/crt0.o
strcmp                                            /opt/local/lib/gcc/arm-none-eabi/14.2.0/../../../../arm-none-eabi/lib/thumb/v8-m.main+fp/hard/libc.a(libc_a-strcmp.o)
                                                  /opt/local/lib/gcc/arm-none-eabi/14.2.0/../../../../arm-none-eabi/lib/thumb/v8-m.main+fp/hard/libc.a(libc_a-locale.o)
strlen                                            /opt/local/lib/gcc/arm-none-eabi/14.2.0/../../../../arm-none-eabi/lib/thumb/v8-m.main+fp/hard/libc.a(libc_a-strlen-stub.o)
                                                  /opt/local/lib/gcc/arm-none-eabi/14.2.0/../../../../arm-none-eabi/lib/thumb/v8-m.main+fp/hard/libc.a(libc_a-puts.o)
                                                  /opt/local/lib/gcc/arm-none-eabi/14.2.0/../../../../arm-none-eabi/lib/thumb/v8-m.main+fp/hard/libc.a(libc_a-vfiprintf.o)
                                                  /opt/local/lib/gcc/arm-none-eabi/14.2.0/../../../../arm-none-eabi/lib/thumb/v8-m.main+fp/hard/libc.a(libc_a-vfprintf.o)
sysconf                                           /opt/local/lib/gcc/arm-none-eabi/14.2.0/../../../../arm-none-eabi/lib/thumb/v8-m.main+fp/hard/libc.a(libc_a-sysconf.o)
                                                  /opt/local/lib/gcc/arm-none-eabi/14.2.0/../../../../arm-none-eabi/lib/thumb/v8-m.main+fp/hard/libc.a(libc_a-mallocr.o)
                                                  /opt/local/lib/gcc/arm-none-eabi/14.2.0/../../../../arm-none-eabi/lib/thumb/v8-m.main+fp/hard/libc.a(libc_a-freer.o)
uwTick                                            build/stm32h5xx_hal.o
uwTickFreq                                        build/stm32h5xx_hal.o
uwTickPrio                                        build/stm32h5xx_hal.o
                                                  build/stm32h5xx_hal_rcc.o
vfiprintf                                         /opt/local/lib/gcc/arm-none-eabi/14.2.0/../../../../arm-none-eabi/lib/thumb/v8-m.main+fp/hard/libc.a(libc_a-vfiprintf.o)
vfprintf                                          /opt/local/lib/gcc/arm-none-eabi/14.2.0/../../../../arm-none-eabi/lib/thumb/v8-m.main+fp/hard/libc.a(libc_a-vfprintf.o)
wcrtomb                                           /opt/local/lib/gcc/arm-none-eabi/14.2.0/../../../../arm-none-eabi/lib/thumb/v8-m.main+fp/hard/libc.a(libc_a-wcrtomb.o)
