ARM GAS  /var/folders/l3/rwskfq612tq4b7hmtv37jkjw0000gp/T//cc22WSSx.s 			page 1


   1              		.cpu cortex-m33
   2              		.arch armv8-m.main
   3              		.fpu fpv4-sp-d16
   4              		.arch_extension dsp
   5              		.eabi_attribute 27, 1
   6              		.eabi_attribute 28, 1
   7              		.eabi_attribute 20, 1
   8              		.eabi_attribute 21, 1
   9              		.eabi_attribute 23, 3
  10              		.eabi_attribute 24, 1
  11              		.eabi_attribute 25, 1
  12              		.eabi_attribute 26, 1
  13              		.eabi_attribute 30, 1
  14              		.eabi_attribute 34, 1
  15              		.eabi_attribute 18, 4
  16              		.file	"stm32h5xx_hal_icache.c"
  17              		.text
  18              	.Ltext0:
  19              		.cfi_sections	.debug_frame
  20              		.file 1 "Drivers/STM32H5xx_HAL_Driver/Src/stm32h5xx_hal_icache.c"
  21              		.section	.text.HAL_ICACHE_ConfigAssociativityMode,"ax",%progbits
  22              		.align	1
  23              		.global	HAL_ICACHE_ConfigAssociativityMode
  24              		.syntax unified
  25              		.thumb
  26              		.thumb_func
  28              	HAL_ICACHE_ConfigAssociativityMode:
  29              	.LVL0:
  30              	.LFB330:
   1:Drivers/STM32H5xx_HAL_Driver/Src/stm32h5xx_hal_icache.c **** /**
   2:Drivers/STM32H5xx_HAL_Driver/Src/stm32h5xx_hal_icache.c ****   ******************************************************************************
   3:Drivers/STM32H5xx_HAL_Driver/Src/stm32h5xx_hal_icache.c ****   * @file    stm32h5xx_hal_icache.c
   4:Drivers/STM32H5xx_HAL_Driver/Src/stm32h5xx_hal_icache.c ****   * @author  MCD Application Team
   5:Drivers/STM32H5xx_HAL_Driver/Src/stm32h5xx_hal_icache.c ****   * @brief   ICACHE HAL module driver.
   6:Drivers/STM32H5xx_HAL_Driver/Src/stm32h5xx_hal_icache.c ****   *          This file provides firmware functions to manage the following
   7:Drivers/STM32H5xx_HAL_Driver/Src/stm32h5xx_hal_icache.c ****   *          functionalities of the Instruction Cache (ICACHE).
   8:Drivers/STM32H5xx_HAL_Driver/Src/stm32h5xx_hal_icache.c ****   *           + Initialization and Configuration
   9:Drivers/STM32H5xx_HAL_Driver/Src/stm32h5xx_hal_icache.c ****   *           + Invalidate functions
  10:Drivers/STM32H5xx_HAL_Driver/Src/stm32h5xx_hal_icache.c ****   *           + Monitoring management
  11:Drivers/STM32H5xx_HAL_Driver/Src/stm32h5xx_hal_icache.c ****   *           + Memory address remap management
  12:Drivers/STM32H5xx_HAL_Driver/Src/stm32h5xx_hal_icache.c ****   ******************************************************************************
  13:Drivers/STM32H5xx_HAL_Driver/Src/stm32h5xx_hal_icache.c ****   * @attention
  14:Drivers/STM32H5xx_HAL_Driver/Src/stm32h5xx_hal_icache.c ****   *
  15:Drivers/STM32H5xx_HAL_Driver/Src/stm32h5xx_hal_icache.c ****   * Copyright (c) 2023 STMicroelectronics.
  16:Drivers/STM32H5xx_HAL_Driver/Src/stm32h5xx_hal_icache.c ****   * All rights reserved.
  17:Drivers/STM32H5xx_HAL_Driver/Src/stm32h5xx_hal_icache.c ****   *
  18:Drivers/STM32H5xx_HAL_Driver/Src/stm32h5xx_hal_icache.c ****   * This software is licensed under terms that can be found in the LICENSE file
  19:Drivers/STM32H5xx_HAL_Driver/Src/stm32h5xx_hal_icache.c ****   * in the root directory of this software component.
  20:Drivers/STM32H5xx_HAL_Driver/Src/stm32h5xx_hal_icache.c ****   * If no LICENSE file comes with this software, it is provided AS-IS.
  21:Drivers/STM32H5xx_HAL_Driver/Src/stm32h5xx_hal_icache.c ****   *
  22:Drivers/STM32H5xx_HAL_Driver/Src/stm32h5xx_hal_icache.c ****   ******************************************************************************
  23:Drivers/STM32H5xx_HAL_Driver/Src/stm32h5xx_hal_icache.c ****   @verbatim
  24:Drivers/STM32H5xx_HAL_Driver/Src/stm32h5xx_hal_icache.c ****   ==============================================================================
  25:Drivers/STM32H5xx_HAL_Driver/Src/stm32h5xx_hal_icache.c ****                         ##### ICACHE main features #####
  26:Drivers/STM32H5xx_HAL_Driver/Src/stm32h5xx_hal_icache.c ****   ==============================================================================
  27:Drivers/STM32H5xx_HAL_Driver/Src/stm32h5xx_hal_icache.c ****   [..]
  28:Drivers/STM32H5xx_HAL_Driver/Src/stm32h5xx_hal_icache.c ****     The Instruction Cache (ICACHE) is introduced on C-AHB code bus of
ARM GAS  /var/folders/l3/rwskfq612tq4b7hmtv37jkjw0000gp/T//cc22WSSx.s 			page 2


  29:Drivers/STM32H5xx_HAL_Driver/Src/stm32h5xx_hal_icache.c ****     Cortex-M33 processor to improve performance when fetching instruction
  30:Drivers/STM32H5xx_HAL_Driver/Src/stm32h5xx_hal_icache.c ****     and data from both internal and external memories. It allows close to
  31:Drivers/STM32H5xx_HAL_Driver/Src/stm32h5xx_hal_icache.c ****     zero wait states performance.
  32:Drivers/STM32H5xx_HAL_Driver/Src/stm32h5xx_hal_icache.c **** 
  33:Drivers/STM32H5xx_HAL_Driver/Src/stm32h5xx_hal_icache.c ****     (+) The ICACHE provides two performance counters (Hit and Miss),
  34:Drivers/STM32H5xx_HAL_Driver/Src/stm32h5xx_hal_icache.c ****         cache invalidate maintenance operation, error management and TrustZone
  35:Drivers/STM32H5xx_HAL_Driver/Src/stm32h5xx_hal_icache.c ****         security support.
  36:Drivers/STM32H5xx_HAL_Driver/Src/stm32h5xx_hal_icache.c **** 
  37:Drivers/STM32H5xx_HAL_Driver/Src/stm32h5xx_hal_icache.c ****     (+) The ICACHE provides additionally the possibility to remap input address
  38:Drivers/STM32H5xx_HAL_Driver/Src/stm32h5xx_hal_icache.c ****         falling into up to four memory regions (used to remap aliased code in
  39:Drivers/STM32H5xx_HAL_Driver/Src/stm32h5xx_hal_icache.c ****         external memories to the internal Code region, for execution)
  40:Drivers/STM32H5xx_HAL_Driver/Src/stm32h5xx_hal_icache.c **** 
  41:Drivers/STM32H5xx_HAL_Driver/Src/stm32h5xx_hal_icache.c ****   ===============================================================================
  42:Drivers/STM32H5xx_HAL_Driver/Src/stm32h5xx_hal_icache.c ****                         ##### How to use this driver #####
  43:Drivers/STM32H5xx_HAL_Driver/Src/stm32h5xx_hal_icache.c ****   ===============================================================================
  44:Drivers/STM32H5xx_HAL_Driver/Src/stm32h5xx_hal_icache.c ****   [..]
  45:Drivers/STM32H5xx_HAL_Driver/Src/stm32h5xx_hal_icache.c ****      The ICACHE HAL driver can be used as follows:
  46:Drivers/STM32H5xx_HAL_Driver/Src/stm32h5xx_hal_icache.c **** 
  47:Drivers/STM32H5xx_HAL_Driver/Src/stm32h5xx_hal_icache.c ****     (#) Optionally configure the Instruction Cache mode with
  48:Drivers/STM32H5xx_HAL_Driver/Src/stm32h5xx_hal_icache.c ****         HAL_ICACHE_ConfigAssociativityMode() if the default configuration
  49:Drivers/STM32H5xx_HAL_Driver/Src/stm32h5xx_hal_icache.c ****         does not suit the application requirements.
  50:Drivers/STM32H5xx_HAL_Driver/Src/stm32h5xx_hal_icache.c **** 
  51:Drivers/STM32H5xx_HAL_Driver/Src/stm32h5xx_hal_icache.c ****     (#) Enable and disable the Instruction Cache with respectively
  52:Drivers/STM32H5xx_HAL_Driver/Src/stm32h5xx_hal_icache.c ****         HAL_ICACHE_Enable() and HAL_ICACHE_Disable().
  53:Drivers/STM32H5xx_HAL_Driver/Src/stm32h5xx_hal_icache.c ****         Use HAL_ICACHE_IsEnabled() to get the Instruction Cache status.
  54:Drivers/STM32H5xx_HAL_Driver/Src/stm32h5xx_hal_icache.c ****         To ensure a deterministic cache behavior after power on, system reset or after
  55:Drivers/STM32H5xx_HAL_Driver/Src/stm32h5xx_hal_icache.c ****         a call to @ref HAL_ICACHE_Disable(), the application must call
  56:Drivers/STM32H5xx_HAL_Driver/Src/stm32h5xx_hal_icache.c ****         @ref HAL_ICACHE_WaitForInvalidateComplete(). Indeed on power on, system reset
  57:Drivers/STM32H5xx_HAL_Driver/Src/stm32h5xx_hal_icache.c ****         or cache disable, an automatic cache invalidation procedure is launched and the
  58:Drivers/STM32H5xx_HAL_Driver/Src/stm32h5xx_hal_icache.c ****         cache is bypassed until the operation completes.
  59:Drivers/STM32H5xx_HAL_Driver/Src/stm32h5xx_hal_icache.c **** 
  60:Drivers/STM32H5xx_HAL_Driver/Src/stm32h5xx_hal_icache.c ****     (#) Initiate the cache maintenance invalidation procedure with either
  61:Drivers/STM32H5xx_HAL_Driver/Src/stm32h5xx_hal_icache.c ****         HAL_ICACHE_Invalidate() (blocking mode) or HAL_ICACHE_Invalidate_IT()
  62:Drivers/STM32H5xx_HAL_Driver/Src/stm32h5xx_hal_icache.c ****         (interrupt mode). When interrupt mode is used, the callback function
  63:Drivers/STM32H5xx_HAL_Driver/Src/stm32h5xx_hal_icache.c ****         HAL_ICACHE_InvalidateCompleteCallback() is called when the invalidate
  64:Drivers/STM32H5xx_HAL_Driver/Src/stm32h5xx_hal_icache.c ****         procedure is complete. The function HAL_ICACHE_WaitForInvalidateComplete()
  65:Drivers/STM32H5xx_HAL_Driver/Src/stm32h5xx_hal_icache.c ****         may be called to wait for the end of the invalidate procedure automatically
  66:Drivers/STM32H5xx_HAL_Driver/Src/stm32h5xx_hal_icache.c ****         initiated when disabling the Instruction Cache with HAL_ICACHE_Disable().
  67:Drivers/STM32H5xx_HAL_Driver/Src/stm32h5xx_hal_icache.c ****         The cache operation is bypassed during the invalidation procedure.
  68:Drivers/STM32H5xx_HAL_Driver/Src/stm32h5xx_hal_icache.c **** 
  69:Drivers/STM32H5xx_HAL_Driver/Src/stm32h5xx_hal_icache.c ****     (#) Use the performance monitoring counters for Hit and Miss with the following
  70:Drivers/STM32H5xx_HAL_Driver/Src/stm32h5xx_hal_icache.c ****         functions: HAL_ICACHE_Monitor_Start(), HAL_ICACHE_Monitor_Stop(),
  71:Drivers/STM32H5xx_HAL_Driver/Src/stm32h5xx_hal_icache.c ****         HAL_ICACHE_Monitor_Reset(), HAL_ICACHE_Monitor_GetHitValue() and
  72:Drivers/STM32H5xx_HAL_Driver/Src/stm32h5xx_hal_icache.c ****         HAL_ICACHE_Monitor_GetMissValue()
  73:Drivers/STM32H5xx_HAL_Driver/Src/stm32h5xx_hal_icache.c **** 
  74:Drivers/STM32H5xx_HAL_Driver/Src/stm32h5xx_hal_icache.c ****     (#) Enable and disable up to four regions to remap input address from external
  75:Drivers/STM32H5xx_HAL_Driver/Src/stm32h5xx_hal_icache.c ****         memories to the internal Code region for execution with
  76:Drivers/STM32H5xx_HAL_Driver/Src/stm32h5xx_hal_icache.c ****         HAL_ICACHE_EnableRemapRegion() and HAL_ICACHE_DisableRemapRegion()
  77:Drivers/STM32H5xx_HAL_Driver/Src/stm32h5xx_hal_icache.c **** 
  78:Drivers/STM32H5xx_HAL_Driver/Src/stm32h5xx_hal_icache.c ****   @endverbatim
  79:Drivers/STM32H5xx_HAL_Driver/Src/stm32h5xx_hal_icache.c ****   */
  80:Drivers/STM32H5xx_HAL_Driver/Src/stm32h5xx_hal_icache.c **** 
  81:Drivers/STM32H5xx_HAL_Driver/Src/stm32h5xx_hal_icache.c **** /* Includes ------------------------------------------------------------------*/
  82:Drivers/STM32H5xx_HAL_Driver/Src/stm32h5xx_hal_icache.c **** #include "stm32h5xx_hal.h"
  83:Drivers/STM32H5xx_HAL_Driver/Src/stm32h5xx_hal_icache.c **** 
  84:Drivers/STM32H5xx_HAL_Driver/Src/stm32h5xx_hal_icache.c **** /** @addtogroup STM32H5xx_HAL_Driver
  85:Drivers/STM32H5xx_HAL_Driver/Src/stm32h5xx_hal_icache.c ****   * @{
ARM GAS  /var/folders/l3/rwskfq612tq4b7hmtv37jkjw0000gp/T//cc22WSSx.s 			page 3


  86:Drivers/STM32H5xx_HAL_Driver/Src/stm32h5xx_hal_icache.c ****   */
  87:Drivers/STM32H5xx_HAL_Driver/Src/stm32h5xx_hal_icache.c **** 
  88:Drivers/STM32H5xx_HAL_Driver/Src/stm32h5xx_hal_icache.c **** /** @defgroup ICACHE ICACHE
  89:Drivers/STM32H5xx_HAL_Driver/Src/stm32h5xx_hal_icache.c ****   * @brief HAL ICACHE module driver
  90:Drivers/STM32H5xx_HAL_Driver/Src/stm32h5xx_hal_icache.c ****   * @{
  91:Drivers/STM32H5xx_HAL_Driver/Src/stm32h5xx_hal_icache.c ****   */
  92:Drivers/STM32H5xx_HAL_Driver/Src/stm32h5xx_hal_icache.c **** #if defined(ICACHE) && defined (HAL_ICACHE_MODULE_ENABLED)
  93:Drivers/STM32H5xx_HAL_Driver/Src/stm32h5xx_hal_icache.c **** 
  94:Drivers/STM32H5xx_HAL_Driver/Src/stm32h5xx_hal_icache.c **** /* Private typedef -----------------------------------------------------------*/
  95:Drivers/STM32H5xx_HAL_Driver/Src/stm32h5xx_hal_icache.c **** /* Private constants ---------------------------------------------------------*/
  96:Drivers/STM32H5xx_HAL_Driver/Src/stm32h5xx_hal_icache.c **** /** @addtogroup ICACHE_Private_Constants ICACHE Private Constants
  97:Drivers/STM32H5xx_HAL_Driver/Src/stm32h5xx_hal_icache.c ****   * @{
  98:Drivers/STM32H5xx_HAL_Driver/Src/stm32h5xx_hal_icache.c ****   */
  99:Drivers/STM32H5xx_HAL_Driver/Src/stm32h5xx_hal_icache.c **** #define ICACHE_INVALIDATE_TIMEOUT_VALUE        1U   /* 1ms */
 100:Drivers/STM32H5xx_HAL_Driver/Src/stm32h5xx_hal_icache.c **** #define ICACHE_DISABLE_TIMEOUT_VALUE           1U   /* 1ms */
 101:Drivers/STM32H5xx_HAL_Driver/Src/stm32h5xx_hal_icache.c **** 
 102:Drivers/STM32H5xx_HAL_Driver/Src/stm32h5xx_hal_icache.c **** /**
 103:Drivers/STM32H5xx_HAL_Driver/Src/stm32h5xx_hal_icache.c ****   * @}
 104:Drivers/STM32H5xx_HAL_Driver/Src/stm32h5xx_hal_icache.c ****   */
 105:Drivers/STM32H5xx_HAL_Driver/Src/stm32h5xx_hal_icache.c **** 
 106:Drivers/STM32H5xx_HAL_Driver/Src/stm32h5xx_hal_icache.c **** /* Private macros ------------------------------------------------------------*/
 107:Drivers/STM32H5xx_HAL_Driver/Src/stm32h5xx_hal_icache.c **** /** @defgroup ICACHE_Private_Macros ICACHE Private Macros
 108:Drivers/STM32H5xx_HAL_Driver/Src/stm32h5xx_hal_icache.c ****   * @{
 109:Drivers/STM32H5xx_HAL_Driver/Src/stm32h5xx_hal_icache.c ****   */
 110:Drivers/STM32H5xx_HAL_Driver/Src/stm32h5xx_hal_icache.c **** 
 111:Drivers/STM32H5xx_HAL_Driver/Src/stm32h5xx_hal_icache.c **** #define IS_ICACHE_ASSOCIATIVITY_MODE(__MODE__) (((__MODE__) == ICACHE_1WAY) || \
 112:Drivers/STM32H5xx_HAL_Driver/Src/stm32h5xx_hal_icache.c ****                                                 ((__MODE__) == ICACHE_2WAYS))
 113:Drivers/STM32H5xx_HAL_Driver/Src/stm32h5xx_hal_icache.c **** 
 114:Drivers/STM32H5xx_HAL_Driver/Src/stm32h5xx_hal_icache.c **** #define IS_ICACHE_MONITOR_TYPE(__TYPE__)    (((__TYPE__) == ICACHE_MONITOR_HIT_MISS) || \
 115:Drivers/STM32H5xx_HAL_Driver/Src/stm32h5xx_hal_icache.c ****                                              ((__TYPE__) == ICACHE_MONITOR_HIT)      || \
 116:Drivers/STM32H5xx_HAL_Driver/Src/stm32h5xx_hal_icache.c ****                                              ((__TYPE__) == ICACHE_MONITOR_MISS))
 117:Drivers/STM32H5xx_HAL_Driver/Src/stm32h5xx_hal_icache.c **** 
 118:Drivers/STM32H5xx_HAL_Driver/Src/stm32h5xx_hal_icache.c **** #if defined(ICACHE_CRRx_REN)
 119:Drivers/STM32H5xx_HAL_Driver/Src/stm32h5xx_hal_icache.c **** #define IS_ICACHE_REGION_NUMBER(__NUMBER__) ((__NUMBER__) < 4U)
 120:Drivers/STM32H5xx_HAL_Driver/Src/stm32h5xx_hal_icache.c **** 
 121:Drivers/STM32H5xx_HAL_Driver/Src/stm32h5xx_hal_icache.c **** #define IS_ICACHE_REGION_SIZE(__SIZE__)     (((__SIZE__) == ICACHE_REGIONSIZE_2MB)   || \
 122:Drivers/STM32H5xx_HAL_Driver/Src/stm32h5xx_hal_icache.c ****                                              ((__SIZE__) == ICACHE_REGIONSIZE_4MB)   || \
 123:Drivers/STM32H5xx_HAL_Driver/Src/stm32h5xx_hal_icache.c ****                                              ((__SIZE__) == ICACHE_REGIONSIZE_8MB)   || \
 124:Drivers/STM32H5xx_HAL_Driver/Src/stm32h5xx_hal_icache.c ****                                              ((__SIZE__) == ICACHE_REGIONSIZE_16MB)  || \
 125:Drivers/STM32H5xx_HAL_Driver/Src/stm32h5xx_hal_icache.c ****                                              ((__SIZE__) == ICACHE_REGIONSIZE_32MB)  || \
 126:Drivers/STM32H5xx_HAL_Driver/Src/stm32h5xx_hal_icache.c ****                                              ((__SIZE__) == ICACHE_REGIONSIZE_64MB)  || \
 127:Drivers/STM32H5xx_HAL_Driver/Src/stm32h5xx_hal_icache.c ****                                              ((__SIZE__) == ICACHE_REGIONSIZE_128MB))
 128:Drivers/STM32H5xx_HAL_Driver/Src/stm32h5xx_hal_icache.c **** 
 129:Drivers/STM32H5xx_HAL_Driver/Src/stm32h5xx_hal_icache.c **** #define IS_ICACHE_REGION_TRAFFIC_ROUTE(__TRAFFICROUTE__)  (((__TRAFFICROUTE__) == ICACHE_MASTER1_PO
 130:Drivers/STM32H5xx_HAL_Driver/Src/stm32h5xx_hal_icache.c ****                                                            ((__TRAFFICROUTE__) == ICACHE_MASTER2_PO
 131:Drivers/STM32H5xx_HAL_Driver/Src/stm32h5xx_hal_icache.c **** 
 132:Drivers/STM32H5xx_HAL_Driver/Src/stm32h5xx_hal_icache.c **** #define IS_ICACHE_REGION_OUTPUT_BURST_TYPE(__OUTPUTBURSTTYPE_) (((__OUTPUTBURSTTYPE_) == ICACHE_OUT
 133:Drivers/STM32H5xx_HAL_Driver/Src/stm32h5xx_hal_icache.c ****                                                                 ((__OUTPUTBURSTTYPE_) == ICACHE_OUT
 134:Drivers/STM32H5xx_HAL_Driver/Src/stm32h5xx_hal_icache.c **** 
 135:Drivers/STM32H5xx_HAL_Driver/Src/stm32h5xx_hal_icache.c **** #endif /*  ICACHE_CRRx_REN */
 136:Drivers/STM32H5xx_HAL_Driver/Src/stm32h5xx_hal_icache.c **** /**
 137:Drivers/STM32H5xx_HAL_Driver/Src/stm32h5xx_hal_icache.c ****   * @}
 138:Drivers/STM32H5xx_HAL_Driver/Src/stm32h5xx_hal_icache.c ****   */
 139:Drivers/STM32H5xx_HAL_Driver/Src/stm32h5xx_hal_icache.c **** 
 140:Drivers/STM32H5xx_HAL_Driver/Src/stm32h5xx_hal_icache.c **** /* Private variables ---------------------------------------------------------*/
 141:Drivers/STM32H5xx_HAL_Driver/Src/stm32h5xx_hal_icache.c **** /* Private function prototypes -----------------------------------------------*/
 142:Drivers/STM32H5xx_HAL_Driver/Src/stm32h5xx_hal_icache.c **** 
ARM GAS  /var/folders/l3/rwskfq612tq4b7hmtv37jkjw0000gp/T//cc22WSSx.s 			page 4


 143:Drivers/STM32H5xx_HAL_Driver/Src/stm32h5xx_hal_icache.c **** /* Exported functions --------------------------------------------------------*/
 144:Drivers/STM32H5xx_HAL_Driver/Src/stm32h5xx_hal_icache.c **** 
 145:Drivers/STM32H5xx_HAL_Driver/Src/stm32h5xx_hal_icache.c **** /** @defgroup ICACHE_Exported_Functions ICACHE Exported Functions
 146:Drivers/STM32H5xx_HAL_Driver/Src/stm32h5xx_hal_icache.c ****   * @{
 147:Drivers/STM32H5xx_HAL_Driver/Src/stm32h5xx_hal_icache.c ****   */
 148:Drivers/STM32H5xx_HAL_Driver/Src/stm32h5xx_hal_icache.c **** 
 149:Drivers/STM32H5xx_HAL_Driver/Src/stm32h5xx_hal_icache.c **** /** @defgroup ICACHE_Exported_Functions_Group1 Initialization and control functions
 150:Drivers/STM32H5xx_HAL_Driver/Src/stm32h5xx_hal_icache.c ****   * @brief    Initialization and control functions
 151:Drivers/STM32H5xx_HAL_Driver/Src/stm32h5xx_hal_icache.c ****   *
 152:Drivers/STM32H5xx_HAL_Driver/Src/stm32h5xx_hal_icache.c ****   @verbatim
 153:Drivers/STM32H5xx_HAL_Driver/Src/stm32h5xx_hal_icache.c ****   ==============================================================================
 154:Drivers/STM32H5xx_HAL_Driver/Src/stm32h5xx_hal_icache.c ****             ##### Initialization and control functions #####
 155:Drivers/STM32H5xx_HAL_Driver/Src/stm32h5xx_hal_icache.c ****   ==============================================================================
 156:Drivers/STM32H5xx_HAL_Driver/Src/stm32h5xx_hal_icache.c ****   [..]
 157:Drivers/STM32H5xx_HAL_Driver/Src/stm32h5xx_hal_icache.c ****     This section provides functions allowing to initialize and control the
 158:Drivers/STM32H5xx_HAL_Driver/Src/stm32h5xx_hal_icache.c ****     Instruction Cache (mode, invalidate procedure, performance counters).
 159:Drivers/STM32H5xx_HAL_Driver/Src/stm32h5xx_hal_icache.c ****   @endverbatim
 160:Drivers/STM32H5xx_HAL_Driver/Src/stm32h5xx_hal_icache.c ****   * @{
 161:Drivers/STM32H5xx_HAL_Driver/Src/stm32h5xx_hal_icache.c ****   */
 162:Drivers/STM32H5xx_HAL_Driver/Src/stm32h5xx_hal_icache.c **** 
 163:Drivers/STM32H5xx_HAL_Driver/Src/stm32h5xx_hal_icache.c **** /**
 164:Drivers/STM32H5xx_HAL_Driver/Src/stm32h5xx_hal_icache.c ****   * @brief  Configure the Instruction Cache cache associativity mode selection.
 165:Drivers/STM32H5xx_HAL_Driver/Src/stm32h5xx_hal_icache.c ****   * @param  AssociativityMode  Associativity mode selection
 166:Drivers/STM32H5xx_HAL_Driver/Src/stm32h5xx_hal_icache.c ****   *         This parameter can be one of the following values:
 167:Drivers/STM32H5xx_HAL_Driver/Src/stm32h5xx_hal_icache.c ****   *            @arg ICACHE_1WAY   1-way cache (direct mapped cache)
 168:Drivers/STM32H5xx_HAL_Driver/Src/stm32h5xx_hal_icache.c ****   *            @arg ICACHE_2WAYS  2-ways set associative cache (default)
 169:Drivers/STM32H5xx_HAL_Driver/Src/stm32h5xx_hal_icache.c ****   * @retval HAL status (HAL_OK/HAL_ERROR)
 170:Drivers/STM32H5xx_HAL_Driver/Src/stm32h5xx_hal_icache.c ****   */
 171:Drivers/STM32H5xx_HAL_Driver/Src/stm32h5xx_hal_icache.c **** HAL_StatusTypeDef HAL_ICACHE_ConfigAssociativityMode(uint32_t AssociativityMode)
 172:Drivers/STM32H5xx_HAL_Driver/Src/stm32h5xx_hal_icache.c **** {
  31              		.loc 1 172 1 view -0
  32              		.cfi_startproc
  33              		@ args = 0, pretend = 0, frame = 0
  34              		@ frame_needed = 0, uses_anonymous_args = 0
  35              		@ link register save eliminated.
 173:Drivers/STM32H5xx_HAL_Driver/Src/stm32h5xx_hal_icache.c ****   HAL_StatusTypeDef status = HAL_OK;
  36              		.loc 1 173 3 view .LVU1
 174:Drivers/STM32H5xx_HAL_Driver/Src/stm32h5xx_hal_icache.c **** 
 175:Drivers/STM32H5xx_HAL_Driver/Src/stm32h5xx_hal_icache.c ****   /* Check the parameters */
 176:Drivers/STM32H5xx_HAL_Driver/Src/stm32h5xx_hal_icache.c ****   assert_param(IS_ICACHE_ASSOCIATIVITY_MODE(AssociativityMode));
  37              		.loc 1 176 3 view .LVU2
 177:Drivers/STM32H5xx_HAL_Driver/Src/stm32h5xx_hal_icache.c **** 
 178:Drivers/STM32H5xx_HAL_Driver/Src/stm32h5xx_hal_icache.c ****   /* Check cache is not enabled */
 179:Drivers/STM32H5xx_HAL_Driver/Src/stm32h5xx_hal_icache.c ****   if (READ_BIT(ICACHE->CR, ICACHE_CR_EN) != 0U)
  38              		.loc 1 179 3 view .LVU3
  39              		.loc 1 179 7 is_stmt 0 view .LVU4
  40 0000 074B     		ldr	r3, .L4
  41 0002 1B68     		ldr	r3, [r3]
  42              		.loc 1 179 6 view .LVU5
  43 0004 13F0010F 		tst	r3, #1
  44 0008 07D1     		bne	.L3
 180:Drivers/STM32H5xx_HAL_Driver/Src/stm32h5xx_hal_icache.c ****   {
 181:Drivers/STM32H5xx_HAL_Driver/Src/stm32h5xx_hal_icache.c ****     status = HAL_ERROR;
 182:Drivers/STM32H5xx_HAL_Driver/Src/stm32h5xx_hal_icache.c ****   }
 183:Drivers/STM32H5xx_HAL_Driver/Src/stm32h5xx_hal_icache.c ****   else
 184:Drivers/STM32H5xx_HAL_Driver/Src/stm32h5xx_hal_icache.c ****   {
 185:Drivers/STM32H5xx_HAL_Driver/Src/stm32h5xx_hal_icache.c ****     MODIFY_REG(ICACHE->CR, ICACHE_CR_WAYSEL, AssociativityMode);
ARM GAS  /var/folders/l3/rwskfq612tq4b7hmtv37jkjw0000gp/T//cc22WSSx.s 			page 5


  45              		.loc 1 185 5 is_stmt 1 view .LVU6
  46 000a 054A     		ldr	r2, .L4
  47 000c 1368     		ldr	r3, [r2]
  48 000e 23F00403 		bic	r3, r3, #4
  49 0012 0343     		orrs	r3, r3, r0
  50 0014 1360     		str	r3, [r2]
 173:Drivers/STM32H5xx_HAL_Driver/Src/stm32h5xx_hal_icache.c **** 
  51              		.loc 1 173 21 is_stmt 0 view .LVU7
  52 0016 0020     		movs	r0, #0
  53              	.LVL1:
 173:Drivers/STM32H5xx_HAL_Driver/Src/stm32h5xx_hal_icache.c **** 
  54              		.loc 1 173 21 view .LVU8
  55 0018 7047     		bx	lr
  56              	.LVL2:
  57              	.L3:
 181:Drivers/STM32H5xx_HAL_Driver/Src/stm32h5xx_hal_icache.c ****   }
  58              		.loc 1 181 12 view .LVU9
  59 001a 0120     		movs	r0, #1
  60              	.LVL3:
 186:Drivers/STM32H5xx_HAL_Driver/Src/stm32h5xx_hal_icache.c ****   }
 187:Drivers/STM32H5xx_HAL_Driver/Src/stm32h5xx_hal_icache.c **** 
 188:Drivers/STM32H5xx_HAL_Driver/Src/stm32h5xx_hal_icache.c ****   return status;
  61              		.loc 1 188 3 is_stmt 1 view .LVU10
 189:Drivers/STM32H5xx_HAL_Driver/Src/stm32h5xx_hal_icache.c **** }
  62              		.loc 1 189 1 is_stmt 0 view .LVU11
  63 001c 7047     		bx	lr
  64              	.L5:
  65 001e 00BF     		.align	2
  66              	.L4:
  67 0020 00040340 		.word	1073939456
  68              		.cfi_endproc
  69              	.LFE330:
  71              		.section	.text.HAL_ICACHE_DeInit,"ax",%progbits
  72              		.align	1
  73              		.global	HAL_ICACHE_DeInit
  74              		.syntax unified
  75              		.thumb
  76              		.thumb_func
  78              	HAL_ICACHE_DeInit:
  79              	.LFB331:
 190:Drivers/STM32H5xx_HAL_Driver/Src/stm32h5xx_hal_icache.c **** 
 191:Drivers/STM32H5xx_HAL_Driver/Src/stm32h5xx_hal_icache.c **** /**
 192:Drivers/STM32H5xx_HAL_Driver/Src/stm32h5xx_hal_icache.c ****   * @brief  DeInitialize the Instruction Cache.
 193:Drivers/STM32H5xx_HAL_Driver/Src/stm32h5xx_hal_icache.c ****   * @retval HAL status (HAL_OK)
 194:Drivers/STM32H5xx_HAL_Driver/Src/stm32h5xx_hal_icache.c ****   */
 195:Drivers/STM32H5xx_HAL_Driver/Src/stm32h5xx_hal_icache.c **** HAL_StatusTypeDef HAL_ICACHE_DeInit(void)
 196:Drivers/STM32H5xx_HAL_Driver/Src/stm32h5xx_hal_icache.c **** {
  80              		.loc 1 196 1 is_stmt 1 view -0
  81              		.cfi_startproc
  82              		@ args = 0, pretend = 0, frame = 0
  83              		@ frame_needed = 0, uses_anonymous_args = 0
  84              		@ link register save eliminated.
 197:Drivers/STM32H5xx_HAL_Driver/Src/stm32h5xx_hal_icache.c ****   /* Reset interrupt enable value */
 198:Drivers/STM32H5xx_HAL_Driver/Src/stm32h5xx_hal_icache.c ****   WRITE_REG(ICACHE->IER, 0U);
  85              		.loc 1 198 3 view .LVU13
  86 0000 0B4B     		ldr	r3, .L7
  87 0002 0020     		movs	r0, #0
ARM GAS  /var/folders/l3/rwskfq612tq4b7hmtv37jkjw0000gp/T//cc22WSSx.s 			page 6


  88 0004 9860     		str	r0, [r3, #8]
 199:Drivers/STM32H5xx_HAL_Driver/Src/stm32h5xx_hal_icache.c **** 
 200:Drivers/STM32H5xx_HAL_Driver/Src/stm32h5xx_hal_icache.c ****   /* Clear any pending flags */
 201:Drivers/STM32H5xx_HAL_Driver/Src/stm32h5xx_hal_icache.c ****   WRITE_REG(ICACHE->FCR, ICACHE_FCR_CBSYENDF | ICACHE_FCR_CERRF);
  89              		.loc 1 201 3 view .LVU14
  90 0006 0622     		movs	r2, #6
  91 0008 DA60     		str	r2, [r3, #12]
 202:Drivers/STM32H5xx_HAL_Driver/Src/stm32h5xx_hal_icache.c **** 
 203:Drivers/STM32H5xx_HAL_Driver/Src/stm32h5xx_hal_icache.c ****   /* Disable cache then set default associative mode value */
 204:Drivers/STM32H5xx_HAL_Driver/Src/stm32h5xx_hal_icache.c ****   CLEAR_BIT(ICACHE->CR, ICACHE_CR_EN);
  92              		.loc 1 204 3 view .LVU15
  93 000a 1A68     		ldr	r2, [r3]
  94 000c 22F00102 		bic	r2, r2, #1
  95 0010 1A60     		str	r2, [r3]
 205:Drivers/STM32H5xx_HAL_Driver/Src/stm32h5xx_hal_icache.c ****   WRITE_REG(ICACHE->CR, ICACHE_CR_WAYSEL);
  96              		.loc 1 205 3 view .LVU16
  97 0012 0422     		movs	r2, #4
  98 0014 1A60     		str	r2, [r3]
 206:Drivers/STM32H5xx_HAL_Driver/Src/stm32h5xx_hal_icache.c **** 
 207:Drivers/STM32H5xx_HAL_Driver/Src/stm32h5xx_hal_icache.c ****   /* Stop monitor and reset monitor values */
 208:Drivers/STM32H5xx_HAL_Driver/Src/stm32h5xx_hal_icache.c ****   CLEAR_BIT(ICACHE->CR, ICACHE_MONITOR_HIT_MISS);
  99              		.loc 1 208 3 view .LVU17
 100 0016 1A68     		ldr	r2, [r3]
 101 0018 22F44032 		bic	r2, r2, #196608
 102 001c 1A60     		str	r2, [r3]
 209:Drivers/STM32H5xx_HAL_Driver/Src/stm32h5xx_hal_icache.c ****   SET_BIT(ICACHE->CR, (ICACHE_MONITOR_HIT_MISS << 2U));
 103              		.loc 1 209 3 view .LVU18
 104 001e 1A68     		ldr	r2, [r3]
 105 0020 42F44022 		orr	r2, r2, #786432
 106 0024 1A60     		str	r2, [r3]
 210:Drivers/STM32H5xx_HAL_Driver/Src/stm32h5xx_hal_icache.c ****   CLEAR_BIT(ICACHE->CR, (ICACHE_MONITOR_HIT_MISS << 2U));
 107              		.loc 1 210 3 view .LVU19
 108 0026 1A68     		ldr	r2, [r3]
 109 0028 22F44022 		bic	r2, r2, #786432
 110 002c 1A60     		str	r2, [r3]
 211:Drivers/STM32H5xx_HAL_Driver/Src/stm32h5xx_hal_icache.c **** 
 212:Drivers/STM32H5xx_HAL_Driver/Src/stm32h5xx_hal_icache.c **** #if defined(ICACHE_CRRx_REN)
 213:Drivers/STM32H5xx_HAL_Driver/Src/stm32h5xx_hal_icache.c ****   /* Reset regions configuration values */
 214:Drivers/STM32H5xx_HAL_Driver/Src/stm32h5xx_hal_icache.c ****   WRITE_REG(ICACHE->CRR0, ICACHE_REGIONSIZE_2MB << ICACHE_CRRx_RSIZE_Pos);
 215:Drivers/STM32H5xx_HAL_Driver/Src/stm32h5xx_hal_icache.c ****   WRITE_REG(ICACHE->CRR1, ICACHE_REGIONSIZE_2MB << ICACHE_CRRx_RSIZE_Pos);
 216:Drivers/STM32H5xx_HAL_Driver/Src/stm32h5xx_hal_icache.c ****   WRITE_REG(ICACHE->CRR2, ICACHE_REGIONSIZE_2MB << ICACHE_CRRx_RSIZE_Pos);
 217:Drivers/STM32H5xx_HAL_Driver/Src/stm32h5xx_hal_icache.c ****   WRITE_REG(ICACHE->CRR3, ICACHE_REGIONSIZE_2MB << ICACHE_CRRx_RSIZE_Pos);
 218:Drivers/STM32H5xx_HAL_Driver/Src/stm32h5xx_hal_icache.c **** #endif /*  ICACHE_CRRx_REN */
 219:Drivers/STM32H5xx_HAL_Driver/Src/stm32h5xx_hal_icache.c **** 
 220:Drivers/STM32H5xx_HAL_Driver/Src/stm32h5xx_hal_icache.c ****   return HAL_OK;
 111              		.loc 1 220 3 view .LVU20
 221:Drivers/STM32H5xx_HAL_Driver/Src/stm32h5xx_hal_icache.c **** }
 112              		.loc 1 221 1 is_stmt 0 view .LVU21
 113 002e 7047     		bx	lr
 114              	.L8:
 115              		.align	2
 116              	.L7:
 117 0030 00040340 		.word	1073939456
 118              		.cfi_endproc
 119              	.LFE331:
 121              		.section	.text.HAL_ICACHE_Enable,"ax",%progbits
 122              		.align	1
ARM GAS  /var/folders/l3/rwskfq612tq4b7hmtv37jkjw0000gp/T//cc22WSSx.s 			page 7


 123              		.global	HAL_ICACHE_Enable
 124              		.syntax unified
 125              		.thumb
 126              		.thumb_func
 128              	HAL_ICACHE_Enable:
 129              	.LFB332:
 222:Drivers/STM32H5xx_HAL_Driver/Src/stm32h5xx_hal_icache.c **** 
 223:Drivers/STM32H5xx_HAL_Driver/Src/stm32h5xx_hal_icache.c **** /**
 224:Drivers/STM32H5xx_HAL_Driver/Src/stm32h5xx_hal_icache.c ****   * @brief  Enable the Instruction Cache.
 225:Drivers/STM32H5xx_HAL_Driver/Src/stm32h5xx_hal_icache.c ****   * @note   This function always returns HAL_OK even if there is any ongoing
 226:Drivers/STM32H5xx_HAL_Driver/Src/stm32h5xx_hal_icache.c ****   *         cache operation. The Instruction Cache is bypassed until the
 227:Drivers/STM32H5xx_HAL_Driver/Src/stm32h5xx_hal_icache.c ****   *         cache operation completes.
 228:Drivers/STM32H5xx_HAL_Driver/Src/stm32h5xx_hal_icache.c ****   * @retval HAL status (HAL_OK)
 229:Drivers/STM32H5xx_HAL_Driver/Src/stm32h5xx_hal_icache.c ****   */
 230:Drivers/STM32H5xx_HAL_Driver/Src/stm32h5xx_hal_icache.c **** HAL_StatusTypeDef HAL_ICACHE_Enable(void)
 231:Drivers/STM32H5xx_HAL_Driver/Src/stm32h5xx_hal_icache.c **** {
 130              		.loc 1 231 1 is_stmt 1 view -0
 131              		.cfi_startproc
 132              		@ args = 0, pretend = 0, frame = 0
 133              		@ frame_needed = 0, uses_anonymous_args = 0
 134              		@ link register save eliminated.
 232:Drivers/STM32H5xx_HAL_Driver/Src/stm32h5xx_hal_icache.c ****   SET_BIT(ICACHE->CR, ICACHE_CR_EN);
 135              		.loc 1 232 3 view .LVU23
 136 0000 034A     		ldr	r2, .L10
 137 0002 1368     		ldr	r3, [r2]
 138 0004 43F00103 		orr	r3, r3, #1
 139 0008 1360     		str	r3, [r2]
 233:Drivers/STM32H5xx_HAL_Driver/Src/stm32h5xx_hal_icache.c **** 
 234:Drivers/STM32H5xx_HAL_Driver/Src/stm32h5xx_hal_icache.c ****   return HAL_OK;
 140              		.loc 1 234 3 view .LVU24
 235:Drivers/STM32H5xx_HAL_Driver/Src/stm32h5xx_hal_icache.c **** }
 141              		.loc 1 235 1 is_stmt 0 view .LVU25
 142 000a 0020     		movs	r0, #0
 143 000c 7047     		bx	lr
 144              	.L11:
 145 000e 00BF     		.align	2
 146              	.L10:
 147 0010 00040340 		.word	1073939456
 148              		.cfi_endproc
 149              	.LFE332:
 151              		.section	.text.HAL_ICACHE_Disable,"ax",%progbits
 152              		.align	1
 153              		.global	HAL_ICACHE_Disable
 154              		.syntax unified
 155              		.thumb
 156              		.thumb_func
 158              	HAL_ICACHE_Disable:
 159              	.LFB333:
 236:Drivers/STM32H5xx_HAL_Driver/Src/stm32h5xx_hal_icache.c **** 
 237:Drivers/STM32H5xx_HAL_Driver/Src/stm32h5xx_hal_icache.c **** /**
 238:Drivers/STM32H5xx_HAL_Driver/Src/stm32h5xx_hal_icache.c ****   * @brief  Disable the Instruction Cache.
 239:Drivers/STM32H5xx_HAL_Driver/Src/stm32h5xx_hal_icache.c ****   * @note   This function waits for the cache being disabled but
 240:Drivers/STM32H5xx_HAL_Driver/Src/stm32h5xx_hal_icache.c ****   *         not for the end of the automatic cache invalidation procedure.
 241:Drivers/STM32H5xx_HAL_Driver/Src/stm32h5xx_hal_icache.c ****   * @retval HAL status (HAL_OK/HAL_TIMEOUT)
 242:Drivers/STM32H5xx_HAL_Driver/Src/stm32h5xx_hal_icache.c ****   */
 243:Drivers/STM32H5xx_HAL_Driver/Src/stm32h5xx_hal_icache.c **** HAL_StatusTypeDef HAL_ICACHE_Disable(void)
 244:Drivers/STM32H5xx_HAL_Driver/Src/stm32h5xx_hal_icache.c **** {
ARM GAS  /var/folders/l3/rwskfq612tq4b7hmtv37jkjw0000gp/T//cc22WSSx.s 			page 8


 160              		.loc 1 244 1 is_stmt 1 view -0
 161              		.cfi_startproc
 162              		@ args = 0, pretend = 0, frame = 0
 163              		@ frame_needed = 0, uses_anonymous_args = 0
 164 0000 10B5     		push	{r4, lr}
 165              	.LCFI0:
 166              		.cfi_def_cfa_offset 8
 167              		.cfi_offset 4, -8
 168              		.cfi_offset 14, -4
 245:Drivers/STM32H5xx_HAL_Driver/Src/stm32h5xx_hal_icache.c ****   HAL_StatusTypeDef status = HAL_OK;
 169              		.loc 1 245 3 view .LVU27
 170              	.LVL4:
 246:Drivers/STM32H5xx_HAL_Driver/Src/stm32h5xx_hal_icache.c ****   uint32_t tickstart;
 171              		.loc 1 246 3 view .LVU28
 247:Drivers/STM32H5xx_HAL_Driver/Src/stm32h5xx_hal_icache.c **** 
 248:Drivers/STM32H5xx_HAL_Driver/Src/stm32h5xx_hal_icache.c ****   /* Make sure BSYENDF is reset before to disable the instruction cache */
 249:Drivers/STM32H5xx_HAL_Driver/Src/stm32h5xx_hal_icache.c ****   /* as it automatically starts a cache invalidation procedure */
 250:Drivers/STM32H5xx_HAL_Driver/Src/stm32h5xx_hal_icache.c ****   WRITE_REG(ICACHE->FCR, ICACHE_FCR_CBSYENDF);
 172              		.loc 1 250 3 view .LVU29
 173 0002 0E4B     		ldr	r3, .L19
 174 0004 0222     		movs	r2, #2
 175 0006 DA60     		str	r2, [r3, #12]
 251:Drivers/STM32H5xx_HAL_Driver/Src/stm32h5xx_hal_icache.c **** 
 252:Drivers/STM32H5xx_HAL_Driver/Src/stm32h5xx_hal_icache.c ****   CLEAR_BIT(ICACHE->CR, ICACHE_CR_EN);
 176              		.loc 1 252 3 view .LVU30
 177 0008 1A68     		ldr	r2, [r3]
 178 000a 22F00102 		bic	r2, r2, #1
 179 000e 1A60     		str	r2, [r3]
 253:Drivers/STM32H5xx_HAL_Driver/Src/stm32h5xx_hal_icache.c **** 
 254:Drivers/STM32H5xx_HAL_Driver/Src/stm32h5xx_hal_icache.c ****   /* Get tick */
 255:Drivers/STM32H5xx_HAL_Driver/Src/stm32h5xx_hal_icache.c ****   tickstart = HAL_GetTick();
 180              		.loc 1 255 3 view .LVU31
 181              		.loc 1 255 15 is_stmt 0 view .LVU32
 182 0010 FFF7FEFF 		bl	HAL_GetTick
 183              	.LVL5:
 184 0014 0446     		mov	r4, r0
 185              	.LVL6:
 256:Drivers/STM32H5xx_HAL_Driver/Src/stm32h5xx_hal_icache.c **** 
 257:Drivers/STM32H5xx_HAL_Driver/Src/stm32h5xx_hal_icache.c ****   /* Wait for instruction cache being disabled */
 258:Drivers/STM32H5xx_HAL_Driver/Src/stm32h5xx_hal_icache.c ****   while (READ_BIT(ICACHE->CR, ICACHE_CR_EN) != 0U)
 186              		.loc 1 258 3 is_stmt 1 view .LVU33
 187              	.L13:
 188              		.loc 1 258 45 view .LVU34
 189              		.loc 1 258 10 is_stmt 0 view .LVU35
 190 0016 094B     		ldr	r3, .L19
 191 0018 1B68     		ldr	r3, [r3]
 192              		.loc 1 258 45 view .LVU36
 193 001a 13F0010F 		tst	r3, #1
 194 001e 0BD0     		beq	.L18
 259:Drivers/STM32H5xx_HAL_Driver/Src/stm32h5xx_hal_icache.c ****   {
 260:Drivers/STM32H5xx_HAL_Driver/Src/stm32h5xx_hal_icache.c ****     if ((HAL_GetTick() - tickstart) > ICACHE_DISABLE_TIMEOUT_VALUE)
 195              		.loc 1 260 5 is_stmt 1 view .LVU37
 196              		.loc 1 260 10 is_stmt 0 view .LVU38
 197 0020 FFF7FEFF 		bl	HAL_GetTick
 198              	.LVL7:
 199              		.loc 1 260 24 discriminator 1 view .LVU39
 200 0024 001B     		subs	r0, r0, r4
ARM GAS  /var/folders/l3/rwskfq612tq4b7hmtv37jkjw0000gp/T//cc22WSSx.s 			page 9


 201              		.loc 1 260 8 discriminator 1 view .LVU40
 202 0026 0128     		cmp	r0, #1
 203 0028 F5D9     		bls	.L13
 261:Drivers/STM32H5xx_HAL_Driver/Src/stm32h5xx_hal_icache.c ****     {
 262:Drivers/STM32H5xx_HAL_Driver/Src/stm32h5xx_hal_icache.c ****       /* New check to avoid false timeout detection in case of preemption */
 263:Drivers/STM32H5xx_HAL_Driver/Src/stm32h5xx_hal_icache.c ****       if (READ_BIT(ICACHE->CR, ICACHE_CR_EN) != 0U)
 204              		.loc 1 263 7 is_stmt 1 view .LVU41
 205              		.loc 1 263 11 is_stmt 0 view .LVU42
 206 002a 044B     		ldr	r3, .L19
 207 002c 1B68     		ldr	r3, [r3]
 208              		.loc 1 263 10 view .LVU43
 209 002e 13F0010F 		tst	r3, #1
 210 0032 F0D0     		beq	.L13
 264:Drivers/STM32H5xx_HAL_Driver/Src/stm32h5xx_hal_icache.c ****       {
 265:Drivers/STM32H5xx_HAL_Driver/Src/stm32h5xx_hal_icache.c ****         status = HAL_TIMEOUT;
 211              		.loc 1 265 16 view .LVU44
 212 0034 0320     		movs	r0, #3
 213 0036 00E0     		b	.L14
 214              	.L18:
 245:Drivers/STM32H5xx_HAL_Driver/Src/stm32h5xx_hal_icache.c ****   uint32_t tickstart;
 215              		.loc 1 245 21 view .LVU45
 216 0038 0020     		movs	r0, #0
 217              	.L14:
 218              	.LVL8:
 266:Drivers/STM32H5xx_HAL_Driver/Src/stm32h5xx_hal_icache.c ****         break;
 267:Drivers/STM32H5xx_HAL_Driver/Src/stm32h5xx_hal_icache.c ****       }
 268:Drivers/STM32H5xx_HAL_Driver/Src/stm32h5xx_hal_icache.c ****     }
 269:Drivers/STM32H5xx_HAL_Driver/Src/stm32h5xx_hal_icache.c ****   }
 270:Drivers/STM32H5xx_HAL_Driver/Src/stm32h5xx_hal_icache.c **** 
 271:Drivers/STM32H5xx_HAL_Driver/Src/stm32h5xx_hal_icache.c ****   return status;
 219              		.loc 1 271 3 is_stmt 1 view .LVU46
 272:Drivers/STM32H5xx_HAL_Driver/Src/stm32h5xx_hal_icache.c **** }
 220              		.loc 1 272 1 is_stmt 0 view .LVU47
 221 003a 10BD     		pop	{r4, pc}
 222              	.LVL9:
 223              	.L20:
 224              		.loc 1 272 1 view .LVU48
 225              		.align	2
 226              	.L19:
 227 003c 00040340 		.word	1073939456
 228              		.cfi_endproc
 229              	.LFE333:
 231              		.section	.text.HAL_ICACHE_IsEnabled,"ax",%progbits
 232              		.align	1
 233              		.global	HAL_ICACHE_IsEnabled
 234              		.syntax unified
 235              		.thumb
 236              		.thumb_func
 238              	HAL_ICACHE_IsEnabled:
 239              	.LFB334:
 273:Drivers/STM32H5xx_HAL_Driver/Src/stm32h5xx_hal_icache.c **** 
 274:Drivers/STM32H5xx_HAL_Driver/Src/stm32h5xx_hal_icache.c **** /**
 275:Drivers/STM32H5xx_HAL_Driver/Src/stm32h5xx_hal_icache.c ****   * @brief  Check whether the Instruction Cache is enabled or not.
 276:Drivers/STM32H5xx_HAL_Driver/Src/stm32h5xx_hal_icache.c ****   * @retval Status (0: disabled, 1: enabled)
 277:Drivers/STM32H5xx_HAL_Driver/Src/stm32h5xx_hal_icache.c ****   */
 278:Drivers/STM32H5xx_HAL_Driver/Src/stm32h5xx_hal_icache.c **** uint32_t HAL_ICACHE_IsEnabled(void)
 279:Drivers/STM32H5xx_HAL_Driver/Src/stm32h5xx_hal_icache.c **** {
ARM GAS  /var/folders/l3/rwskfq612tq4b7hmtv37jkjw0000gp/T//cc22WSSx.s 			page 10


 240              		.loc 1 279 1 is_stmt 1 view -0
 241              		.cfi_startproc
 242              		@ args = 0, pretend = 0, frame = 0
 243              		@ frame_needed = 0, uses_anonymous_args = 0
 244              		@ link register save eliminated.
 280:Drivers/STM32H5xx_HAL_Driver/Src/stm32h5xx_hal_icache.c ****   return ((READ_BIT(ICACHE->CR, ICACHE_CR_EN) != 0U) ? 1UL : 0UL);
 245              		.loc 1 280 3 view .LVU50
 246              		.loc 1 280 12 is_stmt 0 view .LVU51
 247 0000 024B     		ldr	r3, .L22
 248 0002 1868     		ldr	r0, [r3]
 281:Drivers/STM32H5xx_HAL_Driver/Src/stm32h5xx_hal_icache.c **** }
 249              		.loc 1 281 1 view .LVU52
 250 0004 00F00100 		and	r0, r0, #1
 251 0008 7047     		bx	lr
 252              	.L23:
 253 000a 00BF     		.align	2
 254              	.L22:
 255 000c 00040340 		.word	1073939456
 256              		.cfi_endproc
 257              	.LFE334:
 259              		.section	.text.HAL_ICACHE_Invalidate_IT,"ax",%progbits
 260              		.align	1
 261              		.global	HAL_ICACHE_Invalidate_IT
 262              		.syntax unified
 263              		.thumb
 264              		.thumb_func
 266              	HAL_ICACHE_Invalidate_IT:
 267              	.LFB336:
 282:Drivers/STM32H5xx_HAL_Driver/Src/stm32h5xx_hal_icache.c **** 
 283:Drivers/STM32H5xx_HAL_Driver/Src/stm32h5xx_hal_icache.c **** /**
 284:Drivers/STM32H5xx_HAL_Driver/Src/stm32h5xx_hal_icache.c ****   * @brief  Invalidate the Instruction Cache.
 285:Drivers/STM32H5xx_HAL_Driver/Src/stm32h5xx_hal_icache.c ****   * @note   This function waits for the end of cache invalidation procedure
 286:Drivers/STM32H5xx_HAL_Driver/Src/stm32h5xx_hal_icache.c ****   *         and clears the associated BSYENDF flag.
 287:Drivers/STM32H5xx_HAL_Driver/Src/stm32h5xx_hal_icache.c ****   * @retval HAL status (HAL_OK/HAL_ERROR/HAL_TIMEOUT)
 288:Drivers/STM32H5xx_HAL_Driver/Src/stm32h5xx_hal_icache.c ****   */
 289:Drivers/STM32H5xx_HAL_Driver/Src/stm32h5xx_hal_icache.c **** HAL_StatusTypeDef HAL_ICACHE_Invalidate(void)
 290:Drivers/STM32H5xx_HAL_Driver/Src/stm32h5xx_hal_icache.c **** {
 291:Drivers/STM32H5xx_HAL_Driver/Src/stm32h5xx_hal_icache.c ****   HAL_StatusTypeDef status;
 292:Drivers/STM32H5xx_HAL_Driver/Src/stm32h5xx_hal_icache.c **** 
 293:Drivers/STM32H5xx_HAL_Driver/Src/stm32h5xx_hal_icache.c ****   /* Check if no ongoing operation */
 294:Drivers/STM32H5xx_HAL_Driver/Src/stm32h5xx_hal_icache.c ****   if (READ_BIT(ICACHE->SR, ICACHE_SR_BUSYF) == 0U)
 295:Drivers/STM32H5xx_HAL_Driver/Src/stm32h5xx_hal_icache.c ****   {
 296:Drivers/STM32H5xx_HAL_Driver/Src/stm32h5xx_hal_icache.c ****     /* Launch cache invalidation */
 297:Drivers/STM32H5xx_HAL_Driver/Src/stm32h5xx_hal_icache.c ****     SET_BIT(ICACHE->CR, ICACHE_CR_CACHEINV);
 298:Drivers/STM32H5xx_HAL_Driver/Src/stm32h5xx_hal_icache.c ****   }
 299:Drivers/STM32H5xx_HAL_Driver/Src/stm32h5xx_hal_icache.c **** 
 300:Drivers/STM32H5xx_HAL_Driver/Src/stm32h5xx_hal_icache.c ****   status = HAL_ICACHE_WaitForInvalidateComplete();
 301:Drivers/STM32H5xx_HAL_Driver/Src/stm32h5xx_hal_icache.c **** 
 302:Drivers/STM32H5xx_HAL_Driver/Src/stm32h5xx_hal_icache.c ****   return status;
 303:Drivers/STM32H5xx_HAL_Driver/Src/stm32h5xx_hal_icache.c **** }
 304:Drivers/STM32H5xx_HAL_Driver/Src/stm32h5xx_hal_icache.c **** 
 305:Drivers/STM32H5xx_HAL_Driver/Src/stm32h5xx_hal_icache.c **** /**
 306:Drivers/STM32H5xx_HAL_Driver/Src/stm32h5xx_hal_icache.c ****   * @brief  Invalidate the Instruction Cache with interrupt.
 307:Drivers/STM32H5xx_HAL_Driver/Src/stm32h5xx_hal_icache.c ****   * @note   This function launches cache invalidation and returns.
 308:Drivers/STM32H5xx_HAL_Driver/Src/stm32h5xx_hal_icache.c ****   *         User application shall resort to interrupt generation to check
 309:Drivers/STM32H5xx_HAL_Driver/Src/stm32h5xx_hal_icache.c ****   *         the end of the cache invalidation with the BSYENDF flag and the
 310:Drivers/STM32H5xx_HAL_Driver/Src/stm32h5xx_hal_icache.c ****   *         HAL_ICACHE_InvalidateCompleteCallback() callback.
ARM GAS  /var/folders/l3/rwskfq612tq4b7hmtv37jkjw0000gp/T//cc22WSSx.s 			page 11


 311:Drivers/STM32H5xx_HAL_Driver/Src/stm32h5xx_hal_icache.c ****   * @retval HAL status (HAL_OK/HAL_ERROR)
 312:Drivers/STM32H5xx_HAL_Driver/Src/stm32h5xx_hal_icache.c ****   */
 313:Drivers/STM32H5xx_HAL_Driver/Src/stm32h5xx_hal_icache.c **** HAL_StatusTypeDef HAL_ICACHE_Invalidate_IT(void)
 314:Drivers/STM32H5xx_HAL_Driver/Src/stm32h5xx_hal_icache.c **** {
 268              		.loc 1 314 1 is_stmt 1 view -0
 269              		.cfi_startproc
 270              		@ args = 0, pretend = 0, frame = 0
 271              		@ frame_needed = 0, uses_anonymous_args = 0
 272              		@ link register save eliminated.
 315:Drivers/STM32H5xx_HAL_Driver/Src/stm32h5xx_hal_icache.c ****   HAL_StatusTypeDef status = HAL_OK;
 273              		.loc 1 315 3 view .LVU54
 274              	.LVL10:
 316:Drivers/STM32H5xx_HAL_Driver/Src/stm32h5xx_hal_icache.c **** 
 317:Drivers/STM32H5xx_HAL_Driver/Src/stm32h5xx_hal_icache.c ****   /* Check no ongoing operation */
 318:Drivers/STM32H5xx_HAL_Driver/Src/stm32h5xx_hal_icache.c ****   if (READ_BIT(ICACHE->SR, ICACHE_SR_BUSYF) != 0U)
 275              		.loc 1 318 3 view .LVU55
 276              		.loc 1 318 7 is_stmt 0 view .LVU56
 277 0000 094B     		ldr	r3, .L27
 278 0002 5B68     		ldr	r3, [r3, #4]
 279              		.loc 1 318 6 view .LVU57
 280 0004 13F0010F 		tst	r3, #1
 281 0008 0CD1     		bne	.L26
 319:Drivers/STM32H5xx_HAL_Driver/Src/stm32h5xx_hal_icache.c ****   {
 320:Drivers/STM32H5xx_HAL_Driver/Src/stm32h5xx_hal_icache.c ****     status = HAL_ERROR;
 321:Drivers/STM32H5xx_HAL_Driver/Src/stm32h5xx_hal_icache.c ****   }
 322:Drivers/STM32H5xx_HAL_Driver/Src/stm32h5xx_hal_icache.c ****   else
 323:Drivers/STM32H5xx_HAL_Driver/Src/stm32h5xx_hal_icache.c ****   {
 324:Drivers/STM32H5xx_HAL_Driver/Src/stm32h5xx_hal_icache.c ****     /* Make sure BSYENDF is reset before to start cache invalidation */
 325:Drivers/STM32H5xx_HAL_Driver/Src/stm32h5xx_hal_icache.c ****     WRITE_REG(ICACHE->FCR, ICACHE_FCR_CBSYENDF);
 282              		.loc 1 325 5 is_stmt 1 view .LVU58
 283 000a 074B     		ldr	r3, .L27
 284 000c 0222     		movs	r2, #2
 285 000e DA60     		str	r2, [r3, #12]
 326:Drivers/STM32H5xx_HAL_Driver/Src/stm32h5xx_hal_icache.c **** 
 327:Drivers/STM32H5xx_HAL_Driver/Src/stm32h5xx_hal_icache.c ****     /* Enable end of cache invalidation interrupt */
 328:Drivers/STM32H5xx_HAL_Driver/Src/stm32h5xx_hal_icache.c ****     SET_BIT(ICACHE->IER, ICACHE_IER_BSYENDIE);
 286              		.loc 1 328 5 view .LVU59
 287 0010 9A68     		ldr	r2, [r3, #8]
 288 0012 42F00202 		orr	r2, r2, #2
 289 0016 9A60     		str	r2, [r3, #8]
 329:Drivers/STM32H5xx_HAL_Driver/Src/stm32h5xx_hal_icache.c **** 
 330:Drivers/STM32H5xx_HAL_Driver/Src/stm32h5xx_hal_icache.c ****     /* Launch cache invalidation */
 331:Drivers/STM32H5xx_HAL_Driver/Src/stm32h5xx_hal_icache.c ****     SET_BIT(ICACHE->CR, ICACHE_CR_CACHEINV);
 290              		.loc 1 331 5 view .LVU60
 291 0018 1A68     		ldr	r2, [r3]
 292 001a 42F00202 		orr	r2, r2, #2
 293 001e 1A60     		str	r2, [r3]
 315:Drivers/STM32H5xx_HAL_Driver/Src/stm32h5xx_hal_icache.c **** 
 294              		.loc 1 315 21 is_stmt 0 view .LVU61
 295 0020 0020     		movs	r0, #0
 296 0022 7047     		bx	lr
 297              	.L26:
 320:Drivers/STM32H5xx_HAL_Driver/Src/stm32h5xx_hal_icache.c ****   }
 298              		.loc 1 320 12 view .LVU62
 299 0024 0120     		movs	r0, #1
 300              	.LVL11:
 332:Drivers/STM32H5xx_HAL_Driver/Src/stm32h5xx_hal_icache.c ****   }
ARM GAS  /var/folders/l3/rwskfq612tq4b7hmtv37jkjw0000gp/T//cc22WSSx.s 			page 12


 333:Drivers/STM32H5xx_HAL_Driver/Src/stm32h5xx_hal_icache.c **** 
 334:Drivers/STM32H5xx_HAL_Driver/Src/stm32h5xx_hal_icache.c ****   return status;
 301              		.loc 1 334 3 is_stmt 1 view .LVU63
 335:Drivers/STM32H5xx_HAL_Driver/Src/stm32h5xx_hal_icache.c **** }
 302              		.loc 1 335 1 is_stmt 0 view .LVU64
 303 0026 7047     		bx	lr
 304              	.L28:
 305              		.align	2
 306              	.L27:
 307 0028 00040340 		.word	1073939456
 308              		.cfi_endproc
 309              	.LFE336:
 311              		.section	.text.HAL_ICACHE_WaitForInvalidateComplete,"ax",%progbits
 312              		.align	1
 313              		.global	HAL_ICACHE_WaitForInvalidateComplete
 314              		.syntax unified
 315              		.thumb
 316              		.thumb_func
 318              	HAL_ICACHE_WaitForInvalidateComplete:
 319              	.LFB337:
 336:Drivers/STM32H5xx_HAL_Driver/Src/stm32h5xx_hal_icache.c **** 
 337:Drivers/STM32H5xx_HAL_Driver/Src/stm32h5xx_hal_icache.c **** /**
 338:Drivers/STM32H5xx_HAL_Driver/Src/stm32h5xx_hal_icache.c ****   * @brief Wait for the end of the Instruction Cache invalidate procedure.
 339:Drivers/STM32H5xx_HAL_Driver/Src/stm32h5xx_hal_icache.c ****   * @note This function checks and clears the BSYENDF flag when set.
 340:Drivers/STM32H5xx_HAL_Driver/Src/stm32h5xx_hal_icache.c ****   * @retval HAL status (HAL_OK/HAL_TIMEOUT)
 341:Drivers/STM32H5xx_HAL_Driver/Src/stm32h5xx_hal_icache.c ****   */
 342:Drivers/STM32H5xx_HAL_Driver/Src/stm32h5xx_hal_icache.c **** HAL_StatusTypeDef HAL_ICACHE_WaitForInvalidateComplete(void)
 343:Drivers/STM32H5xx_HAL_Driver/Src/stm32h5xx_hal_icache.c **** {
 320              		.loc 1 343 1 is_stmt 1 view -0
 321              		.cfi_startproc
 322              		@ args = 0, pretend = 0, frame = 0
 323              		@ frame_needed = 0, uses_anonymous_args = 0
 344:Drivers/STM32H5xx_HAL_Driver/Src/stm32h5xx_hal_icache.c ****   HAL_StatusTypeDef status = HAL_OK;
 324              		.loc 1 344 3 view .LVU66
 325              	.LVL12:
 345:Drivers/STM32H5xx_HAL_Driver/Src/stm32h5xx_hal_icache.c ****   uint32_t tickstart;
 326              		.loc 1 345 3 view .LVU67
 346:Drivers/STM32H5xx_HAL_Driver/Src/stm32h5xx_hal_icache.c **** 
 347:Drivers/STM32H5xx_HAL_Driver/Src/stm32h5xx_hal_icache.c ****   /* Check if ongoing invalidation operation */
 348:Drivers/STM32H5xx_HAL_Driver/Src/stm32h5xx_hal_icache.c ****   if (READ_BIT(ICACHE->SR, ICACHE_SR_BUSYF) != 0U)
 327              		.loc 1 348 3 view .LVU68
 328              		.loc 1 348 7 is_stmt 0 view .LVU69
 329 0000 114B     		ldr	r3, .L41
 330 0002 5B68     		ldr	r3, [r3, #4]
 331              		.loc 1 348 6 view .LVU70
 332 0004 13F0010F 		tst	r3, #1
 333 0008 04D1     		bne	.L39
 344:Drivers/STM32H5xx_HAL_Driver/Src/stm32h5xx_hal_icache.c ****   uint32_t tickstart;
 334              		.loc 1 344 21 view .LVU71
 335 000a 0020     		movs	r0, #0
 336              	.LVL13:
 349:Drivers/STM32H5xx_HAL_Driver/Src/stm32h5xx_hal_icache.c ****   {
 350:Drivers/STM32H5xx_HAL_Driver/Src/stm32h5xx_hal_icache.c ****     /* Get tick */
 351:Drivers/STM32H5xx_HAL_Driver/Src/stm32h5xx_hal_icache.c ****     tickstart = HAL_GetTick();
 352:Drivers/STM32H5xx_HAL_Driver/Src/stm32h5xx_hal_icache.c **** 
 353:Drivers/STM32H5xx_HAL_Driver/Src/stm32h5xx_hal_icache.c ****     /* Wait for end of cache invalidation */
 354:Drivers/STM32H5xx_HAL_Driver/Src/stm32h5xx_hal_icache.c ****     while (READ_BIT(ICACHE->SR, ICACHE_SR_BSYENDF) == 0U)
ARM GAS  /var/folders/l3/rwskfq612tq4b7hmtv37jkjw0000gp/T//cc22WSSx.s 			page 13


 355:Drivers/STM32H5xx_HAL_Driver/Src/stm32h5xx_hal_icache.c ****     {
 356:Drivers/STM32H5xx_HAL_Driver/Src/stm32h5xx_hal_icache.c ****       if ((HAL_GetTick() - tickstart) > ICACHE_INVALIDATE_TIMEOUT_VALUE)
 357:Drivers/STM32H5xx_HAL_Driver/Src/stm32h5xx_hal_icache.c ****       {
 358:Drivers/STM32H5xx_HAL_Driver/Src/stm32h5xx_hal_icache.c ****         /* New check to avoid false timeout detection in case of preemption */
 359:Drivers/STM32H5xx_HAL_Driver/Src/stm32h5xx_hal_icache.c ****         if (READ_BIT(ICACHE->SR, ICACHE_SR_BSYENDF) == 0U)
 360:Drivers/STM32H5xx_HAL_Driver/Src/stm32h5xx_hal_icache.c ****         {
 361:Drivers/STM32H5xx_HAL_Driver/Src/stm32h5xx_hal_icache.c ****           status = HAL_TIMEOUT;
 362:Drivers/STM32H5xx_HAL_Driver/Src/stm32h5xx_hal_icache.c ****           break;
 363:Drivers/STM32H5xx_HAL_Driver/Src/stm32h5xx_hal_icache.c ****         }
 364:Drivers/STM32H5xx_HAL_Driver/Src/stm32h5xx_hal_icache.c ****       }
 365:Drivers/STM32H5xx_HAL_Driver/Src/stm32h5xx_hal_icache.c ****     }
 366:Drivers/STM32H5xx_HAL_Driver/Src/stm32h5xx_hal_icache.c ****   }
 367:Drivers/STM32H5xx_HAL_Driver/Src/stm32h5xx_hal_icache.c **** 
 368:Drivers/STM32H5xx_HAL_Driver/Src/stm32h5xx_hal_icache.c ****   /* Clear BSYENDF */
 369:Drivers/STM32H5xx_HAL_Driver/Src/stm32h5xx_hal_icache.c ****   WRITE_REG(ICACHE->FCR, ICACHE_FCR_CBSYENDF);
 337              		.loc 1 369 3 is_stmt 1 view .LVU72
 338 000c 0E4B     		ldr	r3, .L41
 339 000e 0222     		movs	r2, #2
 340 0010 DA60     		str	r2, [r3, #12]
 370:Drivers/STM32H5xx_HAL_Driver/Src/stm32h5xx_hal_icache.c **** 
 371:Drivers/STM32H5xx_HAL_Driver/Src/stm32h5xx_hal_icache.c ****   return status;
 341              		.loc 1 371 3 view .LVU73
 372:Drivers/STM32H5xx_HAL_Driver/Src/stm32h5xx_hal_icache.c **** }
 342              		.loc 1 372 1 is_stmt 0 view .LVU74
 343 0012 7047     		bx	lr
 344              	.LVL14:
 345              	.L39:
 343:Drivers/STM32H5xx_HAL_Driver/Src/stm32h5xx_hal_icache.c ****   HAL_StatusTypeDef status = HAL_OK;
 346              		.loc 1 343 1 view .LVU75
 347 0014 10B5     		push	{r4, lr}
 348              	.LCFI1:
 349              		.cfi_def_cfa_offset 8
 350              		.cfi_offset 4, -8
 351              		.cfi_offset 14, -4
 351:Drivers/STM32H5xx_HAL_Driver/Src/stm32h5xx_hal_icache.c **** 
 352              		.loc 1 351 5 is_stmt 1 view .LVU76
 351:Drivers/STM32H5xx_HAL_Driver/Src/stm32h5xx_hal_icache.c **** 
 353              		.loc 1 351 17 is_stmt 0 view .LVU77
 354 0016 FFF7FEFF 		bl	HAL_GetTick
 355              	.LVL15:
 356 001a 0446     		mov	r4, r0
 357              	.LVL16:
 354:Drivers/STM32H5xx_HAL_Driver/Src/stm32h5xx_hal_icache.c ****     {
 358              		.loc 1 354 5 is_stmt 1 view .LVU78
 359              	.L31:
 354:Drivers/STM32H5xx_HAL_Driver/Src/stm32h5xx_hal_icache.c ****     {
 360              		.loc 1 354 52 view .LVU79
 354:Drivers/STM32H5xx_HAL_Driver/Src/stm32h5xx_hal_icache.c ****     {
 361              		.loc 1 354 12 is_stmt 0 view .LVU80
 362 001c 0A4B     		ldr	r3, .L41
 363 001e 5B68     		ldr	r3, [r3, #4]
 354:Drivers/STM32H5xx_HAL_Driver/Src/stm32h5xx_hal_icache.c ****     {
 364              		.loc 1 354 52 view .LVU81
 365 0020 13F0020F 		tst	r3, #2
 366 0024 0BD1     		bne	.L40
 356:Drivers/STM32H5xx_HAL_Driver/Src/stm32h5xx_hal_icache.c ****       {
 367              		.loc 1 356 7 is_stmt 1 view .LVU82
ARM GAS  /var/folders/l3/rwskfq612tq4b7hmtv37jkjw0000gp/T//cc22WSSx.s 			page 14


 356:Drivers/STM32H5xx_HAL_Driver/Src/stm32h5xx_hal_icache.c ****       {
 368              		.loc 1 356 12 is_stmt 0 view .LVU83
 369 0026 FFF7FEFF 		bl	HAL_GetTick
 370              	.LVL17:
 356:Drivers/STM32H5xx_HAL_Driver/Src/stm32h5xx_hal_icache.c ****       {
 371              		.loc 1 356 26 discriminator 1 view .LVU84
 372 002a 001B     		subs	r0, r0, r4
 356:Drivers/STM32H5xx_HAL_Driver/Src/stm32h5xx_hal_icache.c ****       {
 373              		.loc 1 356 10 discriminator 1 view .LVU85
 374 002c 0128     		cmp	r0, #1
 375 002e F5D9     		bls	.L31
 359:Drivers/STM32H5xx_HAL_Driver/Src/stm32h5xx_hal_icache.c ****         {
 376              		.loc 1 359 9 is_stmt 1 view .LVU86
 359:Drivers/STM32H5xx_HAL_Driver/Src/stm32h5xx_hal_icache.c ****         {
 377              		.loc 1 359 13 is_stmt 0 view .LVU87
 378 0030 054B     		ldr	r3, .L41
 379 0032 5B68     		ldr	r3, [r3, #4]
 359:Drivers/STM32H5xx_HAL_Driver/Src/stm32h5xx_hal_icache.c ****         {
 380              		.loc 1 359 12 view .LVU88
 381 0034 13F0020F 		tst	r3, #2
 382 0038 F0D1     		bne	.L31
 361:Drivers/STM32H5xx_HAL_Driver/Src/stm32h5xx_hal_icache.c ****           break;
 383              		.loc 1 361 18 view .LVU89
 384 003a 0320     		movs	r0, #3
 385 003c 00E0     		b	.L30
 386              	.L40:
 344:Drivers/STM32H5xx_HAL_Driver/Src/stm32h5xx_hal_icache.c ****   uint32_t tickstart;
 387              		.loc 1 344 21 view .LVU90
 388 003e 0020     		movs	r0, #0
 389              	.L30:
 390              	.LVL18:
 369:Drivers/STM32H5xx_HAL_Driver/Src/stm32h5xx_hal_icache.c **** 
 391              		.loc 1 369 3 is_stmt 1 view .LVU91
 392 0040 014B     		ldr	r3, .L41
 393 0042 0222     		movs	r2, #2
 394 0044 DA60     		str	r2, [r3, #12]
 371:Drivers/STM32H5xx_HAL_Driver/Src/stm32h5xx_hal_icache.c **** }
 395              		.loc 1 371 3 view .LVU92
 396              		.loc 1 372 1 is_stmt 0 view .LVU93
 397 0046 10BD     		pop	{r4, pc}
 398              	.LVL19:
 399              	.L42:
 400              		.loc 1 372 1 view .LVU94
 401              		.align	2
 402              	.L41:
 403 0048 00040340 		.word	1073939456
 404              		.cfi_endproc
 405              	.LFE337:
 407              		.section	.text.HAL_ICACHE_Invalidate,"ax",%progbits
 408              		.align	1
 409              		.global	HAL_ICACHE_Invalidate
 410              		.syntax unified
 411              		.thumb
 412              		.thumb_func
 414              	HAL_ICACHE_Invalidate:
 415              	.LFB335:
 290:Drivers/STM32H5xx_HAL_Driver/Src/stm32h5xx_hal_icache.c ****   HAL_StatusTypeDef status;
ARM GAS  /var/folders/l3/rwskfq612tq4b7hmtv37jkjw0000gp/T//cc22WSSx.s 			page 15


 416              		.loc 1 290 1 is_stmt 1 view -0
 417              		.cfi_startproc
 418              		@ args = 0, pretend = 0, frame = 0
 419              		@ frame_needed = 0, uses_anonymous_args = 0
 420 0000 08B5     		push	{r3, lr}
 421              	.LCFI2:
 422              		.cfi_def_cfa_offset 8
 423              		.cfi_offset 3, -8
 424              		.cfi_offset 14, -4
 291:Drivers/STM32H5xx_HAL_Driver/Src/stm32h5xx_hal_icache.c **** 
 425              		.loc 1 291 3 view .LVU96
 294:Drivers/STM32H5xx_HAL_Driver/Src/stm32h5xx_hal_icache.c ****   {
 426              		.loc 1 294 3 view .LVU97
 294:Drivers/STM32H5xx_HAL_Driver/Src/stm32h5xx_hal_icache.c ****   {
 427              		.loc 1 294 7 is_stmt 0 view .LVU98
 428 0002 064B     		ldr	r3, .L46
 429 0004 5B68     		ldr	r3, [r3, #4]
 294:Drivers/STM32H5xx_HAL_Driver/Src/stm32h5xx_hal_icache.c ****   {
 430              		.loc 1 294 6 view .LVU99
 431 0006 13F0010F 		tst	r3, #1
 432 000a 04D1     		bne	.L44
 297:Drivers/STM32H5xx_HAL_Driver/Src/stm32h5xx_hal_icache.c ****   }
 433              		.loc 1 297 5 is_stmt 1 view .LVU100
 434 000c 034A     		ldr	r2, .L46
 435 000e 1368     		ldr	r3, [r2]
 436 0010 43F00203 		orr	r3, r3, #2
 437 0014 1360     		str	r3, [r2]
 438              	.L44:
 300:Drivers/STM32H5xx_HAL_Driver/Src/stm32h5xx_hal_icache.c **** 
 439              		.loc 1 300 3 view .LVU101
 300:Drivers/STM32H5xx_HAL_Driver/Src/stm32h5xx_hal_icache.c **** 
 440              		.loc 1 300 12 is_stmt 0 view .LVU102
 441 0016 FFF7FEFF 		bl	HAL_ICACHE_WaitForInvalidateComplete
 442              	.LVL20:
 302:Drivers/STM32H5xx_HAL_Driver/Src/stm32h5xx_hal_icache.c **** }
 443              		.loc 1 302 3 is_stmt 1 view .LVU103
 303:Drivers/STM32H5xx_HAL_Driver/Src/stm32h5xx_hal_icache.c **** 
 444              		.loc 1 303 1 is_stmt 0 view .LVU104
 445 001a 08BD     		pop	{r3, pc}
 446              	.L47:
 447              		.align	2
 448              	.L46:
 449 001c 00040340 		.word	1073939456
 450              		.cfi_endproc
 451              	.LFE335:
 453              		.section	.text.HAL_ICACHE_Monitor_Start,"ax",%progbits
 454              		.align	1
 455              		.global	HAL_ICACHE_Monitor_Start
 456              		.syntax unified
 457              		.thumb
 458              		.thumb_func
 460              	HAL_ICACHE_Monitor_Start:
 461              	.LVL21:
 462              	.LFB338:
 373:Drivers/STM32H5xx_HAL_Driver/Src/stm32h5xx_hal_icache.c **** 
 374:Drivers/STM32H5xx_HAL_Driver/Src/stm32h5xx_hal_icache.c **** 
 375:Drivers/STM32H5xx_HAL_Driver/Src/stm32h5xx_hal_icache.c **** /**
ARM GAS  /var/folders/l3/rwskfq612tq4b7hmtv37jkjw0000gp/T//cc22WSSx.s 			page 16


 376:Drivers/STM32H5xx_HAL_Driver/Src/stm32h5xx_hal_icache.c ****   * @brief  Start the Instruction Cache performance monitoring.
 377:Drivers/STM32H5xx_HAL_Driver/Src/stm32h5xx_hal_icache.c ****   * @param  MonitorType  Monitoring type
 378:Drivers/STM32H5xx_HAL_Driver/Src/stm32h5xx_hal_icache.c ****   *         This parameter can be one of the following values:
 379:Drivers/STM32H5xx_HAL_Driver/Src/stm32h5xx_hal_icache.c ****   *            @arg ICACHE_MONITOR_HIT_MISS   Hit & Miss monitoring
 380:Drivers/STM32H5xx_HAL_Driver/Src/stm32h5xx_hal_icache.c ****   *            @arg ICACHE_MONITOR_HIT        Hit monitoring
 381:Drivers/STM32H5xx_HAL_Driver/Src/stm32h5xx_hal_icache.c ****   *            @arg ICACHE_MONITOR_MISS       Miss monitoring
 382:Drivers/STM32H5xx_HAL_Driver/Src/stm32h5xx_hal_icache.c ****   * @retval HAL status (HAL_OK)
 383:Drivers/STM32H5xx_HAL_Driver/Src/stm32h5xx_hal_icache.c ****   */
 384:Drivers/STM32H5xx_HAL_Driver/Src/stm32h5xx_hal_icache.c **** HAL_StatusTypeDef HAL_ICACHE_Monitor_Start(uint32_t MonitorType)
 385:Drivers/STM32H5xx_HAL_Driver/Src/stm32h5xx_hal_icache.c **** {
 463              		.loc 1 385 1 is_stmt 1 view -0
 464              		.cfi_startproc
 465              		@ args = 0, pretend = 0, frame = 0
 466              		@ frame_needed = 0, uses_anonymous_args = 0
 467              		@ link register save eliminated.
 386:Drivers/STM32H5xx_HAL_Driver/Src/stm32h5xx_hal_icache.c ****   /* Check the parameters */
 387:Drivers/STM32H5xx_HAL_Driver/Src/stm32h5xx_hal_icache.c ****   assert_param(IS_ICACHE_MONITOR_TYPE(MonitorType));
 468              		.loc 1 387 3 view .LVU106
 388:Drivers/STM32H5xx_HAL_Driver/Src/stm32h5xx_hal_icache.c **** 
 389:Drivers/STM32H5xx_HAL_Driver/Src/stm32h5xx_hal_icache.c ****   SET_BIT(ICACHE->CR, MonitorType);
 469              		.loc 1 389 3 view .LVU107
 470 0000 024A     		ldr	r2, .L49
 471 0002 1368     		ldr	r3, [r2]
 472 0004 0343     		orrs	r3, r3, r0
 473 0006 1360     		str	r3, [r2]
 390:Drivers/STM32H5xx_HAL_Driver/Src/stm32h5xx_hal_icache.c **** 
 391:Drivers/STM32H5xx_HAL_Driver/Src/stm32h5xx_hal_icache.c ****   return HAL_OK;
 474              		.loc 1 391 3 view .LVU108
 392:Drivers/STM32H5xx_HAL_Driver/Src/stm32h5xx_hal_icache.c **** }
 475              		.loc 1 392 1 is_stmt 0 view .LVU109
 476 0008 0020     		movs	r0, #0
 477              	.LVL22:
 478              		.loc 1 392 1 view .LVU110
 479 000a 7047     		bx	lr
 480              	.L50:
 481              		.align	2
 482              	.L49:
 483 000c 00040340 		.word	1073939456
 484              		.cfi_endproc
 485              	.LFE338:
 487              		.section	.text.HAL_ICACHE_Monitor_Stop,"ax",%progbits
 488              		.align	1
 489              		.global	HAL_ICACHE_Monitor_Stop
 490              		.syntax unified
 491              		.thumb
 492              		.thumb_func
 494              	HAL_ICACHE_Monitor_Stop:
 495              	.LVL23:
 496              	.LFB339:
 393:Drivers/STM32H5xx_HAL_Driver/Src/stm32h5xx_hal_icache.c **** 
 394:Drivers/STM32H5xx_HAL_Driver/Src/stm32h5xx_hal_icache.c **** /**
 395:Drivers/STM32H5xx_HAL_Driver/Src/stm32h5xx_hal_icache.c ****   * @brief  Stop the Instruction Cache performance monitoring.
 396:Drivers/STM32H5xx_HAL_Driver/Src/stm32h5xx_hal_icache.c ****   * @note   Stopping the monitoring does not reset the values.
 397:Drivers/STM32H5xx_HAL_Driver/Src/stm32h5xx_hal_icache.c ****   * @param  MonitorType  Monitoring type
 398:Drivers/STM32H5xx_HAL_Driver/Src/stm32h5xx_hal_icache.c ****   *         This parameter can be one of the following values:
 399:Drivers/STM32H5xx_HAL_Driver/Src/stm32h5xx_hal_icache.c ****   *            @arg ICACHE_MONITOR_HIT_MISS   Hit & Miss monitoring
 400:Drivers/STM32H5xx_HAL_Driver/Src/stm32h5xx_hal_icache.c ****   *            @arg ICACHE_MONITOR_HIT        Hit monitoring
ARM GAS  /var/folders/l3/rwskfq612tq4b7hmtv37jkjw0000gp/T//cc22WSSx.s 			page 17


 401:Drivers/STM32H5xx_HAL_Driver/Src/stm32h5xx_hal_icache.c ****   *            @arg ICACHE_MONITOR_MISS       Miss monitoring
 402:Drivers/STM32H5xx_HAL_Driver/Src/stm32h5xx_hal_icache.c ****   * @retval HAL status (HAL_OK)
 403:Drivers/STM32H5xx_HAL_Driver/Src/stm32h5xx_hal_icache.c ****   */
 404:Drivers/STM32H5xx_HAL_Driver/Src/stm32h5xx_hal_icache.c **** HAL_StatusTypeDef HAL_ICACHE_Monitor_Stop(uint32_t MonitorType)
 405:Drivers/STM32H5xx_HAL_Driver/Src/stm32h5xx_hal_icache.c **** {
 497              		.loc 1 405 1 is_stmt 1 view -0
 498              		.cfi_startproc
 499              		@ args = 0, pretend = 0, frame = 0
 500              		@ frame_needed = 0, uses_anonymous_args = 0
 501              		@ link register save eliminated.
 406:Drivers/STM32H5xx_HAL_Driver/Src/stm32h5xx_hal_icache.c ****   /* Check the parameters */
 407:Drivers/STM32H5xx_HAL_Driver/Src/stm32h5xx_hal_icache.c ****   assert_param(IS_ICACHE_MONITOR_TYPE(MonitorType));
 502              		.loc 1 407 3 view .LVU112
 408:Drivers/STM32H5xx_HAL_Driver/Src/stm32h5xx_hal_icache.c **** 
 409:Drivers/STM32H5xx_HAL_Driver/Src/stm32h5xx_hal_icache.c ****   CLEAR_BIT(ICACHE->CR, MonitorType);
 503              		.loc 1 409 3 view .LVU113
 504 0000 034A     		ldr	r2, .L52
 505 0002 1368     		ldr	r3, [r2]
 506 0004 23EA0003 		bic	r3, r3, r0
 507 0008 1360     		str	r3, [r2]
 410:Drivers/STM32H5xx_HAL_Driver/Src/stm32h5xx_hal_icache.c **** 
 411:Drivers/STM32H5xx_HAL_Driver/Src/stm32h5xx_hal_icache.c ****   return HAL_OK;
 508              		.loc 1 411 3 view .LVU114
 412:Drivers/STM32H5xx_HAL_Driver/Src/stm32h5xx_hal_icache.c **** }
 509              		.loc 1 412 1 is_stmt 0 view .LVU115
 510 000a 0020     		movs	r0, #0
 511              	.LVL24:
 512              		.loc 1 412 1 view .LVU116
 513 000c 7047     		bx	lr
 514              	.L53:
 515 000e 00BF     		.align	2
 516              	.L52:
 517 0010 00040340 		.word	1073939456
 518              		.cfi_endproc
 519              	.LFE339:
 521              		.section	.text.HAL_ICACHE_Monitor_Reset,"ax",%progbits
 522              		.align	1
 523              		.global	HAL_ICACHE_Monitor_Reset
 524              		.syntax unified
 525              		.thumb
 526              		.thumb_func
 528              	HAL_ICACHE_Monitor_Reset:
 529              	.LVL25:
 530              	.LFB340:
 413:Drivers/STM32H5xx_HAL_Driver/Src/stm32h5xx_hal_icache.c **** 
 414:Drivers/STM32H5xx_HAL_Driver/Src/stm32h5xx_hal_icache.c **** /**
 415:Drivers/STM32H5xx_HAL_Driver/Src/stm32h5xx_hal_icache.c ****   * @brief  Reset the Instruction Cache performance monitoring values.
 416:Drivers/STM32H5xx_HAL_Driver/Src/stm32h5xx_hal_icache.c ****   * @param  MonitorType  Monitoring type
 417:Drivers/STM32H5xx_HAL_Driver/Src/stm32h5xx_hal_icache.c ****   *         This parameter can be one of the following values:
 418:Drivers/STM32H5xx_HAL_Driver/Src/stm32h5xx_hal_icache.c ****   *            @arg ICACHE_MONITOR_HIT_MISS   Hit & Miss monitoring
 419:Drivers/STM32H5xx_HAL_Driver/Src/stm32h5xx_hal_icache.c ****   *            @arg ICACHE_MONITOR_HIT        Hit monitoring
 420:Drivers/STM32H5xx_HAL_Driver/Src/stm32h5xx_hal_icache.c ****   *            @arg ICACHE_MONITOR_MISS       Miss monitoring
 421:Drivers/STM32H5xx_HAL_Driver/Src/stm32h5xx_hal_icache.c ****   * @retval HAL status (HAL_OK)
 422:Drivers/STM32H5xx_HAL_Driver/Src/stm32h5xx_hal_icache.c ****   */
 423:Drivers/STM32H5xx_HAL_Driver/Src/stm32h5xx_hal_icache.c **** HAL_StatusTypeDef HAL_ICACHE_Monitor_Reset(uint32_t MonitorType)
 424:Drivers/STM32H5xx_HAL_Driver/Src/stm32h5xx_hal_icache.c **** {
 531              		.loc 1 424 1 is_stmt 1 view -0
ARM GAS  /var/folders/l3/rwskfq612tq4b7hmtv37jkjw0000gp/T//cc22WSSx.s 			page 18


 532              		.cfi_startproc
 533              		@ args = 0, pretend = 0, frame = 0
 534              		@ frame_needed = 0, uses_anonymous_args = 0
 535              		@ link register save eliminated.
 425:Drivers/STM32H5xx_HAL_Driver/Src/stm32h5xx_hal_icache.c ****   /* Check the parameters */
 426:Drivers/STM32H5xx_HAL_Driver/Src/stm32h5xx_hal_icache.c ****   assert_param(IS_ICACHE_MONITOR_TYPE(MonitorType));
 536              		.loc 1 426 3 view .LVU118
 427:Drivers/STM32H5xx_HAL_Driver/Src/stm32h5xx_hal_icache.c **** 
 428:Drivers/STM32H5xx_HAL_Driver/Src/stm32h5xx_hal_icache.c ****   /* Force/Release reset */
 429:Drivers/STM32H5xx_HAL_Driver/Src/stm32h5xx_hal_icache.c ****   SET_BIT(ICACHE->CR, (MonitorType << 2U));
 537              		.loc 1 429 3 view .LVU119
 538 0000 054B     		ldr	r3, .L55
 539 0002 1A68     		ldr	r2, [r3]
 540 0004 42EA8002 		orr	r2, r2, r0, lsl #2
 541 0008 1A60     		str	r2, [r3]
 430:Drivers/STM32H5xx_HAL_Driver/Src/stm32h5xx_hal_icache.c ****   CLEAR_BIT(ICACHE->CR, (MonitorType << 2U));
 542              		.loc 1 430 3 view .LVU120
 543 000a 1A68     		ldr	r2, [r3]
 544 000c 22EA8002 		bic	r2, r2, r0, lsl #2
 545 0010 1A60     		str	r2, [r3]
 431:Drivers/STM32H5xx_HAL_Driver/Src/stm32h5xx_hal_icache.c **** 
 432:Drivers/STM32H5xx_HAL_Driver/Src/stm32h5xx_hal_icache.c ****   return HAL_OK;
 546              		.loc 1 432 3 view .LVU121
 433:Drivers/STM32H5xx_HAL_Driver/Src/stm32h5xx_hal_icache.c **** }
 547              		.loc 1 433 1 is_stmt 0 view .LVU122
 548 0012 0020     		movs	r0, #0
 549              	.LVL26:
 550              		.loc 1 433 1 view .LVU123
 551 0014 7047     		bx	lr
 552              	.L56:
 553 0016 00BF     		.align	2
 554              	.L55:
 555 0018 00040340 		.word	1073939456
 556              		.cfi_endproc
 557              	.LFE340:
 559              		.section	.text.HAL_ICACHE_Monitor_GetHitValue,"ax",%progbits
 560              		.align	1
 561              		.global	HAL_ICACHE_Monitor_GetHitValue
 562              		.syntax unified
 563              		.thumb
 564              		.thumb_func
 566              	HAL_ICACHE_Monitor_GetHitValue:
 567              	.LFB341:
 434:Drivers/STM32H5xx_HAL_Driver/Src/stm32h5xx_hal_icache.c **** 
 435:Drivers/STM32H5xx_HAL_Driver/Src/stm32h5xx_hal_icache.c **** /**
 436:Drivers/STM32H5xx_HAL_Driver/Src/stm32h5xx_hal_icache.c ****   * @brief  Get the Instruction Cache performance Hit monitoring value.
 437:Drivers/STM32H5xx_HAL_Driver/Src/stm32h5xx_hal_icache.c ****   * @note   Upon reaching the 32-bit maximum value, monitor does not wrap.
 438:Drivers/STM32H5xx_HAL_Driver/Src/stm32h5xx_hal_icache.c ****   * @retval Hit monitoring value
 439:Drivers/STM32H5xx_HAL_Driver/Src/stm32h5xx_hal_icache.c ****   */
 440:Drivers/STM32H5xx_HAL_Driver/Src/stm32h5xx_hal_icache.c **** uint32_t HAL_ICACHE_Monitor_GetHitValue(void)
 441:Drivers/STM32H5xx_HAL_Driver/Src/stm32h5xx_hal_icache.c **** {
 568              		.loc 1 441 1 is_stmt 1 view -0
 569              		.cfi_startproc
 570              		@ args = 0, pretend = 0, frame = 0
 571              		@ frame_needed = 0, uses_anonymous_args = 0
 572              		@ link register save eliminated.
 442:Drivers/STM32H5xx_HAL_Driver/Src/stm32h5xx_hal_icache.c ****   return (ICACHE->HMONR);
ARM GAS  /var/folders/l3/rwskfq612tq4b7hmtv37jkjw0000gp/T//cc22WSSx.s 			page 19


 573              		.loc 1 442 3 view .LVU125
 574              		.loc 1 442 17 is_stmt 0 view .LVU126
 575 0000 014B     		ldr	r3, .L58
 576 0002 1869     		ldr	r0, [r3, #16]
 443:Drivers/STM32H5xx_HAL_Driver/Src/stm32h5xx_hal_icache.c **** }
 577              		.loc 1 443 1 view .LVU127
 578 0004 7047     		bx	lr
 579              	.L59:
 580 0006 00BF     		.align	2
 581              	.L58:
 582 0008 00040340 		.word	1073939456
 583              		.cfi_endproc
 584              	.LFE341:
 586              		.section	.text.HAL_ICACHE_Monitor_GetMissValue,"ax",%progbits
 587              		.align	1
 588              		.global	HAL_ICACHE_Monitor_GetMissValue
 589              		.syntax unified
 590              		.thumb
 591              		.thumb_func
 593              	HAL_ICACHE_Monitor_GetMissValue:
 594              	.LFB342:
 444:Drivers/STM32H5xx_HAL_Driver/Src/stm32h5xx_hal_icache.c **** 
 445:Drivers/STM32H5xx_HAL_Driver/Src/stm32h5xx_hal_icache.c **** /**
 446:Drivers/STM32H5xx_HAL_Driver/Src/stm32h5xx_hal_icache.c ****   * @brief  Get the Instruction Cache performance Miss monitoring value.
 447:Drivers/STM32H5xx_HAL_Driver/Src/stm32h5xx_hal_icache.c ****   * @note   Upon reaching the 32-bit maximum value, monitor does not wrap.
 448:Drivers/STM32H5xx_HAL_Driver/Src/stm32h5xx_hal_icache.c ****   * @retval Miss monitoring value
 449:Drivers/STM32H5xx_HAL_Driver/Src/stm32h5xx_hal_icache.c ****   */
 450:Drivers/STM32H5xx_HAL_Driver/Src/stm32h5xx_hal_icache.c **** uint32_t HAL_ICACHE_Monitor_GetMissValue(void)
 451:Drivers/STM32H5xx_HAL_Driver/Src/stm32h5xx_hal_icache.c **** {
 595              		.loc 1 451 1 is_stmt 1 view -0
 596              		.cfi_startproc
 597              		@ args = 0, pretend = 0, frame = 0
 598              		@ frame_needed = 0, uses_anonymous_args = 0
 599              		@ link register save eliminated.
 452:Drivers/STM32H5xx_HAL_Driver/Src/stm32h5xx_hal_icache.c ****   return (ICACHE->MMONR);
 600              		.loc 1 452 3 view .LVU129
 601              		.loc 1 452 17 is_stmt 0 view .LVU130
 602 0000 014B     		ldr	r3, .L61
 603 0002 5869     		ldr	r0, [r3, #20]
 453:Drivers/STM32H5xx_HAL_Driver/Src/stm32h5xx_hal_icache.c **** }
 604              		.loc 1 453 1 view .LVU131
 605 0004 7047     		bx	lr
 606              	.L62:
 607 0006 00BF     		.align	2
 608              	.L61:
 609 0008 00040340 		.word	1073939456
 610              		.cfi_endproc
 611              	.LFE342:
 613              		.section	.text.HAL_ICACHE_InvalidateCompleteCallback,"ax",%progbits
 614              		.align	1
 615              		.weak	HAL_ICACHE_InvalidateCompleteCallback
 616              		.syntax unified
 617              		.thumb
 618              		.thumb_func
 620              	HAL_ICACHE_InvalidateCompleteCallback:
 621              	.LFB344:
 454:Drivers/STM32H5xx_HAL_Driver/Src/stm32h5xx_hal_icache.c **** 
ARM GAS  /var/folders/l3/rwskfq612tq4b7hmtv37jkjw0000gp/T//cc22WSSx.s 			page 20


 455:Drivers/STM32H5xx_HAL_Driver/Src/stm32h5xx_hal_icache.c **** /**
 456:Drivers/STM32H5xx_HAL_Driver/Src/stm32h5xx_hal_icache.c ****   * @}
 457:Drivers/STM32H5xx_HAL_Driver/Src/stm32h5xx_hal_icache.c ****   */
 458:Drivers/STM32H5xx_HAL_Driver/Src/stm32h5xx_hal_icache.c **** 
 459:Drivers/STM32H5xx_HAL_Driver/Src/stm32h5xx_hal_icache.c **** /** @defgroup ICACHE_Exported_Functions_Group2 IRQ and callback functions
 460:Drivers/STM32H5xx_HAL_Driver/Src/stm32h5xx_hal_icache.c ****   * @brief    IRQ and callback functions
 461:Drivers/STM32H5xx_HAL_Driver/Src/stm32h5xx_hal_icache.c ****   *
 462:Drivers/STM32H5xx_HAL_Driver/Src/stm32h5xx_hal_icache.c ****   @verbatim
 463:Drivers/STM32H5xx_HAL_Driver/Src/stm32h5xx_hal_icache.c ****   ==============================================================================
 464:Drivers/STM32H5xx_HAL_Driver/Src/stm32h5xx_hal_icache.c ****             ##### IRQ and callback functions #####
 465:Drivers/STM32H5xx_HAL_Driver/Src/stm32h5xx_hal_icache.c ****   ==============================================================================
 466:Drivers/STM32H5xx_HAL_Driver/Src/stm32h5xx_hal_icache.c ****   [..]
 467:Drivers/STM32H5xx_HAL_Driver/Src/stm32h5xx_hal_icache.c ****     This section provides functions allowing to handle ICACHE global interrupt
 468:Drivers/STM32H5xx_HAL_Driver/Src/stm32h5xx_hal_icache.c ****     and the associated callback functions.
 469:Drivers/STM32H5xx_HAL_Driver/Src/stm32h5xx_hal_icache.c ****   @endverbatim
 470:Drivers/STM32H5xx_HAL_Driver/Src/stm32h5xx_hal_icache.c ****   * @{
 471:Drivers/STM32H5xx_HAL_Driver/Src/stm32h5xx_hal_icache.c ****   */
 472:Drivers/STM32H5xx_HAL_Driver/Src/stm32h5xx_hal_icache.c **** 
 473:Drivers/STM32H5xx_HAL_Driver/Src/stm32h5xx_hal_icache.c **** /**
 474:Drivers/STM32H5xx_HAL_Driver/Src/stm32h5xx_hal_icache.c ****   * @brief Handle the Instruction Cache interrupt request.
 475:Drivers/STM32H5xx_HAL_Driver/Src/stm32h5xx_hal_icache.c ****   * @note This function should be called under the ICACHE_IRQHandler().
 476:Drivers/STM32H5xx_HAL_Driver/Src/stm32h5xx_hal_icache.c ****   * @note This function respectively disables the interrupt and clears the
 477:Drivers/STM32H5xx_HAL_Driver/Src/stm32h5xx_hal_icache.c ****   *       flag of any pending flag before calling the associated user callback.
 478:Drivers/STM32H5xx_HAL_Driver/Src/stm32h5xx_hal_icache.c ****   * @retval None
 479:Drivers/STM32H5xx_HAL_Driver/Src/stm32h5xx_hal_icache.c ****   */
 480:Drivers/STM32H5xx_HAL_Driver/Src/stm32h5xx_hal_icache.c **** void HAL_ICACHE_IRQHandler(void)
 481:Drivers/STM32H5xx_HAL_Driver/Src/stm32h5xx_hal_icache.c **** {
 482:Drivers/STM32H5xx_HAL_Driver/Src/stm32h5xx_hal_icache.c ****   /* Get current interrupt flags and interrupt sources value */
 483:Drivers/STM32H5xx_HAL_Driver/Src/stm32h5xx_hal_icache.c ****   uint32_t itflags   = READ_REG(ICACHE->SR);
 484:Drivers/STM32H5xx_HAL_Driver/Src/stm32h5xx_hal_icache.c ****   uint32_t itsources = READ_REG(ICACHE->IER);
 485:Drivers/STM32H5xx_HAL_Driver/Src/stm32h5xx_hal_icache.c **** 
 486:Drivers/STM32H5xx_HAL_Driver/Src/stm32h5xx_hal_icache.c ****   /* Check Instruction cache Error interrupt flag */
 487:Drivers/STM32H5xx_HAL_Driver/Src/stm32h5xx_hal_icache.c ****   if (((itflags & itsources) & ICACHE_FLAG_ERROR) != 0U)
 488:Drivers/STM32H5xx_HAL_Driver/Src/stm32h5xx_hal_icache.c ****   {
 489:Drivers/STM32H5xx_HAL_Driver/Src/stm32h5xx_hal_icache.c ****     /* Disable error interrupt */
 490:Drivers/STM32H5xx_HAL_Driver/Src/stm32h5xx_hal_icache.c ****     CLEAR_BIT(ICACHE->IER, ICACHE_IER_ERRIE);
 491:Drivers/STM32H5xx_HAL_Driver/Src/stm32h5xx_hal_icache.c **** 
 492:Drivers/STM32H5xx_HAL_Driver/Src/stm32h5xx_hal_icache.c ****     /* Clear ERR pending flag */
 493:Drivers/STM32H5xx_HAL_Driver/Src/stm32h5xx_hal_icache.c ****     WRITE_REG(ICACHE->FCR, ICACHE_FCR_CERRF);
 494:Drivers/STM32H5xx_HAL_Driver/Src/stm32h5xx_hal_icache.c **** 
 495:Drivers/STM32H5xx_HAL_Driver/Src/stm32h5xx_hal_icache.c ****     /* Instruction cache error interrupt user callback */
 496:Drivers/STM32H5xx_HAL_Driver/Src/stm32h5xx_hal_icache.c ****     HAL_ICACHE_ErrorCallback();
 497:Drivers/STM32H5xx_HAL_Driver/Src/stm32h5xx_hal_icache.c ****   }
 498:Drivers/STM32H5xx_HAL_Driver/Src/stm32h5xx_hal_icache.c **** 
 499:Drivers/STM32H5xx_HAL_Driver/Src/stm32h5xx_hal_icache.c ****   /* Check Instruction cache BusyEnd interrupt flag */
 500:Drivers/STM32H5xx_HAL_Driver/Src/stm32h5xx_hal_icache.c ****   if (((itflags & itsources) & ICACHE_FLAG_BUSYEND) != 0U)
 501:Drivers/STM32H5xx_HAL_Driver/Src/stm32h5xx_hal_icache.c ****   {
 502:Drivers/STM32H5xx_HAL_Driver/Src/stm32h5xx_hal_icache.c ****     /* Disable end of cache invalidation interrupt */
 503:Drivers/STM32H5xx_HAL_Driver/Src/stm32h5xx_hal_icache.c ****     CLEAR_BIT(ICACHE->IER, ICACHE_IER_BSYENDIE);
 504:Drivers/STM32H5xx_HAL_Driver/Src/stm32h5xx_hal_icache.c **** 
 505:Drivers/STM32H5xx_HAL_Driver/Src/stm32h5xx_hal_icache.c ****     /* Clear BSYENDF pending flag */
 506:Drivers/STM32H5xx_HAL_Driver/Src/stm32h5xx_hal_icache.c ****     WRITE_REG(ICACHE->FCR, ICACHE_FCR_CBSYENDF);
 507:Drivers/STM32H5xx_HAL_Driver/Src/stm32h5xx_hal_icache.c **** 
 508:Drivers/STM32H5xx_HAL_Driver/Src/stm32h5xx_hal_icache.c ****     /* Instruction cache busyend interrupt user callback */
 509:Drivers/STM32H5xx_HAL_Driver/Src/stm32h5xx_hal_icache.c ****     HAL_ICACHE_InvalidateCompleteCallback();
 510:Drivers/STM32H5xx_HAL_Driver/Src/stm32h5xx_hal_icache.c ****   }
 511:Drivers/STM32H5xx_HAL_Driver/Src/stm32h5xx_hal_icache.c **** }
ARM GAS  /var/folders/l3/rwskfq612tq4b7hmtv37jkjw0000gp/T//cc22WSSx.s 			page 21


 512:Drivers/STM32H5xx_HAL_Driver/Src/stm32h5xx_hal_icache.c **** 
 513:Drivers/STM32H5xx_HAL_Driver/Src/stm32h5xx_hal_icache.c **** /**
 514:Drivers/STM32H5xx_HAL_Driver/Src/stm32h5xx_hal_icache.c ****   * @brief  Cache invalidation complete callback.
 515:Drivers/STM32H5xx_HAL_Driver/Src/stm32h5xx_hal_icache.c ****   */
 516:Drivers/STM32H5xx_HAL_Driver/Src/stm32h5xx_hal_icache.c **** __weak void HAL_ICACHE_InvalidateCompleteCallback(void)
 517:Drivers/STM32H5xx_HAL_Driver/Src/stm32h5xx_hal_icache.c **** {
 622              		.loc 1 517 1 is_stmt 1 view -0
 623              		.cfi_startproc
 624              		@ args = 0, pretend = 0, frame = 0
 625              		@ frame_needed = 0, uses_anonymous_args = 0
 626              		@ link register save eliminated.
 518:Drivers/STM32H5xx_HAL_Driver/Src/stm32h5xx_hal_icache.c ****   /* NOTE : This function should not be modified, when the callback is needed,
 519:Drivers/STM32H5xx_HAL_Driver/Src/stm32h5xx_hal_icache.c ****             the HAL_ICACHE_InvalidateCompleteCallback() should be implemented in the user file
 520:Drivers/STM32H5xx_HAL_Driver/Src/stm32h5xx_hal_icache.c ****    */
 521:Drivers/STM32H5xx_HAL_Driver/Src/stm32h5xx_hal_icache.c **** }
 627              		.loc 1 521 1 view .LVU133
 628 0000 7047     		bx	lr
 629              		.cfi_endproc
 630              	.LFE344:
 632              		.section	.text.HAL_ICACHE_ErrorCallback,"ax",%progbits
 633              		.align	1
 634              		.weak	HAL_ICACHE_ErrorCallback
 635              		.syntax unified
 636              		.thumb
 637              		.thumb_func
 639              	HAL_ICACHE_ErrorCallback:
 640              	.LFB345:
 522:Drivers/STM32H5xx_HAL_Driver/Src/stm32h5xx_hal_icache.c **** 
 523:Drivers/STM32H5xx_HAL_Driver/Src/stm32h5xx_hal_icache.c **** /**
 524:Drivers/STM32H5xx_HAL_Driver/Src/stm32h5xx_hal_icache.c ****   * @brief  Error callback.
 525:Drivers/STM32H5xx_HAL_Driver/Src/stm32h5xx_hal_icache.c ****   */
 526:Drivers/STM32H5xx_HAL_Driver/Src/stm32h5xx_hal_icache.c **** __weak void HAL_ICACHE_ErrorCallback(void)
 527:Drivers/STM32H5xx_HAL_Driver/Src/stm32h5xx_hal_icache.c **** {
 641              		.loc 1 527 1 view -0
 642              		.cfi_startproc
 643              		@ args = 0, pretend = 0, frame = 0
 644              		@ frame_needed = 0, uses_anonymous_args = 0
 645              		@ link register save eliminated.
 528:Drivers/STM32H5xx_HAL_Driver/Src/stm32h5xx_hal_icache.c ****   /* NOTE : This function should not be modified, when the callback is needed,
 529:Drivers/STM32H5xx_HAL_Driver/Src/stm32h5xx_hal_icache.c ****             the HAL_ICACHE_ErrorCallback() should be implemented in the user file
 530:Drivers/STM32H5xx_HAL_Driver/Src/stm32h5xx_hal_icache.c ****    */
 531:Drivers/STM32H5xx_HAL_Driver/Src/stm32h5xx_hal_icache.c **** }
 646              		.loc 1 531 1 view .LVU135
 647 0000 7047     		bx	lr
 648              		.cfi_endproc
 649              	.LFE345:
 651              		.section	.text.HAL_ICACHE_IRQHandler,"ax",%progbits
 652              		.align	1
 653              		.global	HAL_ICACHE_IRQHandler
 654              		.syntax unified
 655              		.thumb
 656              		.thumb_func
 658              	HAL_ICACHE_IRQHandler:
 659              	.LFB343:
 481:Drivers/STM32H5xx_HAL_Driver/Src/stm32h5xx_hal_icache.c ****   /* Get current interrupt flags and interrupt sources value */
 660              		.loc 1 481 1 view -0
 661              		.cfi_startproc
ARM GAS  /var/folders/l3/rwskfq612tq4b7hmtv37jkjw0000gp/T//cc22WSSx.s 			page 22


 662              		@ args = 0, pretend = 0, frame = 0
 663              		@ frame_needed = 0, uses_anonymous_args = 0
 664 0000 10B5     		push	{r4, lr}
 665              	.LCFI3:
 666              		.cfi_def_cfa_offset 8
 667              		.cfi_offset 4, -8
 668              		.cfi_offset 14, -4
 483:Drivers/STM32H5xx_HAL_Driver/Src/stm32h5xx_hal_icache.c ****   uint32_t itsources = READ_REG(ICACHE->IER);
 669              		.loc 1 483 3 view .LVU137
 483:Drivers/STM32H5xx_HAL_Driver/Src/stm32h5xx_hal_icache.c ****   uint32_t itsources = READ_REG(ICACHE->IER);
 670              		.loc 1 483 12 is_stmt 0 view .LVU138
 671 0002 0F4B     		ldr	r3, .L71
 672 0004 5C68     		ldr	r4, [r3, #4]
 673              	.LVL27:
 484:Drivers/STM32H5xx_HAL_Driver/Src/stm32h5xx_hal_icache.c **** 
 674              		.loc 1 484 3 is_stmt 1 view .LVU139
 484:Drivers/STM32H5xx_HAL_Driver/Src/stm32h5xx_hal_icache.c **** 
 675              		.loc 1 484 12 is_stmt 0 view .LVU140
 676 0006 9B68     		ldr	r3, [r3, #8]
 677              	.LVL28:
 487:Drivers/STM32H5xx_HAL_Driver/Src/stm32h5xx_hal_icache.c ****   {
 678              		.loc 1 487 3 is_stmt 1 view .LVU141
 487:Drivers/STM32H5xx_HAL_Driver/Src/stm32h5xx_hal_icache.c ****   {
 679              		.loc 1 487 17 is_stmt 0 view .LVU142
 680 0008 1C40     		ands	r4, r4, r3
 681              	.LVL29:
 487:Drivers/STM32H5xx_HAL_Driver/Src/stm32h5xx_hal_icache.c ****   {
 682              		.loc 1 487 6 view .LVU143
 683 000a 14F0040F 		tst	r4, #4
 684 000e 03D1     		bne	.L69
 685              	.LVL30:
 686              	.L66:
 500:Drivers/STM32H5xx_HAL_Driver/Src/stm32h5xx_hal_icache.c ****   {
 687              		.loc 1 500 3 is_stmt 1 view .LVU144
 500:Drivers/STM32H5xx_HAL_Driver/Src/stm32h5xx_hal_icache.c ****   {
 688              		.loc 1 500 6 is_stmt 0 view .LVU145
 689 0010 14F0020F 		tst	r4, #2
 690 0014 0AD1     		bne	.L70
 691              	.L65:
 511:Drivers/STM32H5xx_HAL_Driver/Src/stm32h5xx_hal_icache.c **** 
 692              		.loc 1 511 1 view .LVU146
 693 0016 10BD     		pop	{r4, pc}
 694              	.LVL31:
 695              	.L69:
 490:Drivers/STM32H5xx_HAL_Driver/Src/stm32h5xx_hal_icache.c **** 
 696              		.loc 1 490 5 is_stmt 1 view .LVU147
 697 0018 094B     		ldr	r3, .L71
 698              	.LVL32:
 490:Drivers/STM32H5xx_HAL_Driver/Src/stm32h5xx_hal_icache.c **** 
 699              		.loc 1 490 5 is_stmt 0 view .LVU148
 700 001a 9A68     		ldr	r2, [r3, #8]
 701 001c 22F00402 		bic	r2, r2, #4
 702 0020 9A60     		str	r2, [r3, #8]
 493:Drivers/STM32H5xx_HAL_Driver/Src/stm32h5xx_hal_icache.c **** 
 703              		.loc 1 493 5 is_stmt 1 view .LVU149
 704 0022 0422     		movs	r2, #4
 705 0024 DA60     		str	r2, [r3, #12]
ARM GAS  /var/folders/l3/rwskfq612tq4b7hmtv37jkjw0000gp/T//cc22WSSx.s 			page 23


 496:Drivers/STM32H5xx_HAL_Driver/Src/stm32h5xx_hal_icache.c ****   }
 706              		.loc 1 496 5 view .LVU150
 707 0026 FFF7FEFF 		bl	HAL_ICACHE_ErrorCallback
 708              	.LVL33:
 709 002a F1E7     		b	.L66
 710              	.L70:
 503:Drivers/STM32H5xx_HAL_Driver/Src/stm32h5xx_hal_icache.c **** 
 711              		.loc 1 503 5 view .LVU151
 712 002c 044B     		ldr	r3, .L71
 713 002e 9A68     		ldr	r2, [r3, #8]
 714 0030 22F00202 		bic	r2, r2, #2
 715 0034 9A60     		str	r2, [r3, #8]
 506:Drivers/STM32H5xx_HAL_Driver/Src/stm32h5xx_hal_icache.c **** 
 716              		.loc 1 506 5 view .LVU152
 717 0036 0222     		movs	r2, #2
 718 0038 DA60     		str	r2, [r3, #12]
 509:Drivers/STM32H5xx_HAL_Driver/Src/stm32h5xx_hal_icache.c ****   }
 719              		.loc 1 509 5 view .LVU153
 720 003a FFF7FEFF 		bl	HAL_ICACHE_InvalidateCompleteCallback
 721              	.LVL34:
 511:Drivers/STM32H5xx_HAL_Driver/Src/stm32h5xx_hal_icache.c **** 
 722              		.loc 1 511 1 is_stmt 0 view .LVU154
 723 003e EAE7     		b	.L65
 724              	.L72:
 725              		.align	2
 726              	.L71:
 727 0040 00040340 		.word	1073939456
 728              		.cfi_endproc
 729              	.LFE343:
 731              		.text
 732              	.Letext0:
 733              		.file 2 "/opt/local/arm-none-eabi/include/machine/_default_types.h"
 734              		.file 3 "/opt/local/arm-none-eabi/include/sys/_stdint.h"
 735              		.file 4 "Drivers/CMSIS/Device/ST/STM32H5xx/Include/stm32h503xx.h"
 736              		.file 5 "Drivers/STM32H5xx_HAL_Driver/Inc/stm32h5xx_hal_def.h"
 737              		.file 6 "Drivers/STM32H5xx_HAL_Driver/Inc/stm32h5xx_hal.h"
ARM GAS  /var/folders/l3/rwskfq612tq4b7hmtv37jkjw0000gp/T//cc22WSSx.s 			page 24

