ARM GAS  /var/folders/l3/rwskfq612tq4b7hmtv37jkjw0000gp/T//ccPIyasB.s 			page 1


   1              		.cpu cortex-m33
   2              		.arch armv8-m.main
   3              		.fpu fpv4-sp-d16
   4              		.arch_extension dsp
   5              		.eabi_attribute 27, 1
   6              		.eabi_attribute 28, 1
   7              		.eabi_attribute 20, 1
   8              		.eabi_attribute 21, 1
   9              		.eabi_attribute 23, 3
  10              		.eabi_attribute 24, 1
  11              		.eabi_attribute 25, 1
  12              		.eabi_attribute 26, 1
  13              		.eabi_attribute 30, 1
  14              		.eabi_attribute 34, 1
  15              		.eabi_attribute 18, 4
  16              		.file	"stm32h5xx_hal_pcd.c"
  17              		.text
  18              	.Ltext0:
  19              		.cfi_sections	.debug_frame
  20              		.file 1 "Drivers/STM32H5xx_HAL_Driver/Src/stm32h5xx_hal_pcd.c"
  21              		.section	.text.PCD_GET_EP_RX_CNT,"ax",%progbits
  22              		.align	1
  23              		.syntax unified
  24              		.thumb
  25              		.thumb_func
  27              	PCD_GET_EP_RX_CNT:
  28              	.LVL0:
  29              	.LFB327:
  30              		.file 2 "Drivers/STM32H5xx_HAL_Driver/Inc/stm32h5xx_hal_pcd.h"
   1:Drivers/STM32H5xx_HAL_Driver/Inc/stm32h5xx_hal_pcd.h **** /**
   2:Drivers/STM32H5xx_HAL_Driver/Inc/stm32h5xx_hal_pcd.h ****   ******************************************************************************
   3:Drivers/STM32H5xx_HAL_Driver/Inc/stm32h5xx_hal_pcd.h ****   * @file    stm32h5xx_hal_pcd.h
   4:Drivers/STM32H5xx_HAL_Driver/Inc/stm32h5xx_hal_pcd.h ****   * @author  MCD Application Team
   5:Drivers/STM32H5xx_HAL_Driver/Inc/stm32h5xx_hal_pcd.h ****   * @brief   Header file of PCD HAL module.
   6:Drivers/STM32H5xx_HAL_Driver/Inc/stm32h5xx_hal_pcd.h ****   ******************************************************************************
   7:Drivers/STM32H5xx_HAL_Driver/Inc/stm32h5xx_hal_pcd.h ****   * @attention
   8:Drivers/STM32H5xx_HAL_Driver/Inc/stm32h5xx_hal_pcd.h ****   *
   9:Drivers/STM32H5xx_HAL_Driver/Inc/stm32h5xx_hal_pcd.h ****   * Copyright (c) 2023 STMicroelectronics.
  10:Drivers/STM32H5xx_HAL_Driver/Inc/stm32h5xx_hal_pcd.h ****   * All rights reserved.
  11:Drivers/STM32H5xx_HAL_Driver/Inc/stm32h5xx_hal_pcd.h ****   *
  12:Drivers/STM32H5xx_HAL_Driver/Inc/stm32h5xx_hal_pcd.h ****   * This software is licensed under terms that can be found in the LICENSE file
  13:Drivers/STM32H5xx_HAL_Driver/Inc/stm32h5xx_hal_pcd.h ****   * in the root directory of this software component.
  14:Drivers/STM32H5xx_HAL_Driver/Inc/stm32h5xx_hal_pcd.h ****   * If no LICENSE file comes with this software, it is provided AS-IS.
  15:Drivers/STM32H5xx_HAL_Driver/Inc/stm32h5xx_hal_pcd.h ****   *
  16:Drivers/STM32H5xx_HAL_Driver/Inc/stm32h5xx_hal_pcd.h ****   ******************************************************************************
  17:Drivers/STM32H5xx_HAL_Driver/Inc/stm32h5xx_hal_pcd.h ****   */
  18:Drivers/STM32H5xx_HAL_Driver/Inc/stm32h5xx_hal_pcd.h **** 
  19:Drivers/STM32H5xx_HAL_Driver/Inc/stm32h5xx_hal_pcd.h **** /* Define to prevent recursive inclusion -------------------------------------*/
  20:Drivers/STM32H5xx_HAL_Driver/Inc/stm32h5xx_hal_pcd.h **** #ifndef STM32H5xx_HAL_PCD_H
  21:Drivers/STM32H5xx_HAL_Driver/Inc/stm32h5xx_hal_pcd.h **** #define STM32H5xx_HAL_PCD_H
  22:Drivers/STM32H5xx_HAL_Driver/Inc/stm32h5xx_hal_pcd.h **** 
  23:Drivers/STM32H5xx_HAL_Driver/Inc/stm32h5xx_hal_pcd.h **** #ifdef __cplusplus
  24:Drivers/STM32H5xx_HAL_Driver/Inc/stm32h5xx_hal_pcd.h **** extern "C" {
  25:Drivers/STM32H5xx_HAL_Driver/Inc/stm32h5xx_hal_pcd.h **** #endif
  26:Drivers/STM32H5xx_HAL_Driver/Inc/stm32h5xx_hal_pcd.h **** 
  27:Drivers/STM32H5xx_HAL_Driver/Inc/stm32h5xx_hal_pcd.h **** /* Includes ------------------------------------------------------------------*/
  28:Drivers/STM32H5xx_HAL_Driver/Inc/stm32h5xx_hal_pcd.h **** #include "stm32h5xx_ll_usb.h"
ARM GAS  /var/folders/l3/rwskfq612tq4b7hmtv37jkjw0000gp/T//ccPIyasB.s 			page 2


  29:Drivers/STM32H5xx_HAL_Driver/Inc/stm32h5xx_hal_pcd.h **** 
  30:Drivers/STM32H5xx_HAL_Driver/Inc/stm32h5xx_hal_pcd.h **** #if defined (USB_DRD_FS)
  31:Drivers/STM32H5xx_HAL_Driver/Inc/stm32h5xx_hal_pcd.h **** 
  32:Drivers/STM32H5xx_HAL_Driver/Inc/stm32h5xx_hal_pcd.h **** /** @addtogroup STM32H5xx_HAL_Driver
  33:Drivers/STM32H5xx_HAL_Driver/Inc/stm32h5xx_hal_pcd.h ****   * @{
  34:Drivers/STM32H5xx_HAL_Driver/Inc/stm32h5xx_hal_pcd.h ****   */
  35:Drivers/STM32H5xx_HAL_Driver/Inc/stm32h5xx_hal_pcd.h **** 
  36:Drivers/STM32H5xx_HAL_Driver/Inc/stm32h5xx_hal_pcd.h **** /** @addtogroup PCD
  37:Drivers/STM32H5xx_HAL_Driver/Inc/stm32h5xx_hal_pcd.h ****   * @{
  38:Drivers/STM32H5xx_HAL_Driver/Inc/stm32h5xx_hal_pcd.h ****   */
  39:Drivers/STM32H5xx_HAL_Driver/Inc/stm32h5xx_hal_pcd.h **** 
  40:Drivers/STM32H5xx_HAL_Driver/Inc/stm32h5xx_hal_pcd.h **** /* Exported types ------------------------------------------------------------*/
  41:Drivers/STM32H5xx_HAL_Driver/Inc/stm32h5xx_hal_pcd.h **** /** @defgroup PCD_Exported_Types PCD Exported Types
  42:Drivers/STM32H5xx_HAL_Driver/Inc/stm32h5xx_hal_pcd.h ****   * @{
  43:Drivers/STM32H5xx_HAL_Driver/Inc/stm32h5xx_hal_pcd.h ****   */
  44:Drivers/STM32H5xx_HAL_Driver/Inc/stm32h5xx_hal_pcd.h **** 
  45:Drivers/STM32H5xx_HAL_Driver/Inc/stm32h5xx_hal_pcd.h **** /**
  46:Drivers/STM32H5xx_HAL_Driver/Inc/stm32h5xx_hal_pcd.h ****   * @brief  PCD State structure definition
  47:Drivers/STM32H5xx_HAL_Driver/Inc/stm32h5xx_hal_pcd.h ****   */
  48:Drivers/STM32H5xx_HAL_Driver/Inc/stm32h5xx_hal_pcd.h **** typedef enum
  49:Drivers/STM32H5xx_HAL_Driver/Inc/stm32h5xx_hal_pcd.h **** {
  50:Drivers/STM32H5xx_HAL_Driver/Inc/stm32h5xx_hal_pcd.h ****   HAL_PCD_STATE_RESET   = 0x00,
  51:Drivers/STM32H5xx_HAL_Driver/Inc/stm32h5xx_hal_pcd.h ****   HAL_PCD_STATE_READY   = 0x01,
  52:Drivers/STM32H5xx_HAL_Driver/Inc/stm32h5xx_hal_pcd.h ****   HAL_PCD_STATE_ERROR   = 0x02,
  53:Drivers/STM32H5xx_HAL_Driver/Inc/stm32h5xx_hal_pcd.h ****   HAL_PCD_STATE_BUSY    = 0x03,
  54:Drivers/STM32H5xx_HAL_Driver/Inc/stm32h5xx_hal_pcd.h ****   HAL_PCD_STATE_TIMEOUT = 0x04
  55:Drivers/STM32H5xx_HAL_Driver/Inc/stm32h5xx_hal_pcd.h **** } PCD_StateTypeDef;
  56:Drivers/STM32H5xx_HAL_Driver/Inc/stm32h5xx_hal_pcd.h **** 
  57:Drivers/STM32H5xx_HAL_Driver/Inc/stm32h5xx_hal_pcd.h **** /* Device LPM suspend state */
  58:Drivers/STM32H5xx_HAL_Driver/Inc/stm32h5xx_hal_pcd.h **** typedef enum
  59:Drivers/STM32H5xx_HAL_Driver/Inc/stm32h5xx_hal_pcd.h **** {
  60:Drivers/STM32H5xx_HAL_Driver/Inc/stm32h5xx_hal_pcd.h ****   LPM_L0 = 0x00, /* on */
  61:Drivers/STM32H5xx_HAL_Driver/Inc/stm32h5xx_hal_pcd.h ****   LPM_L1 = 0x01, /* LPM L1 sleep */
  62:Drivers/STM32H5xx_HAL_Driver/Inc/stm32h5xx_hal_pcd.h ****   LPM_L2 = 0x02, /* suspend */
  63:Drivers/STM32H5xx_HAL_Driver/Inc/stm32h5xx_hal_pcd.h ****   LPM_L3 = 0x03, /* off */
  64:Drivers/STM32H5xx_HAL_Driver/Inc/stm32h5xx_hal_pcd.h **** } PCD_LPM_StateTypeDef;
  65:Drivers/STM32H5xx_HAL_Driver/Inc/stm32h5xx_hal_pcd.h **** 
  66:Drivers/STM32H5xx_HAL_Driver/Inc/stm32h5xx_hal_pcd.h **** typedef enum
  67:Drivers/STM32H5xx_HAL_Driver/Inc/stm32h5xx_hal_pcd.h **** {
  68:Drivers/STM32H5xx_HAL_Driver/Inc/stm32h5xx_hal_pcd.h ****   PCD_LPM_L0_ACTIVE = 0x00, /* on */
  69:Drivers/STM32H5xx_HAL_Driver/Inc/stm32h5xx_hal_pcd.h ****   PCD_LPM_L1_ACTIVE = 0x01, /* LPM L1 sleep */
  70:Drivers/STM32H5xx_HAL_Driver/Inc/stm32h5xx_hal_pcd.h **** } PCD_LPM_MsgTypeDef;
  71:Drivers/STM32H5xx_HAL_Driver/Inc/stm32h5xx_hal_pcd.h **** 
  72:Drivers/STM32H5xx_HAL_Driver/Inc/stm32h5xx_hal_pcd.h **** typedef enum
  73:Drivers/STM32H5xx_HAL_Driver/Inc/stm32h5xx_hal_pcd.h **** {
  74:Drivers/STM32H5xx_HAL_Driver/Inc/stm32h5xx_hal_pcd.h ****   PCD_BCD_ERROR                     = 0xFF,
  75:Drivers/STM32H5xx_HAL_Driver/Inc/stm32h5xx_hal_pcd.h ****   PCD_BCD_CONTACT_DETECTION         = 0xFE,
  76:Drivers/STM32H5xx_HAL_Driver/Inc/stm32h5xx_hal_pcd.h ****   PCD_BCD_STD_DOWNSTREAM_PORT       = 0xFD,
  77:Drivers/STM32H5xx_HAL_Driver/Inc/stm32h5xx_hal_pcd.h ****   PCD_BCD_CHARGING_DOWNSTREAM_PORT  = 0xFC,
  78:Drivers/STM32H5xx_HAL_Driver/Inc/stm32h5xx_hal_pcd.h ****   PCD_BCD_DEDICATED_CHARGING_PORT   = 0xFB,
  79:Drivers/STM32H5xx_HAL_Driver/Inc/stm32h5xx_hal_pcd.h ****   PCD_BCD_DISCOVERY_COMPLETED       = 0x00,
  80:Drivers/STM32H5xx_HAL_Driver/Inc/stm32h5xx_hal_pcd.h **** 
  81:Drivers/STM32H5xx_HAL_Driver/Inc/stm32h5xx_hal_pcd.h **** } PCD_BCD_MsgTypeDef;
  82:Drivers/STM32H5xx_HAL_Driver/Inc/stm32h5xx_hal_pcd.h **** 
  83:Drivers/STM32H5xx_HAL_Driver/Inc/stm32h5xx_hal_pcd.h **** typedef USB_DRD_TypeDef        PCD_TypeDef;
  84:Drivers/STM32H5xx_HAL_Driver/Inc/stm32h5xx_hal_pcd.h **** typedef USB_DRD_CfgTypeDef     PCD_InitTypeDef;
  85:Drivers/STM32H5xx_HAL_Driver/Inc/stm32h5xx_hal_pcd.h **** typedef USB_DRD_EPTypeDef      PCD_EPTypeDef;
ARM GAS  /var/folders/l3/rwskfq612tq4b7hmtv37jkjw0000gp/T//ccPIyasB.s 			page 3


  86:Drivers/STM32H5xx_HAL_Driver/Inc/stm32h5xx_hal_pcd.h **** 
  87:Drivers/STM32H5xx_HAL_Driver/Inc/stm32h5xx_hal_pcd.h **** /**
  88:Drivers/STM32H5xx_HAL_Driver/Inc/stm32h5xx_hal_pcd.h ****   * @brief  PCD Handle Structure definition
  89:Drivers/STM32H5xx_HAL_Driver/Inc/stm32h5xx_hal_pcd.h ****   */
  90:Drivers/STM32H5xx_HAL_Driver/Inc/stm32h5xx_hal_pcd.h **** #if (USE_HAL_PCD_REGISTER_CALLBACKS == 1U)
  91:Drivers/STM32H5xx_HAL_Driver/Inc/stm32h5xx_hal_pcd.h **** typedef struct __PCD_HandleTypeDef
  92:Drivers/STM32H5xx_HAL_Driver/Inc/stm32h5xx_hal_pcd.h **** #else
  93:Drivers/STM32H5xx_HAL_Driver/Inc/stm32h5xx_hal_pcd.h **** typedef struct
  94:Drivers/STM32H5xx_HAL_Driver/Inc/stm32h5xx_hal_pcd.h **** #endif /* USE_HAL_PCD_REGISTER_CALLBACKS */
  95:Drivers/STM32H5xx_HAL_Driver/Inc/stm32h5xx_hal_pcd.h **** {
  96:Drivers/STM32H5xx_HAL_Driver/Inc/stm32h5xx_hal_pcd.h ****   PCD_TypeDef             *Instance;   /*!< Register base address             */
  97:Drivers/STM32H5xx_HAL_Driver/Inc/stm32h5xx_hal_pcd.h ****   PCD_InitTypeDef         Init;        /*!< PCD required parameters           */
  98:Drivers/STM32H5xx_HAL_Driver/Inc/stm32h5xx_hal_pcd.h ****   __IO uint8_t            USB_Address; /*!< USB Address                       */
  99:Drivers/STM32H5xx_HAL_Driver/Inc/stm32h5xx_hal_pcd.h ****   PCD_EPTypeDef           IN_ep[8];    /*!< IN endpoint parameters            */
 100:Drivers/STM32H5xx_HAL_Driver/Inc/stm32h5xx_hal_pcd.h ****   PCD_EPTypeDef           OUT_ep[8];   /*!< OUT endpoint parameters           */
 101:Drivers/STM32H5xx_HAL_Driver/Inc/stm32h5xx_hal_pcd.h ****   HAL_LockTypeDef         Lock;        /*!< PCD peripheral status             */
 102:Drivers/STM32H5xx_HAL_Driver/Inc/stm32h5xx_hal_pcd.h ****   __IO PCD_StateTypeDef   State;       /*!< PCD communication state           */
 103:Drivers/STM32H5xx_HAL_Driver/Inc/stm32h5xx_hal_pcd.h ****   __IO  uint32_t          ErrorCode;   /*!< PCD Error code                    */
 104:Drivers/STM32H5xx_HAL_Driver/Inc/stm32h5xx_hal_pcd.h ****   uint32_t                Setup[12];   /*!< Setup packet buffer               */
 105:Drivers/STM32H5xx_HAL_Driver/Inc/stm32h5xx_hal_pcd.h ****   PCD_LPM_StateTypeDef    LPM_State;   /*!< LPM State                         */
 106:Drivers/STM32H5xx_HAL_Driver/Inc/stm32h5xx_hal_pcd.h ****   uint32_t                BESL;
 107:Drivers/STM32H5xx_HAL_Driver/Inc/stm32h5xx_hal_pcd.h **** 
 108:Drivers/STM32H5xx_HAL_Driver/Inc/stm32h5xx_hal_pcd.h **** 
 109:Drivers/STM32H5xx_HAL_Driver/Inc/stm32h5xx_hal_pcd.h ****   uint32_t lpm_active;                 /*!< Enable or disable the Link Power Management .
 110:Drivers/STM32H5xx_HAL_Driver/Inc/stm32h5xx_hal_pcd.h ****                                        This parameter can be set to ENABLE or DISABLE        */
 111:Drivers/STM32H5xx_HAL_Driver/Inc/stm32h5xx_hal_pcd.h **** 
 112:Drivers/STM32H5xx_HAL_Driver/Inc/stm32h5xx_hal_pcd.h ****   uint32_t battery_charging_active;    /*!< Enable or disable Battery charging.
 113:Drivers/STM32H5xx_HAL_Driver/Inc/stm32h5xx_hal_pcd.h ****                                        This parameter can be set to ENABLE or DISABLE        */
 114:Drivers/STM32H5xx_HAL_Driver/Inc/stm32h5xx_hal_pcd.h ****   void                    *pData;      /*!< Pointer to upper stack Handler */
 115:Drivers/STM32H5xx_HAL_Driver/Inc/stm32h5xx_hal_pcd.h **** 
 116:Drivers/STM32H5xx_HAL_Driver/Inc/stm32h5xx_hal_pcd.h **** #if (USE_HAL_PCD_REGISTER_CALLBACKS == 1U)
 117:Drivers/STM32H5xx_HAL_Driver/Inc/stm32h5xx_hal_pcd.h ****   void (* SOFCallback)(struct __PCD_HandleTypeDef *hpcd);                              /*!< USB OTG
 118:Drivers/STM32H5xx_HAL_Driver/Inc/stm32h5xx_hal_pcd.h ****   void (* SetupStageCallback)(struct __PCD_HandleTypeDef *hpcd);                       /*!< USB OTG
 119:Drivers/STM32H5xx_HAL_Driver/Inc/stm32h5xx_hal_pcd.h ****   void (* ResetCallback)(struct __PCD_HandleTypeDef *hpcd);                            /*!< USB OTG
 120:Drivers/STM32H5xx_HAL_Driver/Inc/stm32h5xx_hal_pcd.h ****   void (* SuspendCallback)(struct __PCD_HandleTypeDef *hpcd);                          /*!< USB OTG
 121:Drivers/STM32H5xx_HAL_Driver/Inc/stm32h5xx_hal_pcd.h ****   void (* ResumeCallback)(struct __PCD_HandleTypeDef *hpcd);                           /*!< USB OTG
 122:Drivers/STM32H5xx_HAL_Driver/Inc/stm32h5xx_hal_pcd.h ****   void (* ConnectCallback)(struct __PCD_HandleTypeDef *hpcd);                          /*!< USB OTG
 123:Drivers/STM32H5xx_HAL_Driver/Inc/stm32h5xx_hal_pcd.h ****   void (* DisconnectCallback)(struct __PCD_HandleTypeDef *hpcd);                       /*!< USB OTG
 124:Drivers/STM32H5xx_HAL_Driver/Inc/stm32h5xx_hal_pcd.h **** 
 125:Drivers/STM32H5xx_HAL_Driver/Inc/stm32h5xx_hal_pcd.h ****   void (* DataOutStageCallback)(struct __PCD_HandleTypeDef *hpcd, uint8_t epnum);      /*!< USB OTG
 126:Drivers/STM32H5xx_HAL_Driver/Inc/stm32h5xx_hal_pcd.h ****   void (* DataInStageCallback)(struct __PCD_HandleTypeDef *hpcd, uint8_t epnum);       /*!< USB OTG
 127:Drivers/STM32H5xx_HAL_Driver/Inc/stm32h5xx_hal_pcd.h ****   void (* ISOOUTIncompleteCallback)(struct __PCD_HandleTypeDef *hpcd, uint8_t epnum);  /*!< USB OTG
 128:Drivers/STM32H5xx_HAL_Driver/Inc/stm32h5xx_hal_pcd.h ****   void (* ISOINIncompleteCallback)(struct __PCD_HandleTypeDef *hpcd, uint8_t epnum);   /*!< USB OTG
 129:Drivers/STM32H5xx_HAL_Driver/Inc/stm32h5xx_hal_pcd.h ****   void (* BCDCallback)(struct __PCD_HandleTypeDef *hpcd, PCD_BCD_MsgTypeDef msg);      /*!< USB OTG
 130:Drivers/STM32H5xx_HAL_Driver/Inc/stm32h5xx_hal_pcd.h ****   void (* LPMCallback)(struct __PCD_HandleTypeDef *hpcd, PCD_LPM_MsgTypeDef msg);      /*!< USB OTG
 131:Drivers/STM32H5xx_HAL_Driver/Inc/stm32h5xx_hal_pcd.h **** 
 132:Drivers/STM32H5xx_HAL_Driver/Inc/stm32h5xx_hal_pcd.h ****   void (* MspInitCallback)(struct __PCD_HandleTypeDef *hpcd);                          /*!< USB OTG
 133:Drivers/STM32H5xx_HAL_Driver/Inc/stm32h5xx_hal_pcd.h ****   void (* MspDeInitCallback)(struct __PCD_HandleTypeDef *hpcd);                        /*!< USB OTG
 134:Drivers/STM32H5xx_HAL_Driver/Inc/stm32h5xx_hal_pcd.h **** #endif /* USE_HAL_PCD_REGISTER_CALLBACKS */
 135:Drivers/STM32H5xx_HAL_Driver/Inc/stm32h5xx_hal_pcd.h **** } PCD_HandleTypeDef;
 136:Drivers/STM32H5xx_HAL_Driver/Inc/stm32h5xx_hal_pcd.h **** 
 137:Drivers/STM32H5xx_HAL_Driver/Inc/stm32h5xx_hal_pcd.h **** /**
 138:Drivers/STM32H5xx_HAL_Driver/Inc/stm32h5xx_hal_pcd.h ****   * @}
 139:Drivers/STM32H5xx_HAL_Driver/Inc/stm32h5xx_hal_pcd.h ****   */
 140:Drivers/STM32H5xx_HAL_Driver/Inc/stm32h5xx_hal_pcd.h **** 
 141:Drivers/STM32H5xx_HAL_Driver/Inc/stm32h5xx_hal_pcd.h **** /* Include PCD HAL Extended module */
 142:Drivers/STM32H5xx_HAL_Driver/Inc/stm32h5xx_hal_pcd.h **** #include "stm32h5xx_hal_pcd_ex.h"
ARM GAS  /var/folders/l3/rwskfq612tq4b7hmtv37jkjw0000gp/T//ccPIyasB.s 			page 4


 143:Drivers/STM32H5xx_HAL_Driver/Inc/stm32h5xx_hal_pcd.h **** 
 144:Drivers/STM32H5xx_HAL_Driver/Inc/stm32h5xx_hal_pcd.h **** /* Exported constants --------------------------------------------------------*/
 145:Drivers/STM32H5xx_HAL_Driver/Inc/stm32h5xx_hal_pcd.h **** /** @defgroup PCD_Exported_Constants PCD Exported Constants
 146:Drivers/STM32H5xx_HAL_Driver/Inc/stm32h5xx_hal_pcd.h ****   * @{
 147:Drivers/STM32H5xx_HAL_Driver/Inc/stm32h5xx_hal_pcd.h ****   */
 148:Drivers/STM32H5xx_HAL_Driver/Inc/stm32h5xx_hal_pcd.h **** 
 149:Drivers/STM32H5xx_HAL_Driver/Inc/stm32h5xx_hal_pcd.h **** /** @defgroup PCD_Speed PCD Speed
 150:Drivers/STM32H5xx_HAL_Driver/Inc/stm32h5xx_hal_pcd.h ****   * @{
 151:Drivers/STM32H5xx_HAL_Driver/Inc/stm32h5xx_hal_pcd.h ****   */
 152:Drivers/STM32H5xx_HAL_Driver/Inc/stm32h5xx_hal_pcd.h **** #define PCD_SPEED_FULL               USBD_FS_SPEED
 153:Drivers/STM32H5xx_HAL_Driver/Inc/stm32h5xx_hal_pcd.h **** /**
 154:Drivers/STM32H5xx_HAL_Driver/Inc/stm32h5xx_hal_pcd.h ****   * @}
 155:Drivers/STM32H5xx_HAL_Driver/Inc/stm32h5xx_hal_pcd.h ****   */
 156:Drivers/STM32H5xx_HAL_Driver/Inc/stm32h5xx_hal_pcd.h **** 
 157:Drivers/STM32H5xx_HAL_Driver/Inc/stm32h5xx_hal_pcd.h **** /** @defgroup PCD_PHY_Module PCD PHY Module
 158:Drivers/STM32H5xx_HAL_Driver/Inc/stm32h5xx_hal_pcd.h ****   * @{
 159:Drivers/STM32H5xx_HAL_Driver/Inc/stm32h5xx_hal_pcd.h ****   */
 160:Drivers/STM32H5xx_HAL_Driver/Inc/stm32h5xx_hal_pcd.h **** #define PCD_PHY_ULPI                 1U
 161:Drivers/STM32H5xx_HAL_Driver/Inc/stm32h5xx_hal_pcd.h **** #define PCD_PHY_EMBEDDED             2U
 162:Drivers/STM32H5xx_HAL_Driver/Inc/stm32h5xx_hal_pcd.h **** #define PCD_PHY_UTMI                 3U
 163:Drivers/STM32H5xx_HAL_Driver/Inc/stm32h5xx_hal_pcd.h **** /**
 164:Drivers/STM32H5xx_HAL_Driver/Inc/stm32h5xx_hal_pcd.h ****   * @}
 165:Drivers/STM32H5xx_HAL_Driver/Inc/stm32h5xx_hal_pcd.h ****   */
 166:Drivers/STM32H5xx_HAL_Driver/Inc/stm32h5xx_hal_pcd.h **** 
 167:Drivers/STM32H5xx_HAL_Driver/Inc/stm32h5xx_hal_pcd.h **** /** @defgroup PCD_Error_Code_definition PCD Error Code definition
 168:Drivers/STM32H5xx_HAL_Driver/Inc/stm32h5xx_hal_pcd.h ****   * @brief  PCD Error Code definition
 169:Drivers/STM32H5xx_HAL_Driver/Inc/stm32h5xx_hal_pcd.h ****   * @{
 170:Drivers/STM32H5xx_HAL_Driver/Inc/stm32h5xx_hal_pcd.h ****   */
 171:Drivers/STM32H5xx_HAL_Driver/Inc/stm32h5xx_hal_pcd.h **** #if (USE_HAL_PCD_REGISTER_CALLBACKS == 1U)
 172:Drivers/STM32H5xx_HAL_Driver/Inc/stm32h5xx_hal_pcd.h **** #define  HAL_PCD_ERROR_INVALID_CALLBACK                        (0x00000010U)    /*!< Invalid Callba
 173:Drivers/STM32H5xx_HAL_Driver/Inc/stm32h5xx_hal_pcd.h **** #endif /* USE_HAL_PCD_REGISTER_CALLBACKS */
 174:Drivers/STM32H5xx_HAL_Driver/Inc/stm32h5xx_hal_pcd.h **** 
 175:Drivers/STM32H5xx_HAL_Driver/Inc/stm32h5xx_hal_pcd.h **** /**
 176:Drivers/STM32H5xx_HAL_Driver/Inc/stm32h5xx_hal_pcd.h ****   * @}
 177:Drivers/STM32H5xx_HAL_Driver/Inc/stm32h5xx_hal_pcd.h ****   */
 178:Drivers/STM32H5xx_HAL_Driver/Inc/stm32h5xx_hal_pcd.h **** 
 179:Drivers/STM32H5xx_HAL_Driver/Inc/stm32h5xx_hal_pcd.h **** /**
 180:Drivers/STM32H5xx_HAL_Driver/Inc/stm32h5xx_hal_pcd.h ****   * @}
 181:Drivers/STM32H5xx_HAL_Driver/Inc/stm32h5xx_hal_pcd.h ****   */
 182:Drivers/STM32H5xx_HAL_Driver/Inc/stm32h5xx_hal_pcd.h **** 
 183:Drivers/STM32H5xx_HAL_Driver/Inc/stm32h5xx_hal_pcd.h **** /* Exported macros -----------------------------------------------------------*/
 184:Drivers/STM32H5xx_HAL_Driver/Inc/stm32h5xx_hal_pcd.h **** /** @defgroup PCD_Exported_Macros PCD Exported Macros
 185:Drivers/STM32H5xx_HAL_Driver/Inc/stm32h5xx_hal_pcd.h ****   *  @brief macros to handle interrupts and specific clock configurations
 186:Drivers/STM32H5xx_HAL_Driver/Inc/stm32h5xx_hal_pcd.h ****   * @{
 187:Drivers/STM32H5xx_HAL_Driver/Inc/stm32h5xx_hal_pcd.h ****   */
 188:Drivers/STM32H5xx_HAL_Driver/Inc/stm32h5xx_hal_pcd.h **** #define __HAL_PCD_ENABLE(__HANDLE__)                       (void)USB_EnableGlobalInt ((__HANDLE__)-
 189:Drivers/STM32H5xx_HAL_Driver/Inc/stm32h5xx_hal_pcd.h **** #define __HAL_PCD_DISABLE(__HANDLE__)                      (void)USB_DisableGlobalInt ((__HANDLE__)
 190:Drivers/STM32H5xx_HAL_Driver/Inc/stm32h5xx_hal_pcd.h **** 
 191:Drivers/STM32H5xx_HAL_Driver/Inc/stm32h5xx_hal_pcd.h **** #define __HAL_PCD_GET_FLAG(__HANDLE__, __INTERRUPT__) \
 192:Drivers/STM32H5xx_HAL_Driver/Inc/stm32h5xx_hal_pcd.h ****   ((USB_ReadInterrupts((__HANDLE__)->Instance) & (__INTERRUPT__)) == (__INTERRUPT__))
 193:Drivers/STM32H5xx_HAL_Driver/Inc/stm32h5xx_hal_pcd.h **** 
 194:Drivers/STM32H5xx_HAL_Driver/Inc/stm32h5xx_hal_pcd.h **** 
 195:Drivers/STM32H5xx_HAL_Driver/Inc/stm32h5xx_hal_pcd.h **** #define __HAL_PCD_CLEAR_FLAG(__HANDLE__, __INTERRUPT__)           (((__HANDLE__)->Instance->ISTR)\
 196:Drivers/STM32H5xx_HAL_Driver/Inc/stm32h5xx_hal_pcd.h ****                                                                    &= (uint16_t)(~(__INTERRUPT__)))
 197:Drivers/STM32H5xx_HAL_Driver/Inc/stm32h5xx_hal_pcd.h **** 
 198:Drivers/STM32H5xx_HAL_Driver/Inc/stm32h5xx_hal_pcd.h **** #define __HAL_USB_WAKEUP_EXTI_ENABLE_IT()                         EXTI->IMR2 |= USB_WAKEUP_EXTI_LIN
 199:Drivers/STM32H5xx_HAL_Driver/Inc/stm32h5xx_hal_pcd.h **** #define __HAL_USB_WAKEUP_EXTI_DISABLE_IT()                        EXTI->IMR2 &= ~(USB_WAKEUP_EXTI_L
ARM GAS  /var/folders/l3/rwskfq612tq4b7hmtv37jkjw0000gp/T//ccPIyasB.s 			page 5


 200:Drivers/STM32H5xx_HAL_Driver/Inc/stm32h5xx_hal_pcd.h **** 
 201:Drivers/STM32H5xx_HAL_Driver/Inc/stm32h5xx_hal_pcd.h **** 
 202:Drivers/STM32H5xx_HAL_Driver/Inc/stm32h5xx_hal_pcd.h **** /**
 203:Drivers/STM32H5xx_HAL_Driver/Inc/stm32h5xx_hal_pcd.h ****   * @}
 204:Drivers/STM32H5xx_HAL_Driver/Inc/stm32h5xx_hal_pcd.h ****   */
 205:Drivers/STM32H5xx_HAL_Driver/Inc/stm32h5xx_hal_pcd.h **** 
 206:Drivers/STM32H5xx_HAL_Driver/Inc/stm32h5xx_hal_pcd.h **** /* Exported functions --------------------------------------------------------*/
 207:Drivers/STM32H5xx_HAL_Driver/Inc/stm32h5xx_hal_pcd.h **** /** @addtogroup PCD_Exported_Functions PCD Exported Functions
 208:Drivers/STM32H5xx_HAL_Driver/Inc/stm32h5xx_hal_pcd.h ****   * @{
 209:Drivers/STM32H5xx_HAL_Driver/Inc/stm32h5xx_hal_pcd.h ****   */
 210:Drivers/STM32H5xx_HAL_Driver/Inc/stm32h5xx_hal_pcd.h **** 
 211:Drivers/STM32H5xx_HAL_Driver/Inc/stm32h5xx_hal_pcd.h **** /* Initialization/de-initialization functions  ********************************/
 212:Drivers/STM32H5xx_HAL_Driver/Inc/stm32h5xx_hal_pcd.h **** /** @addtogroup PCD_Exported_Functions_Group1 Initialization and de-initialization functions
 213:Drivers/STM32H5xx_HAL_Driver/Inc/stm32h5xx_hal_pcd.h ****   * @{
 214:Drivers/STM32H5xx_HAL_Driver/Inc/stm32h5xx_hal_pcd.h ****   */
 215:Drivers/STM32H5xx_HAL_Driver/Inc/stm32h5xx_hal_pcd.h **** HAL_StatusTypeDef HAL_PCD_Init(PCD_HandleTypeDef *hpcd);
 216:Drivers/STM32H5xx_HAL_Driver/Inc/stm32h5xx_hal_pcd.h **** HAL_StatusTypeDef HAL_PCD_DeInit(PCD_HandleTypeDef *hpcd);
 217:Drivers/STM32H5xx_HAL_Driver/Inc/stm32h5xx_hal_pcd.h **** void HAL_PCD_MspInit(PCD_HandleTypeDef *hpcd);
 218:Drivers/STM32H5xx_HAL_Driver/Inc/stm32h5xx_hal_pcd.h **** void HAL_PCD_MspDeInit(PCD_HandleTypeDef *hpcd);
 219:Drivers/STM32H5xx_HAL_Driver/Inc/stm32h5xx_hal_pcd.h **** 
 220:Drivers/STM32H5xx_HAL_Driver/Inc/stm32h5xx_hal_pcd.h **** #if (USE_HAL_PCD_REGISTER_CALLBACKS == 1U)
 221:Drivers/STM32H5xx_HAL_Driver/Inc/stm32h5xx_hal_pcd.h **** /** @defgroup HAL_PCD_Callback_ID_enumeration_definition HAL USB OTG PCD Callback ID enumeration de
 222:Drivers/STM32H5xx_HAL_Driver/Inc/stm32h5xx_hal_pcd.h ****   * @brief  HAL USB OTG PCD Callback ID enumeration definition
 223:Drivers/STM32H5xx_HAL_Driver/Inc/stm32h5xx_hal_pcd.h ****   * @{
 224:Drivers/STM32H5xx_HAL_Driver/Inc/stm32h5xx_hal_pcd.h ****   */
 225:Drivers/STM32H5xx_HAL_Driver/Inc/stm32h5xx_hal_pcd.h **** typedef enum
 226:Drivers/STM32H5xx_HAL_Driver/Inc/stm32h5xx_hal_pcd.h **** {
 227:Drivers/STM32H5xx_HAL_Driver/Inc/stm32h5xx_hal_pcd.h ****   HAL_PCD_SOF_CB_ID          = 0x01,      /*!< USB PCD SOF callback ID          */
 228:Drivers/STM32H5xx_HAL_Driver/Inc/stm32h5xx_hal_pcd.h ****   HAL_PCD_SETUPSTAGE_CB_ID   = 0x02,      /*!< USB PCD Setup Stage callback ID  */
 229:Drivers/STM32H5xx_HAL_Driver/Inc/stm32h5xx_hal_pcd.h ****   HAL_PCD_RESET_CB_ID        = 0x03,      /*!< USB PCD Reset callback ID        */
 230:Drivers/STM32H5xx_HAL_Driver/Inc/stm32h5xx_hal_pcd.h ****   HAL_PCD_SUSPEND_CB_ID      = 0x04,      /*!< USB PCD Suspend callback ID      */
 231:Drivers/STM32H5xx_HAL_Driver/Inc/stm32h5xx_hal_pcd.h ****   HAL_PCD_RESUME_CB_ID       = 0x05,      /*!< USB PCD Resume callback ID       */
 232:Drivers/STM32H5xx_HAL_Driver/Inc/stm32h5xx_hal_pcd.h ****   HAL_PCD_CONNECT_CB_ID      = 0x06,      /*!< USB PCD Connect callback ID      */
 233:Drivers/STM32H5xx_HAL_Driver/Inc/stm32h5xx_hal_pcd.h ****   HAL_PCD_DISCONNECT_CB_ID   = 0x07,      /*!< USB PCD Disconnect callback ID   */
 234:Drivers/STM32H5xx_HAL_Driver/Inc/stm32h5xx_hal_pcd.h **** 
 235:Drivers/STM32H5xx_HAL_Driver/Inc/stm32h5xx_hal_pcd.h ****   HAL_PCD_MSPINIT_CB_ID      = 0x08,      /*!< USB PCD MspInit callback ID      */
 236:Drivers/STM32H5xx_HAL_Driver/Inc/stm32h5xx_hal_pcd.h ****   HAL_PCD_MSPDEINIT_CB_ID    = 0x09       /*!< USB PCD MspDeInit callback ID    */
 237:Drivers/STM32H5xx_HAL_Driver/Inc/stm32h5xx_hal_pcd.h **** 
 238:Drivers/STM32H5xx_HAL_Driver/Inc/stm32h5xx_hal_pcd.h **** } HAL_PCD_CallbackIDTypeDef;
 239:Drivers/STM32H5xx_HAL_Driver/Inc/stm32h5xx_hal_pcd.h **** /**
 240:Drivers/STM32H5xx_HAL_Driver/Inc/stm32h5xx_hal_pcd.h ****   * @}
 241:Drivers/STM32H5xx_HAL_Driver/Inc/stm32h5xx_hal_pcd.h ****   */
 242:Drivers/STM32H5xx_HAL_Driver/Inc/stm32h5xx_hal_pcd.h **** 
 243:Drivers/STM32H5xx_HAL_Driver/Inc/stm32h5xx_hal_pcd.h **** /** @defgroup HAL_PCD_Callback_pointer_definition HAL USB OTG PCD Callback pointer definition
 244:Drivers/STM32H5xx_HAL_Driver/Inc/stm32h5xx_hal_pcd.h ****   * @brief  HAL USB OTG PCD Callback pointer definition
 245:Drivers/STM32H5xx_HAL_Driver/Inc/stm32h5xx_hal_pcd.h ****   * @{
 246:Drivers/STM32H5xx_HAL_Driver/Inc/stm32h5xx_hal_pcd.h ****   */
 247:Drivers/STM32H5xx_HAL_Driver/Inc/stm32h5xx_hal_pcd.h **** 
 248:Drivers/STM32H5xx_HAL_Driver/Inc/stm32h5xx_hal_pcd.h **** typedef void (*pPCD_CallbackTypeDef)(PCD_HandleTypeDef *hpcd);                                   /*
 249:Drivers/STM32H5xx_HAL_Driver/Inc/stm32h5xx_hal_pcd.h **** typedef void (*pPCD_DataOutStageCallbackTypeDef)(PCD_HandleTypeDef *hpcd, uint8_t epnum);        /*
 250:Drivers/STM32H5xx_HAL_Driver/Inc/stm32h5xx_hal_pcd.h **** typedef void (*pPCD_DataInStageCallbackTypeDef)(PCD_HandleTypeDef *hpcd, uint8_t epnum);         /*
 251:Drivers/STM32H5xx_HAL_Driver/Inc/stm32h5xx_hal_pcd.h **** typedef void (*pPCD_IsoOutIncpltCallbackTypeDef)(PCD_HandleTypeDef *hpcd, uint8_t epnum);        /*
 252:Drivers/STM32H5xx_HAL_Driver/Inc/stm32h5xx_hal_pcd.h **** typedef void (*pPCD_IsoInIncpltCallbackTypeDef)(PCD_HandleTypeDef *hpcd, uint8_t epnum);         /*
 253:Drivers/STM32H5xx_HAL_Driver/Inc/stm32h5xx_hal_pcd.h **** typedef void (*pPCD_LpmCallbackTypeDef)(PCD_HandleTypeDef *hpcd, PCD_LPM_MsgTypeDef msg);        /*
 254:Drivers/STM32H5xx_HAL_Driver/Inc/stm32h5xx_hal_pcd.h **** typedef void (*pPCD_BcdCallbackTypeDef)(PCD_HandleTypeDef *hpcd, PCD_BCD_MsgTypeDef msg);        /*
 255:Drivers/STM32H5xx_HAL_Driver/Inc/stm32h5xx_hal_pcd.h **** 
 256:Drivers/STM32H5xx_HAL_Driver/Inc/stm32h5xx_hal_pcd.h **** /**
ARM GAS  /var/folders/l3/rwskfq612tq4b7hmtv37jkjw0000gp/T//ccPIyasB.s 			page 6


 257:Drivers/STM32H5xx_HAL_Driver/Inc/stm32h5xx_hal_pcd.h ****   * @}
 258:Drivers/STM32H5xx_HAL_Driver/Inc/stm32h5xx_hal_pcd.h ****   */
 259:Drivers/STM32H5xx_HAL_Driver/Inc/stm32h5xx_hal_pcd.h **** 
 260:Drivers/STM32H5xx_HAL_Driver/Inc/stm32h5xx_hal_pcd.h **** HAL_StatusTypeDef HAL_PCD_RegisterCallback(PCD_HandleTypeDef *hpcd, HAL_PCD_CallbackIDTypeDef Callb
 261:Drivers/STM32H5xx_HAL_Driver/Inc/stm32h5xx_hal_pcd.h ****                                            pPCD_CallbackTypeDef pCallback);
 262:Drivers/STM32H5xx_HAL_Driver/Inc/stm32h5xx_hal_pcd.h **** 
 263:Drivers/STM32H5xx_HAL_Driver/Inc/stm32h5xx_hal_pcd.h **** HAL_StatusTypeDef HAL_PCD_UnRegisterCallback(PCD_HandleTypeDef *hpcd, HAL_PCD_CallbackIDTypeDef Cal
 264:Drivers/STM32H5xx_HAL_Driver/Inc/stm32h5xx_hal_pcd.h **** 
 265:Drivers/STM32H5xx_HAL_Driver/Inc/stm32h5xx_hal_pcd.h **** HAL_StatusTypeDef HAL_PCD_RegisterDataOutStageCallback(PCD_HandleTypeDef *hpcd,
 266:Drivers/STM32H5xx_HAL_Driver/Inc/stm32h5xx_hal_pcd.h ****                                                        pPCD_DataOutStageCallbackTypeDef pCallback);
 267:Drivers/STM32H5xx_HAL_Driver/Inc/stm32h5xx_hal_pcd.h **** 
 268:Drivers/STM32H5xx_HAL_Driver/Inc/stm32h5xx_hal_pcd.h **** HAL_StatusTypeDef HAL_PCD_UnRegisterDataOutStageCallback(PCD_HandleTypeDef *hpcd);
 269:Drivers/STM32H5xx_HAL_Driver/Inc/stm32h5xx_hal_pcd.h **** 
 270:Drivers/STM32H5xx_HAL_Driver/Inc/stm32h5xx_hal_pcd.h **** HAL_StatusTypeDef HAL_PCD_RegisterDataInStageCallback(PCD_HandleTypeDef *hpcd,
 271:Drivers/STM32H5xx_HAL_Driver/Inc/stm32h5xx_hal_pcd.h ****                                                       pPCD_DataInStageCallbackTypeDef pCallback);
 272:Drivers/STM32H5xx_HAL_Driver/Inc/stm32h5xx_hal_pcd.h **** 
 273:Drivers/STM32H5xx_HAL_Driver/Inc/stm32h5xx_hal_pcd.h **** HAL_StatusTypeDef HAL_PCD_UnRegisterDataInStageCallback(PCD_HandleTypeDef *hpcd);
 274:Drivers/STM32H5xx_HAL_Driver/Inc/stm32h5xx_hal_pcd.h **** 
 275:Drivers/STM32H5xx_HAL_Driver/Inc/stm32h5xx_hal_pcd.h **** HAL_StatusTypeDef HAL_PCD_RegisterIsoOutIncpltCallback(PCD_HandleTypeDef *hpcd,
 276:Drivers/STM32H5xx_HAL_Driver/Inc/stm32h5xx_hal_pcd.h ****                                                        pPCD_IsoOutIncpltCallbackTypeDef pCallback);
 277:Drivers/STM32H5xx_HAL_Driver/Inc/stm32h5xx_hal_pcd.h **** 
 278:Drivers/STM32H5xx_HAL_Driver/Inc/stm32h5xx_hal_pcd.h **** HAL_StatusTypeDef HAL_PCD_UnRegisterIsoOutIncpltCallback(PCD_HandleTypeDef *hpcd);
 279:Drivers/STM32H5xx_HAL_Driver/Inc/stm32h5xx_hal_pcd.h **** 
 280:Drivers/STM32H5xx_HAL_Driver/Inc/stm32h5xx_hal_pcd.h **** HAL_StatusTypeDef HAL_PCD_RegisterIsoInIncpltCallback(PCD_HandleTypeDef *hpcd,
 281:Drivers/STM32H5xx_HAL_Driver/Inc/stm32h5xx_hal_pcd.h ****                                                       pPCD_IsoInIncpltCallbackTypeDef pCallback);
 282:Drivers/STM32H5xx_HAL_Driver/Inc/stm32h5xx_hal_pcd.h **** 
 283:Drivers/STM32H5xx_HAL_Driver/Inc/stm32h5xx_hal_pcd.h **** HAL_StatusTypeDef HAL_PCD_UnRegisterIsoInIncpltCallback(PCD_HandleTypeDef *hpcd);
 284:Drivers/STM32H5xx_HAL_Driver/Inc/stm32h5xx_hal_pcd.h **** 
 285:Drivers/STM32H5xx_HAL_Driver/Inc/stm32h5xx_hal_pcd.h **** HAL_StatusTypeDef HAL_PCD_RegisterBcdCallback(PCD_HandleTypeDef *hpcd, pPCD_BcdCallbackTypeDef pCal
 286:Drivers/STM32H5xx_HAL_Driver/Inc/stm32h5xx_hal_pcd.h **** HAL_StatusTypeDef HAL_PCD_UnRegisterBcdCallback(PCD_HandleTypeDef *hpcd);
 287:Drivers/STM32H5xx_HAL_Driver/Inc/stm32h5xx_hal_pcd.h **** 
 288:Drivers/STM32H5xx_HAL_Driver/Inc/stm32h5xx_hal_pcd.h **** HAL_StatusTypeDef HAL_PCD_RegisterLpmCallback(PCD_HandleTypeDef *hpcd, pPCD_LpmCallbackTypeDef pCal
 289:Drivers/STM32H5xx_HAL_Driver/Inc/stm32h5xx_hal_pcd.h **** HAL_StatusTypeDef HAL_PCD_UnRegisterLpmCallback(PCD_HandleTypeDef *hpcd);
 290:Drivers/STM32H5xx_HAL_Driver/Inc/stm32h5xx_hal_pcd.h **** #endif /* USE_HAL_PCD_REGISTER_CALLBACKS */
 291:Drivers/STM32H5xx_HAL_Driver/Inc/stm32h5xx_hal_pcd.h **** /**
 292:Drivers/STM32H5xx_HAL_Driver/Inc/stm32h5xx_hal_pcd.h ****   * @}
 293:Drivers/STM32H5xx_HAL_Driver/Inc/stm32h5xx_hal_pcd.h ****   */
 294:Drivers/STM32H5xx_HAL_Driver/Inc/stm32h5xx_hal_pcd.h **** 
 295:Drivers/STM32H5xx_HAL_Driver/Inc/stm32h5xx_hal_pcd.h **** /* I/O operation functions  ***************************************************/
 296:Drivers/STM32H5xx_HAL_Driver/Inc/stm32h5xx_hal_pcd.h **** /* Non-Blocking mode: Interrupt */
 297:Drivers/STM32H5xx_HAL_Driver/Inc/stm32h5xx_hal_pcd.h **** /** @addtogroup PCD_Exported_Functions_Group2 Input and Output operation functions
 298:Drivers/STM32H5xx_HAL_Driver/Inc/stm32h5xx_hal_pcd.h ****   * @{
 299:Drivers/STM32H5xx_HAL_Driver/Inc/stm32h5xx_hal_pcd.h ****   */
 300:Drivers/STM32H5xx_HAL_Driver/Inc/stm32h5xx_hal_pcd.h **** HAL_StatusTypeDef HAL_PCD_Start(PCD_HandleTypeDef *hpcd);
 301:Drivers/STM32H5xx_HAL_Driver/Inc/stm32h5xx_hal_pcd.h **** HAL_StatusTypeDef HAL_PCD_Stop(PCD_HandleTypeDef *hpcd);
 302:Drivers/STM32H5xx_HAL_Driver/Inc/stm32h5xx_hal_pcd.h **** void HAL_PCD_IRQHandler(PCD_HandleTypeDef *hpcd);
 303:Drivers/STM32H5xx_HAL_Driver/Inc/stm32h5xx_hal_pcd.h **** 
 304:Drivers/STM32H5xx_HAL_Driver/Inc/stm32h5xx_hal_pcd.h **** void HAL_PCD_SOFCallback(PCD_HandleTypeDef *hpcd);
 305:Drivers/STM32H5xx_HAL_Driver/Inc/stm32h5xx_hal_pcd.h **** void HAL_PCD_SetupStageCallback(PCD_HandleTypeDef *hpcd);
 306:Drivers/STM32H5xx_HAL_Driver/Inc/stm32h5xx_hal_pcd.h **** void HAL_PCD_ResetCallback(PCD_HandleTypeDef *hpcd);
 307:Drivers/STM32H5xx_HAL_Driver/Inc/stm32h5xx_hal_pcd.h **** void HAL_PCD_SuspendCallback(PCD_HandleTypeDef *hpcd);
 308:Drivers/STM32H5xx_HAL_Driver/Inc/stm32h5xx_hal_pcd.h **** void HAL_PCD_ResumeCallback(PCD_HandleTypeDef *hpcd);
 309:Drivers/STM32H5xx_HAL_Driver/Inc/stm32h5xx_hal_pcd.h **** void HAL_PCD_ConnectCallback(PCD_HandleTypeDef *hpcd);
 310:Drivers/STM32H5xx_HAL_Driver/Inc/stm32h5xx_hal_pcd.h **** void HAL_PCD_DisconnectCallback(PCD_HandleTypeDef *hpcd);
 311:Drivers/STM32H5xx_HAL_Driver/Inc/stm32h5xx_hal_pcd.h **** 
 312:Drivers/STM32H5xx_HAL_Driver/Inc/stm32h5xx_hal_pcd.h **** void HAL_PCD_DataOutStageCallback(PCD_HandleTypeDef *hpcd, uint8_t epnum);
 313:Drivers/STM32H5xx_HAL_Driver/Inc/stm32h5xx_hal_pcd.h **** void HAL_PCD_DataInStageCallback(PCD_HandleTypeDef *hpcd, uint8_t epnum);
ARM GAS  /var/folders/l3/rwskfq612tq4b7hmtv37jkjw0000gp/T//ccPIyasB.s 			page 7


 314:Drivers/STM32H5xx_HAL_Driver/Inc/stm32h5xx_hal_pcd.h **** void HAL_PCD_ISOOUTIncompleteCallback(PCD_HandleTypeDef *hpcd, uint8_t epnum);
 315:Drivers/STM32H5xx_HAL_Driver/Inc/stm32h5xx_hal_pcd.h **** void HAL_PCD_ISOINIncompleteCallback(PCD_HandleTypeDef *hpcd, uint8_t epnum);
 316:Drivers/STM32H5xx_HAL_Driver/Inc/stm32h5xx_hal_pcd.h **** /**
 317:Drivers/STM32H5xx_HAL_Driver/Inc/stm32h5xx_hal_pcd.h ****   * @}
 318:Drivers/STM32H5xx_HAL_Driver/Inc/stm32h5xx_hal_pcd.h ****   */
 319:Drivers/STM32H5xx_HAL_Driver/Inc/stm32h5xx_hal_pcd.h **** 
 320:Drivers/STM32H5xx_HAL_Driver/Inc/stm32h5xx_hal_pcd.h **** /* Peripheral Control functions  **********************************************/
 321:Drivers/STM32H5xx_HAL_Driver/Inc/stm32h5xx_hal_pcd.h **** /** @addtogroup PCD_Exported_Functions_Group3 Peripheral Control functions
 322:Drivers/STM32H5xx_HAL_Driver/Inc/stm32h5xx_hal_pcd.h ****   * @{
 323:Drivers/STM32H5xx_HAL_Driver/Inc/stm32h5xx_hal_pcd.h ****   */
 324:Drivers/STM32H5xx_HAL_Driver/Inc/stm32h5xx_hal_pcd.h **** HAL_StatusTypeDef HAL_PCD_DevConnect(PCD_HandleTypeDef *hpcd);
 325:Drivers/STM32H5xx_HAL_Driver/Inc/stm32h5xx_hal_pcd.h **** HAL_StatusTypeDef HAL_PCD_DevDisconnect(PCD_HandleTypeDef *hpcd);
 326:Drivers/STM32H5xx_HAL_Driver/Inc/stm32h5xx_hal_pcd.h **** HAL_StatusTypeDef HAL_PCD_SetAddress(PCD_HandleTypeDef *hpcd, uint8_t address);
 327:Drivers/STM32H5xx_HAL_Driver/Inc/stm32h5xx_hal_pcd.h **** HAL_StatusTypeDef HAL_PCD_EP_Open(PCD_HandleTypeDef *hpcd, uint8_t ep_addr, uint16_t ep_mps, uint8_
 328:Drivers/STM32H5xx_HAL_Driver/Inc/stm32h5xx_hal_pcd.h **** HAL_StatusTypeDef HAL_PCD_EP_Close(PCD_HandleTypeDef *hpcd, uint8_t ep_addr);
 329:Drivers/STM32H5xx_HAL_Driver/Inc/stm32h5xx_hal_pcd.h **** HAL_StatusTypeDef HAL_PCD_EP_Receive(PCD_HandleTypeDef *hpcd, uint8_t ep_addr, uint8_t *pBuf, uint3
 330:Drivers/STM32H5xx_HAL_Driver/Inc/stm32h5xx_hal_pcd.h **** HAL_StatusTypeDef HAL_PCD_EP_Transmit(PCD_HandleTypeDef *hpcd, uint8_t ep_addr, uint8_t *pBuf, uint
 331:Drivers/STM32H5xx_HAL_Driver/Inc/stm32h5xx_hal_pcd.h **** HAL_StatusTypeDef HAL_PCD_EP_SetStall(PCD_HandleTypeDef *hpcd, uint8_t ep_addr);
 332:Drivers/STM32H5xx_HAL_Driver/Inc/stm32h5xx_hal_pcd.h **** HAL_StatusTypeDef HAL_PCD_EP_ClrStall(PCD_HandleTypeDef *hpcd, uint8_t ep_addr);
 333:Drivers/STM32H5xx_HAL_Driver/Inc/stm32h5xx_hal_pcd.h **** HAL_StatusTypeDef HAL_PCD_EP_Flush(PCD_HandleTypeDef *hpcd, uint8_t ep_addr);
 334:Drivers/STM32H5xx_HAL_Driver/Inc/stm32h5xx_hal_pcd.h **** HAL_StatusTypeDef HAL_PCD_EP_Abort(PCD_HandleTypeDef *hpcd, uint8_t ep_addr);
 335:Drivers/STM32H5xx_HAL_Driver/Inc/stm32h5xx_hal_pcd.h **** HAL_StatusTypeDef HAL_PCD_ActivateRemoteWakeup(PCD_HandleTypeDef *hpcd);
 336:Drivers/STM32H5xx_HAL_Driver/Inc/stm32h5xx_hal_pcd.h **** HAL_StatusTypeDef HAL_PCD_DeActivateRemoteWakeup(PCD_HandleTypeDef *hpcd);
 337:Drivers/STM32H5xx_HAL_Driver/Inc/stm32h5xx_hal_pcd.h **** uint32_t          HAL_PCD_EP_GetRxCount(PCD_HandleTypeDef const *hpcd, uint8_t ep_addr);
 338:Drivers/STM32H5xx_HAL_Driver/Inc/stm32h5xx_hal_pcd.h **** /**
 339:Drivers/STM32H5xx_HAL_Driver/Inc/stm32h5xx_hal_pcd.h ****   * @}
 340:Drivers/STM32H5xx_HAL_Driver/Inc/stm32h5xx_hal_pcd.h ****   */
 341:Drivers/STM32H5xx_HAL_Driver/Inc/stm32h5xx_hal_pcd.h **** 
 342:Drivers/STM32H5xx_HAL_Driver/Inc/stm32h5xx_hal_pcd.h **** /* Peripheral State functions  ************************************************/
 343:Drivers/STM32H5xx_HAL_Driver/Inc/stm32h5xx_hal_pcd.h **** /** @addtogroup PCD_Exported_Functions_Group4 Peripheral State functions
 344:Drivers/STM32H5xx_HAL_Driver/Inc/stm32h5xx_hal_pcd.h ****   * @{
 345:Drivers/STM32H5xx_HAL_Driver/Inc/stm32h5xx_hal_pcd.h ****   */
 346:Drivers/STM32H5xx_HAL_Driver/Inc/stm32h5xx_hal_pcd.h **** PCD_StateTypeDef HAL_PCD_GetState(PCD_HandleTypeDef const *hpcd);
 347:Drivers/STM32H5xx_HAL_Driver/Inc/stm32h5xx_hal_pcd.h **** /**
 348:Drivers/STM32H5xx_HAL_Driver/Inc/stm32h5xx_hal_pcd.h ****   * @}
 349:Drivers/STM32H5xx_HAL_Driver/Inc/stm32h5xx_hal_pcd.h ****   */
 350:Drivers/STM32H5xx_HAL_Driver/Inc/stm32h5xx_hal_pcd.h **** 
 351:Drivers/STM32H5xx_HAL_Driver/Inc/stm32h5xx_hal_pcd.h **** /**
 352:Drivers/STM32H5xx_HAL_Driver/Inc/stm32h5xx_hal_pcd.h ****   * @}
 353:Drivers/STM32H5xx_HAL_Driver/Inc/stm32h5xx_hal_pcd.h ****   */
 354:Drivers/STM32H5xx_HAL_Driver/Inc/stm32h5xx_hal_pcd.h **** 
 355:Drivers/STM32H5xx_HAL_Driver/Inc/stm32h5xx_hal_pcd.h **** /* Private constants ---------------------------------------------------------*/
 356:Drivers/STM32H5xx_HAL_Driver/Inc/stm32h5xx_hal_pcd.h **** /** @defgroup PCD_Private_Constants PCD Private Constants
 357:Drivers/STM32H5xx_HAL_Driver/Inc/stm32h5xx_hal_pcd.h ****   * @{
 358:Drivers/STM32H5xx_HAL_Driver/Inc/stm32h5xx_hal_pcd.h ****   */
 359:Drivers/STM32H5xx_HAL_Driver/Inc/stm32h5xx_hal_pcd.h **** /** @defgroup USB_EXTI_Line_Interrupt USB EXTI line interrupt
 360:Drivers/STM32H5xx_HAL_Driver/Inc/stm32h5xx_hal_pcd.h ****   * @{
 361:Drivers/STM32H5xx_HAL_Driver/Inc/stm32h5xx_hal_pcd.h ****   */
 362:Drivers/STM32H5xx_HAL_Driver/Inc/stm32h5xx_hal_pcd.h **** 
 363:Drivers/STM32H5xx_HAL_Driver/Inc/stm32h5xx_hal_pcd.h **** 
 364:Drivers/STM32H5xx_HAL_Driver/Inc/stm32h5xx_hal_pcd.h **** #define USB_WAKEUP_EXTI_LINE                                          (0x1U << 15)  /*!< USB FS EXT
 365:Drivers/STM32H5xx_HAL_Driver/Inc/stm32h5xx_hal_pcd.h **** 
 366:Drivers/STM32H5xx_HAL_Driver/Inc/stm32h5xx_hal_pcd.h **** 
 367:Drivers/STM32H5xx_HAL_Driver/Inc/stm32h5xx_hal_pcd.h **** /**
 368:Drivers/STM32H5xx_HAL_Driver/Inc/stm32h5xx_hal_pcd.h ****   * @}
 369:Drivers/STM32H5xx_HAL_Driver/Inc/stm32h5xx_hal_pcd.h ****   */
 370:Drivers/STM32H5xx_HAL_Driver/Inc/stm32h5xx_hal_pcd.h **** 
ARM GAS  /var/folders/l3/rwskfq612tq4b7hmtv37jkjw0000gp/T//ccPIyasB.s 			page 8


 371:Drivers/STM32H5xx_HAL_Driver/Inc/stm32h5xx_hal_pcd.h **** /** @defgroup PCD_EP0_MPS PCD EP0 MPS
 372:Drivers/STM32H5xx_HAL_Driver/Inc/stm32h5xx_hal_pcd.h ****   * @{
 373:Drivers/STM32H5xx_HAL_Driver/Inc/stm32h5xx_hal_pcd.h ****   */
 374:Drivers/STM32H5xx_HAL_Driver/Inc/stm32h5xx_hal_pcd.h **** #define PCD_EP0MPS_64                                                 EP_MPS_64
 375:Drivers/STM32H5xx_HAL_Driver/Inc/stm32h5xx_hal_pcd.h **** #define PCD_EP0MPS_32                                                 EP_MPS_32
 376:Drivers/STM32H5xx_HAL_Driver/Inc/stm32h5xx_hal_pcd.h **** #define PCD_EP0MPS_16                                                 EP_MPS_16
 377:Drivers/STM32H5xx_HAL_Driver/Inc/stm32h5xx_hal_pcd.h **** #define PCD_EP0MPS_08                                                 EP_MPS_8
 378:Drivers/STM32H5xx_HAL_Driver/Inc/stm32h5xx_hal_pcd.h **** /**
 379:Drivers/STM32H5xx_HAL_Driver/Inc/stm32h5xx_hal_pcd.h ****   * @}
 380:Drivers/STM32H5xx_HAL_Driver/Inc/stm32h5xx_hal_pcd.h ****   */
 381:Drivers/STM32H5xx_HAL_Driver/Inc/stm32h5xx_hal_pcd.h **** 
 382:Drivers/STM32H5xx_HAL_Driver/Inc/stm32h5xx_hal_pcd.h **** /** @defgroup PCD_ENDP PCD ENDP
 383:Drivers/STM32H5xx_HAL_Driver/Inc/stm32h5xx_hal_pcd.h ****   * @{
 384:Drivers/STM32H5xx_HAL_Driver/Inc/stm32h5xx_hal_pcd.h ****   */
 385:Drivers/STM32H5xx_HAL_Driver/Inc/stm32h5xx_hal_pcd.h **** #define PCD_ENDP0                                                     0U
 386:Drivers/STM32H5xx_HAL_Driver/Inc/stm32h5xx_hal_pcd.h **** #define PCD_ENDP1                                                     1U
 387:Drivers/STM32H5xx_HAL_Driver/Inc/stm32h5xx_hal_pcd.h **** #define PCD_ENDP2                                                     2U
 388:Drivers/STM32H5xx_HAL_Driver/Inc/stm32h5xx_hal_pcd.h **** #define PCD_ENDP3                                                     3U
 389:Drivers/STM32H5xx_HAL_Driver/Inc/stm32h5xx_hal_pcd.h **** #define PCD_ENDP4                                                     4U
 390:Drivers/STM32H5xx_HAL_Driver/Inc/stm32h5xx_hal_pcd.h **** #define PCD_ENDP5                                                     5U
 391:Drivers/STM32H5xx_HAL_Driver/Inc/stm32h5xx_hal_pcd.h **** #define PCD_ENDP6                                                     6U
 392:Drivers/STM32H5xx_HAL_Driver/Inc/stm32h5xx_hal_pcd.h **** #define PCD_ENDP7                                                     7U
 393:Drivers/STM32H5xx_HAL_Driver/Inc/stm32h5xx_hal_pcd.h **** /**
 394:Drivers/STM32H5xx_HAL_Driver/Inc/stm32h5xx_hal_pcd.h ****   * @}
 395:Drivers/STM32H5xx_HAL_Driver/Inc/stm32h5xx_hal_pcd.h ****   */
 396:Drivers/STM32H5xx_HAL_Driver/Inc/stm32h5xx_hal_pcd.h **** 
 397:Drivers/STM32H5xx_HAL_Driver/Inc/stm32h5xx_hal_pcd.h **** /** @defgroup PCD_ENDP_Kind PCD Endpoint Kind
 398:Drivers/STM32H5xx_HAL_Driver/Inc/stm32h5xx_hal_pcd.h ****   * @{
 399:Drivers/STM32H5xx_HAL_Driver/Inc/stm32h5xx_hal_pcd.h ****   */
 400:Drivers/STM32H5xx_HAL_Driver/Inc/stm32h5xx_hal_pcd.h **** #define PCD_SNG_BUF                                                   0U
 401:Drivers/STM32H5xx_HAL_Driver/Inc/stm32h5xx_hal_pcd.h **** #define PCD_DBL_BUF                                                   1U
 402:Drivers/STM32H5xx_HAL_Driver/Inc/stm32h5xx_hal_pcd.h **** /**
 403:Drivers/STM32H5xx_HAL_Driver/Inc/stm32h5xx_hal_pcd.h ****   * @}
 404:Drivers/STM32H5xx_HAL_Driver/Inc/stm32h5xx_hal_pcd.h ****   */
 405:Drivers/STM32H5xx_HAL_Driver/Inc/stm32h5xx_hal_pcd.h **** 
 406:Drivers/STM32H5xx_HAL_Driver/Inc/stm32h5xx_hal_pcd.h **** /**
 407:Drivers/STM32H5xx_HAL_Driver/Inc/stm32h5xx_hal_pcd.h ****   * @}
 408:Drivers/STM32H5xx_HAL_Driver/Inc/stm32h5xx_hal_pcd.h ****   */
 409:Drivers/STM32H5xx_HAL_Driver/Inc/stm32h5xx_hal_pcd.h **** 
 410:Drivers/STM32H5xx_HAL_Driver/Inc/stm32h5xx_hal_pcd.h **** /* Private macros ------------------------------------------------------------*/
 411:Drivers/STM32H5xx_HAL_Driver/Inc/stm32h5xx_hal_pcd.h **** /** @defgroup PCD_Private_Macros PCD Private Macros
 412:Drivers/STM32H5xx_HAL_Driver/Inc/stm32h5xx_hal_pcd.h ****   * @{
 413:Drivers/STM32H5xx_HAL_Driver/Inc/stm32h5xx_hal_pcd.h ****   */
 414:Drivers/STM32H5xx_HAL_Driver/Inc/stm32h5xx_hal_pcd.h **** 
 415:Drivers/STM32H5xx_HAL_Driver/Inc/stm32h5xx_hal_pcd.h **** /* PMA RX counter */
 416:Drivers/STM32H5xx_HAL_Driver/Inc/stm32h5xx_hal_pcd.h **** #ifndef PCD_RX_PMA_CNT
 417:Drivers/STM32H5xx_HAL_Driver/Inc/stm32h5xx_hal_pcd.h **** #define PCD_RX_PMA_CNT                                               10U
 418:Drivers/STM32H5xx_HAL_Driver/Inc/stm32h5xx_hal_pcd.h **** #endif /* PCD_RX_PMA_CNT */
 419:Drivers/STM32H5xx_HAL_Driver/Inc/stm32h5xx_hal_pcd.h **** 
 420:Drivers/STM32H5xx_HAL_Driver/Inc/stm32h5xx_hal_pcd.h **** /* SetENDPOINT */
 421:Drivers/STM32H5xx_HAL_Driver/Inc/stm32h5xx_hal_pcd.h **** #define PCD_SET_ENDPOINT                       USB_DRD_SET_CHEP
 422:Drivers/STM32H5xx_HAL_Driver/Inc/stm32h5xx_hal_pcd.h **** 
 423:Drivers/STM32H5xx_HAL_Driver/Inc/stm32h5xx_hal_pcd.h **** /* GetENDPOINT Register value*/
 424:Drivers/STM32H5xx_HAL_Driver/Inc/stm32h5xx_hal_pcd.h **** #define PCD_GET_ENDPOINT                       USB_DRD_GET_CHEP
 425:Drivers/STM32H5xx_HAL_Driver/Inc/stm32h5xx_hal_pcd.h **** 
 426:Drivers/STM32H5xx_HAL_Driver/Inc/stm32h5xx_hal_pcd.h **** 
 427:Drivers/STM32H5xx_HAL_Driver/Inc/stm32h5xx_hal_pcd.h **** /**
ARM GAS  /var/folders/l3/rwskfq612tq4b7hmtv37jkjw0000gp/T//ccPIyasB.s 			page 9


 428:Drivers/STM32H5xx_HAL_Driver/Inc/stm32h5xx_hal_pcd.h ****   * @brief free buffer used from the application realizing it to the line
 429:Drivers/STM32H5xx_HAL_Driver/Inc/stm32h5xx_hal_pcd.h ****   *         toggles bit SW_BUF in the double buffered endpoint register
 430:Drivers/STM32H5xx_HAL_Driver/Inc/stm32h5xx_hal_pcd.h ****   * @param USBx USB device.
 431:Drivers/STM32H5xx_HAL_Driver/Inc/stm32h5xx_hal_pcd.h ****   * @param   bEpNum, bDir
 432:Drivers/STM32H5xx_HAL_Driver/Inc/stm32h5xx_hal_pcd.h ****   * @retval None
 433:Drivers/STM32H5xx_HAL_Driver/Inc/stm32h5xx_hal_pcd.h ****   */
 434:Drivers/STM32H5xx_HAL_Driver/Inc/stm32h5xx_hal_pcd.h **** #define PCD_FREE_USER_BUFFER                   USB_DRD_FREE_USER_BUFFER
 435:Drivers/STM32H5xx_HAL_Driver/Inc/stm32h5xx_hal_pcd.h **** 
 436:Drivers/STM32H5xx_HAL_Driver/Inc/stm32h5xx_hal_pcd.h **** /**
 437:Drivers/STM32H5xx_HAL_Driver/Inc/stm32h5xx_hal_pcd.h ****   * @brief  sets the status for tx transfer (bits STAT_TX[1:0]).
 438:Drivers/STM32H5xx_HAL_Driver/Inc/stm32h5xx_hal_pcd.h ****   * @param  USBx USB peripheral instance register address.
 439:Drivers/STM32H5xx_HAL_Driver/Inc/stm32h5xx_hal_pcd.h ****   * @param  bEpNum Endpoint Number.
 440:Drivers/STM32H5xx_HAL_Driver/Inc/stm32h5xx_hal_pcd.h ****   * @param  wState new state
 441:Drivers/STM32H5xx_HAL_Driver/Inc/stm32h5xx_hal_pcd.h ****   * @retval None
 442:Drivers/STM32H5xx_HAL_Driver/Inc/stm32h5xx_hal_pcd.h ****   */
 443:Drivers/STM32H5xx_HAL_Driver/Inc/stm32h5xx_hal_pcd.h **** #define PCD_SET_EP_TX_STATUS                   USB_DRD_SET_CHEP_TX_STATUS
 444:Drivers/STM32H5xx_HAL_Driver/Inc/stm32h5xx_hal_pcd.h **** 
 445:Drivers/STM32H5xx_HAL_Driver/Inc/stm32h5xx_hal_pcd.h **** /**
 446:Drivers/STM32H5xx_HAL_Driver/Inc/stm32h5xx_hal_pcd.h ****   * @brief  sets the status for rx transfer (bits STAT_TX[1:0])
 447:Drivers/STM32H5xx_HAL_Driver/Inc/stm32h5xx_hal_pcd.h ****   * @param  USBx USB peripheral instance register address.
 448:Drivers/STM32H5xx_HAL_Driver/Inc/stm32h5xx_hal_pcd.h ****   * @param  bEpNum Endpoint Number.
 449:Drivers/STM32H5xx_HAL_Driver/Inc/stm32h5xx_hal_pcd.h ****   * @param  wState new state
 450:Drivers/STM32H5xx_HAL_Driver/Inc/stm32h5xx_hal_pcd.h ****   * @retval None
 451:Drivers/STM32H5xx_HAL_Driver/Inc/stm32h5xx_hal_pcd.h ****   */
 452:Drivers/STM32H5xx_HAL_Driver/Inc/stm32h5xx_hal_pcd.h **** #define PCD_SET_EP_RX_STATUS                   USB_DRD_SET_CHEP_RX_STATUS
 453:Drivers/STM32H5xx_HAL_Driver/Inc/stm32h5xx_hal_pcd.h **** 
 454:Drivers/STM32H5xx_HAL_Driver/Inc/stm32h5xx_hal_pcd.h **** /**
 455:Drivers/STM32H5xx_HAL_Driver/Inc/stm32h5xx_hal_pcd.h ****   * @brief  Sets/clears directly EP_KIND bit in the endpoint register.
 456:Drivers/STM32H5xx_HAL_Driver/Inc/stm32h5xx_hal_pcd.h ****   * @param  USBx USB peripheral instance register address.
 457:Drivers/STM32H5xx_HAL_Driver/Inc/stm32h5xx_hal_pcd.h ****   * @param  bEpNum Endpoint Number.
 458:Drivers/STM32H5xx_HAL_Driver/Inc/stm32h5xx_hal_pcd.h ****   * @retval None
 459:Drivers/STM32H5xx_HAL_Driver/Inc/stm32h5xx_hal_pcd.h ****   */
 460:Drivers/STM32H5xx_HAL_Driver/Inc/stm32h5xx_hal_pcd.h **** #define PCD_SET_EP_KIND                        USB_DRD_SET_CHEP_KIND
 461:Drivers/STM32H5xx_HAL_Driver/Inc/stm32h5xx_hal_pcd.h **** #define PCD_CLEAR_EP_KIND                      USB_DRD_CLEAR_CHEP_KIND
 462:Drivers/STM32H5xx_HAL_Driver/Inc/stm32h5xx_hal_pcd.h **** #define PCD_SET_BULK_EP_DBUF                   PCD_SET_EP_KIND
 463:Drivers/STM32H5xx_HAL_Driver/Inc/stm32h5xx_hal_pcd.h **** #define PCD_CLEAR_BULK_EP_DBUF                 PCD_CLEAR_EP_KIND
 464:Drivers/STM32H5xx_HAL_Driver/Inc/stm32h5xx_hal_pcd.h **** 
 465:Drivers/STM32H5xx_HAL_Driver/Inc/stm32h5xx_hal_pcd.h **** 
 466:Drivers/STM32H5xx_HAL_Driver/Inc/stm32h5xx_hal_pcd.h **** /**
 467:Drivers/STM32H5xx_HAL_Driver/Inc/stm32h5xx_hal_pcd.h ****   * @brief  Clears bit CTR_RX / CTR_TX in the endpoint register.
 468:Drivers/STM32H5xx_HAL_Driver/Inc/stm32h5xx_hal_pcd.h ****   * @param  USBx USB peripheral instance register address.
 469:Drivers/STM32H5xx_HAL_Driver/Inc/stm32h5xx_hal_pcd.h ****   * @param  bEpNum Endpoint Number.
 470:Drivers/STM32H5xx_HAL_Driver/Inc/stm32h5xx_hal_pcd.h ****   * @retval None
 471:Drivers/STM32H5xx_HAL_Driver/Inc/stm32h5xx_hal_pcd.h ****   */
 472:Drivers/STM32H5xx_HAL_Driver/Inc/stm32h5xx_hal_pcd.h **** #define PCD_CLEAR_RX_EP_CTR                    USB_DRD_CLEAR_RX_CHEP_CTR
 473:Drivers/STM32H5xx_HAL_Driver/Inc/stm32h5xx_hal_pcd.h **** #define PCD_CLEAR_TX_EP_CTR                    USB_DRD_CLEAR_TX_CHEP_CTR
 474:Drivers/STM32H5xx_HAL_Driver/Inc/stm32h5xx_hal_pcd.h **** /**
 475:Drivers/STM32H5xx_HAL_Driver/Inc/stm32h5xx_hal_pcd.h ****   * @brief  Toggles DTOG_RX / DTOG_TX bit in the endpoint register.
 476:Drivers/STM32H5xx_HAL_Driver/Inc/stm32h5xx_hal_pcd.h ****   * @param  USBx USB peripheral instance register address.
 477:Drivers/STM32H5xx_HAL_Driver/Inc/stm32h5xx_hal_pcd.h ****   * @param  bEpNum Endpoint Number.
 478:Drivers/STM32H5xx_HAL_Driver/Inc/stm32h5xx_hal_pcd.h ****   * @retval None
 479:Drivers/STM32H5xx_HAL_Driver/Inc/stm32h5xx_hal_pcd.h ****   */
 480:Drivers/STM32H5xx_HAL_Driver/Inc/stm32h5xx_hal_pcd.h **** #define PCD_RX_DTOG                            USB_DRD_RX_DTOG
 481:Drivers/STM32H5xx_HAL_Driver/Inc/stm32h5xx_hal_pcd.h **** #define PCD_TX_DTOG                            USB_DRD_TX_DTOG
 482:Drivers/STM32H5xx_HAL_Driver/Inc/stm32h5xx_hal_pcd.h **** /**
 483:Drivers/STM32H5xx_HAL_Driver/Inc/stm32h5xx_hal_pcd.h ****   * @brief  Clears DTOG_RX / DTOG_TX bit in the endpoint register.
 484:Drivers/STM32H5xx_HAL_Driver/Inc/stm32h5xx_hal_pcd.h ****   * @param  USBx USB peripheral instance register address.
ARM GAS  /var/folders/l3/rwskfq612tq4b7hmtv37jkjw0000gp/T//ccPIyasB.s 			page 10


 485:Drivers/STM32H5xx_HAL_Driver/Inc/stm32h5xx_hal_pcd.h ****   * @param  bEpNum Endpoint Number.
 486:Drivers/STM32H5xx_HAL_Driver/Inc/stm32h5xx_hal_pcd.h ****   * @retval None
 487:Drivers/STM32H5xx_HAL_Driver/Inc/stm32h5xx_hal_pcd.h ****   */
 488:Drivers/STM32H5xx_HAL_Driver/Inc/stm32h5xx_hal_pcd.h **** #define PCD_CLEAR_RX_DTOG                      USB_DRD_CLEAR_RX_DTOG
 489:Drivers/STM32H5xx_HAL_Driver/Inc/stm32h5xx_hal_pcd.h **** #define PCD_CLEAR_TX_DTOG                      USB_DRD_CLEAR_TX_DTOG
 490:Drivers/STM32H5xx_HAL_Driver/Inc/stm32h5xx_hal_pcd.h **** 
 491:Drivers/STM32H5xx_HAL_Driver/Inc/stm32h5xx_hal_pcd.h **** /**
 492:Drivers/STM32H5xx_HAL_Driver/Inc/stm32h5xx_hal_pcd.h ****   * @brief  Sets address in an endpoint register.
 493:Drivers/STM32H5xx_HAL_Driver/Inc/stm32h5xx_hal_pcd.h ****   * @param  USBx USB peripheral instance register address.
 494:Drivers/STM32H5xx_HAL_Driver/Inc/stm32h5xx_hal_pcd.h ****   * @param  bEpNum Endpoint Number.
 495:Drivers/STM32H5xx_HAL_Driver/Inc/stm32h5xx_hal_pcd.h ****   * @param  bAddr Address.
 496:Drivers/STM32H5xx_HAL_Driver/Inc/stm32h5xx_hal_pcd.h ****   * @retval None
 497:Drivers/STM32H5xx_HAL_Driver/Inc/stm32h5xx_hal_pcd.h ****   */
 498:Drivers/STM32H5xx_HAL_Driver/Inc/stm32h5xx_hal_pcd.h **** #define PCD_SET_EP_ADDRESS                     USB_DRD_SET_CHEP_ADDRESS
 499:Drivers/STM32H5xx_HAL_Driver/Inc/stm32h5xx_hal_pcd.h **** 
 500:Drivers/STM32H5xx_HAL_Driver/Inc/stm32h5xx_hal_pcd.h **** /**
 501:Drivers/STM32H5xx_HAL_Driver/Inc/stm32h5xx_hal_pcd.h ****   * @brief  sets address of the tx/rx buffer.
 502:Drivers/STM32H5xx_HAL_Driver/Inc/stm32h5xx_hal_pcd.h ****   * @param  USBx USB peripheral instance register address.
 503:Drivers/STM32H5xx_HAL_Driver/Inc/stm32h5xx_hal_pcd.h ****   * @param  bEpNum Endpoint Number.
 504:Drivers/STM32H5xx_HAL_Driver/Inc/stm32h5xx_hal_pcd.h ****   * @param  wAddr address to be set (must be word aligned).
 505:Drivers/STM32H5xx_HAL_Driver/Inc/stm32h5xx_hal_pcd.h ****   * @retval None
 506:Drivers/STM32H5xx_HAL_Driver/Inc/stm32h5xx_hal_pcd.h ****   */
 507:Drivers/STM32H5xx_HAL_Driver/Inc/stm32h5xx_hal_pcd.h **** #define PCD_SET_EP_TX_ADDRESS                  USB_DRD_SET_CHEP_TX_ADDRESS
 508:Drivers/STM32H5xx_HAL_Driver/Inc/stm32h5xx_hal_pcd.h **** #define PCD_SET_EP_RX_ADDRESS                  USB_DRD_SET_CHEP_RX_ADDRESS
 509:Drivers/STM32H5xx_HAL_Driver/Inc/stm32h5xx_hal_pcd.h **** 
 510:Drivers/STM32H5xx_HAL_Driver/Inc/stm32h5xx_hal_pcd.h **** /**
 511:Drivers/STM32H5xx_HAL_Driver/Inc/stm32h5xx_hal_pcd.h ****   * @brief  sets counter for the tx/rx buffer.
 512:Drivers/STM32H5xx_HAL_Driver/Inc/stm32h5xx_hal_pcd.h ****   * @param  USBx USB peripheral instance register address.
 513:Drivers/STM32H5xx_HAL_Driver/Inc/stm32h5xx_hal_pcd.h ****   * @param  bEpNum Endpoint Number.
 514:Drivers/STM32H5xx_HAL_Driver/Inc/stm32h5xx_hal_pcd.h ****   * @param  wCount Counter value.
 515:Drivers/STM32H5xx_HAL_Driver/Inc/stm32h5xx_hal_pcd.h ****   * @retval None
 516:Drivers/STM32H5xx_HAL_Driver/Inc/stm32h5xx_hal_pcd.h ****   */
 517:Drivers/STM32H5xx_HAL_Driver/Inc/stm32h5xx_hal_pcd.h **** #define PCD_SET_EP_TX_CNT                      USB_DRD_SET_CHEP_TX_CNT
 518:Drivers/STM32H5xx_HAL_Driver/Inc/stm32h5xx_hal_pcd.h **** #define PCD_SET_EP_RX_CNT                      USB_DRD_SET_CHEP_RX_CNT
 519:Drivers/STM32H5xx_HAL_Driver/Inc/stm32h5xx_hal_pcd.h **** 
 520:Drivers/STM32H5xx_HAL_Driver/Inc/stm32h5xx_hal_pcd.h **** /**
 521:Drivers/STM32H5xx_HAL_Driver/Inc/stm32h5xx_hal_pcd.h ****   * @brief  gets counter of the tx buffer.
 522:Drivers/STM32H5xx_HAL_Driver/Inc/stm32h5xx_hal_pcd.h ****   * @param  USBx USB peripheral instance register address.
 523:Drivers/STM32H5xx_HAL_Driver/Inc/stm32h5xx_hal_pcd.h ****   * @param  bEpNum Endpoint Number.
 524:Drivers/STM32H5xx_HAL_Driver/Inc/stm32h5xx_hal_pcd.h ****   * @retval Counter value
 525:Drivers/STM32H5xx_HAL_Driver/Inc/stm32h5xx_hal_pcd.h ****   */
 526:Drivers/STM32H5xx_HAL_Driver/Inc/stm32h5xx_hal_pcd.h **** #define PCD_GET_EP_TX_CNT                      USB_DRD_GET_CHEP_TX_CNT
 527:Drivers/STM32H5xx_HAL_Driver/Inc/stm32h5xx_hal_pcd.h **** 
 528:Drivers/STM32H5xx_HAL_Driver/Inc/stm32h5xx_hal_pcd.h **** /**
 529:Drivers/STM32H5xx_HAL_Driver/Inc/stm32h5xx_hal_pcd.h ****   * @brief  gets counter of the rx buffer.
 530:Drivers/STM32H5xx_HAL_Driver/Inc/stm32h5xx_hal_pcd.h ****   * @param  Instance USB peripheral instance register address.
 531:Drivers/STM32H5xx_HAL_Driver/Inc/stm32h5xx_hal_pcd.h ****   * @param  bEpNum channel Number.
 532:Drivers/STM32H5xx_HAL_Driver/Inc/stm32h5xx_hal_pcd.h ****   * @retval Counter value
 533:Drivers/STM32H5xx_HAL_Driver/Inc/stm32h5xx_hal_pcd.h ****   */
 534:Drivers/STM32H5xx_HAL_Driver/Inc/stm32h5xx_hal_pcd.h **** __STATIC_INLINE uint16_t PCD_GET_EP_RX_CNT(const PCD_TypeDef *Instance, uint16_t bEpNum)
 535:Drivers/STM32H5xx_HAL_Driver/Inc/stm32h5xx_hal_pcd.h **** {
  31              		.loc 2 535 1 view -0
  32              		.cfi_startproc
  33              		@ args = 0, pretend = 0, frame = 8
  34              		@ frame_needed = 0, uses_anonymous_args = 0
  35              		@ link register save eliminated.
  36              		.loc 2 535 1 is_stmt 0 view .LVU1
ARM GAS  /var/folders/l3/rwskfq612tq4b7hmtv37jkjw0000gp/T//ccPIyasB.s 			page 11


  37 0000 82B0     		sub	sp, sp, #8
  38              	.LCFI0:
  39              		.cfi_def_cfa_offset 8
 536:Drivers/STM32H5xx_HAL_Driver/Inc/stm32h5xx_hal_pcd.h ****   UNUSED(Instance);
  40              		.loc 2 536 3 is_stmt 1 view .LVU2
 537:Drivers/STM32H5xx_HAL_Driver/Inc/stm32h5xx_hal_pcd.h ****   __IO uint32_t count = PCD_RX_PMA_CNT;
  41              		.loc 2 537 3 view .LVU3
  42              		.loc 2 537 17 is_stmt 0 view .LVU4
  43 0002 0A23     		movs	r3, #10
  44 0004 0193     		str	r3, [sp, #4]
 538:Drivers/STM32H5xx_HAL_Driver/Inc/stm32h5xx_hal_pcd.h **** 
 539:Drivers/STM32H5xx_HAL_Driver/Inc/stm32h5xx_hal_pcd.h ****   /* WA: few cycles for RX PMA descriptor to update */
 540:Drivers/STM32H5xx_HAL_Driver/Inc/stm32h5xx_hal_pcd.h ****   while (count > 0U)
  45              		.loc 2 540 3 is_stmt 1 view .LVU5
  46              		.loc 2 540 9 is_stmt 0 view .LVU6
  47 0006 02E0     		b	.L2
  48              	.L3:
 541:Drivers/STM32H5xx_HAL_Driver/Inc/stm32h5xx_hal_pcd.h ****   {
 542:Drivers/STM32H5xx_HAL_Driver/Inc/stm32h5xx_hal_pcd.h ****     count--;
  49              		.loc 2 542 5 is_stmt 1 view .LVU7
  50              		.loc 2 542 10 is_stmt 0 view .LVU8
  51 0008 019B     		ldr	r3, [sp, #4]
  52 000a 013B     		subs	r3, r3, #1
  53 000c 0193     		str	r3, [sp, #4]
  54              	.L2:
 540:Drivers/STM32H5xx_HAL_Driver/Inc/stm32h5xx_hal_pcd.h ****   {
  55              		.loc 2 540 16 is_stmt 1 view .LVU9
  56 000e 019B     		ldr	r3, [sp, #4]
  57 0010 002B     		cmp	r3, #0
  58 0012 F9D1     		bne	.L3
 543:Drivers/STM32H5xx_HAL_Driver/Inc/stm32h5xx_hal_pcd.h ****   }
 544:Drivers/STM32H5xx_HAL_Driver/Inc/stm32h5xx_hal_pcd.h **** 
 545:Drivers/STM32H5xx_HAL_Driver/Inc/stm32h5xx_hal_pcd.h ****   return (uint16_t)USB_DRD_GET_CHEP_RX_CNT((Instance), (bEpNum));
  59              		.loc 2 545 3 view .LVU10
  60              		.loc 2 545 20 is_stmt 0 view .LVU11
  61 0014 CB00     		lsls	r3, r1, #3
  62 0016 03F18043 		add	r3, r3, #1073741824
  63 001a 03F5B233 		add	r3, r3, #91136
  64 001e 5868     		ldr	r0, [r3, #4]
  65              	.LVL1:
 546:Drivers/STM32H5xx_HAL_Driver/Inc/stm32h5xx_hal_pcd.h **** }
  66              		.loc 2 546 1 view .LVU12
  67 0020 C0F30940 		ubfx	r0, r0, #16, #10
  68 0024 02B0     		add	sp, sp, #8
  69              	.LCFI1:
  70              		.cfi_def_cfa_offset 0
  71              		@ sp needed
  72 0026 7047     		bx	lr
  73              		.cfi_endproc
  74              	.LFE327:
  76              		.section	.text.PCD_GET_EP_DBUF0_CNT,"ax",%progbits
  77              		.align	1
  78              		.syntax unified
  79              		.thumb
  80              		.thumb_func
  82              	PCD_GET_EP_DBUF0_CNT:
  83              	.LVL2:
ARM GAS  /var/folders/l3/rwskfq612tq4b7hmtv37jkjw0000gp/T//ccPIyasB.s 			page 12


  84              	.LFB328:
 547:Drivers/STM32H5xx_HAL_Driver/Inc/stm32h5xx_hal_pcd.h **** 
 548:Drivers/STM32H5xx_HAL_Driver/Inc/stm32h5xx_hal_pcd.h **** /**
 549:Drivers/STM32H5xx_HAL_Driver/Inc/stm32h5xx_hal_pcd.h ****   * @brief  Sets addresses in a double buffer endpoint.
 550:Drivers/STM32H5xx_HAL_Driver/Inc/stm32h5xx_hal_pcd.h ****   * @param  USBx USB peripheral instance register address.
 551:Drivers/STM32H5xx_HAL_Driver/Inc/stm32h5xx_hal_pcd.h ****   * @param  bEpNum Endpoint Number.
 552:Drivers/STM32H5xx_HAL_Driver/Inc/stm32h5xx_hal_pcd.h ****   * @param  wBuf0Addr: buffer 0 address.
 553:Drivers/STM32H5xx_HAL_Driver/Inc/stm32h5xx_hal_pcd.h ****   * @param  wBuf1Addr = buffer 1 address.
 554:Drivers/STM32H5xx_HAL_Driver/Inc/stm32h5xx_hal_pcd.h ****   * @retval None
 555:Drivers/STM32H5xx_HAL_Driver/Inc/stm32h5xx_hal_pcd.h ****   */
 556:Drivers/STM32H5xx_HAL_Driver/Inc/stm32h5xx_hal_pcd.h **** #define PCD_SET_EP_DBUF_ADDR                   USB_DRD_SET_CHEP_DBUF_ADDR
 557:Drivers/STM32H5xx_HAL_Driver/Inc/stm32h5xx_hal_pcd.h **** 
 558:Drivers/STM32H5xx_HAL_Driver/Inc/stm32h5xx_hal_pcd.h **** /**
 559:Drivers/STM32H5xx_HAL_Driver/Inc/stm32h5xx_hal_pcd.h ****   * @brief  Gets buffer 0/1 address of a double buffer endpoint.
 560:Drivers/STM32H5xx_HAL_Driver/Inc/stm32h5xx_hal_pcd.h ****   * @param  USBx USB peripheral instance register address.
 561:Drivers/STM32H5xx_HAL_Driver/Inc/stm32h5xx_hal_pcd.h ****   * @param  bEpNum Endpoint Number.
 562:Drivers/STM32H5xx_HAL_Driver/Inc/stm32h5xx_hal_pcd.h ****   * @param  bDir endpoint dir  EP_DBUF_OUT = OUT
 563:Drivers/STM32H5xx_HAL_Driver/Inc/stm32h5xx_hal_pcd.h ****   *         EP_DBUF_IN  = IN
 564:Drivers/STM32H5xx_HAL_Driver/Inc/stm32h5xx_hal_pcd.h ****   * @param  wCount: Counter value
 565:Drivers/STM32H5xx_HAL_Driver/Inc/stm32h5xx_hal_pcd.h ****   * @retval None
 566:Drivers/STM32H5xx_HAL_Driver/Inc/stm32h5xx_hal_pcd.h ****   */
 567:Drivers/STM32H5xx_HAL_Driver/Inc/stm32h5xx_hal_pcd.h **** #define PCD_SET_EP_DBUF0_CNT                   USB_DRD_SET_CHEP_DBUF0_CNT
 568:Drivers/STM32H5xx_HAL_Driver/Inc/stm32h5xx_hal_pcd.h **** #define PCD_SET_EP_DBUF1_CNT                   USB_DRD_SET_CHEP_DBUF1_CNT
 569:Drivers/STM32H5xx_HAL_Driver/Inc/stm32h5xx_hal_pcd.h **** #define PCD_SET_EP_DBUF_CNT                    USB_DRD_SET_CHEP_DBUF_CNT
 570:Drivers/STM32H5xx_HAL_Driver/Inc/stm32h5xx_hal_pcd.h **** 
 571:Drivers/STM32H5xx_HAL_Driver/Inc/stm32h5xx_hal_pcd.h **** /**
 572:Drivers/STM32H5xx_HAL_Driver/Inc/stm32h5xx_hal_pcd.h ****   * @brief  gets counter of the rx buffer0.
 573:Drivers/STM32H5xx_HAL_Driver/Inc/stm32h5xx_hal_pcd.h ****   * @param  Instance USB peripheral instance register address.
 574:Drivers/STM32H5xx_HAL_Driver/Inc/stm32h5xx_hal_pcd.h ****   * @param  bEpNum channel Number.
 575:Drivers/STM32H5xx_HAL_Driver/Inc/stm32h5xx_hal_pcd.h ****   * @retval Counter value
 576:Drivers/STM32H5xx_HAL_Driver/Inc/stm32h5xx_hal_pcd.h ****   */
 577:Drivers/STM32H5xx_HAL_Driver/Inc/stm32h5xx_hal_pcd.h **** __STATIC_INLINE uint16_t PCD_GET_EP_DBUF0_CNT(const PCD_TypeDef *Instance, uint16_t bEpNum)
 578:Drivers/STM32H5xx_HAL_Driver/Inc/stm32h5xx_hal_pcd.h **** {
  85              		.loc 2 578 1 is_stmt 1 view -0
  86              		.cfi_startproc
  87              		@ args = 0, pretend = 0, frame = 8
  88              		@ frame_needed = 0, uses_anonymous_args = 0
  89              		@ link register save eliminated.
  90              		.loc 2 578 1 is_stmt 0 view .LVU14
  91 0000 82B0     		sub	sp, sp, #8
  92              	.LCFI2:
  93              		.cfi_def_cfa_offset 8
 579:Drivers/STM32H5xx_HAL_Driver/Inc/stm32h5xx_hal_pcd.h ****   UNUSED(Instance);
  94              		.loc 2 579 3 is_stmt 1 view .LVU15
 580:Drivers/STM32H5xx_HAL_Driver/Inc/stm32h5xx_hal_pcd.h ****   __IO uint32_t count = PCD_RX_PMA_CNT;
  95              		.loc 2 580 3 view .LVU16
  96              		.loc 2 580 17 is_stmt 0 view .LVU17
  97 0002 0A23     		movs	r3, #10
  98 0004 0193     		str	r3, [sp, #4]
 581:Drivers/STM32H5xx_HAL_Driver/Inc/stm32h5xx_hal_pcd.h **** 
 582:Drivers/STM32H5xx_HAL_Driver/Inc/stm32h5xx_hal_pcd.h ****   /* WA: few cycles for RX PMA descriptor to update */
 583:Drivers/STM32H5xx_HAL_Driver/Inc/stm32h5xx_hal_pcd.h ****   while (count > 0U)
  99              		.loc 2 583 3 is_stmt 1 view .LVU18
 100              		.loc 2 583 9 is_stmt 0 view .LVU19
 101 0006 02E0     		b	.L6
 102              	.L7:
 584:Drivers/STM32H5xx_HAL_Driver/Inc/stm32h5xx_hal_pcd.h ****   {
ARM GAS  /var/folders/l3/rwskfq612tq4b7hmtv37jkjw0000gp/T//ccPIyasB.s 			page 13


 585:Drivers/STM32H5xx_HAL_Driver/Inc/stm32h5xx_hal_pcd.h ****     count--;
 103              		.loc 2 585 5 is_stmt 1 view .LVU20
 104              		.loc 2 585 10 is_stmt 0 view .LVU21
 105 0008 019B     		ldr	r3, [sp, #4]
 106 000a 013B     		subs	r3, r3, #1
 107 000c 0193     		str	r3, [sp, #4]
 108              	.L6:
 583:Drivers/STM32H5xx_HAL_Driver/Inc/stm32h5xx_hal_pcd.h ****   {
 109              		.loc 2 583 16 is_stmt 1 view .LVU22
 110 000e 019B     		ldr	r3, [sp, #4]
 111 0010 002B     		cmp	r3, #0
 112 0012 F9D1     		bne	.L7
 586:Drivers/STM32H5xx_HAL_Driver/Inc/stm32h5xx_hal_pcd.h ****   }
 587:Drivers/STM32H5xx_HAL_Driver/Inc/stm32h5xx_hal_pcd.h **** 
 588:Drivers/STM32H5xx_HAL_Driver/Inc/stm32h5xx_hal_pcd.h ****   return (uint16_t)USB_DRD_GET_CHEP_DBUF0_CNT((Instance), (bEpNum));
 113              		.loc 2 588 3 view .LVU23
 114              		.loc 2 588 20 is_stmt 0 view .LVU24
 115 0014 CB00     		lsls	r3, r1, #3
 116 0016 03F18043 		add	r3, r3, #1073741824
 117 001a 03F5B233 		add	r3, r3, #91136
 118 001e 1868     		ldr	r0, [r3]
 119              	.LVL3:
 589:Drivers/STM32H5xx_HAL_Driver/Inc/stm32h5xx_hal_pcd.h **** }
 120              		.loc 2 589 1 view .LVU25
 121 0020 C0F30940 		ubfx	r0, r0, #16, #10
 122 0024 02B0     		add	sp, sp, #8
 123              	.LCFI3:
 124              		.cfi_def_cfa_offset 0
 125              		@ sp needed
 126 0026 7047     		bx	lr
 127              		.cfi_endproc
 128              	.LFE328:
 130              		.section	.text.PCD_GET_EP_DBUF1_CNT,"ax",%progbits
 131              		.align	1
 132              		.syntax unified
 133              		.thumb
 134              		.thumb_func
 136              	PCD_GET_EP_DBUF1_CNT:
 137              	.LVL4:
 138              	.LFB329:
 590:Drivers/STM32H5xx_HAL_Driver/Inc/stm32h5xx_hal_pcd.h **** 
 591:Drivers/STM32H5xx_HAL_Driver/Inc/stm32h5xx_hal_pcd.h **** /**
 592:Drivers/STM32H5xx_HAL_Driver/Inc/stm32h5xx_hal_pcd.h ****   * @brief  gets counter of the rx buffer1.
 593:Drivers/STM32H5xx_HAL_Driver/Inc/stm32h5xx_hal_pcd.h ****   * @param  Instance USB peripheral instance register address.
 594:Drivers/STM32H5xx_HAL_Driver/Inc/stm32h5xx_hal_pcd.h ****   * @param  bEpNum channel Number.
 595:Drivers/STM32H5xx_HAL_Driver/Inc/stm32h5xx_hal_pcd.h ****   * @retval Counter value
 596:Drivers/STM32H5xx_HAL_Driver/Inc/stm32h5xx_hal_pcd.h ****   */
 597:Drivers/STM32H5xx_HAL_Driver/Inc/stm32h5xx_hal_pcd.h **** __STATIC_INLINE uint16_t PCD_GET_EP_DBUF1_CNT(const PCD_TypeDef *Instance, uint16_t bEpNum)
 598:Drivers/STM32H5xx_HAL_Driver/Inc/stm32h5xx_hal_pcd.h **** {
 139              		.loc 2 598 1 is_stmt 1 view -0
 140              		.cfi_startproc
 141              		@ args = 0, pretend = 0, frame = 8
 142              		@ frame_needed = 0, uses_anonymous_args = 0
 143              		@ link register save eliminated.
 144              		.loc 2 598 1 is_stmt 0 view .LVU27
 145 0000 82B0     		sub	sp, sp, #8
 146              	.LCFI4:
ARM GAS  /var/folders/l3/rwskfq612tq4b7hmtv37jkjw0000gp/T//ccPIyasB.s 			page 14


 147              		.cfi_def_cfa_offset 8
 599:Drivers/STM32H5xx_HAL_Driver/Inc/stm32h5xx_hal_pcd.h ****   UNUSED(Instance);
 148              		.loc 2 599 3 is_stmt 1 view .LVU28
 600:Drivers/STM32H5xx_HAL_Driver/Inc/stm32h5xx_hal_pcd.h ****   __IO uint32_t count = PCD_RX_PMA_CNT;
 149              		.loc 2 600 3 view .LVU29
 150              		.loc 2 600 17 is_stmt 0 view .LVU30
 151 0002 0A23     		movs	r3, #10
 152 0004 0193     		str	r3, [sp, #4]
 601:Drivers/STM32H5xx_HAL_Driver/Inc/stm32h5xx_hal_pcd.h **** 
 602:Drivers/STM32H5xx_HAL_Driver/Inc/stm32h5xx_hal_pcd.h ****   /* WA: few cycles for RX PMA descriptor to update */
 603:Drivers/STM32H5xx_HAL_Driver/Inc/stm32h5xx_hal_pcd.h ****   while (count > 0U)
 153              		.loc 2 603 3 is_stmt 1 view .LVU31
 154              		.loc 2 603 9 is_stmt 0 view .LVU32
 155 0006 02E0     		b	.L10
 156              	.L11:
 604:Drivers/STM32H5xx_HAL_Driver/Inc/stm32h5xx_hal_pcd.h ****   {
 605:Drivers/STM32H5xx_HAL_Driver/Inc/stm32h5xx_hal_pcd.h ****     count--;
 157              		.loc 2 605 5 is_stmt 1 view .LVU33
 158              		.loc 2 605 10 is_stmt 0 view .LVU34
 159 0008 019B     		ldr	r3, [sp, #4]
 160 000a 013B     		subs	r3, r3, #1
 161 000c 0193     		str	r3, [sp, #4]
 162              	.L10:
 603:Drivers/STM32H5xx_HAL_Driver/Inc/stm32h5xx_hal_pcd.h ****   {
 163              		.loc 2 603 16 is_stmt 1 view .LVU35
 164 000e 019B     		ldr	r3, [sp, #4]
 165 0010 002B     		cmp	r3, #0
 166 0012 F9D1     		bne	.L11
 606:Drivers/STM32H5xx_HAL_Driver/Inc/stm32h5xx_hal_pcd.h ****   }
 607:Drivers/STM32H5xx_HAL_Driver/Inc/stm32h5xx_hal_pcd.h **** 
 608:Drivers/STM32H5xx_HAL_Driver/Inc/stm32h5xx_hal_pcd.h ****   return (uint16_t)USB_DRD_GET_CHEP_DBUF1_CNT((Instance), (bEpNum));
 167              		.loc 2 608 3 view .LVU36
 168              		.loc 2 608 20 is_stmt 0 view .LVU37
 169 0014 CB00     		lsls	r3, r1, #3
 170 0016 03F18043 		add	r3, r3, #1073741824
 171 001a 03F5B233 		add	r3, r3, #91136
 172 001e 5868     		ldr	r0, [r3, #4]
 173              	.LVL5:
 609:Drivers/STM32H5xx_HAL_Driver/Inc/stm32h5xx_hal_pcd.h **** }
 174              		.loc 2 609 1 view .LVU38
 175 0020 C0F30940 		ubfx	r0, r0, #16, #10
 176 0024 02B0     		add	sp, sp, #8
 177              	.LCFI5:
 178              		.cfi_def_cfa_offset 0
 179              		@ sp needed
 180 0026 7047     		bx	lr
 181              		.cfi_endproc
 182              	.LFE329:
 184              		.section	.text.HAL_PCD_EP_DB_Receive,"ax",%progbits
 185              		.align	1
 186              		.syntax unified
 187              		.thumb
 188              		.thumb_func
 190              	HAL_PCD_EP_DB_Receive:
 191              	.LVL6:
 192              	.LFB364:
   1:Drivers/STM32H5xx_HAL_Driver/Src/stm32h5xx_hal_pcd.c **** /**
ARM GAS  /var/folders/l3/rwskfq612tq4b7hmtv37jkjw0000gp/T//ccPIyasB.s 			page 15


   2:Drivers/STM32H5xx_HAL_Driver/Src/stm32h5xx_hal_pcd.c ****   ******************************************************************************
   3:Drivers/STM32H5xx_HAL_Driver/Src/stm32h5xx_hal_pcd.c ****   * @file    stm32h5xx_hal_pcd.c
   4:Drivers/STM32H5xx_HAL_Driver/Src/stm32h5xx_hal_pcd.c ****   * @author  MCD Application Team
   5:Drivers/STM32H5xx_HAL_Driver/Src/stm32h5xx_hal_pcd.c ****   * @brief   PCD HAL module driver.
   6:Drivers/STM32H5xx_HAL_Driver/Src/stm32h5xx_hal_pcd.c ****   *          This file provides firmware functions to manage the following
   7:Drivers/STM32H5xx_HAL_Driver/Src/stm32h5xx_hal_pcd.c ****   *          functionalities of the USB Peripheral Controller:
   8:Drivers/STM32H5xx_HAL_Driver/Src/stm32h5xx_hal_pcd.c ****   *           + Initialization and de-initialization functions
   9:Drivers/STM32H5xx_HAL_Driver/Src/stm32h5xx_hal_pcd.c ****   *           + IO operation functions
  10:Drivers/STM32H5xx_HAL_Driver/Src/stm32h5xx_hal_pcd.c ****   *           + Peripheral Control functions
  11:Drivers/STM32H5xx_HAL_Driver/Src/stm32h5xx_hal_pcd.c ****   *           + Peripheral State functions
  12:Drivers/STM32H5xx_HAL_Driver/Src/stm32h5xx_hal_pcd.c ****   *
  13:Drivers/STM32H5xx_HAL_Driver/Src/stm32h5xx_hal_pcd.c ****   ******************************************************************************
  14:Drivers/STM32H5xx_HAL_Driver/Src/stm32h5xx_hal_pcd.c ****   * @attention
  15:Drivers/STM32H5xx_HAL_Driver/Src/stm32h5xx_hal_pcd.c ****   *
  16:Drivers/STM32H5xx_HAL_Driver/Src/stm32h5xx_hal_pcd.c ****   * Copyright (c) 2023 STMicroelectronics.
  17:Drivers/STM32H5xx_HAL_Driver/Src/stm32h5xx_hal_pcd.c ****   * All rights reserved.
  18:Drivers/STM32H5xx_HAL_Driver/Src/stm32h5xx_hal_pcd.c ****   *
  19:Drivers/STM32H5xx_HAL_Driver/Src/stm32h5xx_hal_pcd.c ****   * This software is licensed under terms that can be found in the LICENSE file
  20:Drivers/STM32H5xx_HAL_Driver/Src/stm32h5xx_hal_pcd.c ****   * in the root directory of this software component.
  21:Drivers/STM32H5xx_HAL_Driver/Src/stm32h5xx_hal_pcd.c ****   * If no LICENSE file comes with this software, it is provided AS-IS.
  22:Drivers/STM32H5xx_HAL_Driver/Src/stm32h5xx_hal_pcd.c ****   *
  23:Drivers/STM32H5xx_HAL_Driver/Src/stm32h5xx_hal_pcd.c ****   ******************************************************************************
  24:Drivers/STM32H5xx_HAL_Driver/Src/stm32h5xx_hal_pcd.c ****   @verbatim
  25:Drivers/STM32H5xx_HAL_Driver/Src/stm32h5xx_hal_pcd.c ****   ==============================================================================
  26:Drivers/STM32H5xx_HAL_Driver/Src/stm32h5xx_hal_pcd.c ****                     ##### How to use this driver #####
  27:Drivers/STM32H5xx_HAL_Driver/Src/stm32h5xx_hal_pcd.c ****   ==============================================================================
  28:Drivers/STM32H5xx_HAL_Driver/Src/stm32h5xx_hal_pcd.c ****     [..]
  29:Drivers/STM32H5xx_HAL_Driver/Src/stm32h5xx_hal_pcd.c ****       The PCD HAL driver can be used as follows:
  30:Drivers/STM32H5xx_HAL_Driver/Src/stm32h5xx_hal_pcd.c **** 
  31:Drivers/STM32H5xx_HAL_Driver/Src/stm32h5xx_hal_pcd.c ****      (#) Declare a PCD_HandleTypeDef handle structure, for example:
  32:Drivers/STM32H5xx_HAL_Driver/Src/stm32h5xx_hal_pcd.c ****          PCD_HandleTypeDef  hpcd;
  33:Drivers/STM32H5xx_HAL_Driver/Src/stm32h5xx_hal_pcd.c **** 
  34:Drivers/STM32H5xx_HAL_Driver/Src/stm32h5xx_hal_pcd.c ****      (#) Fill parameters of Init structure in HCD handle
  35:Drivers/STM32H5xx_HAL_Driver/Src/stm32h5xx_hal_pcd.c **** 
  36:Drivers/STM32H5xx_HAL_Driver/Src/stm32h5xx_hal_pcd.c ****      (#) Call HAL_PCD_Init() API to initialize the PCD peripheral (Core, Device core, ...)
  37:Drivers/STM32H5xx_HAL_Driver/Src/stm32h5xx_hal_pcd.c **** 
  38:Drivers/STM32H5xx_HAL_Driver/Src/stm32h5xx_hal_pcd.c ****      (#) Initialize the PCD low level resources through the HAL_PCD_MspInit() API:
  39:Drivers/STM32H5xx_HAL_Driver/Src/stm32h5xx_hal_pcd.c ****          (##) Enable the PCD/USB Low Level interface clock using
  40:Drivers/STM32H5xx_HAL_Driver/Src/stm32h5xx_hal_pcd.c ****               (+++) __HAL_RCC_USB_CLK_ENABLE(); For USB Device FS peripheral
  41:Drivers/STM32H5xx_HAL_Driver/Src/stm32h5xx_hal_pcd.c **** 
  42:Drivers/STM32H5xx_HAL_Driver/Src/stm32h5xx_hal_pcd.c ****          (##) Initialize the related GPIO clocks
  43:Drivers/STM32H5xx_HAL_Driver/Src/stm32h5xx_hal_pcd.c ****          (##) Configure PCD pin-out
  44:Drivers/STM32H5xx_HAL_Driver/Src/stm32h5xx_hal_pcd.c ****          (##) Configure PCD NVIC interrupt
  45:Drivers/STM32H5xx_HAL_Driver/Src/stm32h5xx_hal_pcd.c **** 
  46:Drivers/STM32H5xx_HAL_Driver/Src/stm32h5xx_hal_pcd.c ****      (#)Associate the Upper USB device stack to the HAL PCD Driver:
  47:Drivers/STM32H5xx_HAL_Driver/Src/stm32h5xx_hal_pcd.c ****          (##) hpcd.pData = pdev;
  48:Drivers/STM32H5xx_HAL_Driver/Src/stm32h5xx_hal_pcd.c **** 
  49:Drivers/STM32H5xx_HAL_Driver/Src/stm32h5xx_hal_pcd.c ****      (#)Enable PCD transmission and reception:
  50:Drivers/STM32H5xx_HAL_Driver/Src/stm32h5xx_hal_pcd.c ****          (##) HAL_PCD_Start();
  51:Drivers/STM32H5xx_HAL_Driver/Src/stm32h5xx_hal_pcd.c **** 
  52:Drivers/STM32H5xx_HAL_Driver/Src/stm32h5xx_hal_pcd.c ****   @endverbatim
  53:Drivers/STM32H5xx_HAL_Driver/Src/stm32h5xx_hal_pcd.c ****   ******************************************************************************
  54:Drivers/STM32H5xx_HAL_Driver/Src/stm32h5xx_hal_pcd.c ****   */
  55:Drivers/STM32H5xx_HAL_Driver/Src/stm32h5xx_hal_pcd.c **** 
  56:Drivers/STM32H5xx_HAL_Driver/Src/stm32h5xx_hal_pcd.c **** /* Includes ------------------------------------------------------------------*/
  57:Drivers/STM32H5xx_HAL_Driver/Src/stm32h5xx_hal_pcd.c **** #include "stm32h5xx_hal.h"
  58:Drivers/STM32H5xx_HAL_Driver/Src/stm32h5xx_hal_pcd.c **** 
ARM GAS  /var/folders/l3/rwskfq612tq4b7hmtv37jkjw0000gp/T//ccPIyasB.s 			page 16


  59:Drivers/STM32H5xx_HAL_Driver/Src/stm32h5xx_hal_pcd.c **** /** @addtogroup STM32H5xx_HAL_Driver
  60:Drivers/STM32H5xx_HAL_Driver/Src/stm32h5xx_hal_pcd.c ****   * @{
  61:Drivers/STM32H5xx_HAL_Driver/Src/stm32h5xx_hal_pcd.c ****   */
  62:Drivers/STM32H5xx_HAL_Driver/Src/stm32h5xx_hal_pcd.c **** 
  63:Drivers/STM32H5xx_HAL_Driver/Src/stm32h5xx_hal_pcd.c **** /** @defgroup PCD PCD
  64:Drivers/STM32H5xx_HAL_Driver/Src/stm32h5xx_hal_pcd.c ****   * @brief PCD HAL module driver
  65:Drivers/STM32H5xx_HAL_Driver/Src/stm32h5xx_hal_pcd.c ****   * @{
  66:Drivers/STM32H5xx_HAL_Driver/Src/stm32h5xx_hal_pcd.c ****   */
  67:Drivers/STM32H5xx_HAL_Driver/Src/stm32h5xx_hal_pcd.c **** 
  68:Drivers/STM32H5xx_HAL_Driver/Src/stm32h5xx_hal_pcd.c **** #ifdef HAL_PCD_MODULE_ENABLED
  69:Drivers/STM32H5xx_HAL_Driver/Src/stm32h5xx_hal_pcd.c **** 
  70:Drivers/STM32H5xx_HAL_Driver/Src/stm32h5xx_hal_pcd.c **** #if defined (USB_DRD_FS)
  71:Drivers/STM32H5xx_HAL_Driver/Src/stm32h5xx_hal_pcd.c **** 
  72:Drivers/STM32H5xx_HAL_Driver/Src/stm32h5xx_hal_pcd.c **** /* Private types -------------------------------------------------------------*/
  73:Drivers/STM32H5xx_HAL_Driver/Src/stm32h5xx_hal_pcd.c **** /* Private variables ---------------------------------------------------------*/
  74:Drivers/STM32H5xx_HAL_Driver/Src/stm32h5xx_hal_pcd.c **** /* Private constants ---------------------------------------------------------*/
  75:Drivers/STM32H5xx_HAL_Driver/Src/stm32h5xx_hal_pcd.c **** /* Private macros ------------------------------------------------------------*/
  76:Drivers/STM32H5xx_HAL_Driver/Src/stm32h5xx_hal_pcd.c **** /** @defgroup PCD_Private_Macros PCD Private Macros
  77:Drivers/STM32H5xx_HAL_Driver/Src/stm32h5xx_hal_pcd.c ****   * @{
  78:Drivers/STM32H5xx_HAL_Driver/Src/stm32h5xx_hal_pcd.c ****   */
  79:Drivers/STM32H5xx_HAL_Driver/Src/stm32h5xx_hal_pcd.c **** #define PCD_MIN(a, b)  (((a) < (b)) ? (a) : (b))
  80:Drivers/STM32H5xx_HAL_Driver/Src/stm32h5xx_hal_pcd.c **** #define PCD_MAX(a, b)  (((a) > (b)) ? (a) : (b))
  81:Drivers/STM32H5xx_HAL_Driver/Src/stm32h5xx_hal_pcd.c **** /**
  82:Drivers/STM32H5xx_HAL_Driver/Src/stm32h5xx_hal_pcd.c ****   * @}
  83:Drivers/STM32H5xx_HAL_Driver/Src/stm32h5xx_hal_pcd.c ****   */
  84:Drivers/STM32H5xx_HAL_Driver/Src/stm32h5xx_hal_pcd.c **** 
  85:Drivers/STM32H5xx_HAL_Driver/Src/stm32h5xx_hal_pcd.c **** /* Private functions prototypes ----------------------------------------------*/
  86:Drivers/STM32H5xx_HAL_Driver/Src/stm32h5xx_hal_pcd.c **** /** @defgroup PCD_Private_Functions PCD Private Functions
  87:Drivers/STM32H5xx_HAL_Driver/Src/stm32h5xx_hal_pcd.c ****   * @{
  88:Drivers/STM32H5xx_HAL_Driver/Src/stm32h5xx_hal_pcd.c ****   */
  89:Drivers/STM32H5xx_HAL_Driver/Src/stm32h5xx_hal_pcd.c **** 
  90:Drivers/STM32H5xx_HAL_Driver/Src/stm32h5xx_hal_pcd.c **** static HAL_StatusTypeDef PCD_EP_ISR_Handler(PCD_HandleTypeDef *hpcd);
  91:Drivers/STM32H5xx_HAL_Driver/Src/stm32h5xx_hal_pcd.c **** #if (USE_USB_DOUBLE_BUFFER == 1U)
  92:Drivers/STM32H5xx_HAL_Driver/Src/stm32h5xx_hal_pcd.c **** static HAL_StatusTypeDef HAL_PCD_EP_DB_Transmit(PCD_HandleTypeDef *hpcd, PCD_EPTypeDef *ep, uint16_
  93:Drivers/STM32H5xx_HAL_Driver/Src/stm32h5xx_hal_pcd.c **** static uint16_t HAL_PCD_EP_DB_Receive(PCD_HandleTypeDef *hpcd, PCD_EPTypeDef *ep, uint16_t wEPVal);
  94:Drivers/STM32H5xx_HAL_Driver/Src/stm32h5xx_hal_pcd.c **** #endif /* (USE_USB_DOUBLE_BUFFER == 1U) */
  95:Drivers/STM32H5xx_HAL_Driver/Src/stm32h5xx_hal_pcd.c **** 
  96:Drivers/STM32H5xx_HAL_Driver/Src/stm32h5xx_hal_pcd.c **** /**
  97:Drivers/STM32H5xx_HAL_Driver/Src/stm32h5xx_hal_pcd.c ****   * @}
  98:Drivers/STM32H5xx_HAL_Driver/Src/stm32h5xx_hal_pcd.c ****   */
  99:Drivers/STM32H5xx_HAL_Driver/Src/stm32h5xx_hal_pcd.c **** 
 100:Drivers/STM32H5xx_HAL_Driver/Src/stm32h5xx_hal_pcd.c **** /* Exported functions --------------------------------------------------------*/
 101:Drivers/STM32H5xx_HAL_Driver/Src/stm32h5xx_hal_pcd.c **** /** @defgroup PCD_Exported_Functions PCD Exported Functions
 102:Drivers/STM32H5xx_HAL_Driver/Src/stm32h5xx_hal_pcd.c ****   * @{
 103:Drivers/STM32H5xx_HAL_Driver/Src/stm32h5xx_hal_pcd.c ****   */
 104:Drivers/STM32H5xx_HAL_Driver/Src/stm32h5xx_hal_pcd.c **** 
 105:Drivers/STM32H5xx_HAL_Driver/Src/stm32h5xx_hal_pcd.c **** /** @defgroup PCD_Exported_Functions_Group1 Initialization and de-initialization functions
 106:Drivers/STM32H5xx_HAL_Driver/Src/stm32h5xx_hal_pcd.c ****   *  @brief    Initialization and Configuration functions
 107:Drivers/STM32H5xx_HAL_Driver/Src/stm32h5xx_hal_pcd.c ****   *
 108:Drivers/STM32H5xx_HAL_Driver/Src/stm32h5xx_hal_pcd.c **** @verbatim
 109:Drivers/STM32H5xx_HAL_Driver/Src/stm32h5xx_hal_pcd.c ****  ===============================================================================
 110:Drivers/STM32H5xx_HAL_Driver/Src/stm32h5xx_hal_pcd.c ****             ##### Initialization and de-initialization functions #####
 111:Drivers/STM32H5xx_HAL_Driver/Src/stm32h5xx_hal_pcd.c ****  ===============================================================================
 112:Drivers/STM32H5xx_HAL_Driver/Src/stm32h5xx_hal_pcd.c ****     [..]  This section provides functions allowing to:
 113:Drivers/STM32H5xx_HAL_Driver/Src/stm32h5xx_hal_pcd.c **** 
 114:Drivers/STM32H5xx_HAL_Driver/Src/stm32h5xx_hal_pcd.c **** @endverbatim
 115:Drivers/STM32H5xx_HAL_Driver/Src/stm32h5xx_hal_pcd.c ****   * @{
ARM GAS  /var/folders/l3/rwskfq612tq4b7hmtv37jkjw0000gp/T//ccPIyasB.s 			page 17


 116:Drivers/STM32H5xx_HAL_Driver/Src/stm32h5xx_hal_pcd.c ****   */
 117:Drivers/STM32H5xx_HAL_Driver/Src/stm32h5xx_hal_pcd.c **** 
 118:Drivers/STM32H5xx_HAL_Driver/Src/stm32h5xx_hal_pcd.c **** /**
 119:Drivers/STM32H5xx_HAL_Driver/Src/stm32h5xx_hal_pcd.c ****   * @brief  Initializes the PCD according to the specified
 120:Drivers/STM32H5xx_HAL_Driver/Src/stm32h5xx_hal_pcd.c ****   *         parameters in the PCD_InitTypeDef and initialize the associated handle.
 121:Drivers/STM32H5xx_HAL_Driver/Src/stm32h5xx_hal_pcd.c ****   * @param  hpcd PCD handle
 122:Drivers/STM32H5xx_HAL_Driver/Src/stm32h5xx_hal_pcd.c ****   * @retval HAL status
 123:Drivers/STM32H5xx_HAL_Driver/Src/stm32h5xx_hal_pcd.c ****   */
 124:Drivers/STM32H5xx_HAL_Driver/Src/stm32h5xx_hal_pcd.c **** HAL_StatusTypeDef HAL_PCD_Init(PCD_HandleTypeDef *hpcd)
 125:Drivers/STM32H5xx_HAL_Driver/Src/stm32h5xx_hal_pcd.c **** {
 126:Drivers/STM32H5xx_HAL_Driver/Src/stm32h5xx_hal_pcd.c ****   uint8_t i;
 127:Drivers/STM32H5xx_HAL_Driver/Src/stm32h5xx_hal_pcd.c **** 
 128:Drivers/STM32H5xx_HAL_Driver/Src/stm32h5xx_hal_pcd.c ****   /* Check the PCD handle allocation */
 129:Drivers/STM32H5xx_HAL_Driver/Src/stm32h5xx_hal_pcd.c ****   if (hpcd == NULL)
 130:Drivers/STM32H5xx_HAL_Driver/Src/stm32h5xx_hal_pcd.c ****   {
 131:Drivers/STM32H5xx_HAL_Driver/Src/stm32h5xx_hal_pcd.c ****     return HAL_ERROR;
 132:Drivers/STM32H5xx_HAL_Driver/Src/stm32h5xx_hal_pcd.c ****   }
 133:Drivers/STM32H5xx_HAL_Driver/Src/stm32h5xx_hal_pcd.c **** 
 134:Drivers/STM32H5xx_HAL_Driver/Src/stm32h5xx_hal_pcd.c ****   /* Check the parameters */
 135:Drivers/STM32H5xx_HAL_Driver/Src/stm32h5xx_hal_pcd.c ****   assert_param(IS_PCD_ALL_INSTANCE(hpcd->Instance));
 136:Drivers/STM32H5xx_HAL_Driver/Src/stm32h5xx_hal_pcd.c **** 
 137:Drivers/STM32H5xx_HAL_Driver/Src/stm32h5xx_hal_pcd.c ****   if (hpcd->State == HAL_PCD_STATE_RESET)
 138:Drivers/STM32H5xx_HAL_Driver/Src/stm32h5xx_hal_pcd.c ****   {
 139:Drivers/STM32H5xx_HAL_Driver/Src/stm32h5xx_hal_pcd.c ****     /* Allocate lock resource and initialize it */
 140:Drivers/STM32H5xx_HAL_Driver/Src/stm32h5xx_hal_pcd.c ****     hpcd->Lock = HAL_UNLOCKED;
 141:Drivers/STM32H5xx_HAL_Driver/Src/stm32h5xx_hal_pcd.c **** 
 142:Drivers/STM32H5xx_HAL_Driver/Src/stm32h5xx_hal_pcd.c **** #if (USE_HAL_PCD_REGISTER_CALLBACKS == 1U)
 143:Drivers/STM32H5xx_HAL_Driver/Src/stm32h5xx_hal_pcd.c ****     hpcd->SOFCallback = HAL_PCD_SOFCallback;
 144:Drivers/STM32H5xx_HAL_Driver/Src/stm32h5xx_hal_pcd.c ****     hpcd->SetupStageCallback = HAL_PCD_SetupStageCallback;
 145:Drivers/STM32H5xx_HAL_Driver/Src/stm32h5xx_hal_pcd.c ****     hpcd->ResetCallback = HAL_PCD_ResetCallback;
 146:Drivers/STM32H5xx_HAL_Driver/Src/stm32h5xx_hal_pcd.c ****     hpcd->SuspendCallback = HAL_PCD_SuspendCallback;
 147:Drivers/STM32H5xx_HAL_Driver/Src/stm32h5xx_hal_pcd.c ****     hpcd->ResumeCallback = HAL_PCD_ResumeCallback;
 148:Drivers/STM32H5xx_HAL_Driver/Src/stm32h5xx_hal_pcd.c ****     hpcd->ConnectCallback = HAL_PCD_ConnectCallback;
 149:Drivers/STM32H5xx_HAL_Driver/Src/stm32h5xx_hal_pcd.c ****     hpcd->DisconnectCallback = HAL_PCD_DisconnectCallback;
 150:Drivers/STM32H5xx_HAL_Driver/Src/stm32h5xx_hal_pcd.c ****     hpcd->DataOutStageCallback = HAL_PCD_DataOutStageCallback;
 151:Drivers/STM32H5xx_HAL_Driver/Src/stm32h5xx_hal_pcd.c ****     hpcd->DataInStageCallback = HAL_PCD_DataInStageCallback;
 152:Drivers/STM32H5xx_HAL_Driver/Src/stm32h5xx_hal_pcd.c ****     hpcd->ISOOUTIncompleteCallback = HAL_PCD_ISOOUTIncompleteCallback;
 153:Drivers/STM32H5xx_HAL_Driver/Src/stm32h5xx_hal_pcd.c ****     hpcd->ISOINIncompleteCallback = HAL_PCD_ISOINIncompleteCallback;
 154:Drivers/STM32H5xx_HAL_Driver/Src/stm32h5xx_hal_pcd.c ****     hpcd->LPMCallback = HAL_PCDEx_LPM_Callback;
 155:Drivers/STM32H5xx_HAL_Driver/Src/stm32h5xx_hal_pcd.c ****     hpcd->BCDCallback = HAL_PCDEx_BCD_Callback;
 156:Drivers/STM32H5xx_HAL_Driver/Src/stm32h5xx_hal_pcd.c **** 
 157:Drivers/STM32H5xx_HAL_Driver/Src/stm32h5xx_hal_pcd.c ****     if (hpcd->MspInitCallback == NULL)
 158:Drivers/STM32H5xx_HAL_Driver/Src/stm32h5xx_hal_pcd.c ****     {
 159:Drivers/STM32H5xx_HAL_Driver/Src/stm32h5xx_hal_pcd.c ****       hpcd->MspInitCallback = HAL_PCD_MspInit;
 160:Drivers/STM32H5xx_HAL_Driver/Src/stm32h5xx_hal_pcd.c ****     }
 161:Drivers/STM32H5xx_HAL_Driver/Src/stm32h5xx_hal_pcd.c **** 
 162:Drivers/STM32H5xx_HAL_Driver/Src/stm32h5xx_hal_pcd.c ****     /* Init the low level hardware */
 163:Drivers/STM32H5xx_HAL_Driver/Src/stm32h5xx_hal_pcd.c ****     hpcd->MspInitCallback(hpcd);
 164:Drivers/STM32H5xx_HAL_Driver/Src/stm32h5xx_hal_pcd.c **** #else
 165:Drivers/STM32H5xx_HAL_Driver/Src/stm32h5xx_hal_pcd.c ****     /* Init the low level hardware : GPIO, CLOCK, NVIC... */
 166:Drivers/STM32H5xx_HAL_Driver/Src/stm32h5xx_hal_pcd.c ****     HAL_PCD_MspInit(hpcd);
 167:Drivers/STM32H5xx_HAL_Driver/Src/stm32h5xx_hal_pcd.c **** #endif /* (USE_HAL_PCD_REGISTER_CALLBACKS) */
 168:Drivers/STM32H5xx_HAL_Driver/Src/stm32h5xx_hal_pcd.c ****   }
 169:Drivers/STM32H5xx_HAL_Driver/Src/stm32h5xx_hal_pcd.c **** 
 170:Drivers/STM32H5xx_HAL_Driver/Src/stm32h5xx_hal_pcd.c ****   hpcd->State = HAL_PCD_STATE_BUSY;
 171:Drivers/STM32H5xx_HAL_Driver/Src/stm32h5xx_hal_pcd.c **** 
 172:Drivers/STM32H5xx_HAL_Driver/Src/stm32h5xx_hal_pcd.c ****   /* Disable the Interrupts */
ARM GAS  /var/folders/l3/rwskfq612tq4b7hmtv37jkjw0000gp/T//ccPIyasB.s 			page 18


 173:Drivers/STM32H5xx_HAL_Driver/Src/stm32h5xx_hal_pcd.c ****   __HAL_PCD_DISABLE(hpcd);
 174:Drivers/STM32H5xx_HAL_Driver/Src/stm32h5xx_hal_pcd.c **** 
 175:Drivers/STM32H5xx_HAL_Driver/Src/stm32h5xx_hal_pcd.c ****   /* Init endpoints structures */
 176:Drivers/STM32H5xx_HAL_Driver/Src/stm32h5xx_hal_pcd.c ****   for (i = 0U; i < hpcd->Init.dev_endpoints; i++)
 177:Drivers/STM32H5xx_HAL_Driver/Src/stm32h5xx_hal_pcd.c ****   {
 178:Drivers/STM32H5xx_HAL_Driver/Src/stm32h5xx_hal_pcd.c ****     /* Init ep structure */
 179:Drivers/STM32H5xx_HAL_Driver/Src/stm32h5xx_hal_pcd.c ****     hpcd->IN_ep[i].is_in = 1U;
 180:Drivers/STM32H5xx_HAL_Driver/Src/stm32h5xx_hal_pcd.c ****     hpcd->IN_ep[i].num = i;
 181:Drivers/STM32H5xx_HAL_Driver/Src/stm32h5xx_hal_pcd.c ****     /* Control until ep is activated */
 182:Drivers/STM32H5xx_HAL_Driver/Src/stm32h5xx_hal_pcd.c ****     hpcd->IN_ep[i].type = EP_TYPE_CTRL;
 183:Drivers/STM32H5xx_HAL_Driver/Src/stm32h5xx_hal_pcd.c ****     hpcd->IN_ep[i].maxpacket = 0U;
 184:Drivers/STM32H5xx_HAL_Driver/Src/stm32h5xx_hal_pcd.c ****     hpcd->IN_ep[i].xfer_buff = 0U;
 185:Drivers/STM32H5xx_HAL_Driver/Src/stm32h5xx_hal_pcd.c ****     hpcd->IN_ep[i].xfer_len = 0U;
 186:Drivers/STM32H5xx_HAL_Driver/Src/stm32h5xx_hal_pcd.c ****   }
 187:Drivers/STM32H5xx_HAL_Driver/Src/stm32h5xx_hal_pcd.c **** 
 188:Drivers/STM32H5xx_HAL_Driver/Src/stm32h5xx_hal_pcd.c ****   for (i = 0U; i < hpcd->Init.dev_endpoints; i++)
 189:Drivers/STM32H5xx_HAL_Driver/Src/stm32h5xx_hal_pcd.c ****   {
 190:Drivers/STM32H5xx_HAL_Driver/Src/stm32h5xx_hal_pcd.c ****     hpcd->OUT_ep[i].is_in = 0U;
 191:Drivers/STM32H5xx_HAL_Driver/Src/stm32h5xx_hal_pcd.c ****     hpcd->OUT_ep[i].num = i;
 192:Drivers/STM32H5xx_HAL_Driver/Src/stm32h5xx_hal_pcd.c ****     /* Control until ep is activated */
 193:Drivers/STM32H5xx_HAL_Driver/Src/stm32h5xx_hal_pcd.c ****     hpcd->OUT_ep[i].type = EP_TYPE_CTRL;
 194:Drivers/STM32H5xx_HAL_Driver/Src/stm32h5xx_hal_pcd.c ****     hpcd->OUT_ep[i].maxpacket = 0U;
 195:Drivers/STM32H5xx_HAL_Driver/Src/stm32h5xx_hal_pcd.c ****     hpcd->OUT_ep[i].xfer_buff = 0U;
 196:Drivers/STM32H5xx_HAL_Driver/Src/stm32h5xx_hal_pcd.c ****     hpcd->OUT_ep[i].xfer_len = 0U;
 197:Drivers/STM32H5xx_HAL_Driver/Src/stm32h5xx_hal_pcd.c ****   }
 198:Drivers/STM32H5xx_HAL_Driver/Src/stm32h5xx_hal_pcd.c **** 
 199:Drivers/STM32H5xx_HAL_Driver/Src/stm32h5xx_hal_pcd.c ****   /* Init Device */
 200:Drivers/STM32H5xx_HAL_Driver/Src/stm32h5xx_hal_pcd.c ****   (void)USB_DevInit(hpcd->Instance, hpcd->Init);
 201:Drivers/STM32H5xx_HAL_Driver/Src/stm32h5xx_hal_pcd.c **** 
 202:Drivers/STM32H5xx_HAL_Driver/Src/stm32h5xx_hal_pcd.c ****   hpcd->USB_Address = 0U;
 203:Drivers/STM32H5xx_HAL_Driver/Src/stm32h5xx_hal_pcd.c ****   hpcd->State = HAL_PCD_STATE_READY;
 204:Drivers/STM32H5xx_HAL_Driver/Src/stm32h5xx_hal_pcd.c **** 
 205:Drivers/STM32H5xx_HAL_Driver/Src/stm32h5xx_hal_pcd.c ****   /* Activate LPM */
 206:Drivers/STM32H5xx_HAL_Driver/Src/stm32h5xx_hal_pcd.c ****   if (hpcd->Init.lpm_enable == 1U)
 207:Drivers/STM32H5xx_HAL_Driver/Src/stm32h5xx_hal_pcd.c ****   {
 208:Drivers/STM32H5xx_HAL_Driver/Src/stm32h5xx_hal_pcd.c ****     (void)HAL_PCDEx_ActivateLPM(hpcd);
 209:Drivers/STM32H5xx_HAL_Driver/Src/stm32h5xx_hal_pcd.c ****   }
 210:Drivers/STM32H5xx_HAL_Driver/Src/stm32h5xx_hal_pcd.c **** 
 211:Drivers/STM32H5xx_HAL_Driver/Src/stm32h5xx_hal_pcd.c ****   return HAL_OK;
 212:Drivers/STM32H5xx_HAL_Driver/Src/stm32h5xx_hal_pcd.c **** }
 213:Drivers/STM32H5xx_HAL_Driver/Src/stm32h5xx_hal_pcd.c **** 
 214:Drivers/STM32H5xx_HAL_Driver/Src/stm32h5xx_hal_pcd.c **** /**
 215:Drivers/STM32H5xx_HAL_Driver/Src/stm32h5xx_hal_pcd.c ****   * @brief  DeInitializes the PCD peripheral.
 216:Drivers/STM32H5xx_HAL_Driver/Src/stm32h5xx_hal_pcd.c ****   * @param  hpcd PCD handle
 217:Drivers/STM32H5xx_HAL_Driver/Src/stm32h5xx_hal_pcd.c ****   * @retval HAL status
 218:Drivers/STM32H5xx_HAL_Driver/Src/stm32h5xx_hal_pcd.c ****   */
 219:Drivers/STM32H5xx_HAL_Driver/Src/stm32h5xx_hal_pcd.c **** HAL_StatusTypeDef HAL_PCD_DeInit(PCD_HandleTypeDef *hpcd)
 220:Drivers/STM32H5xx_HAL_Driver/Src/stm32h5xx_hal_pcd.c **** {
 221:Drivers/STM32H5xx_HAL_Driver/Src/stm32h5xx_hal_pcd.c ****   /* Check the PCD handle allocation */
 222:Drivers/STM32H5xx_HAL_Driver/Src/stm32h5xx_hal_pcd.c ****   if (hpcd == NULL)
 223:Drivers/STM32H5xx_HAL_Driver/Src/stm32h5xx_hal_pcd.c ****   {
 224:Drivers/STM32H5xx_HAL_Driver/Src/stm32h5xx_hal_pcd.c ****     return HAL_ERROR;
 225:Drivers/STM32H5xx_HAL_Driver/Src/stm32h5xx_hal_pcd.c ****   }
 226:Drivers/STM32H5xx_HAL_Driver/Src/stm32h5xx_hal_pcd.c **** 
 227:Drivers/STM32H5xx_HAL_Driver/Src/stm32h5xx_hal_pcd.c ****   hpcd->State = HAL_PCD_STATE_BUSY;
 228:Drivers/STM32H5xx_HAL_Driver/Src/stm32h5xx_hal_pcd.c **** 
 229:Drivers/STM32H5xx_HAL_Driver/Src/stm32h5xx_hal_pcd.c ****   /* Stop Device */
ARM GAS  /var/folders/l3/rwskfq612tq4b7hmtv37jkjw0000gp/T//ccPIyasB.s 			page 19


 230:Drivers/STM32H5xx_HAL_Driver/Src/stm32h5xx_hal_pcd.c ****   if (USB_StopDevice(hpcd->Instance) != HAL_OK)
 231:Drivers/STM32H5xx_HAL_Driver/Src/stm32h5xx_hal_pcd.c ****   {
 232:Drivers/STM32H5xx_HAL_Driver/Src/stm32h5xx_hal_pcd.c ****     return HAL_ERROR;
 233:Drivers/STM32H5xx_HAL_Driver/Src/stm32h5xx_hal_pcd.c ****   }
 234:Drivers/STM32H5xx_HAL_Driver/Src/stm32h5xx_hal_pcd.c **** 
 235:Drivers/STM32H5xx_HAL_Driver/Src/stm32h5xx_hal_pcd.c **** #if (USE_HAL_PCD_REGISTER_CALLBACKS == 1U)
 236:Drivers/STM32H5xx_HAL_Driver/Src/stm32h5xx_hal_pcd.c ****   if (hpcd->MspDeInitCallback == NULL)
 237:Drivers/STM32H5xx_HAL_Driver/Src/stm32h5xx_hal_pcd.c ****   {
 238:Drivers/STM32H5xx_HAL_Driver/Src/stm32h5xx_hal_pcd.c ****     hpcd->MspDeInitCallback = HAL_PCD_MspDeInit; /* Legacy weak MspDeInit  */
 239:Drivers/STM32H5xx_HAL_Driver/Src/stm32h5xx_hal_pcd.c ****   }
 240:Drivers/STM32H5xx_HAL_Driver/Src/stm32h5xx_hal_pcd.c **** 
 241:Drivers/STM32H5xx_HAL_Driver/Src/stm32h5xx_hal_pcd.c ****   /* DeInit the low level hardware */
 242:Drivers/STM32H5xx_HAL_Driver/Src/stm32h5xx_hal_pcd.c ****   hpcd->MspDeInitCallback(hpcd);
 243:Drivers/STM32H5xx_HAL_Driver/Src/stm32h5xx_hal_pcd.c **** #else
 244:Drivers/STM32H5xx_HAL_Driver/Src/stm32h5xx_hal_pcd.c ****   /* DeInit the low level hardware: CLOCK, NVIC.*/
 245:Drivers/STM32H5xx_HAL_Driver/Src/stm32h5xx_hal_pcd.c ****   HAL_PCD_MspDeInit(hpcd);
 246:Drivers/STM32H5xx_HAL_Driver/Src/stm32h5xx_hal_pcd.c **** #endif /* USE_HAL_PCD_REGISTER_CALLBACKS */
 247:Drivers/STM32H5xx_HAL_Driver/Src/stm32h5xx_hal_pcd.c **** 
 248:Drivers/STM32H5xx_HAL_Driver/Src/stm32h5xx_hal_pcd.c ****   hpcd->State = HAL_PCD_STATE_RESET;
 249:Drivers/STM32H5xx_HAL_Driver/Src/stm32h5xx_hal_pcd.c **** 
 250:Drivers/STM32H5xx_HAL_Driver/Src/stm32h5xx_hal_pcd.c ****   return HAL_OK;
 251:Drivers/STM32H5xx_HAL_Driver/Src/stm32h5xx_hal_pcd.c **** }
 252:Drivers/STM32H5xx_HAL_Driver/Src/stm32h5xx_hal_pcd.c **** 
 253:Drivers/STM32H5xx_HAL_Driver/Src/stm32h5xx_hal_pcd.c **** /**
 254:Drivers/STM32H5xx_HAL_Driver/Src/stm32h5xx_hal_pcd.c ****   * @brief  Initializes the PCD MSP.
 255:Drivers/STM32H5xx_HAL_Driver/Src/stm32h5xx_hal_pcd.c ****   * @param  hpcd PCD handle
 256:Drivers/STM32H5xx_HAL_Driver/Src/stm32h5xx_hal_pcd.c ****   * @retval None
 257:Drivers/STM32H5xx_HAL_Driver/Src/stm32h5xx_hal_pcd.c ****   */
 258:Drivers/STM32H5xx_HAL_Driver/Src/stm32h5xx_hal_pcd.c **** __weak void HAL_PCD_MspInit(PCD_HandleTypeDef *hpcd)
 259:Drivers/STM32H5xx_HAL_Driver/Src/stm32h5xx_hal_pcd.c **** {
 260:Drivers/STM32H5xx_HAL_Driver/Src/stm32h5xx_hal_pcd.c ****   /* Prevent unused argument(s) compilation warning */
 261:Drivers/STM32H5xx_HAL_Driver/Src/stm32h5xx_hal_pcd.c ****   UNUSED(hpcd);
 262:Drivers/STM32H5xx_HAL_Driver/Src/stm32h5xx_hal_pcd.c **** 
 263:Drivers/STM32H5xx_HAL_Driver/Src/stm32h5xx_hal_pcd.c ****   /* NOTE : This function should not be modified, when the callback is needed,
 264:Drivers/STM32H5xx_HAL_Driver/Src/stm32h5xx_hal_pcd.c ****             the HAL_PCD_MspInit could be implemented in the user file
 265:Drivers/STM32H5xx_HAL_Driver/Src/stm32h5xx_hal_pcd.c ****    */
 266:Drivers/STM32H5xx_HAL_Driver/Src/stm32h5xx_hal_pcd.c **** }
 267:Drivers/STM32H5xx_HAL_Driver/Src/stm32h5xx_hal_pcd.c **** 
 268:Drivers/STM32H5xx_HAL_Driver/Src/stm32h5xx_hal_pcd.c **** /**
 269:Drivers/STM32H5xx_HAL_Driver/Src/stm32h5xx_hal_pcd.c ****   * @brief  DeInitializes PCD MSP.
 270:Drivers/STM32H5xx_HAL_Driver/Src/stm32h5xx_hal_pcd.c ****   * @param  hpcd PCD handle
 271:Drivers/STM32H5xx_HAL_Driver/Src/stm32h5xx_hal_pcd.c ****   * @retval None
 272:Drivers/STM32H5xx_HAL_Driver/Src/stm32h5xx_hal_pcd.c ****   */
 273:Drivers/STM32H5xx_HAL_Driver/Src/stm32h5xx_hal_pcd.c **** __weak void HAL_PCD_MspDeInit(PCD_HandleTypeDef *hpcd)
 274:Drivers/STM32H5xx_HAL_Driver/Src/stm32h5xx_hal_pcd.c **** {
 275:Drivers/STM32H5xx_HAL_Driver/Src/stm32h5xx_hal_pcd.c ****   /* Prevent unused argument(s) compilation warning */
 276:Drivers/STM32H5xx_HAL_Driver/Src/stm32h5xx_hal_pcd.c ****   UNUSED(hpcd);
 277:Drivers/STM32H5xx_HAL_Driver/Src/stm32h5xx_hal_pcd.c **** 
 278:Drivers/STM32H5xx_HAL_Driver/Src/stm32h5xx_hal_pcd.c ****   /* NOTE : This function should not be modified, when the callback is needed,
 279:Drivers/STM32H5xx_HAL_Driver/Src/stm32h5xx_hal_pcd.c ****             the HAL_PCD_MspDeInit could be implemented in the user file
 280:Drivers/STM32H5xx_HAL_Driver/Src/stm32h5xx_hal_pcd.c ****    */
 281:Drivers/STM32H5xx_HAL_Driver/Src/stm32h5xx_hal_pcd.c **** }
 282:Drivers/STM32H5xx_HAL_Driver/Src/stm32h5xx_hal_pcd.c **** 
 283:Drivers/STM32H5xx_HAL_Driver/Src/stm32h5xx_hal_pcd.c **** #if (USE_HAL_PCD_REGISTER_CALLBACKS == 1U)
 284:Drivers/STM32H5xx_HAL_Driver/Src/stm32h5xx_hal_pcd.c **** /**
 285:Drivers/STM32H5xx_HAL_Driver/Src/stm32h5xx_hal_pcd.c ****   * @brief  Register a User USB PCD Callback
 286:Drivers/STM32H5xx_HAL_Driver/Src/stm32h5xx_hal_pcd.c ****   *         To be used instead of the weak predefined callback
ARM GAS  /var/folders/l3/rwskfq612tq4b7hmtv37jkjw0000gp/T//ccPIyasB.s 			page 20


 287:Drivers/STM32H5xx_HAL_Driver/Src/stm32h5xx_hal_pcd.c ****   * @param  hpcd USB PCD handle
 288:Drivers/STM32H5xx_HAL_Driver/Src/stm32h5xx_hal_pcd.c ****   * @param  CallbackID ID of the callback to be registered
 289:Drivers/STM32H5xx_HAL_Driver/Src/stm32h5xx_hal_pcd.c ****   *         This parameter can be one of the following values:
 290:Drivers/STM32H5xx_HAL_Driver/Src/stm32h5xx_hal_pcd.c ****   *          @arg @ref HAL_PCD_SOF_CB_ID USB PCD SOF callback ID
 291:Drivers/STM32H5xx_HAL_Driver/Src/stm32h5xx_hal_pcd.c ****   *          @arg @ref HAL_PCD_SETUPSTAGE_CB_ID USB PCD Setup callback ID
 292:Drivers/STM32H5xx_HAL_Driver/Src/stm32h5xx_hal_pcd.c ****   *          @arg @ref HAL_PCD_RESET_CB_ID USB PCD Reset callback ID
 293:Drivers/STM32H5xx_HAL_Driver/Src/stm32h5xx_hal_pcd.c ****   *          @arg @ref HAL_PCD_SUSPEND_CB_ID USB PCD Suspend callback ID
 294:Drivers/STM32H5xx_HAL_Driver/Src/stm32h5xx_hal_pcd.c ****   *          @arg @ref HAL_PCD_RESUME_CB_ID USB PCD Resume callback ID
 295:Drivers/STM32H5xx_HAL_Driver/Src/stm32h5xx_hal_pcd.c ****   *          @arg @ref HAL_PCD_CONNECT_CB_ID USB PCD Connect callback ID
 296:Drivers/STM32H5xx_HAL_Driver/Src/stm32h5xx_hal_pcd.c ****   *          @arg @ref HAL_PCD_DISCONNECT_CB_ID USB PCD Disconnect callback ID
 297:Drivers/STM32H5xx_HAL_Driver/Src/stm32h5xx_hal_pcd.c ****   *          @arg @ref HAL_PCD_MSPINIT_CB_ID MspDeInit callback ID
 298:Drivers/STM32H5xx_HAL_Driver/Src/stm32h5xx_hal_pcd.c ****   *          @arg @ref HAL_PCD_MSPDEINIT_CB_ID MspDeInit callback ID
 299:Drivers/STM32H5xx_HAL_Driver/Src/stm32h5xx_hal_pcd.c ****   * @param  pCallback pointer to the Callback function
 300:Drivers/STM32H5xx_HAL_Driver/Src/stm32h5xx_hal_pcd.c ****   * @retval HAL status
 301:Drivers/STM32H5xx_HAL_Driver/Src/stm32h5xx_hal_pcd.c ****   */
 302:Drivers/STM32H5xx_HAL_Driver/Src/stm32h5xx_hal_pcd.c **** HAL_StatusTypeDef HAL_PCD_RegisterCallback(PCD_HandleTypeDef *hpcd,
 303:Drivers/STM32H5xx_HAL_Driver/Src/stm32h5xx_hal_pcd.c ****                                            HAL_PCD_CallbackIDTypeDef CallbackID,
 304:Drivers/STM32H5xx_HAL_Driver/Src/stm32h5xx_hal_pcd.c ****                                            pPCD_CallbackTypeDef pCallback)
 305:Drivers/STM32H5xx_HAL_Driver/Src/stm32h5xx_hal_pcd.c **** {
 306:Drivers/STM32H5xx_HAL_Driver/Src/stm32h5xx_hal_pcd.c ****   HAL_StatusTypeDef status = HAL_OK;
 307:Drivers/STM32H5xx_HAL_Driver/Src/stm32h5xx_hal_pcd.c **** 
 308:Drivers/STM32H5xx_HAL_Driver/Src/stm32h5xx_hal_pcd.c ****   if (pCallback == NULL)
 309:Drivers/STM32H5xx_HAL_Driver/Src/stm32h5xx_hal_pcd.c ****   {
 310:Drivers/STM32H5xx_HAL_Driver/Src/stm32h5xx_hal_pcd.c ****     /* Update the error code */
 311:Drivers/STM32H5xx_HAL_Driver/Src/stm32h5xx_hal_pcd.c ****     hpcd->ErrorCode |= HAL_PCD_ERROR_INVALID_CALLBACK;
 312:Drivers/STM32H5xx_HAL_Driver/Src/stm32h5xx_hal_pcd.c ****     return HAL_ERROR;
 313:Drivers/STM32H5xx_HAL_Driver/Src/stm32h5xx_hal_pcd.c ****   }
 314:Drivers/STM32H5xx_HAL_Driver/Src/stm32h5xx_hal_pcd.c ****   /* Process locked */
 315:Drivers/STM32H5xx_HAL_Driver/Src/stm32h5xx_hal_pcd.c ****   __HAL_LOCK(hpcd);
 316:Drivers/STM32H5xx_HAL_Driver/Src/stm32h5xx_hal_pcd.c **** 
 317:Drivers/STM32H5xx_HAL_Driver/Src/stm32h5xx_hal_pcd.c ****   if (hpcd->State == HAL_PCD_STATE_READY)
 318:Drivers/STM32H5xx_HAL_Driver/Src/stm32h5xx_hal_pcd.c ****   {
 319:Drivers/STM32H5xx_HAL_Driver/Src/stm32h5xx_hal_pcd.c ****     switch (CallbackID)
 320:Drivers/STM32H5xx_HAL_Driver/Src/stm32h5xx_hal_pcd.c ****     {
 321:Drivers/STM32H5xx_HAL_Driver/Src/stm32h5xx_hal_pcd.c ****       case HAL_PCD_SOF_CB_ID :
 322:Drivers/STM32H5xx_HAL_Driver/Src/stm32h5xx_hal_pcd.c ****         hpcd->SOFCallback = pCallback;
 323:Drivers/STM32H5xx_HAL_Driver/Src/stm32h5xx_hal_pcd.c ****         break;
 324:Drivers/STM32H5xx_HAL_Driver/Src/stm32h5xx_hal_pcd.c **** 
 325:Drivers/STM32H5xx_HAL_Driver/Src/stm32h5xx_hal_pcd.c ****       case HAL_PCD_SETUPSTAGE_CB_ID :
 326:Drivers/STM32H5xx_HAL_Driver/Src/stm32h5xx_hal_pcd.c ****         hpcd->SetupStageCallback = pCallback;
 327:Drivers/STM32H5xx_HAL_Driver/Src/stm32h5xx_hal_pcd.c ****         break;
 328:Drivers/STM32H5xx_HAL_Driver/Src/stm32h5xx_hal_pcd.c **** 
 329:Drivers/STM32H5xx_HAL_Driver/Src/stm32h5xx_hal_pcd.c ****       case HAL_PCD_RESET_CB_ID :
 330:Drivers/STM32H5xx_HAL_Driver/Src/stm32h5xx_hal_pcd.c ****         hpcd->ResetCallback = pCallback;
 331:Drivers/STM32H5xx_HAL_Driver/Src/stm32h5xx_hal_pcd.c ****         break;
 332:Drivers/STM32H5xx_HAL_Driver/Src/stm32h5xx_hal_pcd.c **** 
 333:Drivers/STM32H5xx_HAL_Driver/Src/stm32h5xx_hal_pcd.c ****       case HAL_PCD_SUSPEND_CB_ID :
 334:Drivers/STM32H5xx_HAL_Driver/Src/stm32h5xx_hal_pcd.c ****         hpcd->SuspendCallback = pCallback;
 335:Drivers/STM32H5xx_HAL_Driver/Src/stm32h5xx_hal_pcd.c ****         break;
 336:Drivers/STM32H5xx_HAL_Driver/Src/stm32h5xx_hal_pcd.c **** 
 337:Drivers/STM32H5xx_HAL_Driver/Src/stm32h5xx_hal_pcd.c ****       case HAL_PCD_RESUME_CB_ID :
 338:Drivers/STM32H5xx_HAL_Driver/Src/stm32h5xx_hal_pcd.c ****         hpcd->ResumeCallback = pCallback;
 339:Drivers/STM32H5xx_HAL_Driver/Src/stm32h5xx_hal_pcd.c ****         break;
 340:Drivers/STM32H5xx_HAL_Driver/Src/stm32h5xx_hal_pcd.c **** 
 341:Drivers/STM32H5xx_HAL_Driver/Src/stm32h5xx_hal_pcd.c ****       case HAL_PCD_CONNECT_CB_ID :
 342:Drivers/STM32H5xx_HAL_Driver/Src/stm32h5xx_hal_pcd.c ****         hpcd->ConnectCallback = pCallback;
 343:Drivers/STM32H5xx_HAL_Driver/Src/stm32h5xx_hal_pcd.c ****         break;
ARM GAS  /var/folders/l3/rwskfq612tq4b7hmtv37jkjw0000gp/T//ccPIyasB.s 			page 21


 344:Drivers/STM32H5xx_HAL_Driver/Src/stm32h5xx_hal_pcd.c **** 
 345:Drivers/STM32H5xx_HAL_Driver/Src/stm32h5xx_hal_pcd.c ****       case HAL_PCD_DISCONNECT_CB_ID :
 346:Drivers/STM32H5xx_HAL_Driver/Src/stm32h5xx_hal_pcd.c ****         hpcd->DisconnectCallback = pCallback;
 347:Drivers/STM32H5xx_HAL_Driver/Src/stm32h5xx_hal_pcd.c ****         break;
 348:Drivers/STM32H5xx_HAL_Driver/Src/stm32h5xx_hal_pcd.c **** 
 349:Drivers/STM32H5xx_HAL_Driver/Src/stm32h5xx_hal_pcd.c ****       case HAL_PCD_MSPINIT_CB_ID :
 350:Drivers/STM32H5xx_HAL_Driver/Src/stm32h5xx_hal_pcd.c ****         hpcd->MspInitCallback = pCallback;
 351:Drivers/STM32H5xx_HAL_Driver/Src/stm32h5xx_hal_pcd.c ****         break;
 352:Drivers/STM32H5xx_HAL_Driver/Src/stm32h5xx_hal_pcd.c **** 
 353:Drivers/STM32H5xx_HAL_Driver/Src/stm32h5xx_hal_pcd.c ****       case HAL_PCD_MSPDEINIT_CB_ID :
 354:Drivers/STM32H5xx_HAL_Driver/Src/stm32h5xx_hal_pcd.c ****         hpcd->MspDeInitCallback = pCallback;
 355:Drivers/STM32H5xx_HAL_Driver/Src/stm32h5xx_hal_pcd.c ****         break;
 356:Drivers/STM32H5xx_HAL_Driver/Src/stm32h5xx_hal_pcd.c **** 
 357:Drivers/STM32H5xx_HAL_Driver/Src/stm32h5xx_hal_pcd.c ****       default :
 358:Drivers/STM32H5xx_HAL_Driver/Src/stm32h5xx_hal_pcd.c ****         /* Update the error code */
 359:Drivers/STM32H5xx_HAL_Driver/Src/stm32h5xx_hal_pcd.c ****         hpcd->ErrorCode |= HAL_PCD_ERROR_INVALID_CALLBACK;
 360:Drivers/STM32H5xx_HAL_Driver/Src/stm32h5xx_hal_pcd.c ****         /* Return error status */
 361:Drivers/STM32H5xx_HAL_Driver/Src/stm32h5xx_hal_pcd.c ****         status =  HAL_ERROR;
 362:Drivers/STM32H5xx_HAL_Driver/Src/stm32h5xx_hal_pcd.c ****         break;
 363:Drivers/STM32H5xx_HAL_Driver/Src/stm32h5xx_hal_pcd.c ****     }
 364:Drivers/STM32H5xx_HAL_Driver/Src/stm32h5xx_hal_pcd.c ****   }
 365:Drivers/STM32H5xx_HAL_Driver/Src/stm32h5xx_hal_pcd.c ****   else if (hpcd->State == HAL_PCD_STATE_RESET)
 366:Drivers/STM32H5xx_HAL_Driver/Src/stm32h5xx_hal_pcd.c ****   {
 367:Drivers/STM32H5xx_HAL_Driver/Src/stm32h5xx_hal_pcd.c ****     switch (CallbackID)
 368:Drivers/STM32H5xx_HAL_Driver/Src/stm32h5xx_hal_pcd.c ****     {
 369:Drivers/STM32H5xx_HAL_Driver/Src/stm32h5xx_hal_pcd.c ****       case HAL_PCD_MSPINIT_CB_ID :
 370:Drivers/STM32H5xx_HAL_Driver/Src/stm32h5xx_hal_pcd.c ****         hpcd->MspInitCallback = pCallback;
 371:Drivers/STM32H5xx_HAL_Driver/Src/stm32h5xx_hal_pcd.c ****         break;
 372:Drivers/STM32H5xx_HAL_Driver/Src/stm32h5xx_hal_pcd.c **** 
 373:Drivers/STM32H5xx_HAL_Driver/Src/stm32h5xx_hal_pcd.c ****       case HAL_PCD_MSPDEINIT_CB_ID :
 374:Drivers/STM32H5xx_HAL_Driver/Src/stm32h5xx_hal_pcd.c ****         hpcd->MspDeInitCallback = pCallback;
 375:Drivers/STM32H5xx_HAL_Driver/Src/stm32h5xx_hal_pcd.c ****         break;
 376:Drivers/STM32H5xx_HAL_Driver/Src/stm32h5xx_hal_pcd.c **** 
 377:Drivers/STM32H5xx_HAL_Driver/Src/stm32h5xx_hal_pcd.c ****       default :
 378:Drivers/STM32H5xx_HAL_Driver/Src/stm32h5xx_hal_pcd.c ****         /* Update the error code */
 379:Drivers/STM32H5xx_HAL_Driver/Src/stm32h5xx_hal_pcd.c ****         hpcd->ErrorCode |= HAL_PCD_ERROR_INVALID_CALLBACK;
 380:Drivers/STM32H5xx_HAL_Driver/Src/stm32h5xx_hal_pcd.c ****         /* Return error status */
 381:Drivers/STM32H5xx_HAL_Driver/Src/stm32h5xx_hal_pcd.c ****         status =  HAL_ERROR;
 382:Drivers/STM32H5xx_HAL_Driver/Src/stm32h5xx_hal_pcd.c ****         break;
 383:Drivers/STM32H5xx_HAL_Driver/Src/stm32h5xx_hal_pcd.c ****     }
 384:Drivers/STM32H5xx_HAL_Driver/Src/stm32h5xx_hal_pcd.c ****   }
 385:Drivers/STM32H5xx_HAL_Driver/Src/stm32h5xx_hal_pcd.c ****   else
 386:Drivers/STM32H5xx_HAL_Driver/Src/stm32h5xx_hal_pcd.c ****   {
 387:Drivers/STM32H5xx_HAL_Driver/Src/stm32h5xx_hal_pcd.c ****     /* Update the error code */
 388:Drivers/STM32H5xx_HAL_Driver/Src/stm32h5xx_hal_pcd.c ****     hpcd->ErrorCode |= HAL_PCD_ERROR_INVALID_CALLBACK;
 389:Drivers/STM32H5xx_HAL_Driver/Src/stm32h5xx_hal_pcd.c ****     /* Return error status */
 390:Drivers/STM32H5xx_HAL_Driver/Src/stm32h5xx_hal_pcd.c ****     status =  HAL_ERROR;
 391:Drivers/STM32H5xx_HAL_Driver/Src/stm32h5xx_hal_pcd.c ****   }
 392:Drivers/STM32H5xx_HAL_Driver/Src/stm32h5xx_hal_pcd.c **** 
 393:Drivers/STM32H5xx_HAL_Driver/Src/stm32h5xx_hal_pcd.c ****   /* Release Lock */
 394:Drivers/STM32H5xx_HAL_Driver/Src/stm32h5xx_hal_pcd.c ****   __HAL_UNLOCK(hpcd);
 395:Drivers/STM32H5xx_HAL_Driver/Src/stm32h5xx_hal_pcd.c ****   return status;
 396:Drivers/STM32H5xx_HAL_Driver/Src/stm32h5xx_hal_pcd.c **** }
 397:Drivers/STM32H5xx_HAL_Driver/Src/stm32h5xx_hal_pcd.c **** 
 398:Drivers/STM32H5xx_HAL_Driver/Src/stm32h5xx_hal_pcd.c **** /**
 399:Drivers/STM32H5xx_HAL_Driver/Src/stm32h5xx_hal_pcd.c ****   * @brief  Unregister an USB PCD Callback
 400:Drivers/STM32H5xx_HAL_Driver/Src/stm32h5xx_hal_pcd.c ****   *         USB PCD callback is redirected to the weak predefined callback
ARM GAS  /var/folders/l3/rwskfq612tq4b7hmtv37jkjw0000gp/T//ccPIyasB.s 			page 22


 401:Drivers/STM32H5xx_HAL_Driver/Src/stm32h5xx_hal_pcd.c ****   * @param  hpcd USB PCD handle
 402:Drivers/STM32H5xx_HAL_Driver/Src/stm32h5xx_hal_pcd.c ****   * @param  CallbackID ID of the callback to be unregistered
 403:Drivers/STM32H5xx_HAL_Driver/Src/stm32h5xx_hal_pcd.c ****   *         This parameter can be one of the following values:
 404:Drivers/STM32H5xx_HAL_Driver/Src/stm32h5xx_hal_pcd.c ****   *          @arg @ref HAL_PCD_SOF_CB_ID USB PCD SOF callback ID
 405:Drivers/STM32H5xx_HAL_Driver/Src/stm32h5xx_hal_pcd.c ****   *          @arg @ref HAL_PCD_SETUPSTAGE_CB_ID USB PCD Setup callback ID
 406:Drivers/STM32H5xx_HAL_Driver/Src/stm32h5xx_hal_pcd.c ****   *          @arg @ref HAL_PCD_RESET_CB_ID USB PCD Reset callback ID
 407:Drivers/STM32H5xx_HAL_Driver/Src/stm32h5xx_hal_pcd.c ****   *          @arg @ref HAL_PCD_SUSPEND_CB_ID USB PCD Suspend callback ID
 408:Drivers/STM32H5xx_HAL_Driver/Src/stm32h5xx_hal_pcd.c ****   *          @arg @ref HAL_PCD_RESUME_CB_ID USB PCD Resume callback ID
 409:Drivers/STM32H5xx_HAL_Driver/Src/stm32h5xx_hal_pcd.c ****   *          @arg @ref HAL_PCD_CONNECT_CB_ID USB PCD Connect callback ID
 410:Drivers/STM32H5xx_HAL_Driver/Src/stm32h5xx_hal_pcd.c ****   *          @arg @ref HAL_PCD_DISCONNECT_CB_ID USB PCD Disconnect callback ID
 411:Drivers/STM32H5xx_HAL_Driver/Src/stm32h5xx_hal_pcd.c ****   *          @arg @ref HAL_PCD_MSPINIT_CB_ID MspDeInit callback ID
 412:Drivers/STM32H5xx_HAL_Driver/Src/stm32h5xx_hal_pcd.c ****   *          @arg @ref HAL_PCD_MSPDEINIT_CB_ID MspDeInit callback ID
 413:Drivers/STM32H5xx_HAL_Driver/Src/stm32h5xx_hal_pcd.c ****   * @retval HAL status
 414:Drivers/STM32H5xx_HAL_Driver/Src/stm32h5xx_hal_pcd.c ****   */
 415:Drivers/STM32H5xx_HAL_Driver/Src/stm32h5xx_hal_pcd.c **** HAL_StatusTypeDef HAL_PCD_UnRegisterCallback(PCD_HandleTypeDef *hpcd, HAL_PCD_CallbackIDTypeDef Cal
 416:Drivers/STM32H5xx_HAL_Driver/Src/stm32h5xx_hal_pcd.c **** {
 417:Drivers/STM32H5xx_HAL_Driver/Src/stm32h5xx_hal_pcd.c ****   HAL_StatusTypeDef status = HAL_OK;
 418:Drivers/STM32H5xx_HAL_Driver/Src/stm32h5xx_hal_pcd.c **** 
 419:Drivers/STM32H5xx_HAL_Driver/Src/stm32h5xx_hal_pcd.c ****   /* Process locked */
 420:Drivers/STM32H5xx_HAL_Driver/Src/stm32h5xx_hal_pcd.c ****   __HAL_LOCK(hpcd);
 421:Drivers/STM32H5xx_HAL_Driver/Src/stm32h5xx_hal_pcd.c **** 
 422:Drivers/STM32H5xx_HAL_Driver/Src/stm32h5xx_hal_pcd.c ****   /* Setup Legacy weak Callbacks  */
 423:Drivers/STM32H5xx_HAL_Driver/Src/stm32h5xx_hal_pcd.c ****   if (hpcd->State == HAL_PCD_STATE_READY)
 424:Drivers/STM32H5xx_HAL_Driver/Src/stm32h5xx_hal_pcd.c ****   {
 425:Drivers/STM32H5xx_HAL_Driver/Src/stm32h5xx_hal_pcd.c ****     switch (CallbackID)
 426:Drivers/STM32H5xx_HAL_Driver/Src/stm32h5xx_hal_pcd.c ****     {
 427:Drivers/STM32H5xx_HAL_Driver/Src/stm32h5xx_hal_pcd.c ****       case HAL_PCD_SOF_CB_ID :
 428:Drivers/STM32H5xx_HAL_Driver/Src/stm32h5xx_hal_pcd.c ****         hpcd->SOFCallback = HAL_PCD_SOFCallback;
 429:Drivers/STM32H5xx_HAL_Driver/Src/stm32h5xx_hal_pcd.c ****         break;
 430:Drivers/STM32H5xx_HAL_Driver/Src/stm32h5xx_hal_pcd.c **** 
 431:Drivers/STM32H5xx_HAL_Driver/Src/stm32h5xx_hal_pcd.c ****       case HAL_PCD_SETUPSTAGE_CB_ID :
 432:Drivers/STM32H5xx_HAL_Driver/Src/stm32h5xx_hal_pcd.c ****         hpcd->SetupStageCallback = HAL_PCD_SetupStageCallback;
 433:Drivers/STM32H5xx_HAL_Driver/Src/stm32h5xx_hal_pcd.c ****         break;
 434:Drivers/STM32H5xx_HAL_Driver/Src/stm32h5xx_hal_pcd.c **** 
 435:Drivers/STM32H5xx_HAL_Driver/Src/stm32h5xx_hal_pcd.c ****       case HAL_PCD_RESET_CB_ID :
 436:Drivers/STM32H5xx_HAL_Driver/Src/stm32h5xx_hal_pcd.c ****         hpcd->ResetCallback = HAL_PCD_ResetCallback;
 437:Drivers/STM32H5xx_HAL_Driver/Src/stm32h5xx_hal_pcd.c ****         break;
 438:Drivers/STM32H5xx_HAL_Driver/Src/stm32h5xx_hal_pcd.c **** 
 439:Drivers/STM32H5xx_HAL_Driver/Src/stm32h5xx_hal_pcd.c ****       case HAL_PCD_SUSPEND_CB_ID :
 440:Drivers/STM32H5xx_HAL_Driver/Src/stm32h5xx_hal_pcd.c ****         hpcd->SuspendCallback = HAL_PCD_SuspendCallback;
 441:Drivers/STM32H5xx_HAL_Driver/Src/stm32h5xx_hal_pcd.c ****         break;
 442:Drivers/STM32H5xx_HAL_Driver/Src/stm32h5xx_hal_pcd.c **** 
 443:Drivers/STM32H5xx_HAL_Driver/Src/stm32h5xx_hal_pcd.c ****       case HAL_PCD_RESUME_CB_ID :
 444:Drivers/STM32H5xx_HAL_Driver/Src/stm32h5xx_hal_pcd.c ****         hpcd->ResumeCallback = HAL_PCD_ResumeCallback;
 445:Drivers/STM32H5xx_HAL_Driver/Src/stm32h5xx_hal_pcd.c ****         break;
 446:Drivers/STM32H5xx_HAL_Driver/Src/stm32h5xx_hal_pcd.c **** 
 447:Drivers/STM32H5xx_HAL_Driver/Src/stm32h5xx_hal_pcd.c ****       case HAL_PCD_CONNECT_CB_ID :
 448:Drivers/STM32H5xx_HAL_Driver/Src/stm32h5xx_hal_pcd.c ****         hpcd->ConnectCallback = HAL_PCD_ConnectCallback;
 449:Drivers/STM32H5xx_HAL_Driver/Src/stm32h5xx_hal_pcd.c ****         break;
 450:Drivers/STM32H5xx_HAL_Driver/Src/stm32h5xx_hal_pcd.c **** 
 451:Drivers/STM32H5xx_HAL_Driver/Src/stm32h5xx_hal_pcd.c ****       case HAL_PCD_DISCONNECT_CB_ID :
 452:Drivers/STM32H5xx_HAL_Driver/Src/stm32h5xx_hal_pcd.c ****         hpcd->DisconnectCallback = HAL_PCD_DisconnectCallback;
 453:Drivers/STM32H5xx_HAL_Driver/Src/stm32h5xx_hal_pcd.c ****         break;
 454:Drivers/STM32H5xx_HAL_Driver/Src/stm32h5xx_hal_pcd.c **** 
 455:Drivers/STM32H5xx_HAL_Driver/Src/stm32h5xx_hal_pcd.c ****       case HAL_PCD_MSPINIT_CB_ID :
 456:Drivers/STM32H5xx_HAL_Driver/Src/stm32h5xx_hal_pcd.c ****         hpcd->MspInitCallback = HAL_PCD_MspInit;
 457:Drivers/STM32H5xx_HAL_Driver/Src/stm32h5xx_hal_pcd.c ****         break;
ARM GAS  /var/folders/l3/rwskfq612tq4b7hmtv37jkjw0000gp/T//ccPIyasB.s 			page 23


 458:Drivers/STM32H5xx_HAL_Driver/Src/stm32h5xx_hal_pcd.c **** 
 459:Drivers/STM32H5xx_HAL_Driver/Src/stm32h5xx_hal_pcd.c ****       case HAL_PCD_MSPDEINIT_CB_ID :
 460:Drivers/STM32H5xx_HAL_Driver/Src/stm32h5xx_hal_pcd.c ****         hpcd->MspDeInitCallback = HAL_PCD_MspDeInit;
 461:Drivers/STM32H5xx_HAL_Driver/Src/stm32h5xx_hal_pcd.c ****         break;
 462:Drivers/STM32H5xx_HAL_Driver/Src/stm32h5xx_hal_pcd.c **** 
 463:Drivers/STM32H5xx_HAL_Driver/Src/stm32h5xx_hal_pcd.c ****       default :
 464:Drivers/STM32H5xx_HAL_Driver/Src/stm32h5xx_hal_pcd.c ****         /* Update the error code */
 465:Drivers/STM32H5xx_HAL_Driver/Src/stm32h5xx_hal_pcd.c ****         hpcd->ErrorCode |= HAL_PCD_ERROR_INVALID_CALLBACK;
 466:Drivers/STM32H5xx_HAL_Driver/Src/stm32h5xx_hal_pcd.c **** 
 467:Drivers/STM32H5xx_HAL_Driver/Src/stm32h5xx_hal_pcd.c ****         /* Return error status */
 468:Drivers/STM32H5xx_HAL_Driver/Src/stm32h5xx_hal_pcd.c ****         status =  HAL_ERROR;
 469:Drivers/STM32H5xx_HAL_Driver/Src/stm32h5xx_hal_pcd.c ****         break;
 470:Drivers/STM32H5xx_HAL_Driver/Src/stm32h5xx_hal_pcd.c ****     }
 471:Drivers/STM32H5xx_HAL_Driver/Src/stm32h5xx_hal_pcd.c ****   }
 472:Drivers/STM32H5xx_HAL_Driver/Src/stm32h5xx_hal_pcd.c ****   else if (hpcd->State == HAL_PCD_STATE_RESET)
 473:Drivers/STM32H5xx_HAL_Driver/Src/stm32h5xx_hal_pcd.c ****   {
 474:Drivers/STM32H5xx_HAL_Driver/Src/stm32h5xx_hal_pcd.c ****     switch (CallbackID)
 475:Drivers/STM32H5xx_HAL_Driver/Src/stm32h5xx_hal_pcd.c ****     {
 476:Drivers/STM32H5xx_HAL_Driver/Src/stm32h5xx_hal_pcd.c ****       case HAL_PCD_MSPINIT_CB_ID :
 477:Drivers/STM32H5xx_HAL_Driver/Src/stm32h5xx_hal_pcd.c ****         hpcd->MspInitCallback = HAL_PCD_MspInit;
 478:Drivers/STM32H5xx_HAL_Driver/Src/stm32h5xx_hal_pcd.c ****         break;
 479:Drivers/STM32H5xx_HAL_Driver/Src/stm32h5xx_hal_pcd.c **** 
 480:Drivers/STM32H5xx_HAL_Driver/Src/stm32h5xx_hal_pcd.c ****       case HAL_PCD_MSPDEINIT_CB_ID :
 481:Drivers/STM32H5xx_HAL_Driver/Src/stm32h5xx_hal_pcd.c ****         hpcd->MspDeInitCallback = HAL_PCD_MspDeInit;
 482:Drivers/STM32H5xx_HAL_Driver/Src/stm32h5xx_hal_pcd.c ****         break;
 483:Drivers/STM32H5xx_HAL_Driver/Src/stm32h5xx_hal_pcd.c **** 
 484:Drivers/STM32H5xx_HAL_Driver/Src/stm32h5xx_hal_pcd.c ****       default :
 485:Drivers/STM32H5xx_HAL_Driver/Src/stm32h5xx_hal_pcd.c ****         /* Update the error code */
 486:Drivers/STM32H5xx_HAL_Driver/Src/stm32h5xx_hal_pcd.c ****         hpcd->ErrorCode |= HAL_PCD_ERROR_INVALID_CALLBACK;
 487:Drivers/STM32H5xx_HAL_Driver/Src/stm32h5xx_hal_pcd.c **** 
 488:Drivers/STM32H5xx_HAL_Driver/Src/stm32h5xx_hal_pcd.c ****         /* Return error status */
 489:Drivers/STM32H5xx_HAL_Driver/Src/stm32h5xx_hal_pcd.c ****         status =  HAL_ERROR;
 490:Drivers/STM32H5xx_HAL_Driver/Src/stm32h5xx_hal_pcd.c ****         break;
 491:Drivers/STM32H5xx_HAL_Driver/Src/stm32h5xx_hal_pcd.c ****     }
 492:Drivers/STM32H5xx_HAL_Driver/Src/stm32h5xx_hal_pcd.c ****   }
 493:Drivers/STM32H5xx_HAL_Driver/Src/stm32h5xx_hal_pcd.c ****   else
 494:Drivers/STM32H5xx_HAL_Driver/Src/stm32h5xx_hal_pcd.c ****   {
 495:Drivers/STM32H5xx_HAL_Driver/Src/stm32h5xx_hal_pcd.c ****     /* Update the error code */
 496:Drivers/STM32H5xx_HAL_Driver/Src/stm32h5xx_hal_pcd.c ****     hpcd->ErrorCode |= HAL_PCD_ERROR_INVALID_CALLBACK;
 497:Drivers/STM32H5xx_HAL_Driver/Src/stm32h5xx_hal_pcd.c **** 
 498:Drivers/STM32H5xx_HAL_Driver/Src/stm32h5xx_hal_pcd.c ****     /* Return error status */
 499:Drivers/STM32H5xx_HAL_Driver/Src/stm32h5xx_hal_pcd.c ****     status =  HAL_ERROR;
 500:Drivers/STM32H5xx_HAL_Driver/Src/stm32h5xx_hal_pcd.c ****   }
 501:Drivers/STM32H5xx_HAL_Driver/Src/stm32h5xx_hal_pcd.c **** 
 502:Drivers/STM32H5xx_HAL_Driver/Src/stm32h5xx_hal_pcd.c ****   /* Release Lock */
 503:Drivers/STM32H5xx_HAL_Driver/Src/stm32h5xx_hal_pcd.c ****   __HAL_UNLOCK(hpcd);
 504:Drivers/STM32H5xx_HAL_Driver/Src/stm32h5xx_hal_pcd.c ****   return status;
 505:Drivers/STM32H5xx_HAL_Driver/Src/stm32h5xx_hal_pcd.c **** }
 506:Drivers/STM32H5xx_HAL_Driver/Src/stm32h5xx_hal_pcd.c **** 
 507:Drivers/STM32H5xx_HAL_Driver/Src/stm32h5xx_hal_pcd.c **** /**
 508:Drivers/STM32H5xx_HAL_Driver/Src/stm32h5xx_hal_pcd.c ****   * @brief  Register USB PCD Data OUT Stage Callback
 509:Drivers/STM32H5xx_HAL_Driver/Src/stm32h5xx_hal_pcd.c ****   *         To be used instead of the weak HAL_PCD_DataOutStageCallback() predefined callback
 510:Drivers/STM32H5xx_HAL_Driver/Src/stm32h5xx_hal_pcd.c ****   * @param  hpcd PCD handle
 511:Drivers/STM32H5xx_HAL_Driver/Src/stm32h5xx_hal_pcd.c ****   * @param  pCallback pointer to the USB PCD Data OUT Stage Callback function
 512:Drivers/STM32H5xx_HAL_Driver/Src/stm32h5xx_hal_pcd.c ****   * @retval HAL status
 513:Drivers/STM32H5xx_HAL_Driver/Src/stm32h5xx_hal_pcd.c ****   */
 514:Drivers/STM32H5xx_HAL_Driver/Src/stm32h5xx_hal_pcd.c **** HAL_StatusTypeDef HAL_PCD_RegisterDataOutStageCallback(PCD_HandleTypeDef *hpcd,
ARM GAS  /var/folders/l3/rwskfq612tq4b7hmtv37jkjw0000gp/T//ccPIyasB.s 			page 24


 515:Drivers/STM32H5xx_HAL_Driver/Src/stm32h5xx_hal_pcd.c ****                                                        pPCD_DataOutStageCallbackTypeDef pCallback)
 516:Drivers/STM32H5xx_HAL_Driver/Src/stm32h5xx_hal_pcd.c **** {
 517:Drivers/STM32H5xx_HAL_Driver/Src/stm32h5xx_hal_pcd.c ****   HAL_StatusTypeDef status = HAL_OK;
 518:Drivers/STM32H5xx_HAL_Driver/Src/stm32h5xx_hal_pcd.c **** 
 519:Drivers/STM32H5xx_HAL_Driver/Src/stm32h5xx_hal_pcd.c ****   if (pCallback == NULL)
 520:Drivers/STM32H5xx_HAL_Driver/Src/stm32h5xx_hal_pcd.c ****   {
 521:Drivers/STM32H5xx_HAL_Driver/Src/stm32h5xx_hal_pcd.c ****     /* Update the error code */
 522:Drivers/STM32H5xx_HAL_Driver/Src/stm32h5xx_hal_pcd.c ****     hpcd->ErrorCode |= HAL_PCD_ERROR_INVALID_CALLBACK;
 523:Drivers/STM32H5xx_HAL_Driver/Src/stm32h5xx_hal_pcd.c **** 
 524:Drivers/STM32H5xx_HAL_Driver/Src/stm32h5xx_hal_pcd.c ****     return HAL_ERROR;
 525:Drivers/STM32H5xx_HAL_Driver/Src/stm32h5xx_hal_pcd.c ****   }
 526:Drivers/STM32H5xx_HAL_Driver/Src/stm32h5xx_hal_pcd.c **** 
 527:Drivers/STM32H5xx_HAL_Driver/Src/stm32h5xx_hal_pcd.c ****   /* Process locked */
 528:Drivers/STM32H5xx_HAL_Driver/Src/stm32h5xx_hal_pcd.c ****   __HAL_LOCK(hpcd);
 529:Drivers/STM32H5xx_HAL_Driver/Src/stm32h5xx_hal_pcd.c **** 
 530:Drivers/STM32H5xx_HAL_Driver/Src/stm32h5xx_hal_pcd.c ****   if (hpcd->State == HAL_PCD_STATE_READY)
 531:Drivers/STM32H5xx_HAL_Driver/Src/stm32h5xx_hal_pcd.c ****   {
 532:Drivers/STM32H5xx_HAL_Driver/Src/stm32h5xx_hal_pcd.c ****     hpcd->DataOutStageCallback = pCallback;
 533:Drivers/STM32H5xx_HAL_Driver/Src/stm32h5xx_hal_pcd.c ****   }
 534:Drivers/STM32H5xx_HAL_Driver/Src/stm32h5xx_hal_pcd.c ****   else
 535:Drivers/STM32H5xx_HAL_Driver/Src/stm32h5xx_hal_pcd.c ****   {
 536:Drivers/STM32H5xx_HAL_Driver/Src/stm32h5xx_hal_pcd.c ****     /* Update the error code */
 537:Drivers/STM32H5xx_HAL_Driver/Src/stm32h5xx_hal_pcd.c ****     hpcd->ErrorCode |= HAL_PCD_ERROR_INVALID_CALLBACK;
 538:Drivers/STM32H5xx_HAL_Driver/Src/stm32h5xx_hal_pcd.c **** 
 539:Drivers/STM32H5xx_HAL_Driver/Src/stm32h5xx_hal_pcd.c ****     /* Return error status */
 540:Drivers/STM32H5xx_HAL_Driver/Src/stm32h5xx_hal_pcd.c ****     status =  HAL_ERROR;
 541:Drivers/STM32H5xx_HAL_Driver/Src/stm32h5xx_hal_pcd.c ****   }
 542:Drivers/STM32H5xx_HAL_Driver/Src/stm32h5xx_hal_pcd.c **** 
 543:Drivers/STM32H5xx_HAL_Driver/Src/stm32h5xx_hal_pcd.c ****   /* Release Lock */
 544:Drivers/STM32H5xx_HAL_Driver/Src/stm32h5xx_hal_pcd.c ****   __HAL_UNLOCK(hpcd);
 545:Drivers/STM32H5xx_HAL_Driver/Src/stm32h5xx_hal_pcd.c **** 
 546:Drivers/STM32H5xx_HAL_Driver/Src/stm32h5xx_hal_pcd.c ****   return status;
 547:Drivers/STM32H5xx_HAL_Driver/Src/stm32h5xx_hal_pcd.c **** }
 548:Drivers/STM32H5xx_HAL_Driver/Src/stm32h5xx_hal_pcd.c **** 
 549:Drivers/STM32H5xx_HAL_Driver/Src/stm32h5xx_hal_pcd.c **** /**
 550:Drivers/STM32H5xx_HAL_Driver/Src/stm32h5xx_hal_pcd.c ****   * @brief  Unregister the USB PCD Data OUT Stage Callback
 551:Drivers/STM32H5xx_HAL_Driver/Src/stm32h5xx_hal_pcd.c ****   *         USB PCD Data OUT Stage Callback is redirected to the weak HAL_PCD_DataOutStageCallback(
 552:Drivers/STM32H5xx_HAL_Driver/Src/stm32h5xx_hal_pcd.c ****   * @param  hpcd PCD handle
 553:Drivers/STM32H5xx_HAL_Driver/Src/stm32h5xx_hal_pcd.c ****   * @retval HAL status
 554:Drivers/STM32H5xx_HAL_Driver/Src/stm32h5xx_hal_pcd.c ****   */
 555:Drivers/STM32H5xx_HAL_Driver/Src/stm32h5xx_hal_pcd.c **** HAL_StatusTypeDef HAL_PCD_UnRegisterDataOutStageCallback(PCD_HandleTypeDef *hpcd)
 556:Drivers/STM32H5xx_HAL_Driver/Src/stm32h5xx_hal_pcd.c **** {
 557:Drivers/STM32H5xx_HAL_Driver/Src/stm32h5xx_hal_pcd.c ****   HAL_StatusTypeDef status = HAL_OK;
 558:Drivers/STM32H5xx_HAL_Driver/Src/stm32h5xx_hal_pcd.c **** 
 559:Drivers/STM32H5xx_HAL_Driver/Src/stm32h5xx_hal_pcd.c ****   /* Process locked */
 560:Drivers/STM32H5xx_HAL_Driver/Src/stm32h5xx_hal_pcd.c ****   __HAL_LOCK(hpcd);
 561:Drivers/STM32H5xx_HAL_Driver/Src/stm32h5xx_hal_pcd.c **** 
 562:Drivers/STM32H5xx_HAL_Driver/Src/stm32h5xx_hal_pcd.c ****   if (hpcd->State == HAL_PCD_STATE_READY)
 563:Drivers/STM32H5xx_HAL_Driver/Src/stm32h5xx_hal_pcd.c ****   {
 564:Drivers/STM32H5xx_HAL_Driver/Src/stm32h5xx_hal_pcd.c ****     hpcd->DataOutStageCallback = HAL_PCD_DataOutStageCallback; /* Legacy weak DataOutStageCallback 
 565:Drivers/STM32H5xx_HAL_Driver/Src/stm32h5xx_hal_pcd.c ****   }
 566:Drivers/STM32H5xx_HAL_Driver/Src/stm32h5xx_hal_pcd.c ****   else
 567:Drivers/STM32H5xx_HAL_Driver/Src/stm32h5xx_hal_pcd.c ****   {
 568:Drivers/STM32H5xx_HAL_Driver/Src/stm32h5xx_hal_pcd.c ****     /* Update the error code */
 569:Drivers/STM32H5xx_HAL_Driver/Src/stm32h5xx_hal_pcd.c ****     hpcd->ErrorCode |= HAL_PCD_ERROR_INVALID_CALLBACK;
 570:Drivers/STM32H5xx_HAL_Driver/Src/stm32h5xx_hal_pcd.c **** 
 571:Drivers/STM32H5xx_HAL_Driver/Src/stm32h5xx_hal_pcd.c ****     /* Return error status */
ARM GAS  /var/folders/l3/rwskfq612tq4b7hmtv37jkjw0000gp/T//ccPIyasB.s 			page 25


 572:Drivers/STM32H5xx_HAL_Driver/Src/stm32h5xx_hal_pcd.c ****     status =  HAL_ERROR;
 573:Drivers/STM32H5xx_HAL_Driver/Src/stm32h5xx_hal_pcd.c ****   }
 574:Drivers/STM32H5xx_HAL_Driver/Src/stm32h5xx_hal_pcd.c **** 
 575:Drivers/STM32H5xx_HAL_Driver/Src/stm32h5xx_hal_pcd.c ****   /* Release Lock */
 576:Drivers/STM32H5xx_HAL_Driver/Src/stm32h5xx_hal_pcd.c ****   __HAL_UNLOCK(hpcd);
 577:Drivers/STM32H5xx_HAL_Driver/Src/stm32h5xx_hal_pcd.c **** 
 578:Drivers/STM32H5xx_HAL_Driver/Src/stm32h5xx_hal_pcd.c ****   return status;
 579:Drivers/STM32H5xx_HAL_Driver/Src/stm32h5xx_hal_pcd.c **** }
 580:Drivers/STM32H5xx_HAL_Driver/Src/stm32h5xx_hal_pcd.c **** 
 581:Drivers/STM32H5xx_HAL_Driver/Src/stm32h5xx_hal_pcd.c **** /**
 582:Drivers/STM32H5xx_HAL_Driver/Src/stm32h5xx_hal_pcd.c ****   * @brief  Register USB PCD Data IN Stage Callback
 583:Drivers/STM32H5xx_HAL_Driver/Src/stm32h5xx_hal_pcd.c ****   *         To be used instead of the weak HAL_PCD_DataInStageCallback() predefined callback
 584:Drivers/STM32H5xx_HAL_Driver/Src/stm32h5xx_hal_pcd.c ****   * @param  hpcd PCD handle
 585:Drivers/STM32H5xx_HAL_Driver/Src/stm32h5xx_hal_pcd.c ****   * @param  pCallback pointer to the USB PCD Data IN Stage Callback function
 586:Drivers/STM32H5xx_HAL_Driver/Src/stm32h5xx_hal_pcd.c ****   * @retval HAL status
 587:Drivers/STM32H5xx_HAL_Driver/Src/stm32h5xx_hal_pcd.c ****   */
 588:Drivers/STM32H5xx_HAL_Driver/Src/stm32h5xx_hal_pcd.c **** HAL_StatusTypeDef HAL_PCD_RegisterDataInStageCallback(PCD_HandleTypeDef *hpcd,
 589:Drivers/STM32H5xx_HAL_Driver/Src/stm32h5xx_hal_pcd.c ****                                                       pPCD_DataInStageCallbackTypeDef pCallback)
 590:Drivers/STM32H5xx_HAL_Driver/Src/stm32h5xx_hal_pcd.c **** {
 591:Drivers/STM32H5xx_HAL_Driver/Src/stm32h5xx_hal_pcd.c ****   HAL_StatusTypeDef status = HAL_OK;
 592:Drivers/STM32H5xx_HAL_Driver/Src/stm32h5xx_hal_pcd.c **** 
 593:Drivers/STM32H5xx_HAL_Driver/Src/stm32h5xx_hal_pcd.c ****   if (pCallback == NULL)
 594:Drivers/STM32H5xx_HAL_Driver/Src/stm32h5xx_hal_pcd.c ****   {
 595:Drivers/STM32H5xx_HAL_Driver/Src/stm32h5xx_hal_pcd.c ****     /* Update the error code */
 596:Drivers/STM32H5xx_HAL_Driver/Src/stm32h5xx_hal_pcd.c ****     hpcd->ErrorCode |= HAL_PCD_ERROR_INVALID_CALLBACK;
 597:Drivers/STM32H5xx_HAL_Driver/Src/stm32h5xx_hal_pcd.c **** 
 598:Drivers/STM32H5xx_HAL_Driver/Src/stm32h5xx_hal_pcd.c ****     return HAL_ERROR;
 599:Drivers/STM32H5xx_HAL_Driver/Src/stm32h5xx_hal_pcd.c ****   }
 600:Drivers/STM32H5xx_HAL_Driver/Src/stm32h5xx_hal_pcd.c **** 
 601:Drivers/STM32H5xx_HAL_Driver/Src/stm32h5xx_hal_pcd.c ****   /* Process locked */
 602:Drivers/STM32H5xx_HAL_Driver/Src/stm32h5xx_hal_pcd.c ****   __HAL_LOCK(hpcd);
 603:Drivers/STM32H5xx_HAL_Driver/Src/stm32h5xx_hal_pcd.c **** 
 604:Drivers/STM32H5xx_HAL_Driver/Src/stm32h5xx_hal_pcd.c ****   if (hpcd->State == HAL_PCD_STATE_READY)
 605:Drivers/STM32H5xx_HAL_Driver/Src/stm32h5xx_hal_pcd.c ****   {
 606:Drivers/STM32H5xx_HAL_Driver/Src/stm32h5xx_hal_pcd.c ****     hpcd->DataInStageCallback = pCallback;
 607:Drivers/STM32H5xx_HAL_Driver/Src/stm32h5xx_hal_pcd.c ****   }
 608:Drivers/STM32H5xx_HAL_Driver/Src/stm32h5xx_hal_pcd.c ****   else
 609:Drivers/STM32H5xx_HAL_Driver/Src/stm32h5xx_hal_pcd.c ****   {
 610:Drivers/STM32H5xx_HAL_Driver/Src/stm32h5xx_hal_pcd.c ****     /* Update the error code */
 611:Drivers/STM32H5xx_HAL_Driver/Src/stm32h5xx_hal_pcd.c ****     hpcd->ErrorCode |= HAL_PCD_ERROR_INVALID_CALLBACK;
 612:Drivers/STM32H5xx_HAL_Driver/Src/stm32h5xx_hal_pcd.c **** 
 613:Drivers/STM32H5xx_HAL_Driver/Src/stm32h5xx_hal_pcd.c ****     /* Return error status */
 614:Drivers/STM32H5xx_HAL_Driver/Src/stm32h5xx_hal_pcd.c ****     status =  HAL_ERROR;
 615:Drivers/STM32H5xx_HAL_Driver/Src/stm32h5xx_hal_pcd.c ****   }
 616:Drivers/STM32H5xx_HAL_Driver/Src/stm32h5xx_hal_pcd.c **** 
 617:Drivers/STM32H5xx_HAL_Driver/Src/stm32h5xx_hal_pcd.c ****   /* Release Lock */
 618:Drivers/STM32H5xx_HAL_Driver/Src/stm32h5xx_hal_pcd.c ****   __HAL_UNLOCK(hpcd);
 619:Drivers/STM32H5xx_HAL_Driver/Src/stm32h5xx_hal_pcd.c **** 
 620:Drivers/STM32H5xx_HAL_Driver/Src/stm32h5xx_hal_pcd.c ****   return status;
 621:Drivers/STM32H5xx_HAL_Driver/Src/stm32h5xx_hal_pcd.c **** }
 622:Drivers/STM32H5xx_HAL_Driver/Src/stm32h5xx_hal_pcd.c **** 
 623:Drivers/STM32H5xx_HAL_Driver/Src/stm32h5xx_hal_pcd.c **** /**
 624:Drivers/STM32H5xx_HAL_Driver/Src/stm32h5xx_hal_pcd.c ****   * @brief  Unregister the USB PCD Data IN Stage Callback
 625:Drivers/STM32H5xx_HAL_Driver/Src/stm32h5xx_hal_pcd.c ****   *         USB PCD Data OUT Stage Callback is redirected to the weak HAL_PCD_DataInStageCallback()
 626:Drivers/STM32H5xx_HAL_Driver/Src/stm32h5xx_hal_pcd.c ****   * @param  hpcd PCD handle
 627:Drivers/STM32H5xx_HAL_Driver/Src/stm32h5xx_hal_pcd.c ****   * @retval HAL status
 628:Drivers/STM32H5xx_HAL_Driver/Src/stm32h5xx_hal_pcd.c ****   */
ARM GAS  /var/folders/l3/rwskfq612tq4b7hmtv37jkjw0000gp/T//ccPIyasB.s 			page 26


 629:Drivers/STM32H5xx_HAL_Driver/Src/stm32h5xx_hal_pcd.c **** HAL_StatusTypeDef HAL_PCD_UnRegisterDataInStageCallback(PCD_HandleTypeDef *hpcd)
 630:Drivers/STM32H5xx_HAL_Driver/Src/stm32h5xx_hal_pcd.c **** {
 631:Drivers/STM32H5xx_HAL_Driver/Src/stm32h5xx_hal_pcd.c ****   HAL_StatusTypeDef status = HAL_OK;
 632:Drivers/STM32H5xx_HAL_Driver/Src/stm32h5xx_hal_pcd.c **** 
 633:Drivers/STM32H5xx_HAL_Driver/Src/stm32h5xx_hal_pcd.c ****   /* Process locked */
 634:Drivers/STM32H5xx_HAL_Driver/Src/stm32h5xx_hal_pcd.c ****   __HAL_LOCK(hpcd);
 635:Drivers/STM32H5xx_HAL_Driver/Src/stm32h5xx_hal_pcd.c **** 
 636:Drivers/STM32H5xx_HAL_Driver/Src/stm32h5xx_hal_pcd.c ****   if (hpcd->State == HAL_PCD_STATE_READY)
 637:Drivers/STM32H5xx_HAL_Driver/Src/stm32h5xx_hal_pcd.c ****   {
 638:Drivers/STM32H5xx_HAL_Driver/Src/stm32h5xx_hal_pcd.c ****     hpcd->DataInStageCallback = HAL_PCD_DataInStageCallback; /* Legacy weak DataInStageCallback  */
 639:Drivers/STM32H5xx_HAL_Driver/Src/stm32h5xx_hal_pcd.c ****   }
 640:Drivers/STM32H5xx_HAL_Driver/Src/stm32h5xx_hal_pcd.c ****   else
 641:Drivers/STM32H5xx_HAL_Driver/Src/stm32h5xx_hal_pcd.c ****   {
 642:Drivers/STM32H5xx_HAL_Driver/Src/stm32h5xx_hal_pcd.c ****     /* Update the error code */
 643:Drivers/STM32H5xx_HAL_Driver/Src/stm32h5xx_hal_pcd.c ****     hpcd->ErrorCode |= HAL_PCD_ERROR_INVALID_CALLBACK;
 644:Drivers/STM32H5xx_HAL_Driver/Src/stm32h5xx_hal_pcd.c **** 
 645:Drivers/STM32H5xx_HAL_Driver/Src/stm32h5xx_hal_pcd.c ****     /* Return error status */
 646:Drivers/STM32H5xx_HAL_Driver/Src/stm32h5xx_hal_pcd.c ****     status =  HAL_ERROR;
 647:Drivers/STM32H5xx_HAL_Driver/Src/stm32h5xx_hal_pcd.c ****   }
 648:Drivers/STM32H5xx_HAL_Driver/Src/stm32h5xx_hal_pcd.c **** 
 649:Drivers/STM32H5xx_HAL_Driver/Src/stm32h5xx_hal_pcd.c ****   /* Release Lock */
 650:Drivers/STM32H5xx_HAL_Driver/Src/stm32h5xx_hal_pcd.c ****   __HAL_UNLOCK(hpcd);
 651:Drivers/STM32H5xx_HAL_Driver/Src/stm32h5xx_hal_pcd.c **** 
 652:Drivers/STM32H5xx_HAL_Driver/Src/stm32h5xx_hal_pcd.c ****   return status;
 653:Drivers/STM32H5xx_HAL_Driver/Src/stm32h5xx_hal_pcd.c **** }
 654:Drivers/STM32H5xx_HAL_Driver/Src/stm32h5xx_hal_pcd.c **** 
 655:Drivers/STM32H5xx_HAL_Driver/Src/stm32h5xx_hal_pcd.c **** /**
 656:Drivers/STM32H5xx_HAL_Driver/Src/stm32h5xx_hal_pcd.c ****   * @brief  Register USB PCD Iso OUT incomplete Callback
 657:Drivers/STM32H5xx_HAL_Driver/Src/stm32h5xx_hal_pcd.c ****   *         To be used instead of the weak HAL_PCD_ISOOUTIncompleteCallback() predefined callback
 658:Drivers/STM32H5xx_HAL_Driver/Src/stm32h5xx_hal_pcd.c ****   * @param  hpcd PCD handle
 659:Drivers/STM32H5xx_HAL_Driver/Src/stm32h5xx_hal_pcd.c ****   * @param  pCallback pointer to the USB PCD Iso OUT incomplete Callback function
 660:Drivers/STM32H5xx_HAL_Driver/Src/stm32h5xx_hal_pcd.c ****   * @retval HAL status
 661:Drivers/STM32H5xx_HAL_Driver/Src/stm32h5xx_hal_pcd.c ****   */
 662:Drivers/STM32H5xx_HAL_Driver/Src/stm32h5xx_hal_pcd.c **** HAL_StatusTypeDef HAL_PCD_RegisterIsoOutIncpltCallback(PCD_HandleTypeDef *hpcd,
 663:Drivers/STM32H5xx_HAL_Driver/Src/stm32h5xx_hal_pcd.c ****                                                        pPCD_IsoOutIncpltCallbackTypeDef pCallback)
 664:Drivers/STM32H5xx_HAL_Driver/Src/stm32h5xx_hal_pcd.c **** {
 665:Drivers/STM32H5xx_HAL_Driver/Src/stm32h5xx_hal_pcd.c ****   HAL_StatusTypeDef status = HAL_OK;
 666:Drivers/STM32H5xx_HAL_Driver/Src/stm32h5xx_hal_pcd.c **** 
 667:Drivers/STM32H5xx_HAL_Driver/Src/stm32h5xx_hal_pcd.c ****   if (pCallback == NULL)
 668:Drivers/STM32H5xx_HAL_Driver/Src/stm32h5xx_hal_pcd.c ****   {
 669:Drivers/STM32H5xx_HAL_Driver/Src/stm32h5xx_hal_pcd.c ****     /* Update the error code */
 670:Drivers/STM32H5xx_HAL_Driver/Src/stm32h5xx_hal_pcd.c ****     hpcd->ErrorCode |= HAL_PCD_ERROR_INVALID_CALLBACK;
 671:Drivers/STM32H5xx_HAL_Driver/Src/stm32h5xx_hal_pcd.c **** 
 672:Drivers/STM32H5xx_HAL_Driver/Src/stm32h5xx_hal_pcd.c ****     return HAL_ERROR;
 673:Drivers/STM32H5xx_HAL_Driver/Src/stm32h5xx_hal_pcd.c ****   }
 674:Drivers/STM32H5xx_HAL_Driver/Src/stm32h5xx_hal_pcd.c **** 
 675:Drivers/STM32H5xx_HAL_Driver/Src/stm32h5xx_hal_pcd.c ****   /* Process locked */
 676:Drivers/STM32H5xx_HAL_Driver/Src/stm32h5xx_hal_pcd.c ****   __HAL_LOCK(hpcd);
 677:Drivers/STM32H5xx_HAL_Driver/Src/stm32h5xx_hal_pcd.c **** 
 678:Drivers/STM32H5xx_HAL_Driver/Src/stm32h5xx_hal_pcd.c ****   if (hpcd->State == HAL_PCD_STATE_READY)
 679:Drivers/STM32H5xx_HAL_Driver/Src/stm32h5xx_hal_pcd.c ****   {
 680:Drivers/STM32H5xx_HAL_Driver/Src/stm32h5xx_hal_pcd.c ****     hpcd->ISOOUTIncompleteCallback = pCallback;
 681:Drivers/STM32H5xx_HAL_Driver/Src/stm32h5xx_hal_pcd.c ****   }
 682:Drivers/STM32H5xx_HAL_Driver/Src/stm32h5xx_hal_pcd.c ****   else
 683:Drivers/STM32H5xx_HAL_Driver/Src/stm32h5xx_hal_pcd.c ****   {
 684:Drivers/STM32H5xx_HAL_Driver/Src/stm32h5xx_hal_pcd.c ****     /* Update the error code */
 685:Drivers/STM32H5xx_HAL_Driver/Src/stm32h5xx_hal_pcd.c ****     hpcd->ErrorCode |= HAL_PCD_ERROR_INVALID_CALLBACK;
ARM GAS  /var/folders/l3/rwskfq612tq4b7hmtv37jkjw0000gp/T//ccPIyasB.s 			page 27


 686:Drivers/STM32H5xx_HAL_Driver/Src/stm32h5xx_hal_pcd.c **** 
 687:Drivers/STM32H5xx_HAL_Driver/Src/stm32h5xx_hal_pcd.c ****     /* Return error status */
 688:Drivers/STM32H5xx_HAL_Driver/Src/stm32h5xx_hal_pcd.c ****     status =  HAL_ERROR;
 689:Drivers/STM32H5xx_HAL_Driver/Src/stm32h5xx_hal_pcd.c ****   }
 690:Drivers/STM32H5xx_HAL_Driver/Src/stm32h5xx_hal_pcd.c **** 
 691:Drivers/STM32H5xx_HAL_Driver/Src/stm32h5xx_hal_pcd.c ****   /* Release Lock */
 692:Drivers/STM32H5xx_HAL_Driver/Src/stm32h5xx_hal_pcd.c ****   __HAL_UNLOCK(hpcd);
 693:Drivers/STM32H5xx_HAL_Driver/Src/stm32h5xx_hal_pcd.c **** 
 694:Drivers/STM32H5xx_HAL_Driver/Src/stm32h5xx_hal_pcd.c ****   return status;
 695:Drivers/STM32H5xx_HAL_Driver/Src/stm32h5xx_hal_pcd.c **** }
 696:Drivers/STM32H5xx_HAL_Driver/Src/stm32h5xx_hal_pcd.c **** 
 697:Drivers/STM32H5xx_HAL_Driver/Src/stm32h5xx_hal_pcd.c **** /**
 698:Drivers/STM32H5xx_HAL_Driver/Src/stm32h5xx_hal_pcd.c ****   * @brief  Unregister the USB PCD Iso OUT incomplete Callback
 699:Drivers/STM32H5xx_HAL_Driver/Src/stm32h5xx_hal_pcd.c ****   *         USB PCD Iso OUT incomplete Callback is redirected
 700:Drivers/STM32H5xx_HAL_Driver/Src/stm32h5xx_hal_pcd.c ****   *         to the weak HAL_PCD_ISOOUTIncompleteCallback() predefined callback
 701:Drivers/STM32H5xx_HAL_Driver/Src/stm32h5xx_hal_pcd.c ****   * @param  hpcd PCD handle
 702:Drivers/STM32H5xx_HAL_Driver/Src/stm32h5xx_hal_pcd.c ****   * @retval HAL status
 703:Drivers/STM32H5xx_HAL_Driver/Src/stm32h5xx_hal_pcd.c ****   */
 704:Drivers/STM32H5xx_HAL_Driver/Src/stm32h5xx_hal_pcd.c **** HAL_StatusTypeDef HAL_PCD_UnRegisterIsoOutIncpltCallback(PCD_HandleTypeDef *hpcd)
 705:Drivers/STM32H5xx_HAL_Driver/Src/stm32h5xx_hal_pcd.c **** {
 706:Drivers/STM32H5xx_HAL_Driver/Src/stm32h5xx_hal_pcd.c ****   HAL_StatusTypeDef status = HAL_OK;
 707:Drivers/STM32H5xx_HAL_Driver/Src/stm32h5xx_hal_pcd.c **** 
 708:Drivers/STM32H5xx_HAL_Driver/Src/stm32h5xx_hal_pcd.c ****   /* Process locked */
 709:Drivers/STM32H5xx_HAL_Driver/Src/stm32h5xx_hal_pcd.c ****   __HAL_LOCK(hpcd);
 710:Drivers/STM32H5xx_HAL_Driver/Src/stm32h5xx_hal_pcd.c **** 
 711:Drivers/STM32H5xx_HAL_Driver/Src/stm32h5xx_hal_pcd.c ****   if (hpcd->State == HAL_PCD_STATE_READY)
 712:Drivers/STM32H5xx_HAL_Driver/Src/stm32h5xx_hal_pcd.c ****   {
 713:Drivers/STM32H5xx_HAL_Driver/Src/stm32h5xx_hal_pcd.c ****     hpcd->ISOOUTIncompleteCallback = HAL_PCD_ISOOUTIncompleteCallback; /* Legacy weak ISOOUTIncompl
 714:Drivers/STM32H5xx_HAL_Driver/Src/stm32h5xx_hal_pcd.c ****   }
 715:Drivers/STM32H5xx_HAL_Driver/Src/stm32h5xx_hal_pcd.c ****   else
 716:Drivers/STM32H5xx_HAL_Driver/Src/stm32h5xx_hal_pcd.c ****   {
 717:Drivers/STM32H5xx_HAL_Driver/Src/stm32h5xx_hal_pcd.c ****     /* Update the error code */
 718:Drivers/STM32H5xx_HAL_Driver/Src/stm32h5xx_hal_pcd.c ****     hpcd->ErrorCode |= HAL_PCD_ERROR_INVALID_CALLBACK;
 719:Drivers/STM32H5xx_HAL_Driver/Src/stm32h5xx_hal_pcd.c **** 
 720:Drivers/STM32H5xx_HAL_Driver/Src/stm32h5xx_hal_pcd.c ****     /* Return error status */
 721:Drivers/STM32H5xx_HAL_Driver/Src/stm32h5xx_hal_pcd.c ****     status =  HAL_ERROR;
 722:Drivers/STM32H5xx_HAL_Driver/Src/stm32h5xx_hal_pcd.c ****   }
 723:Drivers/STM32H5xx_HAL_Driver/Src/stm32h5xx_hal_pcd.c **** 
 724:Drivers/STM32H5xx_HAL_Driver/Src/stm32h5xx_hal_pcd.c ****   /* Release Lock */
 725:Drivers/STM32H5xx_HAL_Driver/Src/stm32h5xx_hal_pcd.c ****   __HAL_UNLOCK(hpcd);
 726:Drivers/STM32H5xx_HAL_Driver/Src/stm32h5xx_hal_pcd.c **** 
 727:Drivers/STM32H5xx_HAL_Driver/Src/stm32h5xx_hal_pcd.c ****   return status;
 728:Drivers/STM32H5xx_HAL_Driver/Src/stm32h5xx_hal_pcd.c **** }
 729:Drivers/STM32H5xx_HAL_Driver/Src/stm32h5xx_hal_pcd.c **** 
 730:Drivers/STM32H5xx_HAL_Driver/Src/stm32h5xx_hal_pcd.c **** /**
 731:Drivers/STM32H5xx_HAL_Driver/Src/stm32h5xx_hal_pcd.c ****   * @brief  Register USB PCD Iso IN incomplete Callback
 732:Drivers/STM32H5xx_HAL_Driver/Src/stm32h5xx_hal_pcd.c ****   *         To be used instead of the weak HAL_PCD_ISOINIncompleteCallback() predefined callback
 733:Drivers/STM32H5xx_HAL_Driver/Src/stm32h5xx_hal_pcd.c ****   * @param  hpcd PCD handle
 734:Drivers/STM32H5xx_HAL_Driver/Src/stm32h5xx_hal_pcd.c ****   * @param  pCallback pointer to the USB PCD Iso IN incomplete Callback function
 735:Drivers/STM32H5xx_HAL_Driver/Src/stm32h5xx_hal_pcd.c ****   * @retval HAL status
 736:Drivers/STM32H5xx_HAL_Driver/Src/stm32h5xx_hal_pcd.c ****   */
 737:Drivers/STM32H5xx_HAL_Driver/Src/stm32h5xx_hal_pcd.c **** HAL_StatusTypeDef HAL_PCD_RegisterIsoInIncpltCallback(PCD_HandleTypeDef *hpcd,
 738:Drivers/STM32H5xx_HAL_Driver/Src/stm32h5xx_hal_pcd.c ****                                                       pPCD_IsoInIncpltCallbackTypeDef pCallback)
 739:Drivers/STM32H5xx_HAL_Driver/Src/stm32h5xx_hal_pcd.c **** {
 740:Drivers/STM32H5xx_HAL_Driver/Src/stm32h5xx_hal_pcd.c ****   HAL_StatusTypeDef status = HAL_OK;
 741:Drivers/STM32H5xx_HAL_Driver/Src/stm32h5xx_hal_pcd.c **** 
 742:Drivers/STM32H5xx_HAL_Driver/Src/stm32h5xx_hal_pcd.c ****   if (pCallback == NULL)
ARM GAS  /var/folders/l3/rwskfq612tq4b7hmtv37jkjw0000gp/T//ccPIyasB.s 			page 28


 743:Drivers/STM32H5xx_HAL_Driver/Src/stm32h5xx_hal_pcd.c ****   {
 744:Drivers/STM32H5xx_HAL_Driver/Src/stm32h5xx_hal_pcd.c ****     /* Update the error code */
 745:Drivers/STM32H5xx_HAL_Driver/Src/stm32h5xx_hal_pcd.c ****     hpcd->ErrorCode |= HAL_PCD_ERROR_INVALID_CALLBACK;
 746:Drivers/STM32H5xx_HAL_Driver/Src/stm32h5xx_hal_pcd.c **** 
 747:Drivers/STM32H5xx_HAL_Driver/Src/stm32h5xx_hal_pcd.c ****     return HAL_ERROR;
 748:Drivers/STM32H5xx_HAL_Driver/Src/stm32h5xx_hal_pcd.c ****   }
 749:Drivers/STM32H5xx_HAL_Driver/Src/stm32h5xx_hal_pcd.c **** 
 750:Drivers/STM32H5xx_HAL_Driver/Src/stm32h5xx_hal_pcd.c ****   /* Process locked */
 751:Drivers/STM32H5xx_HAL_Driver/Src/stm32h5xx_hal_pcd.c ****   __HAL_LOCK(hpcd);
 752:Drivers/STM32H5xx_HAL_Driver/Src/stm32h5xx_hal_pcd.c **** 
 753:Drivers/STM32H5xx_HAL_Driver/Src/stm32h5xx_hal_pcd.c ****   if (hpcd->State == HAL_PCD_STATE_READY)
 754:Drivers/STM32H5xx_HAL_Driver/Src/stm32h5xx_hal_pcd.c ****   {
 755:Drivers/STM32H5xx_HAL_Driver/Src/stm32h5xx_hal_pcd.c ****     hpcd->ISOINIncompleteCallback = pCallback;
 756:Drivers/STM32H5xx_HAL_Driver/Src/stm32h5xx_hal_pcd.c ****   }
 757:Drivers/STM32H5xx_HAL_Driver/Src/stm32h5xx_hal_pcd.c ****   else
 758:Drivers/STM32H5xx_HAL_Driver/Src/stm32h5xx_hal_pcd.c ****   {
 759:Drivers/STM32H5xx_HAL_Driver/Src/stm32h5xx_hal_pcd.c ****     /* Update the error code */
 760:Drivers/STM32H5xx_HAL_Driver/Src/stm32h5xx_hal_pcd.c ****     hpcd->ErrorCode |= HAL_PCD_ERROR_INVALID_CALLBACK;
 761:Drivers/STM32H5xx_HAL_Driver/Src/stm32h5xx_hal_pcd.c **** 
 762:Drivers/STM32H5xx_HAL_Driver/Src/stm32h5xx_hal_pcd.c ****     /* Return error status */
 763:Drivers/STM32H5xx_HAL_Driver/Src/stm32h5xx_hal_pcd.c ****     status =  HAL_ERROR;
 764:Drivers/STM32H5xx_HAL_Driver/Src/stm32h5xx_hal_pcd.c ****   }
 765:Drivers/STM32H5xx_HAL_Driver/Src/stm32h5xx_hal_pcd.c **** 
 766:Drivers/STM32H5xx_HAL_Driver/Src/stm32h5xx_hal_pcd.c ****   /* Release Lock */
 767:Drivers/STM32H5xx_HAL_Driver/Src/stm32h5xx_hal_pcd.c ****   __HAL_UNLOCK(hpcd);
 768:Drivers/STM32H5xx_HAL_Driver/Src/stm32h5xx_hal_pcd.c **** 
 769:Drivers/STM32H5xx_HAL_Driver/Src/stm32h5xx_hal_pcd.c ****   return status;
 770:Drivers/STM32H5xx_HAL_Driver/Src/stm32h5xx_hal_pcd.c **** }
 771:Drivers/STM32H5xx_HAL_Driver/Src/stm32h5xx_hal_pcd.c **** 
 772:Drivers/STM32H5xx_HAL_Driver/Src/stm32h5xx_hal_pcd.c **** /**
 773:Drivers/STM32H5xx_HAL_Driver/Src/stm32h5xx_hal_pcd.c ****   * @brief  Unregister the USB PCD Iso IN incomplete Callback
 774:Drivers/STM32H5xx_HAL_Driver/Src/stm32h5xx_hal_pcd.c ****   *         USB PCD Iso IN incomplete Callback is redirected
 775:Drivers/STM32H5xx_HAL_Driver/Src/stm32h5xx_hal_pcd.c ****   *         to the weak HAL_PCD_ISOINIncompleteCallback() predefined callback
 776:Drivers/STM32H5xx_HAL_Driver/Src/stm32h5xx_hal_pcd.c ****   * @param  hpcd PCD handle
 777:Drivers/STM32H5xx_HAL_Driver/Src/stm32h5xx_hal_pcd.c ****   * @retval HAL status
 778:Drivers/STM32H5xx_HAL_Driver/Src/stm32h5xx_hal_pcd.c ****   */
 779:Drivers/STM32H5xx_HAL_Driver/Src/stm32h5xx_hal_pcd.c **** HAL_StatusTypeDef HAL_PCD_UnRegisterIsoInIncpltCallback(PCD_HandleTypeDef *hpcd)
 780:Drivers/STM32H5xx_HAL_Driver/Src/stm32h5xx_hal_pcd.c **** {
 781:Drivers/STM32H5xx_HAL_Driver/Src/stm32h5xx_hal_pcd.c ****   HAL_StatusTypeDef status = HAL_OK;
 782:Drivers/STM32H5xx_HAL_Driver/Src/stm32h5xx_hal_pcd.c **** 
 783:Drivers/STM32H5xx_HAL_Driver/Src/stm32h5xx_hal_pcd.c ****   /* Process locked */
 784:Drivers/STM32H5xx_HAL_Driver/Src/stm32h5xx_hal_pcd.c ****   __HAL_LOCK(hpcd);
 785:Drivers/STM32H5xx_HAL_Driver/Src/stm32h5xx_hal_pcd.c **** 
 786:Drivers/STM32H5xx_HAL_Driver/Src/stm32h5xx_hal_pcd.c ****   if (hpcd->State == HAL_PCD_STATE_READY)
 787:Drivers/STM32H5xx_HAL_Driver/Src/stm32h5xx_hal_pcd.c ****   {
 788:Drivers/STM32H5xx_HAL_Driver/Src/stm32h5xx_hal_pcd.c ****     hpcd->ISOINIncompleteCallback = HAL_PCD_ISOINIncompleteCallback; /* Legacy weak ISOINIncomplete
 789:Drivers/STM32H5xx_HAL_Driver/Src/stm32h5xx_hal_pcd.c ****   }
 790:Drivers/STM32H5xx_HAL_Driver/Src/stm32h5xx_hal_pcd.c ****   else
 791:Drivers/STM32H5xx_HAL_Driver/Src/stm32h5xx_hal_pcd.c ****   {
 792:Drivers/STM32H5xx_HAL_Driver/Src/stm32h5xx_hal_pcd.c ****     /* Update the error code */
 793:Drivers/STM32H5xx_HAL_Driver/Src/stm32h5xx_hal_pcd.c ****     hpcd->ErrorCode |= HAL_PCD_ERROR_INVALID_CALLBACK;
 794:Drivers/STM32H5xx_HAL_Driver/Src/stm32h5xx_hal_pcd.c **** 
 795:Drivers/STM32H5xx_HAL_Driver/Src/stm32h5xx_hal_pcd.c ****     /* Return error status */
 796:Drivers/STM32H5xx_HAL_Driver/Src/stm32h5xx_hal_pcd.c ****     status =  HAL_ERROR;
 797:Drivers/STM32H5xx_HAL_Driver/Src/stm32h5xx_hal_pcd.c ****   }
 798:Drivers/STM32H5xx_HAL_Driver/Src/stm32h5xx_hal_pcd.c **** 
 799:Drivers/STM32H5xx_HAL_Driver/Src/stm32h5xx_hal_pcd.c ****   /* Release Lock */
ARM GAS  /var/folders/l3/rwskfq612tq4b7hmtv37jkjw0000gp/T//ccPIyasB.s 			page 29


 800:Drivers/STM32H5xx_HAL_Driver/Src/stm32h5xx_hal_pcd.c ****   __HAL_UNLOCK(hpcd);
 801:Drivers/STM32H5xx_HAL_Driver/Src/stm32h5xx_hal_pcd.c **** 
 802:Drivers/STM32H5xx_HAL_Driver/Src/stm32h5xx_hal_pcd.c ****   return status;
 803:Drivers/STM32H5xx_HAL_Driver/Src/stm32h5xx_hal_pcd.c **** }
 804:Drivers/STM32H5xx_HAL_Driver/Src/stm32h5xx_hal_pcd.c **** 
 805:Drivers/STM32H5xx_HAL_Driver/Src/stm32h5xx_hal_pcd.c **** /**
 806:Drivers/STM32H5xx_HAL_Driver/Src/stm32h5xx_hal_pcd.c ****   * @brief  Register USB PCD BCD Callback
 807:Drivers/STM32H5xx_HAL_Driver/Src/stm32h5xx_hal_pcd.c ****   *         To be used instead of the weak HAL_PCDEx_BCD_Callback() predefined callback
 808:Drivers/STM32H5xx_HAL_Driver/Src/stm32h5xx_hal_pcd.c ****   * @param  hpcd PCD handle
 809:Drivers/STM32H5xx_HAL_Driver/Src/stm32h5xx_hal_pcd.c ****   * @param  pCallback pointer to the USB PCD BCD Callback function
 810:Drivers/STM32H5xx_HAL_Driver/Src/stm32h5xx_hal_pcd.c ****   * @retval HAL status
 811:Drivers/STM32H5xx_HAL_Driver/Src/stm32h5xx_hal_pcd.c ****   */
 812:Drivers/STM32H5xx_HAL_Driver/Src/stm32h5xx_hal_pcd.c **** HAL_StatusTypeDef HAL_PCD_RegisterBcdCallback(PCD_HandleTypeDef *hpcd, pPCD_BcdCallbackTypeDef pCal
 813:Drivers/STM32H5xx_HAL_Driver/Src/stm32h5xx_hal_pcd.c **** {
 814:Drivers/STM32H5xx_HAL_Driver/Src/stm32h5xx_hal_pcd.c ****   HAL_StatusTypeDef status = HAL_OK;
 815:Drivers/STM32H5xx_HAL_Driver/Src/stm32h5xx_hal_pcd.c **** 
 816:Drivers/STM32H5xx_HAL_Driver/Src/stm32h5xx_hal_pcd.c ****   if (pCallback == NULL)
 817:Drivers/STM32H5xx_HAL_Driver/Src/stm32h5xx_hal_pcd.c ****   {
 818:Drivers/STM32H5xx_HAL_Driver/Src/stm32h5xx_hal_pcd.c ****     /* Update the error code */
 819:Drivers/STM32H5xx_HAL_Driver/Src/stm32h5xx_hal_pcd.c ****     hpcd->ErrorCode |= HAL_PCD_ERROR_INVALID_CALLBACK;
 820:Drivers/STM32H5xx_HAL_Driver/Src/stm32h5xx_hal_pcd.c **** 
 821:Drivers/STM32H5xx_HAL_Driver/Src/stm32h5xx_hal_pcd.c ****     return HAL_ERROR;
 822:Drivers/STM32H5xx_HAL_Driver/Src/stm32h5xx_hal_pcd.c ****   }
 823:Drivers/STM32H5xx_HAL_Driver/Src/stm32h5xx_hal_pcd.c **** 
 824:Drivers/STM32H5xx_HAL_Driver/Src/stm32h5xx_hal_pcd.c ****   /* Process locked */
 825:Drivers/STM32H5xx_HAL_Driver/Src/stm32h5xx_hal_pcd.c ****   __HAL_LOCK(hpcd);
 826:Drivers/STM32H5xx_HAL_Driver/Src/stm32h5xx_hal_pcd.c **** 
 827:Drivers/STM32H5xx_HAL_Driver/Src/stm32h5xx_hal_pcd.c ****   if (hpcd->State == HAL_PCD_STATE_READY)
 828:Drivers/STM32H5xx_HAL_Driver/Src/stm32h5xx_hal_pcd.c ****   {
 829:Drivers/STM32H5xx_HAL_Driver/Src/stm32h5xx_hal_pcd.c ****     hpcd->BCDCallback = pCallback;
 830:Drivers/STM32H5xx_HAL_Driver/Src/stm32h5xx_hal_pcd.c ****   }
 831:Drivers/STM32H5xx_HAL_Driver/Src/stm32h5xx_hal_pcd.c ****   else
 832:Drivers/STM32H5xx_HAL_Driver/Src/stm32h5xx_hal_pcd.c ****   {
 833:Drivers/STM32H5xx_HAL_Driver/Src/stm32h5xx_hal_pcd.c ****     /* Update the error code */
 834:Drivers/STM32H5xx_HAL_Driver/Src/stm32h5xx_hal_pcd.c ****     hpcd->ErrorCode |= HAL_PCD_ERROR_INVALID_CALLBACK;
 835:Drivers/STM32H5xx_HAL_Driver/Src/stm32h5xx_hal_pcd.c **** 
 836:Drivers/STM32H5xx_HAL_Driver/Src/stm32h5xx_hal_pcd.c ****     /* Return error status */
 837:Drivers/STM32H5xx_HAL_Driver/Src/stm32h5xx_hal_pcd.c ****     status =  HAL_ERROR;
 838:Drivers/STM32H5xx_HAL_Driver/Src/stm32h5xx_hal_pcd.c ****   }
 839:Drivers/STM32H5xx_HAL_Driver/Src/stm32h5xx_hal_pcd.c **** 
 840:Drivers/STM32H5xx_HAL_Driver/Src/stm32h5xx_hal_pcd.c ****   /* Release Lock */
 841:Drivers/STM32H5xx_HAL_Driver/Src/stm32h5xx_hal_pcd.c ****   __HAL_UNLOCK(hpcd);
 842:Drivers/STM32H5xx_HAL_Driver/Src/stm32h5xx_hal_pcd.c **** 
 843:Drivers/STM32H5xx_HAL_Driver/Src/stm32h5xx_hal_pcd.c ****   return status;
 844:Drivers/STM32H5xx_HAL_Driver/Src/stm32h5xx_hal_pcd.c **** }
 845:Drivers/STM32H5xx_HAL_Driver/Src/stm32h5xx_hal_pcd.c **** 
 846:Drivers/STM32H5xx_HAL_Driver/Src/stm32h5xx_hal_pcd.c **** /**
 847:Drivers/STM32H5xx_HAL_Driver/Src/stm32h5xx_hal_pcd.c ****   * @brief  Unregister the USB PCD BCD Callback
 848:Drivers/STM32H5xx_HAL_Driver/Src/stm32h5xx_hal_pcd.c ****   *         USB BCD Callback is redirected to the weak HAL_PCDEx_BCD_Callback() predefined callback
 849:Drivers/STM32H5xx_HAL_Driver/Src/stm32h5xx_hal_pcd.c ****   * @param  hpcd PCD handle
 850:Drivers/STM32H5xx_HAL_Driver/Src/stm32h5xx_hal_pcd.c ****   * @retval HAL status
 851:Drivers/STM32H5xx_HAL_Driver/Src/stm32h5xx_hal_pcd.c ****   */
 852:Drivers/STM32H5xx_HAL_Driver/Src/stm32h5xx_hal_pcd.c **** HAL_StatusTypeDef HAL_PCD_UnRegisterBcdCallback(PCD_HandleTypeDef *hpcd)
 853:Drivers/STM32H5xx_HAL_Driver/Src/stm32h5xx_hal_pcd.c **** {
 854:Drivers/STM32H5xx_HAL_Driver/Src/stm32h5xx_hal_pcd.c ****   HAL_StatusTypeDef status = HAL_OK;
 855:Drivers/STM32H5xx_HAL_Driver/Src/stm32h5xx_hal_pcd.c **** 
 856:Drivers/STM32H5xx_HAL_Driver/Src/stm32h5xx_hal_pcd.c ****   /* Process locked */
ARM GAS  /var/folders/l3/rwskfq612tq4b7hmtv37jkjw0000gp/T//ccPIyasB.s 			page 30


 857:Drivers/STM32H5xx_HAL_Driver/Src/stm32h5xx_hal_pcd.c ****   __HAL_LOCK(hpcd);
 858:Drivers/STM32H5xx_HAL_Driver/Src/stm32h5xx_hal_pcd.c **** 
 859:Drivers/STM32H5xx_HAL_Driver/Src/stm32h5xx_hal_pcd.c ****   if (hpcd->State == HAL_PCD_STATE_READY)
 860:Drivers/STM32H5xx_HAL_Driver/Src/stm32h5xx_hal_pcd.c ****   {
 861:Drivers/STM32H5xx_HAL_Driver/Src/stm32h5xx_hal_pcd.c ****     hpcd->BCDCallback = HAL_PCDEx_BCD_Callback; /* Legacy weak HAL_PCDEx_BCD_Callback  */
 862:Drivers/STM32H5xx_HAL_Driver/Src/stm32h5xx_hal_pcd.c ****   }
 863:Drivers/STM32H5xx_HAL_Driver/Src/stm32h5xx_hal_pcd.c ****   else
 864:Drivers/STM32H5xx_HAL_Driver/Src/stm32h5xx_hal_pcd.c ****   {
 865:Drivers/STM32H5xx_HAL_Driver/Src/stm32h5xx_hal_pcd.c ****     /* Update the error code */
 866:Drivers/STM32H5xx_HAL_Driver/Src/stm32h5xx_hal_pcd.c ****     hpcd->ErrorCode |= HAL_PCD_ERROR_INVALID_CALLBACK;
 867:Drivers/STM32H5xx_HAL_Driver/Src/stm32h5xx_hal_pcd.c **** 
 868:Drivers/STM32H5xx_HAL_Driver/Src/stm32h5xx_hal_pcd.c ****     /* Return error status */
 869:Drivers/STM32H5xx_HAL_Driver/Src/stm32h5xx_hal_pcd.c ****     status =  HAL_ERROR;
 870:Drivers/STM32H5xx_HAL_Driver/Src/stm32h5xx_hal_pcd.c ****   }
 871:Drivers/STM32H5xx_HAL_Driver/Src/stm32h5xx_hal_pcd.c **** 
 872:Drivers/STM32H5xx_HAL_Driver/Src/stm32h5xx_hal_pcd.c ****   /* Release Lock */
 873:Drivers/STM32H5xx_HAL_Driver/Src/stm32h5xx_hal_pcd.c ****   __HAL_UNLOCK(hpcd);
 874:Drivers/STM32H5xx_HAL_Driver/Src/stm32h5xx_hal_pcd.c **** 
 875:Drivers/STM32H5xx_HAL_Driver/Src/stm32h5xx_hal_pcd.c ****   return status;
 876:Drivers/STM32H5xx_HAL_Driver/Src/stm32h5xx_hal_pcd.c **** }
 877:Drivers/STM32H5xx_HAL_Driver/Src/stm32h5xx_hal_pcd.c **** 
 878:Drivers/STM32H5xx_HAL_Driver/Src/stm32h5xx_hal_pcd.c **** /**
 879:Drivers/STM32H5xx_HAL_Driver/Src/stm32h5xx_hal_pcd.c ****   * @brief  Register USB PCD LPM Callback
 880:Drivers/STM32H5xx_HAL_Driver/Src/stm32h5xx_hal_pcd.c ****   *         To be used instead of the weak HAL_PCDEx_LPM_Callback() predefined callback
 881:Drivers/STM32H5xx_HAL_Driver/Src/stm32h5xx_hal_pcd.c ****   * @param  hpcd PCD handle
 882:Drivers/STM32H5xx_HAL_Driver/Src/stm32h5xx_hal_pcd.c ****   * @param  pCallback pointer to the USB PCD LPM Callback function
 883:Drivers/STM32H5xx_HAL_Driver/Src/stm32h5xx_hal_pcd.c ****   * @retval HAL status
 884:Drivers/STM32H5xx_HAL_Driver/Src/stm32h5xx_hal_pcd.c ****   */
 885:Drivers/STM32H5xx_HAL_Driver/Src/stm32h5xx_hal_pcd.c **** HAL_StatusTypeDef HAL_PCD_RegisterLpmCallback(PCD_HandleTypeDef *hpcd, pPCD_LpmCallbackTypeDef pCal
 886:Drivers/STM32H5xx_HAL_Driver/Src/stm32h5xx_hal_pcd.c **** {
 887:Drivers/STM32H5xx_HAL_Driver/Src/stm32h5xx_hal_pcd.c ****   HAL_StatusTypeDef status = HAL_OK;
 888:Drivers/STM32H5xx_HAL_Driver/Src/stm32h5xx_hal_pcd.c **** 
 889:Drivers/STM32H5xx_HAL_Driver/Src/stm32h5xx_hal_pcd.c ****   if (pCallback == NULL)
 890:Drivers/STM32H5xx_HAL_Driver/Src/stm32h5xx_hal_pcd.c ****   {
 891:Drivers/STM32H5xx_HAL_Driver/Src/stm32h5xx_hal_pcd.c ****     /* Update the error code */
 892:Drivers/STM32H5xx_HAL_Driver/Src/stm32h5xx_hal_pcd.c ****     hpcd->ErrorCode |= HAL_PCD_ERROR_INVALID_CALLBACK;
 893:Drivers/STM32H5xx_HAL_Driver/Src/stm32h5xx_hal_pcd.c **** 
 894:Drivers/STM32H5xx_HAL_Driver/Src/stm32h5xx_hal_pcd.c ****     return HAL_ERROR;
 895:Drivers/STM32H5xx_HAL_Driver/Src/stm32h5xx_hal_pcd.c ****   }
 896:Drivers/STM32H5xx_HAL_Driver/Src/stm32h5xx_hal_pcd.c **** 
 897:Drivers/STM32H5xx_HAL_Driver/Src/stm32h5xx_hal_pcd.c ****   /* Process locked */
 898:Drivers/STM32H5xx_HAL_Driver/Src/stm32h5xx_hal_pcd.c ****   __HAL_LOCK(hpcd);
 899:Drivers/STM32H5xx_HAL_Driver/Src/stm32h5xx_hal_pcd.c **** 
 900:Drivers/STM32H5xx_HAL_Driver/Src/stm32h5xx_hal_pcd.c ****   if (hpcd->State == HAL_PCD_STATE_READY)
 901:Drivers/STM32H5xx_HAL_Driver/Src/stm32h5xx_hal_pcd.c ****   {
 902:Drivers/STM32H5xx_HAL_Driver/Src/stm32h5xx_hal_pcd.c ****     hpcd->LPMCallback = pCallback;
 903:Drivers/STM32H5xx_HAL_Driver/Src/stm32h5xx_hal_pcd.c ****   }
 904:Drivers/STM32H5xx_HAL_Driver/Src/stm32h5xx_hal_pcd.c ****   else
 905:Drivers/STM32H5xx_HAL_Driver/Src/stm32h5xx_hal_pcd.c ****   {
 906:Drivers/STM32H5xx_HAL_Driver/Src/stm32h5xx_hal_pcd.c ****     /* Update the error code */
 907:Drivers/STM32H5xx_HAL_Driver/Src/stm32h5xx_hal_pcd.c ****     hpcd->ErrorCode |= HAL_PCD_ERROR_INVALID_CALLBACK;
 908:Drivers/STM32H5xx_HAL_Driver/Src/stm32h5xx_hal_pcd.c **** 
 909:Drivers/STM32H5xx_HAL_Driver/Src/stm32h5xx_hal_pcd.c ****     /* Return error status */
 910:Drivers/STM32H5xx_HAL_Driver/Src/stm32h5xx_hal_pcd.c ****     status =  HAL_ERROR;
 911:Drivers/STM32H5xx_HAL_Driver/Src/stm32h5xx_hal_pcd.c ****   }
 912:Drivers/STM32H5xx_HAL_Driver/Src/stm32h5xx_hal_pcd.c **** 
 913:Drivers/STM32H5xx_HAL_Driver/Src/stm32h5xx_hal_pcd.c ****   /* Release Lock */
ARM GAS  /var/folders/l3/rwskfq612tq4b7hmtv37jkjw0000gp/T//ccPIyasB.s 			page 31


 914:Drivers/STM32H5xx_HAL_Driver/Src/stm32h5xx_hal_pcd.c ****   __HAL_UNLOCK(hpcd);
 915:Drivers/STM32H5xx_HAL_Driver/Src/stm32h5xx_hal_pcd.c **** 
 916:Drivers/STM32H5xx_HAL_Driver/Src/stm32h5xx_hal_pcd.c ****   return status;
 917:Drivers/STM32H5xx_HAL_Driver/Src/stm32h5xx_hal_pcd.c **** }
 918:Drivers/STM32H5xx_HAL_Driver/Src/stm32h5xx_hal_pcd.c **** 
 919:Drivers/STM32H5xx_HAL_Driver/Src/stm32h5xx_hal_pcd.c **** /**
 920:Drivers/STM32H5xx_HAL_Driver/Src/stm32h5xx_hal_pcd.c ****   * @brief  Unregister the USB PCD LPM Callback
 921:Drivers/STM32H5xx_HAL_Driver/Src/stm32h5xx_hal_pcd.c ****   *         USB LPM Callback is redirected to the weak HAL_PCDEx_LPM_Callback() predefined callback
 922:Drivers/STM32H5xx_HAL_Driver/Src/stm32h5xx_hal_pcd.c ****   * @param  hpcd PCD handle
 923:Drivers/STM32H5xx_HAL_Driver/Src/stm32h5xx_hal_pcd.c ****   * @retval HAL status
 924:Drivers/STM32H5xx_HAL_Driver/Src/stm32h5xx_hal_pcd.c ****   */
 925:Drivers/STM32H5xx_HAL_Driver/Src/stm32h5xx_hal_pcd.c **** HAL_StatusTypeDef HAL_PCD_UnRegisterLpmCallback(PCD_HandleTypeDef *hpcd)
 926:Drivers/STM32H5xx_HAL_Driver/Src/stm32h5xx_hal_pcd.c **** {
 927:Drivers/STM32H5xx_HAL_Driver/Src/stm32h5xx_hal_pcd.c ****   HAL_StatusTypeDef status = HAL_OK;
 928:Drivers/STM32H5xx_HAL_Driver/Src/stm32h5xx_hal_pcd.c **** 
 929:Drivers/STM32H5xx_HAL_Driver/Src/stm32h5xx_hal_pcd.c ****   /* Process locked */
 930:Drivers/STM32H5xx_HAL_Driver/Src/stm32h5xx_hal_pcd.c ****   __HAL_LOCK(hpcd);
 931:Drivers/STM32H5xx_HAL_Driver/Src/stm32h5xx_hal_pcd.c **** 
 932:Drivers/STM32H5xx_HAL_Driver/Src/stm32h5xx_hal_pcd.c ****   if (hpcd->State == HAL_PCD_STATE_READY)
 933:Drivers/STM32H5xx_HAL_Driver/Src/stm32h5xx_hal_pcd.c ****   {
 934:Drivers/STM32H5xx_HAL_Driver/Src/stm32h5xx_hal_pcd.c ****     hpcd->LPMCallback = HAL_PCDEx_LPM_Callback; /* Legacy weak HAL_PCDEx_LPM_Callback  */
 935:Drivers/STM32H5xx_HAL_Driver/Src/stm32h5xx_hal_pcd.c ****   }
 936:Drivers/STM32H5xx_HAL_Driver/Src/stm32h5xx_hal_pcd.c ****   else
 937:Drivers/STM32H5xx_HAL_Driver/Src/stm32h5xx_hal_pcd.c ****   {
 938:Drivers/STM32H5xx_HAL_Driver/Src/stm32h5xx_hal_pcd.c ****     /* Update the error code */
 939:Drivers/STM32H5xx_HAL_Driver/Src/stm32h5xx_hal_pcd.c ****     hpcd->ErrorCode |= HAL_PCD_ERROR_INVALID_CALLBACK;
 940:Drivers/STM32H5xx_HAL_Driver/Src/stm32h5xx_hal_pcd.c **** 
 941:Drivers/STM32H5xx_HAL_Driver/Src/stm32h5xx_hal_pcd.c ****     /* Return error status */
 942:Drivers/STM32H5xx_HAL_Driver/Src/stm32h5xx_hal_pcd.c ****     status =  HAL_ERROR;
 943:Drivers/STM32H5xx_HAL_Driver/Src/stm32h5xx_hal_pcd.c ****   }
 944:Drivers/STM32H5xx_HAL_Driver/Src/stm32h5xx_hal_pcd.c **** 
 945:Drivers/STM32H5xx_HAL_Driver/Src/stm32h5xx_hal_pcd.c ****   /* Release Lock */
 946:Drivers/STM32H5xx_HAL_Driver/Src/stm32h5xx_hal_pcd.c ****   __HAL_UNLOCK(hpcd);
 947:Drivers/STM32H5xx_HAL_Driver/Src/stm32h5xx_hal_pcd.c **** 
 948:Drivers/STM32H5xx_HAL_Driver/Src/stm32h5xx_hal_pcd.c ****   return status;
 949:Drivers/STM32H5xx_HAL_Driver/Src/stm32h5xx_hal_pcd.c **** }
 950:Drivers/STM32H5xx_HAL_Driver/Src/stm32h5xx_hal_pcd.c **** #endif /* USE_HAL_PCD_REGISTER_CALLBACKS */
 951:Drivers/STM32H5xx_HAL_Driver/Src/stm32h5xx_hal_pcd.c **** 
 952:Drivers/STM32H5xx_HAL_Driver/Src/stm32h5xx_hal_pcd.c **** /**
 953:Drivers/STM32H5xx_HAL_Driver/Src/stm32h5xx_hal_pcd.c ****   * @}
 954:Drivers/STM32H5xx_HAL_Driver/Src/stm32h5xx_hal_pcd.c ****   */
 955:Drivers/STM32H5xx_HAL_Driver/Src/stm32h5xx_hal_pcd.c **** 
 956:Drivers/STM32H5xx_HAL_Driver/Src/stm32h5xx_hal_pcd.c **** /** @defgroup PCD_Exported_Functions_Group2 Input and Output operation functions
 957:Drivers/STM32H5xx_HAL_Driver/Src/stm32h5xx_hal_pcd.c ****   *  @brief   Data transfers functions
 958:Drivers/STM32H5xx_HAL_Driver/Src/stm32h5xx_hal_pcd.c ****   *
 959:Drivers/STM32H5xx_HAL_Driver/Src/stm32h5xx_hal_pcd.c **** @verbatim
 960:Drivers/STM32H5xx_HAL_Driver/Src/stm32h5xx_hal_pcd.c ****  ===============================================================================
 961:Drivers/STM32H5xx_HAL_Driver/Src/stm32h5xx_hal_pcd.c ****                       ##### IO operation functions #####
 962:Drivers/STM32H5xx_HAL_Driver/Src/stm32h5xx_hal_pcd.c ****  ===============================================================================
 963:Drivers/STM32H5xx_HAL_Driver/Src/stm32h5xx_hal_pcd.c ****     [..]
 964:Drivers/STM32H5xx_HAL_Driver/Src/stm32h5xx_hal_pcd.c ****     This subsection provides a set of functions allowing to manage the PCD data
 965:Drivers/STM32H5xx_HAL_Driver/Src/stm32h5xx_hal_pcd.c ****     transfers.
 966:Drivers/STM32H5xx_HAL_Driver/Src/stm32h5xx_hal_pcd.c **** 
 967:Drivers/STM32H5xx_HAL_Driver/Src/stm32h5xx_hal_pcd.c **** @endverbatim
 968:Drivers/STM32H5xx_HAL_Driver/Src/stm32h5xx_hal_pcd.c ****   * @{
 969:Drivers/STM32H5xx_HAL_Driver/Src/stm32h5xx_hal_pcd.c ****   */
 970:Drivers/STM32H5xx_HAL_Driver/Src/stm32h5xx_hal_pcd.c **** 
ARM GAS  /var/folders/l3/rwskfq612tq4b7hmtv37jkjw0000gp/T//ccPIyasB.s 			page 32


 971:Drivers/STM32H5xx_HAL_Driver/Src/stm32h5xx_hal_pcd.c **** /**
 972:Drivers/STM32H5xx_HAL_Driver/Src/stm32h5xx_hal_pcd.c ****   * @brief  Start the USB device
 973:Drivers/STM32H5xx_HAL_Driver/Src/stm32h5xx_hal_pcd.c ****   * @param  hpcd PCD handle
 974:Drivers/STM32H5xx_HAL_Driver/Src/stm32h5xx_hal_pcd.c ****   * @retval HAL status
 975:Drivers/STM32H5xx_HAL_Driver/Src/stm32h5xx_hal_pcd.c ****   */
 976:Drivers/STM32H5xx_HAL_Driver/Src/stm32h5xx_hal_pcd.c **** HAL_StatusTypeDef HAL_PCD_Start(PCD_HandleTypeDef *hpcd)
 977:Drivers/STM32H5xx_HAL_Driver/Src/stm32h5xx_hal_pcd.c **** {
 978:Drivers/STM32H5xx_HAL_Driver/Src/stm32h5xx_hal_pcd.c ****   __HAL_LOCK(hpcd);
 979:Drivers/STM32H5xx_HAL_Driver/Src/stm32h5xx_hal_pcd.c ****   __HAL_PCD_ENABLE(hpcd);
 980:Drivers/STM32H5xx_HAL_Driver/Src/stm32h5xx_hal_pcd.c ****   (void)USB_DevConnect(hpcd->Instance);
 981:Drivers/STM32H5xx_HAL_Driver/Src/stm32h5xx_hal_pcd.c ****   __HAL_UNLOCK(hpcd);
 982:Drivers/STM32H5xx_HAL_Driver/Src/stm32h5xx_hal_pcd.c **** 
 983:Drivers/STM32H5xx_HAL_Driver/Src/stm32h5xx_hal_pcd.c ****   return HAL_OK;
 984:Drivers/STM32H5xx_HAL_Driver/Src/stm32h5xx_hal_pcd.c **** }
 985:Drivers/STM32H5xx_HAL_Driver/Src/stm32h5xx_hal_pcd.c **** 
 986:Drivers/STM32H5xx_HAL_Driver/Src/stm32h5xx_hal_pcd.c **** /**
 987:Drivers/STM32H5xx_HAL_Driver/Src/stm32h5xx_hal_pcd.c ****   * @brief  Stop the USB device.
 988:Drivers/STM32H5xx_HAL_Driver/Src/stm32h5xx_hal_pcd.c ****   * @param  hpcd PCD handle
 989:Drivers/STM32H5xx_HAL_Driver/Src/stm32h5xx_hal_pcd.c ****   * @retval HAL status
 990:Drivers/STM32H5xx_HAL_Driver/Src/stm32h5xx_hal_pcd.c ****   */
 991:Drivers/STM32H5xx_HAL_Driver/Src/stm32h5xx_hal_pcd.c **** HAL_StatusTypeDef HAL_PCD_Stop(PCD_HandleTypeDef *hpcd)
 992:Drivers/STM32H5xx_HAL_Driver/Src/stm32h5xx_hal_pcd.c **** {
 993:Drivers/STM32H5xx_HAL_Driver/Src/stm32h5xx_hal_pcd.c ****   __HAL_LOCK(hpcd);
 994:Drivers/STM32H5xx_HAL_Driver/Src/stm32h5xx_hal_pcd.c ****   __HAL_PCD_DISABLE(hpcd);
 995:Drivers/STM32H5xx_HAL_Driver/Src/stm32h5xx_hal_pcd.c ****   (void)USB_DevDisconnect(hpcd->Instance);
 996:Drivers/STM32H5xx_HAL_Driver/Src/stm32h5xx_hal_pcd.c ****   __HAL_UNLOCK(hpcd);
 997:Drivers/STM32H5xx_HAL_Driver/Src/stm32h5xx_hal_pcd.c **** 
 998:Drivers/STM32H5xx_HAL_Driver/Src/stm32h5xx_hal_pcd.c ****   return HAL_OK;
 999:Drivers/STM32H5xx_HAL_Driver/Src/stm32h5xx_hal_pcd.c **** }
1000:Drivers/STM32H5xx_HAL_Driver/Src/stm32h5xx_hal_pcd.c **** 
1001:Drivers/STM32H5xx_HAL_Driver/Src/stm32h5xx_hal_pcd.c **** 
1002:Drivers/STM32H5xx_HAL_Driver/Src/stm32h5xx_hal_pcd.c **** /**
1003:Drivers/STM32H5xx_HAL_Driver/Src/stm32h5xx_hal_pcd.c ****   * @brief  This function handles PCD interrupt request.
1004:Drivers/STM32H5xx_HAL_Driver/Src/stm32h5xx_hal_pcd.c ****   * @param  hpcd PCD handle
1005:Drivers/STM32H5xx_HAL_Driver/Src/stm32h5xx_hal_pcd.c ****   * @retval HAL status
1006:Drivers/STM32H5xx_HAL_Driver/Src/stm32h5xx_hal_pcd.c ****   */
1007:Drivers/STM32H5xx_HAL_Driver/Src/stm32h5xx_hal_pcd.c **** void HAL_PCD_IRQHandler(PCD_HandleTypeDef *hpcd)
1008:Drivers/STM32H5xx_HAL_Driver/Src/stm32h5xx_hal_pcd.c **** {
1009:Drivers/STM32H5xx_HAL_Driver/Src/stm32h5xx_hal_pcd.c ****   uint32_t wIstr = USB_ReadInterrupts(hpcd->Instance);
1010:Drivers/STM32H5xx_HAL_Driver/Src/stm32h5xx_hal_pcd.c **** 
1011:Drivers/STM32H5xx_HAL_Driver/Src/stm32h5xx_hal_pcd.c ****   if ((wIstr & USB_ISTR_CTR) == USB_ISTR_CTR)
1012:Drivers/STM32H5xx_HAL_Driver/Src/stm32h5xx_hal_pcd.c ****   {
1013:Drivers/STM32H5xx_HAL_Driver/Src/stm32h5xx_hal_pcd.c ****     /* servicing of the endpoint correct transfer interrupt */
1014:Drivers/STM32H5xx_HAL_Driver/Src/stm32h5xx_hal_pcd.c ****     /* clear of the CTR flag into the sub */
1015:Drivers/STM32H5xx_HAL_Driver/Src/stm32h5xx_hal_pcd.c ****     (void)PCD_EP_ISR_Handler(hpcd);
1016:Drivers/STM32H5xx_HAL_Driver/Src/stm32h5xx_hal_pcd.c **** 
1017:Drivers/STM32H5xx_HAL_Driver/Src/stm32h5xx_hal_pcd.c ****     return;
1018:Drivers/STM32H5xx_HAL_Driver/Src/stm32h5xx_hal_pcd.c ****   }
1019:Drivers/STM32H5xx_HAL_Driver/Src/stm32h5xx_hal_pcd.c **** 
1020:Drivers/STM32H5xx_HAL_Driver/Src/stm32h5xx_hal_pcd.c ****   if ((wIstr & USB_ISTR_RESET) == USB_ISTR_RESET)
1021:Drivers/STM32H5xx_HAL_Driver/Src/stm32h5xx_hal_pcd.c ****   {
1022:Drivers/STM32H5xx_HAL_Driver/Src/stm32h5xx_hal_pcd.c ****     __HAL_PCD_CLEAR_FLAG(hpcd, USB_ISTR_RESET);
1023:Drivers/STM32H5xx_HAL_Driver/Src/stm32h5xx_hal_pcd.c **** 
1024:Drivers/STM32H5xx_HAL_Driver/Src/stm32h5xx_hal_pcd.c **** #if (USE_HAL_PCD_REGISTER_CALLBACKS == 1U)
1025:Drivers/STM32H5xx_HAL_Driver/Src/stm32h5xx_hal_pcd.c ****     hpcd->ResetCallback(hpcd);
1026:Drivers/STM32H5xx_HAL_Driver/Src/stm32h5xx_hal_pcd.c **** #else
1027:Drivers/STM32H5xx_HAL_Driver/Src/stm32h5xx_hal_pcd.c ****     HAL_PCD_ResetCallback(hpcd);
ARM GAS  /var/folders/l3/rwskfq612tq4b7hmtv37jkjw0000gp/T//ccPIyasB.s 			page 33


1028:Drivers/STM32H5xx_HAL_Driver/Src/stm32h5xx_hal_pcd.c **** #endif /* USE_HAL_PCD_REGISTER_CALLBACKS */
1029:Drivers/STM32H5xx_HAL_Driver/Src/stm32h5xx_hal_pcd.c **** 
1030:Drivers/STM32H5xx_HAL_Driver/Src/stm32h5xx_hal_pcd.c ****     (void)HAL_PCD_SetAddress(hpcd, 0U);
1031:Drivers/STM32H5xx_HAL_Driver/Src/stm32h5xx_hal_pcd.c **** 
1032:Drivers/STM32H5xx_HAL_Driver/Src/stm32h5xx_hal_pcd.c ****     return;
1033:Drivers/STM32H5xx_HAL_Driver/Src/stm32h5xx_hal_pcd.c ****   }
1034:Drivers/STM32H5xx_HAL_Driver/Src/stm32h5xx_hal_pcd.c **** 
1035:Drivers/STM32H5xx_HAL_Driver/Src/stm32h5xx_hal_pcd.c ****   if ((wIstr & USB_ISTR_PMAOVR) == USB_ISTR_PMAOVR)
1036:Drivers/STM32H5xx_HAL_Driver/Src/stm32h5xx_hal_pcd.c ****   {
1037:Drivers/STM32H5xx_HAL_Driver/Src/stm32h5xx_hal_pcd.c ****     __HAL_PCD_CLEAR_FLAG(hpcd, USB_ISTR_PMAOVR);
1038:Drivers/STM32H5xx_HAL_Driver/Src/stm32h5xx_hal_pcd.c **** 
1039:Drivers/STM32H5xx_HAL_Driver/Src/stm32h5xx_hal_pcd.c ****     return;
1040:Drivers/STM32H5xx_HAL_Driver/Src/stm32h5xx_hal_pcd.c ****   }
1041:Drivers/STM32H5xx_HAL_Driver/Src/stm32h5xx_hal_pcd.c **** 
1042:Drivers/STM32H5xx_HAL_Driver/Src/stm32h5xx_hal_pcd.c ****   if ((wIstr & USB_ISTR_ERR) == USB_ISTR_ERR)
1043:Drivers/STM32H5xx_HAL_Driver/Src/stm32h5xx_hal_pcd.c ****   {
1044:Drivers/STM32H5xx_HAL_Driver/Src/stm32h5xx_hal_pcd.c ****     __HAL_PCD_CLEAR_FLAG(hpcd, USB_ISTR_ERR);
1045:Drivers/STM32H5xx_HAL_Driver/Src/stm32h5xx_hal_pcd.c **** 
1046:Drivers/STM32H5xx_HAL_Driver/Src/stm32h5xx_hal_pcd.c ****     return;
1047:Drivers/STM32H5xx_HAL_Driver/Src/stm32h5xx_hal_pcd.c ****   }
1048:Drivers/STM32H5xx_HAL_Driver/Src/stm32h5xx_hal_pcd.c **** 
1049:Drivers/STM32H5xx_HAL_Driver/Src/stm32h5xx_hal_pcd.c ****   if ((wIstr & USB_ISTR_WKUP) == USB_ISTR_WKUP)
1050:Drivers/STM32H5xx_HAL_Driver/Src/stm32h5xx_hal_pcd.c ****   {
1051:Drivers/STM32H5xx_HAL_Driver/Src/stm32h5xx_hal_pcd.c ****     hpcd->Instance->CNTR &= ~(USB_CNTR_SUSPRDY);
1052:Drivers/STM32H5xx_HAL_Driver/Src/stm32h5xx_hal_pcd.c ****     hpcd->Instance->CNTR &= ~(USB_CNTR_SUSPEN);
1053:Drivers/STM32H5xx_HAL_Driver/Src/stm32h5xx_hal_pcd.c **** 
1054:Drivers/STM32H5xx_HAL_Driver/Src/stm32h5xx_hal_pcd.c ****     if (hpcd->LPM_State == LPM_L1)
1055:Drivers/STM32H5xx_HAL_Driver/Src/stm32h5xx_hal_pcd.c ****     {
1056:Drivers/STM32H5xx_HAL_Driver/Src/stm32h5xx_hal_pcd.c ****       hpcd->LPM_State = LPM_L0;
1057:Drivers/STM32H5xx_HAL_Driver/Src/stm32h5xx_hal_pcd.c **** #if (USE_HAL_PCD_REGISTER_CALLBACKS == 1U)
1058:Drivers/STM32H5xx_HAL_Driver/Src/stm32h5xx_hal_pcd.c ****       hpcd->LPMCallback(hpcd, PCD_LPM_L0_ACTIVE);
1059:Drivers/STM32H5xx_HAL_Driver/Src/stm32h5xx_hal_pcd.c **** #else
1060:Drivers/STM32H5xx_HAL_Driver/Src/stm32h5xx_hal_pcd.c ****       HAL_PCDEx_LPM_Callback(hpcd, PCD_LPM_L0_ACTIVE);
1061:Drivers/STM32H5xx_HAL_Driver/Src/stm32h5xx_hal_pcd.c **** #endif /* USE_HAL_PCD_REGISTER_CALLBACKS */
1062:Drivers/STM32H5xx_HAL_Driver/Src/stm32h5xx_hal_pcd.c ****     }
1063:Drivers/STM32H5xx_HAL_Driver/Src/stm32h5xx_hal_pcd.c **** 
1064:Drivers/STM32H5xx_HAL_Driver/Src/stm32h5xx_hal_pcd.c **** #if (USE_HAL_PCD_REGISTER_CALLBACKS == 1U)
1065:Drivers/STM32H5xx_HAL_Driver/Src/stm32h5xx_hal_pcd.c ****     hpcd->ResumeCallback(hpcd);
1066:Drivers/STM32H5xx_HAL_Driver/Src/stm32h5xx_hal_pcd.c **** #else
1067:Drivers/STM32H5xx_HAL_Driver/Src/stm32h5xx_hal_pcd.c ****     HAL_PCD_ResumeCallback(hpcd);
1068:Drivers/STM32H5xx_HAL_Driver/Src/stm32h5xx_hal_pcd.c **** #endif /* USE_HAL_PCD_REGISTER_CALLBACKS */
1069:Drivers/STM32H5xx_HAL_Driver/Src/stm32h5xx_hal_pcd.c **** 
1070:Drivers/STM32H5xx_HAL_Driver/Src/stm32h5xx_hal_pcd.c ****     __HAL_PCD_CLEAR_FLAG(hpcd, USB_ISTR_WKUP);
1071:Drivers/STM32H5xx_HAL_Driver/Src/stm32h5xx_hal_pcd.c **** 
1072:Drivers/STM32H5xx_HAL_Driver/Src/stm32h5xx_hal_pcd.c ****     return;
1073:Drivers/STM32H5xx_HAL_Driver/Src/stm32h5xx_hal_pcd.c ****   }
1074:Drivers/STM32H5xx_HAL_Driver/Src/stm32h5xx_hal_pcd.c **** 
1075:Drivers/STM32H5xx_HAL_Driver/Src/stm32h5xx_hal_pcd.c ****   if ((wIstr & USB_ISTR_SUSP) == USB_ISTR_SUSP)
1076:Drivers/STM32H5xx_HAL_Driver/Src/stm32h5xx_hal_pcd.c ****   {
1077:Drivers/STM32H5xx_HAL_Driver/Src/stm32h5xx_hal_pcd.c ****     /* Force low-power mode in the macrocell */
1078:Drivers/STM32H5xx_HAL_Driver/Src/stm32h5xx_hal_pcd.c ****     hpcd->Instance->CNTR |= USB_CNTR_SUSPEN;
1079:Drivers/STM32H5xx_HAL_Driver/Src/stm32h5xx_hal_pcd.c **** 
1080:Drivers/STM32H5xx_HAL_Driver/Src/stm32h5xx_hal_pcd.c ****     /* clear of the ISTR bit must be done after setting of CNTR_FSUSP */
1081:Drivers/STM32H5xx_HAL_Driver/Src/stm32h5xx_hal_pcd.c ****     __HAL_PCD_CLEAR_FLAG(hpcd, USB_ISTR_SUSP);
1082:Drivers/STM32H5xx_HAL_Driver/Src/stm32h5xx_hal_pcd.c **** 
1083:Drivers/STM32H5xx_HAL_Driver/Src/stm32h5xx_hal_pcd.c ****     hpcd->Instance->CNTR |= USB_CNTR_SUSPRDY;
1084:Drivers/STM32H5xx_HAL_Driver/Src/stm32h5xx_hal_pcd.c **** 
ARM GAS  /var/folders/l3/rwskfq612tq4b7hmtv37jkjw0000gp/T//ccPIyasB.s 			page 34


1085:Drivers/STM32H5xx_HAL_Driver/Src/stm32h5xx_hal_pcd.c **** #if (USE_HAL_PCD_REGISTER_CALLBACKS == 1U)
1086:Drivers/STM32H5xx_HAL_Driver/Src/stm32h5xx_hal_pcd.c ****     hpcd->SuspendCallback(hpcd);
1087:Drivers/STM32H5xx_HAL_Driver/Src/stm32h5xx_hal_pcd.c **** #else
1088:Drivers/STM32H5xx_HAL_Driver/Src/stm32h5xx_hal_pcd.c ****     HAL_PCD_SuspendCallback(hpcd);
1089:Drivers/STM32H5xx_HAL_Driver/Src/stm32h5xx_hal_pcd.c **** #endif /* USE_HAL_PCD_REGISTER_CALLBACKS */
1090:Drivers/STM32H5xx_HAL_Driver/Src/stm32h5xx_hal_pcd.c **** 
1091:Drivers/STM32H5xx_HAL_Driver/Src/stm32h5xx_hal_pcd.c ****     return;
1092:Drivers/STM32H5xx_HAL_Driver/Src/stm32h5xx_hal_pcd.c ****   }
1093:Drivers/STM32H5xx_HAL_Driver/Src/stm32h5xx_hal_pcd.c **** 
1094:Drivers/STM32H5xx_HAL_Driver/Src/stm32h5xx_hal_pcd.c ****   /* Handle LPM Interrupt */
1095:Drivers/STM32H5xx_HAL_Driver/Src/stm32h5xx_hal_pcd.c ****   if ((wIstr & USB_ISTR_L1REQ) == USB_ISTR_L1REQ)
1096:Drivers/STM32H5xx_HAL_Driver/Src/stm32h5xx_hal_pcd.c ****   {
1097:Drivers/STM32H5xx_HAL_Driver/Src/stm32h5xx_hal_pcd.c ****     __HAL_PCD_CLEAR_FLAG(hpcd, USB_ISTR_L1REQ);
1098:Drivers/STM32H5xx_HAL_Driver/Src/stm32h5xx_hal_pcd.c ****     if (hpcd->LPM_State == LPM_L0)
1099:Drivers/STM32H5xx_HAL_Driver/Src/stm32h5xx_hal_pcd.c ****     {
1100:Drivers/STM32H5xx_HAL_Driver/Src/stm32h5xx_hal_pcd.c ****       /* Force suspend and low-power mode before going to L1 state*/
1101:Drivers/STM32H5xx_HAL_Driver/Src/stm32h5xx_hal_pcd.c ****       hpcd->Instance->CNTR |= USB_CNTR_SUSPRDY;
1102:Drivers/STM32H5xx_HAL_Driver/Src/stm32h5xx_hal_pcd.c ****       hpcd->Instance->CNTR |= USB_CNTR_SUSPEN;
1103:Drivers/STM32H5xx_HAL_Driver/Src/stm32h5xx_hal_pcd.c **** 
1104:Drivers/STM32H5xx_HAL_Driver/Src/stm32h5xx_hal_pcd.c ****       hpcd->LPM_State = LPM_L1;
1105:Drivers/STM32H5xx_HAL_Driver/Src/stm32h5xx_hal_pcd.c ****       hpcd->BESL = ((uint32_t)hpcd->Instance->LPMCSR & USB_LPMCSR_BESL) >> 2;
1106:Drivers/STM32H5xx_HAL_Driver/Src/stm32h5xx_hal_pcd.c **** #if (USE_HAL_PCD_REGISTER_CALLBACKS == 1U)
1107:Drivers/STM32H5xx_HAL_Driver/Src/stm32h5xx_hal_pcd.c ****       hpcd->LPMCallback(hpcd, PCD_LPM_L1_ACTIVE);
1108:Drivers/STM32H5xx_HAL_Driver/Src/stm32h5xx_hal_pcd.c **** #else
1109:Drivers/STM32H5xx_HAL_Driver/Src/stm32h5xx_hal_pcd.c ****       HAL_PCDEx_LPM_Callback(hpcd, PCD_LPM_L1_ACTIVE);
1110:Drivers/STM32H5xx_HAL_Driver/Src/stm32h5xx_hal_pcd.c **** #endif /* USE_HAL_PCD_REGISTER_CALLBACKS */
1111:Drivers/STM32H5xx_HAL_Driver/Src/stm32h5xx_hal_pcd.c ****     }
1112:Drivers/STM32H5xx_HAL_Driver/Src/stm32h5xx_hal_pcd.c ****     else
1113:Drivers/STM32H5xx_HAL_Driver/Src/stm32h5xx_hal_pcd.c ****     {
1114:Drivers/STM32H5xx_HAL_Driver/Src/stm32h5xx_hal_pcd.c **** #if (USE_HAL_PCD_REGISTER_CALLBACKS == 1U)
1115:Drivers/STM32H5xx_HAL_Driver/Src/stm32h5xx_hal_pcd.c ****       hpcd->SuspendCallback(hpcd);
1116:Drivers/STM32H5xx_HAL_Driver/Src/stm32h5xx_hal_pcd.c **** #else
1117:Drivers/STM32H5xx_HAL_Driver/Src/stm32h5xx_hal_pcd.c ****       HAL_PCD_SuspendCallback(hpcd);
1118:Drivers/STM32H5xx_HAL_Driver/Src/stm32h5xx_hal_pcd.c **** #endif /* USE_HAL_PCD_REGISTER_CALLBACKS */
1119:Drivers/STM32H5xx_HAL_Driver/Src/stm32h5xx_hal_pcd.c ****     }
1120:Drivers/STM32H5xx_HAL_Driver/Src/stm32h5xx_hal_pcd.c **** 
1121:Drivers/STM32H5xx_HAL_Driver/Src/stm32h5xx_hal_pcd.c ****     return;
1122:Drivers/STM32H5xx_HAL_Driver/Src/stm32h5xx_hal_pcd.c ****   }
1123:Drivers/STM32H5xx_HAL_Driver/Src/stm32h5xx_hal_pcd.c **** 
1124:Drivers/STM32H5xx_HAL_Driver/Src/stm32h5xx_hal_pcd.c ****   if ((wIstr & USB_ISTR_SOF) == USB_ISTR_SOF)
1125:Drivers/STM32H5xx_HAL_Driver/Src/stm32h5xx_hal_pcd.c ****   {
1126:Drivers/STM32H5xx_HAL_Driver/Src/stm32h5xx_hal_pcd.c ****     __HAL_PCD_CLEAR_FLAG(hpcd, USB_ISTR_SOF);
1127:Drivers/STM32H5xx_HAL_Driver/Src/stm32h5xx_hal_pcd.c **** 
1128:Drivers/STM32H5xx_HAL_Driver/Src/stm32h5xx_hal_pcd.c **** #if (USE_HAL_PCD_REGISTER_CALLBACKS == 1U)
1129:Drivers/STM32H5xx_HAL_Driver/Src/stm32h5xx_hal_pcd.c ****     hpcd->SOFCallback(hpcd);
1130:Drivers/STM32H5xx_HAL_Driver/Src/stm32h5xx_hal_pcd.c **** #else
1131:Drivers/STM32H5xx_HAL_Driver/Src/stm32h5xx_hal_pcd.c ****     HAL_PCD_SOFCallback(hpcd);
1132:Drivers/STM32H5xx_HAL_Driver/Src/stm32h5xx_hal_pcd.c **** #endif /* USE_HAL_PCD_REGISTER_CALLBACKS */
1133:Drivers/STM32H5xx_HAL_Driver/Src/stm32h5xx_hal_pcd.c **** 
1134:Drivers/STM32H5xx_HAL_Driver/Src/stm32h5xx_hal_pcd.c ****     return;
1135:Drivers/STM32H5xx_HAL_Driver/Src/stm32h5xx_hal_pcd.c ****   }
1136:Drivers/STM32H5xx_HAL_Driver/Src/stm32h5xx_hal_pcd.c **** 
1137:Drivers/STM32H5xx_HAL_Driver/Src/stm32h5xx_hal_pcd.c ****   if ((wIstr & USB_ISTR_ESOF) == USB_ISTR_ESOF)
1138:Drivers/STM32H5xx_HAL_Driver/Src/stm32h5xx_hal_pcd.c ****   {
1139:Drivers/STM32H5xx_HAL_Driver/Src/stm32h5xx_hal_pcd.c ****     /* clear ESOF flag in ISTR */
1140:Drivers/STM32H5xx_HAL_Driver/Src/stm32h5xx_hal_pcd.c ****     __HAL_PCD_CLEAR_FLAG(hpcd, USB_ISTR_ESOF);
1141:Drivers/STM32H5xx_HAL_Driver/Src/stm32h5xx_hal_pcd.c **** 
ARM GAS  /var/folders/l3/rwskfq612tq4b7hmtv37jkjw0000gp/T//ccPIyasB.s 			page 35


1142:Drivers/STM32H5xx_HAL_Driver/Src/stm32h5xx_hal_pcd.c ****     return;
1143:Drivers/STM32H5xx_HAL_Driver/Src/stm32h5xx_hal_pcd.c ****   }
1144:Drivers/STM32H5xx_HAL_Driver/Src/stm32h5xx_hal_pcd.c **** }
1145:Drivers/STM32H5xx_HAL_Driver/Src/stm32h5xx_hal_pcd.c **** 
1146:Drivers/STM32H5xx_HAL_Driver/Src/stm32h5xx_hal_pcd.c **** 
1147:Drivers/STM32H5xx_HAL_Driver/Src/stm32h5xx_hal_pcd.c **** /**
1148:Drivers/STM32H5xx_HAL_Driver/Src/stm32h5xx_hal_pcd.c ****   * @brief  Data OUT stage callback.
1149:Drivers/STM32H5xx_HAL_Driver/Src/stm32h5xx_hal_pcd.c ****   * @param  hpcd PCD handle
1150:Drivers/STM32H5xx_HAL_Driver/Src/stm32h5xx_hal_pcd.c ****   * @param  epnum endpoint number
1151:Drivers/STM32H5xx_HAL_Driver/Src/stm32h5xx_hal_pcd.c ****   * @retval None
1152:Drivers/STM32H5xx_HAL_Driver/Src/stm32h5xx_hal_pcd.c ****   */
1153:Drivers/STM32H5xx_HAL_Driver/Src/stm32h5xx_hal_pcd.c **** __weak void HAL_PCD_DataOutStageCallback(PCD_HandleTypeDef *hpcd, uint8_t epnum)
1154:Drivers/STM32H5xx_HAL_Driver/Src/stm32h5xx_hal_pcd.c **** {
1155:Drivers/STM32H5xx_HAL_Driver/Src/stm32h5xx_hal_pcd.c ****   /* Prevent unused argument(s) compilation warning */
1156:Drivers/STM32H5xx_HAL_Driver/Src/stm32h5xx_hal_pcd.c ****   UNUSED(hpcd);
1157:Drivers/STM32H5xx_HAL_Driver/Src/stm32h5xx_hal_pcd.c ****   UNUSED(epnum);
1158:Drivers/STM32H5xx_HAL_Driver/Src/stm32h5xx_hal_pcd.c **** 
1159:Drivers/STM32H5xx_HAL_Driver/Src/stm32h5xx_hal_pcd.c ****   /* NOTE : This function should not be modified, when the callback is needed,
1160:Drivers/STM32H5xx_HAL_Driver/Src/stm32h5xx_hal_pcd.c ****             the HAL_PCD_DataOutStageCallback could be implemented in the user file
1161:Drivers/STM32H5xx_HAL_Driver/Src/stm32h5xx_hal_pcd.c ****    */
1162:Drivers/STM32H5xx_HAL_Driver/Src/stm32h5xx_hal_pcd.c **** }
1163:Drivers/STM32H5xx_HAL_Driver/Src/stm32h5xx_hal_pcd.c **** 
1164:Drivers/STM32H5xx_HAL_Driver/Src/stm32h5xx_hal_pcd.c **** /**
1165:Drivers/STM32H5xx_HAL_Driver/Src/stm32h5xx_hal_pcd.c ****   * @brief  Data IN stage callback
1166:Drivers/STM32H5xx_HAL_Driver/Src/stm32h5xx_hal_pcd.c ****   * @param  hpcd PCD handle
1167:Drivers/STM32H5xx_HAL_Driver/Src/stm32h5xx_hal_pcd.c ****   * @param  epnum endpoint number
1168:Drivers/STM32H5xx_HAL_Driver/Src/stm32h5xx_hal_pcd.c ****   * @retval None
1169:Drivers/STM32H5xx_HAL_Driver/Src/stm32h5xx_hal_pcd.c ****   */
1170:Drivers/STM32H5xx_HAL_Driver/Src/stm32h5xx_hal_pcd.c **** __weak void HAL_PCD_DataInStageCallback(PCD_HandleTypeDef *hpcd, uint8_t epnum)
1171:Drivers/STM32H5xx_HAL_Driver/Src/stm32h5xx_hal_pcd.c **** {
1172:Drivers/STM32H5xx_HAL_Driver/Src/stm32h5xx_hal_pcd.c ****   /* Prevent unused argument(s) compilation warning */
1173:Drivers/STM32H5xx_HAL_Driver/Src/stm32h5xx_hal_pcd.c ****   UNUSED(hpcd);
1174:Drivers/STM32H5xx_HAL_Driver/Src/stm32h5xx_hal_pcd.c ****   UNUSED(epnum);
1175:Drivers/STM32H5xx_HAL_Driver/Src/stm32h5xx_hal_pcd.c **** 
1176:Drivers/STM32H5xx_HAL_Driver/Src/stm32h5xx_hal_pcd.c ****   /* NOTE : This function should not be modified, when the callback is needed,
1177:Drivers/STM32H5xx_HAL_Driver/Src/stm32h5xx_hal_pcd.c ****             the HAL_PCD_DataInStageCallback could be implemented in the user file
1178:Drivers/STM32H5xx_HAL_Driver/Src/stm32h5xx_hal_pcd.c ****    */
1179:Drivers/STM32H5xx_HAL_Driver/Src/stm32h5xx_hal_pcd.c **** }
1180:Drivers/STM32H5xx_HAL_Driver/Src/stm32h5xx_hal_pcd.c **** /**
1181:Drivers/STM32H5xx_HAL_Driver/Src/stm32h5xx_hal_pcd.c ****   * @brief  Setup stage callback
1182:Drivers/STM32H5xx_HAL_Driver/Src/stm32h5xx_hal_pcd.c ****   * @param  hpcd PCD handle
1183:Drivers/STM32H5xx_HAL_Driver/Src/stm32h5xx_hal_pcd.c ****   * @retval None
1184:Drivers/STM32H5xx_HAL_Driver/Src/stm32h5xx_hal_pcd.c ****   */
1185:Drivers/STM32H5xx_HAL_Driver/Src/stm32h5xx_hal_pcd.c **** __weak void HAL_PCD_SetupStageCallback(PCD_HandleTypeDef *hpcd)
1186:Drivers/STM32H5xx_HAL_Driver/Src/stm32h5xx_hal_pcd.c **** {
1187:Drivers/STM32H5xx_HAL_Driver/Src/stm32h5xx_hal_pcd.c ****   /* Prevent unused argument(s) compilation warning */
1188:Drivers/STM32H5xx_HAL_Driver/Src/stm32h5xx_hal_pcd.c ****   UNUSED(hpcd);
1189:Drivers/STM32H5xx_HAL_Driver/Src/stm32h5xx_hal_pcd.c **** 
1190:Drivers/STM32H5xx_HAL_Driver/Src/stm32h5xx_hal_pcd.c ****   /* NOTE : This function should not be modified, when the callback is needed,
1191:Drivers/STM32H5xx_HAL_Driver/Src/stm32h5xx_hal_pcd.c ****             the HAL_PCD_SetupStageCallback could be implemented in the user file
1192:Drivers/STM32H5xx_HAL_Driver/Src/stm32h5xx_hal_pcd.c ****    */
1193:Drivers/STM32H5xx_HAL_Driver/Src/stm32h5xx_hal_pcd.c **** }
1194:Drivers/STM32H5xx_HAL_Driver/Src/stm32h5xx_hal_pcd.c **** 
1195:Drivers/STM32H5xx_HAL_Driver/Src/stm32h5xx_hal_pcd.c **** /**
1196:Drivers/STM32H5xx_HAL_Driver/Src/stm32h5xx_hal_pcd.c ****   * @brief  USB Start Of Frame callback.
1197:Drivers/STM32H5xx_HAL_Driver/Src/stm32h5xx_hal_pcd.c ****   * @param  hpcd PCD handle
1198:Drivers/STM32H5xx_HAL_Driver/Src/stm32h5xx_hal_pcd.c ****   * @retval None
ARM GAS  /var/folders/l3/rwskfq612tq4b7hmtv37jkjw0000gp/T//ccPIyasB.s 			page 36


1199:Drivers/STM32H5xx_HAL_Driver/Src/stm32h5xx_hal_pcd.c ****   */
1200:Drivers/STM32H5xx_HAL_Driver/Src/stm32h5xx_hal_pcd.c **** __weak void HAL_PCD_SOFCallback(PCD_HandleTypeDef *hpcd)
1201:Drivers/STM32H5xx_HAL_Driver/Src/stm32h5xx_hal_pcd.c **** {
1202:Drivers/STM32H5xx_HAL_Driver/Src/stm32h5xx_hal_pcd.c ****   /* Prevent unused argument(s) compilation warning */
1203:Drivers/STM32H5xx_HAL_Driver/Src/stm32h5xx_hal_pcd.c ****   UNUSED(hpcd);
1204:Drivers/STM32H5xx_HAL_Driver/Src/stm32h5xx_hal_pcd.c **** 
1205:Drivers/STM32H5xx_HAL_Driver/Src/stm32h5xx_hal_pcd.c ****   /* NOTE : This function should not be modified, when the callback is needed,
1206:Drivers/STM32H5xx_HAL_Driver/Src/stm32h5xx_hal_pcd.c ****             the HAL_PCD_SOFCallback could be implemented in the user file
1207:Drivers/STM32H5xx_HAL_Driver/Src/stm32h5xx_hal_pcd.c ****    */
1208:Drivers/STM32H5xx_HAL_Driver/Src/stm32h5xx_hal_pcd.c **** }
1209:Drivers/STM32H5xx_HAL_Driver/Src/stm32h5xx_hal_pcd.c **** 
1210:Drivers/STM32H5xx_HAL_Driver/Src/stm32h5xx_hal_pcd.c **** /**
1211:Drivers/STM32H5xx_HAL_Driver/Src/stm32h5xx_hal_pcd.c ****   * @brief  USB Reset callback.
1212:Drivers/STM32H5xx_HAL_Driver/Src/stm32h5xx_hal_pcd.c ****   * @param  hpcd PCD handle
1213:Drivers/STM32H5xx_HAL_Driver/Src/stm32h5xx_hal_pcd.c ****   * @retval None
1214:Drivers/STM32H5xx_HAL_Driver/Src/stm32h5xx_hal_pcd.c ****   */
1215:Drivers/STM32H5xx_HAL_Driver/Src/stm32h5xx_hal_pcd.c **** __weak void HAL_PCD_ResetCallback(PCD_HandleTypeDef *hpcd)
1216:Drivers/STM32H5xx_HAL_Driver/Src/stm32h5xx_hal_pcd.c **** {
1217:Drivers/STM32H5xx_HAL_Driver/Src/stm32h5xx_hal_pcd.c ****   /* Prevent unused argument(s) compilation warning */
1218:Drivers/STM32H5xx_HAL_Driver/Src/stm32h5xx_hal_pcd.c ****   UNUSED(hpcd);
1219:Drivers/STM32H5xx_HAL_Driver/Src/stm32h5xx_hal_pcd.c **** 
1220:Drivers/STM32H5xx_HAL_Driver/Src/stm32h5xx_hal_pcd.c ****   /* NOTE : This function should not be modified, when the callback is needed,
1221:Drivers/STM32H5xx_HAL_Driver/Src/stm32h5xx_hal_pcd.c ****             the HAL_PCD_ResetCallback could be implemented in the user file
1222:Drivers/STM32H5xx_HAL_Driver/Src/stm32h5xx_hal_pcd.c ****    */
1223:Drivers/STM32H5xx_HAL_Driver/Src/stm32h5xx_hal_pcd.c **** }
1224:Drivers/STM32H5xx_HAL_Driver/Src/stm32h5xx_hal_pcd.c **** 
1225:Drivers/STM32H5xx_HAL_Driver/Src/stm32h5xx_hal_pcd.c **** /**
1226:Drivers/STM32H5xx_HAL_Driver/Src/stm32h5xx_hal_pcd.c ****   * @brief  Suspend event callback.
1227:Drivers/STM32H5xx_HAL_Driver/Src/stm32h5xx_hal_pcd.c ****   * @param  hpcd PCD handle
1228:Drivers/STM32H5xx_HAL_Driver/Src/stm32h5xx_hal_pcd.c ****   * @retval None
1229:Drivers/STM32H5xx_HAL_Driver/Src/stm32h5xx_hal_pcd.c ****   */
1230:Drivers/STM32H5xx_HAL_Driver/Src/stm32h5xx_hal_pcd.c **** __weak void HAL_PCD_SuspendCallback(PCD_HandleTypeDef *hpcd)
1231:Drivers/STM32H5xx_HAL_Driver/Src/stm32h5xx_hal_pcd.c **** {
1232:Drivers/STM32H5xx_HAL_Driver/Src/stm32h5xx_hal_pcd.c ****   /* Prevent unused argument(s) compilation warning */
1233:Drivers/STM32H5xx_HAL_Driver/Src/stm32h5xx_hal_pcd.c ****   UNUSED(hpcd);
1234:Drivers/STM32H5xx_HAL_Driver/Src/stm32h5xx_hal_pcd.c **** 
1235:Drivers/STM32H5xx_HAL_Driver/Src/stm32h5xx_hal_pcd.c ****   /* NOTE : This function should not be modified, when the callback is needed,
1236:Drivers/STM32H5xx_HAL_Driver/Src/stm32h5xx_hal_pcd.c ****             the HAL_PCD_SuspendCallback could be implemented in the user file
1237:Drivers/STM32H5xx_HAL_Driver/Src/stm32h5xx_hal_pcd.c ****    */
1238:Drivers/STM32H5xx_HAL_Driver/Src/stm32h5xx_hal_pcd.c **** }
1239:Drivers/STM32H5xx_HAL_Driver/Src/stm32h5xx_hal_pcd.c **** 
1240:Drivers/STM32H5xx_HAL_Driver/Src/stm32h5xx_hal_pcd.c **** /**
1241:Drivers/STM32H5xx_HAL_Driver/Src/stm32h5xx_hal_pcd.c ****   * @brief  Resume event callback.
1242:Drivers/STM32H5xx_HAL_Driver/Src/stm32h5xx_hal_pcd.c ****   * @param  hpcd PCD handle
1243:Drivers/STM32H5xx_HAL_Driver/Src/stm32h5xx_hal_pcd.c ****   * @retval None
1244:Drivers/STM32H5xx_HAL_Driver/Src/stm32h5xx_hal_pcd.c ****   */
1245:Drivers/STM32H5xx_HAL_Driver/Src/stm32h5xx_hal_pcd.c **** __weak void HAL_PCD_ResumeCallback(PCD_HandleTypeDef *hpcd)
1246:Drivers/STM32H5xx_HAL_Driver/Src/stm32h5xx_hal_pcd.c **** {
1247:Drivers/STM32H5xx_HAL_Driver/Src/stm32h5xx_hal_pcd.c ****   /* Prevent unused argument(s) compilation warning */
1248:Drivers/STM32H5xx_HAL_Driver/Src/stm32h5xx_hal_pcd.c ****   UNUSED(hpcd);
1249:Drivers/STM32H5xx_HAL_Driver/Src/stm32h5xx_hal_pcd.c **** 
1250:Drivers/STM32H5xx_HAL_Driver/Src/stm32h5xx_hal_pcd.c ****   /* NOTE : This function should not be modified, when the callback is needed,
1251:Drivers/STM32H5xx_HAL_Driver/Src/stm32h5xx_hal_pcd.c ****             the HAL_PCD_ResumeCallback could be implemented in the user file
1252:Drivers/STM32H5xx_HAL_Driver/Src/stm32h5xx_hal_pcd.c ****    */
1253:Drivers/STM32H5xx_HAL_Driver/Src/stm32h5xx_hal_pcd.c **** }
1254:Drivers/STM32H5xx_HAL_Driver/Src/stm32h5xx_hal_pcd.c **** 
1255:Drivers/STM32H5xx_HAL_Driver/Src/stm32h5xx_hal_pcd.c **** /**
ARM GAS  /var/folders/l3/rwskfq612tq4b7hmtv37jkjw0000gp/T//ccPIyasB.s 			page 37


1256:Drivers/STM32H5xx_HAL_Driver/Src/stm32h5xx_hal_pcd.c ****   * @brief  Incomplete ISO OUT callback.
1257:Drivers/STM32H5xx_HAL_Driver/Src/stm32h5xx_hal_pcd.c ****   * @param  hpcd PCD handle
1258:Drivers/STM32H5xx_HAL_Driver/Src/stm32h5xx_hal_pcd.c ****   * @param  epnum endpoint number
1259:Drivers/STM32H5xx_HAL_Driver/Src/stm32h5xx_hal_pcd.c ****   * @retval None
1260:Drivers/STM32H5xx_HAL_Driver/Src/stm32h5xx_hal_pcd.c ****   */
1261:Drivers/STM32H5xx_HAL_Driver/Src/stm32h5xx_hal_pcd.c **** __weak void HAL_PCD_ISOOUTIncompleteCallback(PCD_HandleTypeDef *hpcd, uint8_t epnum)
1262:Drivers/STM32H5xx_HAL_Driver/Src/stm32h5xx_hal_pcd.c **** {
1263:Drivers/STM32H5xx_HAL_Driver/Src/stm32h5xx_hal_pcd.c ****   /* Prevent unused argument(s) compilation warning */
1264:Drivers/STM32H5xx_HAL_Driver/Src/stm32h5xx_hal_pcd.c ****   UNUSED(hpcd);
1265:Drivers/STM32H5xx_HAL_Driver/Src/stm32h5xx_hal_pcd.c ****   UNUSED(epnum);
1266:Drivers/STM32H5xx_HAL_Driver/Src/stm32h5xx_hal_pcd.c **** 
1267:Drivers/STM32H5xx_HAL_Driver/Src/stm32h5xx_hal_pcd.c ****   /* NOTE : This function should not be modified, when the callback is needed,
1268:Drivers/STM32H5xx_HAL_Driver/Src/stm32h5xx_hal_pcd.c ****             the HAL_PCD_ISOOUTIncompleteCallback could be implemented in the user file
1269:Drivers/STM32H5xx_HAL_Driver/Src/stm32h5xx_hal_pcd.c ****    */
1270:Drivers/STM32H5xx_HAL_Driver/Src/stm32h5xx_hal_pcd.c **** }
1271:Drivers/STM32H5xx_HAL_Driver/Src/stm32h5xx_hal_pcd.c **** 
1272:Drivers/STM32H5xx_HAL_Driver/Src/stm32h5xx_hal_pcd.c **** /**
1273:Drivers/STM32H5xx_HAL_Driver/Src/stm32h5xx_hal_pcd.c ****   * @brief  Incomplete ISO IN callback.
1274:Drivers/STM32H5xx_HAL_Driver/Src/stm32h5xx_hal_pcd.c ****   * @param  hpcd PCD handle
1275:Drivers/STM32H5xx_HAL_Driver/Src/stm32h5xx_hal_pcd.c ****   * @param  epnum endpoint number
1276:Drivers/STM32H5xx_HAL_Driver/Src/stm32h5xx_hal_pcd.c ****   * @retval None
1277:Drivers/STM32H5xx_HAL_Driver/Src/stm32h5xx_hal_pcd.c ****   */
1278:Drivers/STM32H5xx_HAL_Driver/Src/stm32h5xx_hal_pcd.c **** __weak void HAL_PCD_ISOINIncompleteCallback(PCD_HandleTypeDef *hpcd, uint8_t epnum)
1279:Drivers/STM32H5xx_HAL_Driver/Src/stm32h5xx_hal_pcd.c **** {
1280:Drivers/STM32H5xx_HAL_Driver/Src/stm32h5xx_hal_pcd.c ****   /* Prevent unused argument(s) compilation warning */
1281:Drivers/STM32H5xx_HAL_Driver/Src/stm32h5xx_hal_pcd.c ****   UNUSED(hpcd);
1282:Drivers/STM32H5xx_HAL_Driver/Src/stm32h5xx_hal_pcd.c ****   UNUSED(epnum);
1283:Drivers/STM32H5xx_HAL_Driver/Src/stm32h5xx_hal_pcd.c **** 
1284:Drivers/STM32H5xx_HAL_Driver/Src/stm32h5xx_hal_pcd.c ****   /* NOTE : This function should not be modified, when the callback is needed,
1285:Drivers/STM32H5xx_HAL_Driver/Src/stm32h5xx_hal_pcd.c ****             the HAL_PCD_ISOINIncompleteCallback could be implemented in the user file
1286:Drivers/STM32H5xx_HAL_Driver/Src/stm32h5xx_hal_pcd.c ****    */
1287:Drivers/STM32H5xx_HAL_Driver/Src/stm32h5xx_hal_pcd.c **** }
1288:Drivers/STM32H5xx_HAL_Driver/Src/stm32h5xx_hal_pcd.c **** 
1289:Drivers/STM32H5xx_HAL_Driver/Src/stm32h5xx_hal_pcd.c **** /**
1290:Drivers/STM32H5xx_HAL_Driver/Src/stm32h5xx_hal_pcd.c ****   * @brief  Connection event callback.
1291:Drivers/STM32H5xx_HAL_Driver/Src/stm32h5xx_hal_pcd.c ****   * @param  hpcd PCD handle
1292:Drivers/STM32H5xx_HAL_Driver/Src/stm32h5xx_hal_pcd.c ****   * @retval None
1293:Drivers/STM32H5xx_HAL_Driver/Src/stm32h5xx_hal_pcd.c ****   */
1294:Drivers/STM32H5xx_HAL_Driver/Src/stm32h5xx_hal_pcd.c **** __weak void HAL_PCD_ConnectCallback(PCD_HandleTypeDef *hpcd)
1295:Drivers/STM32H5xx_HAL_Driver/Src/stm32h5xx_hal_pcd.c **** {
1296:Drivers/STM32H5xx_HAL_Driver/Src/stm32h5xx_hal_pcd.c ****   /* Prevent unused argument(s) compilation warning */
1297:Drivers/STM32H5xx_HAL_Driver/Src/stm32h5xx_hal_pcd.c ****   UNUSED(hpcd);
1298:Drivers/STM32H5xx_HAL_Driver/Src/stm32h5xx_hal_pcd.c **** 
1299:Drivers/STM32H5xx_HAL_Driver/Src/stm32h5xx_hal_pcd.c ****   /* NOTE : This function should not be modified, when the callback is needed,
1300:Drivers/STM32H5xx_HAL_Driver/Src/stm32h5xx_hal_pcd.c ****             the HAL_PCD_ConnectCallback could be implemented in the user file
1301:Drivers/STM32H5xx_HAL_Driver/Src/stm32h5xx_hal_pcd.c ****    */
1302:Drivers/STM32H5xx_HAL_Driver/Src/stm32h5xx_hal_pcd.c **** }
1303:Drivers/STM32H5xx_HAL_Driver/Src/stm32h5xx_hal_pcd.c **** 
1304:Drivers/STM32H5xx_HAL_Driver/Src/stm32h5xx_hal_pcd.c **** /**
1305:Drivers/STM32H5xx_HAL_Driver/Src/stm32h5xx_hal_pcd.c ****   * @brief  Disconnection event callback.
1306:Drivers/STM32H5xx_HAL_Driver/Src/stm32h5xx_hal_pcd.c ****   * @param  hpcd PCD handle
1307:Drivers/STM32H5xx_HAL_Driver/Src/stm32h5xx_hal_pcd.c ****   * @retval None
1308:Drivers/STM32H5xx_HAL_Driver/Src/stm32h5xx_hal_pcd.c ****   */
1309:Drivers/STM32H5xx_HAL_Driver/Src/stm32h5xx_hal_pcd.c **** __weak void HAL_PCD_DisconnectCallback(PCD_HandleTypeDef *hpcd)
1310:Drivers/STM32H5xx_HAL_Driver/Src/stm32h5xx_hal_pcd.c **** {
1311:Drivers/STM32H5xx_HAL_Driver/Src/stm32h5xx_hal_pcd.c ****   /* Prevent unused argument(s) compilation warning */
1312:Drivers/STM32H5xx_HAL_Driver/Src/stm32h5xx_hal_pcd.c ****   UNUSED(hpcd);
ARM GAS  /var/folders/l3/rwskfq612tq4b7hmtv37jkjw0000gp/T//ccPIyasB.s 			page 38


1313:Drivers/STM32H5xx_HAL_Driver/Src/stm32h5xx_hal_pcd.c **** 
1314:Drivers/STM32H5xx_HAL_Driver/Src/stm32h5xx_hal_pcd.c ****   /* NOTE : This function should not be modified, when the callback is needed,
1315:Drivers/STM32H5xx_HAL_Driver/Src/stm32h5xx_hal_pcd.c ****             the HAL_PCD_DisconnectCallback could be implemented in the user file
1316:Drivers/STM32H5xx_HAL_Driver/Src/stm32h5xx_hal_pcd.c ****    */
1317:Drivers/STM32H5xx_HAL_Driver/Src/stm32h5xx_hal_pcd.c **** }
1318:Drivers/STM32H5xx_HAL_Driver/Src/stm32h5xx_hal_pcd.c **** 
1319:Drivers/STM32H5xx_HAL_Driver/Src/stm32h5xx_hal_pcd.c **** /**
1320:Drivers/STM32H5xx_HAL_Driver/Src/stm32h5xx_hal_pcd.c ****   * @}
1321:Drivers/STM32H5xx_HAL_Driver/Src/stm32h5xx_hal_pcd.c ****   */
1322:Drivers/STM32H5xx_HAL_Driver/Src/stm32h5xx_hal_pcd.c **** 
1323:Drivers/STM32H5xx_HAL_Driver/Src/stm32h5xx_hal_pcd.c **** /** @defgroup PCD_Exported_Functions_Group3 Peripheral Control functions
1324:Drivers/STM32H5xx_HAL_Driver/Src/stm32h5xx_hal_pcd.c ****   *  @brief   management functions
1325:Drivers/STM32H5xx_HAL_Driver/Src/stm32h5xx_hal_pcd.c ****   *
1326:Drivers/STM32H5xx_HAL_Driver/Src/stm32h5xx_hal_pcd.c **** @verbatim
1327:Drivers/STM32H5xx_HAL_Driver/Src/stm32h5xx_hal_pcd.c ****  ===============================================================================
1328:Drivers/STM32H5xx_HAL_Driver/Src/stm32h5xx_hal_pcd.c ****                       ##### Peripheral Control functions #####
1329:Drivers/STM32H5xx_HAL_Driver/Src/stm32h5xx_hal_pcd.c ****  ===============================================================================
1330:Drivers/STM32H5xx_HAL_Driver/Src/stm32h5xx_hal_pcd.c ****     [..]
1331:Drivers/STM32H5xx_HAL_Driver/Src/stm32h5xx_hal_pcd.c ****     This subsection provides a set of functions allowing to control the PCD data
1332:Drivers/STM32H5xx_HAL_Driver/Src/stm32h5xx_hal_pcd.c ****     transfers.
1333:Drivers/STM32H5xx_HAL_Driver/Src/stm32h5xx_hal_pcd.c **** 
1334:Drivers/STM32H5xx_HAL_Driver/Src/stm32h5xx_hal_pcd.c **** @endverbatim
1335:Drivers/STM32H5xx_HAL_Driver/Src/stm32h5xx_hal_pcd.c ****   * @{
1336:Drivers/STM32H5xx_HAL_Driver/Src/stm32h5xx_hal_pcd.c ****   */
1337:Drivers/STM32H5xx_HAL_Driver/Src/stm32h5xx_hal_pcd.c **** 
1338:Drivers/STM32H5xx_HAL_Driver/Src/stm32h5xx_hal_pcd.c **** /**
1339:Drivers/STM32H5xx_HAL_Driver/Src/stm32h5xx_hal_pcd.c ****   * @brief  Connect the USB device
1340:Drivers/STM32H5xx_HAL_Driver/Src/stm32h5xx_hal_pcd.c ****   * @param  hpcd PCD handle
1341:Drivers/STM32H5xx_HAL_Driver/Src/stm32h5xx_hal_pcd.c ****   * @retval HAL status
1342:Drivers/STM32H5xx_HAL_Driver/Src/stm32h5xx_hal_pcd.c ****   */
1343:Drivers/STM32H5xx_HAL_Driver/Src/stm32h5xx_hal_pcd.c **** HAL_StatusTypeDef HAL_PCD_DevConnect(PCD_HandleTypeDef *hpcd)
1344:Drivers/STM32H5xx_HAL_Driver/Src/stm32h5xx_hal_pcd.c **** {
1345:Drivers/STM32H5xx_HAL_Driver/Src/stm32h5xx_hal_pcd.c ****   __HAL_LOCK(hpcd);
1346:Drivers/STM32H5xx_HAL_Driver/Src/stm32h5xx_hal_pcd.c ****   (void)USB_DevConnect(hpcd->Instance);
1347:Drivers/STM32H5xx_HAL_Driver/Src/stm32h5xx_hal_pcd.c ****   __HAL_UNLOCK(hpcd);
1348:Drivers/STM32H5xx_HAL_Driver/Src/stm32h5xx_hal_pcd.c **** 
1349:Drivers/STM32H5xx_HAL_Driver/Src/stm32h5xx_hal_pcd.c ****   return HAL_OK;
1350:Drivers/STM32H5xx_HAL_Driver/Src/stm32h5xx_hal_pcd.c **** }
1351:Drivers/STM32H5xx_HAL_Driver/Src/stm32h5xx_hal_pcd.c **** 
1352:Drivers/STM32H5xx_HAL_Driver/Src/stm32h5xx_hal_pcd.c **** /**
1353:Drivers/STM32H5xx_HAL_Driver/Src/stm32h5xx_hal_pcd.c ****   * @brief  Disconnect the USB device.
1354:Drivers/STM32H5xx_HAL_Driver/Src/stm32h5xx_hal_pcd.c ****   * @param  hpcd PCD handle
1355:Drivers/STM32H5xx_HAL_Driver/Src/stm32h5xx_hal_pcd.c ****   * @retval HAL status
1356:Drivers/STM32H5xx_HAL_Driver/Src/stm32h5xx_hal_pcd.c ****   */
1357:Drivers/STM32H5xx_HAL_Driver/Src/stm32h5xx_hal_pcd.c **** HAL_StatusTypeDef HAL_PCD_DevDisconnect(PCD_HandleTypeDef *hpcd)
1358:Drivers/STM32H5xx_HAL_Driver/Src/stm32h5xx_hal_pcd.c **** {
1359:Drivers/STM32H5xx_HAL_Driver/Src/stm32h5xx_hal_pcd.c ****   __HAL_LOCK(hpcd);
1360:Drivers/STM32H5xx_HAL_Driver/Src/stm32h5xx_hal_pcd.c ****   (void)USB_DevDisconnect(hpcd->Instance);
1361:Drivers/STM32H5xx_HAL_Driver/Src/stm32h5xx_hal_pcd.c ****   __HAL_UNLOCK(hpcd);
1362:Drivers/STM32H5xx_HAL_Driver/Src/stm32h5xx_hal_pcd.c **** 
1363:Drivers/STM32H5xx_HAL_Driver/Src/stm32h5xx_hal_pcd.c ****   return HAL_OK;
1364:Drivers/STM32H5xx_HAL_Driver/Src/stm32h5xx_hal_pcd.c **** }
1365:Drivers/STM32H5xx_HAL_Driver/Src/stm32h5xx_hal_pcd.c **** 
1366:Drivers/STM32H5xx_HAL_Driver/Src/stm32h5xx_hal_pcd.c **** /**
1367:Drivers/STM32H5xx_HAL_Driver/Src/stm32h5xx_hal_pcd.c ****   * @brief  Set the USB Device address.
1368:Drivers/STM32H5xx_HAL_Driver/Src/stm32h5xx_hal_pcd.c ****   * @param  hpcd PCD handle
1369:Drivers/STM32H5xx_HAL_Driver/Src/stm32h5xx_hal_pcd.c ****   * @param  address new device address
ARM GAS  /var/folders/l3/rwskfq612tq4b7hmtv37jkjw0000gp/T//ccPIyasB.s 			page 39


1370:Drivers/STM32H5xx_HAL_Driver/Src/stm32h5xx_hal_pcd.c ****   * @retval HAL status
1371:Drivers/STM32H5xx_HAL_Driver/Src/stm32h5xx_hal_pcd.c ****   */
1372:Drivers/STM32H5xx_HAL_Driver/Src/stm32h5xx_hal_pcd.c **** HAL_StatusTypeDef HAL_PCD_SetAddress(PCD_HandleTypeDef *hpcd, uint8_t address)
1373:Drivers/STM32H5xx_HAL_Driver/Src/stm32h5xx_hal_pcd.c **** {
1374:Drivers/STM32H5xx_HAL_Driver/Src/stm32h5xx_hal_pcd.c ****   __HAL_LOCK(hpcd);
1375:Drivers/STM32H5xx_HAL_Driver/Src/stm32h5xx_hal_pcd.c ****   hpcd->USB_Address = address;
1376:Drivers/STM32H5xx_HAL_Driver/Src/stm32h5xx_hal_pcd.c ****   (void)USB_SetDevAddress(hpcd->Instance, address);
1377:Drivers/STM32H5xx_HAL_Driver/Src/stm32h5xx_hal_pcd.c ****   __HAL_UNLOCK(hpcd);
1378:Drivers/STM32H5xx_HAL_Driver/Src/stm32h5xx_hal_pcd.c **** 
1379:Drivers/STM32H5xx_HAL_Driver/Src/stm32h5xx_hal_pcd.c ****   return HAL_OK;
1380:Drivers/STM32H5xx_HAL_Driver/Src/stm32h5xx_hal_pcd.c **** }
1381:Drivers/STM32H5xx_HAL_Driver/Src/stm32h5xx_hal_pcd.c **** /**
1382:Drivers/STM32H5xx_HAL_Driver/Src/stm32h5xx_hal_pcd.c ****   * @brief  Open and configure an endpoint.
1383:Drivers/STM32H5xx_HAL_Driver/Src/stm32h5xx_hal_pcd.c ****   * @param  hpcd PCD handle
1384:Drivers/STM32H5xx_HAL_Driver/Src/stm32h5xx_hal_pcd.c ****   * @param  ep_addr endpoint address
1385:Drivers/STM32H5xx_HAL_Driver/Src/stm32h5xx_hal_pcd.c ****   * @param  ep_mps endpoint max packet size
1386:Drivers/STM32H5xx_HAL_Driver/Src/stm32h5xx_hal_pcd.c ****   * @param  ep_type endpoint type
1387:Drivers/STM32H5xx_HAL_Driver/Src/stm32h5xx_hal_pcd.c ****   * @retval HAL status
1388:Drivers/STM32H5xx_HAL_Driver/Src/stm32h5xx_hal_pcd.c ****   */
1389:Drivers/STM32H5xx_HAL_Driver/Src/stm32h5xx_hal_pcd.c **** HAL_StatusTypeDef HAL_PCD_EP_Open(PCD_HandleTypeDef *hpcd, uint8_t ep_addr,
1390:Drivers/STM32H5xx_HAL_Driver/Src/stm32h5xx_hal_pcd.c ****                                   uint16_t ep_mps, uint8_t ep_type)
1391:Drivers/STM32H5xx_HAL_Driver/Src/stm32h5xx_hal_pcd.c **** {
1392:Drivers/STM32H5xx_HAL_Driver/Src/stm32h5xx_hal_pcd.c ****   HAL_StatusTypeDef ret = HAL_OK;
1393:Drivers/STM32H5xx_HAL_Driver/Src/stm32h5xx_hal_pcd.c ****   PCD_EPTypeDef *ep;
1394:Drivers/STM32H5xx_HAL_Driver/Src/stm32h5xx_hal_pcd.c **** 
1395:Drivers/STM32H5xx_HAL_Driver/Src/stm32h5xx_hal_pcd.c ****   if ((ep_addr & 0x80U) == 0x80U)
1396:Drivers/STM32H5xx_HAL_Driver/Src/stm32h5xx_hal_pcd.c ****   {
1397:Drivers/STM32H5xx_HAL_Driver/Src/stm32h5xx_hal_pcd.c ****     ep = &hpcd->IN_ep[ep_addr & EP_ADDR_MSK];
1398:Drivers/STM32H5xx_HAL_Driver/Src/stm32h5xx_hal_pcd.c ****     ep->is_in = 1U;
1399:Drivers/STM32H5xx_HAL_Driver/Src/stm32h5xx_hal_pcd.c ****   }
1400:Drivers/STM32H5xx_HAL_Driver/Src/stm32h5xx_hal_pcd.c ****   else
1401:Drivers/STM32H5xx_HAL_Driver/Src/stm32h5xx_hal_pcd.c ****   {
1402:Drivers/STM32H5xx_HAL_Driver/Src/stm32h5xx_hal_pcd.c ****     ep = &hpcd->OUT_ep[ep_addr & EP_ADDR_MSK];
1403:Drivers/STM32H5xx_HAL_Driver/Src/stm32h5xx_hal_pcd.c ****     ep->is_in = 0U;
1404:Drivers/STM32H5xx_HAL_Driver/Src/stm32h5xx_hal_pcd.c ****   }
1405:Drivers/STM32H5xx_HAL_Driver/Src/stm32h5xx_hal_pcd.c **** 
1406:Drivers/STM32H5xx_HAL_Driver/Src/stm32h5xx_hal_pcd.c ****   ep->num = ep_addr & EP_ADDR_MSK;
1407:Drivers/STM32H5xx_HAL_Driver/Src/stm32h5xx_hal_pcd.c ****   ep->maxpacket = (uint32_t)ep_mps & 0x7FFU;
1408:Drivers/STM32H5xx_HAL_Driver/Src/stm32h5xx_hal_pcd.c ****   ep->type = ep_type;
1409:Drivers/STM32H5xx_HAL_Driver/Src/stm32h5xx_hal_pcd.c **** 
1410:Drivers/STM32H5xx_HAL_Driver/Src/stm32h5xx_hal_pcd.c ****   /* Set initial data PID. */
1411:Drivers/STM32H5xx_HAL_Driver/Src/stm32h5xx_hal_pcd.c ****   if (ep_type == EP_TYPE_BULK)
1412:Drivers/STM32H5xx_HAL_Driver/Src/stm32h5xx_hal_pcd.c ****   {
1413:Drivers/STM32H5xx_HAL_Driver/Src/stm32h5xx_hal_pcd.c ****     ep->data_pid_start = 0U;
1414:Drivers/STM32H5xx_HAL_Driver/Src/stm32h5xx_hal_pcd.c ****   }
1415:Drivers/STM32H5xx_HAL_Driver/Src/stm32h5xx_hal_pcd.c **** 
1416:Drivers/STM32H5xx_HAL_Driver/Src/stm32h5xx_hal_pcd.c ****   __HAL_LOCK(hpcd);
1417:Drivers/STM32H5xx_HAL_Driver/Src/stm32h5xx_hal_pcd.c ****   (void)USB_ActivateEndpoint(hpcd->Instance, ep);
1418:Drivers/STM32H5xx_HAL_Driver/Src/stm32h5xx_hal_pcd.c ****   __HAL_UNLOCK(hpcd);
1419:Drivers/STM32H5xx_HAL_Driver/Src/stm32h5xx_hal_pcd.c **** 
1420:Drivers/STM32H5xx_HAL_Driver/Src/stm32h5xx_hal_pcd.c ****   return ret;
1421:Drivers/STM32H5xx_HAL_Driver/Src/stm32h5xx_hal_pcd.c **** }
1422:Drivers/STM32H5xx_HAL_Driver/Src/stm32h5xx_hal_pcd.c **** 
1423:Drivers/STM32H5xx_HAL_Driver/Src/stm32h5xx_hal_pcd.c **** /**
1424:Drivers/STM32H5xx_HAL_Driver/Src/stm32h5xx_hal_pcd.c ****   * @brief  Deactivate an endpoint.
1425:Drivers/STM32H5xx_HAL_Driver/Src/stm32h5xx_hal_pcd.c ****   * @param  hpcd PCD handle
1426:Drivers/STM32H5xx_HAL_Driver/Src/stm32h5xx_hal_pcd.c ****   * @param  ep_addr endpoint address
ARM GAS  /var/folders/l3/rwskfq612tq4b7hmtv37jkjw0000gp/T//ccPIyasB.s 			page 40


1427:Drivers/STM32H5xx_HAL_Driver/Src/stm32h5xx_hal_pcd.c ****   * @retval HAL status
1428:Drivers/STM32H5xx_HAL_Driver/Src/stm32h5xx_hal_pcd.c ****   */
1429:Drivers/STM32H5xx_HAL_Driver/Src/stm32h5xx_hal_pcd.c **** HAL_StatusTypeDef HAL_PCD_EP_Close(PCD_HandleTypeDef *hpcd, uint8_t ep_addr)
1430:Drivers/STM32H5xx_HAL_Driver/Src/stm32h5xx_hal_pcd.c **** {
1431:Drivers/STM32H5xx_HAL_Driver/Src/stm32h5xx_hal_pcd.c ****   PCD_EPTypeDef *ep;
1432:Drivers/STM32H5xx_HAL_Driver/Src/stm32h5xx_hal_pcd.c **** 
1433:Drivers/STM32H5xx_HAL_Driver/Src/stm32h5xx_hal_pcd.c ****   if ((ep_addr & 0x80U) == 0x80U)
1434:Drivers/STM32H5xx_HAL_Driver/Src/stm32h5xx_hal_pcd.c ****   {
1435:Drivers/STM32H5xx_HAL_Driver/Src/stm32h5xx_hal_pcd.c ****     ep = &hpcd->IN_ep[ep_addr & EP_ADDR_MSK];
1436:Drivers/STM32H5xx_HAL_Driver/Src/stm32h5xx_hal_pcd.c ****     ep->is_in = 1U;
1437:Drivers/STM32H5xx_HAL_Driver/Src/stm32h5xx_hal_pcd.c ****   }
1438:Drivers/STM32H5xx_HAL_Driver/Src/stm32h5xx_hal_pcd.c ****   else
1439:Drivers/STM32H5xx_HAL_Driver/Src/stm32h5xx_hal_pcd.c ****   {
1440:Drivers/STM32H5xx_HAL_Driver/Src/stm32h5xx_hal_pcd.c ****     ep = &hpcd->OUT_ep[ep_addr & EP_ADDR_MSK];
1441:Drivers/STM32H5xx_HAL_Driver/Src/stm32h5xx_hal_pcd.c ****     ep->is_in = 0U;
1442:Drivers/STM32H5xx_HAL_Driver/Src/stm32h5xx_hal_pcd.c ****   }
1443:Drivers/STM32H5xx_HAL_Driver/Src/stm32h5xx_hal_pcd.c ****   ep->num = ep_addr & EP_ADDR_MSK;
1444:Drivers/STM32H5xx_HAL_Driver/Src/stm32h5xx_hal_pcd.c **** 
1445:Drivers/STM32H5xx_HAL_Driver/Src/stm32h5xx_hal_pcd.c ****   __HAL_LOCK(hpcd);
1446:Drivers/STM32H5xx_HAL_Driver/Src/stm32h5xx_hal_pcd.c ****   (void)USB_DeactivateEndpoint(hpcd->Instance, ep);
1447:Drivers/STM32H5xx_HAL_Driver/Src/stm32h5xx_hal_pcd.c ****   __HAL_UNLOCK(hpcd);
1448:Drivers/STM32H5xx_HAL_Driver/Src/stm32h5xx_hal_pcd.c ****   return HAL_OK;
1449:Drivers/STM32H5xx_HAL_Driver/Src/stm32h5xx_hal_pcd.c **** }
1450:Drivers/STM32H5xx_HAL_Driver/Src/stm32h5xx_hal_pcd.c **** 
1451:Drivers/STM32H5xx_HAL_Driver/Src/stm32h5xx_hal_pcd.c **** 
1452:Drivers/STM32H5xx_HAL_Driver/Src/stm32h5xx_hal_pcd.c **** /**
1453:Drivers/STM32H5xx_HAL_Driver/Src/stm32h5xx_hal_pcd.c ****   * @brief  Receive an amount of data.
1454:Drivers/STM32H5xx_HAL_Driver/Src/stm32h5xx_hal_pcd.c ****   * @param  hpcd PCD handle
1455:Drivers/STM32H5xx_HAL_Driver/Src/stm32h5xx_hal_pcd.c ****   * @param  ep_addr endpoint address
1456:Drivers/STM32H5xx_HAL_Driver/Src/stm32h5xx_hal_pcd.c ****   * @param  pBuf pointer to the reception buffer
1457:Drivers/STM32H5xx_HAL_Driver/Src/stm32h5xx_hal_pcd.c ****   * @param  len amount of data to be received
1458:Drivers/STM32H5xx_HAL_Driver/Src/stm32h5xx_hal_pcd.c ****   * @retval HAL status
1459:Drivers/STM32H5xx_HAL_Driver/Src/stm32h5xx_hal_pcd.c ****   */
1460:Drivers/STM32H5xx_HAL_Driver/Src/stm32h5xx_hal_pcd.c **** HAL_StatusTypeDef HAL_PCD_EP_Receive(PCD_HandleTypeDef *hpcd, uint8_t ep_addr, uint8_t *pBuf, uint3
1461:Drivers/STM32H5xx_HAL_Driver/Src/stm32h5xx_hal_pcd.c **** {
1462:Drivers/STM32H5xx_HAL_Driver/Src/stm32h5xx_hal_pcd.c ****   PCD_EPTypeDef *ep;
1463:Drivers/STM32H5xx_HAL_Driver/Src/stm32h5xx_hal_pcd.c **** 
1464:Drivers/STM32H5xx_HAL_Driver/Src/stm32h5xx_hal_pcd.c ****   ep = &hpcd->OUT_ep[ep_addr & EP_ADDR_MSK];
1465:Drivers/STM32H5xx_HAL_Driver/Src/stm32h5xx_hal_pcd.c **** 
1466:Drivers/STM32H5xx_HAL_Driver/Src/stm32h5xx_hal_pcd.c ****   /*setup and start the Xfer */
1467:Drivers/STM32H5xx_HAL_Driver/Src/stm32h5xx_hal_pcd.c ****   ep->xfer_buff = pBuf;
1468:Drivers/STM32H5xx_HAL_Driver/Src/stm32h5xx_hal_pcd.c ****   ep->xfer_len = len;
1469:Drivers/STM32H5xx_HAL_Driver/Src/stm32h5xx_hal_pcd.c ****   ep->xfer_count = 0U;
1470:Drivers/STM32H5xx_HAL_Driver/Src/stm32h5xx_hal_pcd.c ****   ep->is_in = 0U;
1471:Drivers/STM32H5xx_HAL_Driver/Src/stm32h5xx_hal_pcd.c ****   ep->num = ep_addr & EP_ADDR_MSK;
1472:Drivers/STM32H5xx_HAL_Driver/Src/stm32h5xx_hal_pcd.c **** 
1473:Drivers/STM32H5xx_HAL_Driver/Src/stm32h5xx_hal_pcd.c ****   (void)USB_EPStartXfer(hpcd->Instance, ep);
1474:Drivers/STM32H5xx_HAL_Driver/Src/stm32h5xx_hal_pcd.c **** 
1475:Drivers/STM32H5xx_HAL_Driver/Src/stm32h5xx_hal_pcd.c ****   return HAL_OK;
1476:Drivers/STM32H5xx_HAL_Driver/Src/stm32h5xx_hal_pcd.c **** }
1477:Drivers/STM32H5xx_HAL_Driver/Src/stm32h5xx_hal_pcd.c **** 
1478:Drivers/STM32H5xx_HAL_Driver/Src/stm32h5xx_hal_pcd.c **** /**
1479:Drivers/STM32H5xx_HAL_Driver/Src/stm32h5xx_hal_pcd.c ****   * @brief  Get Received Data Size
1480:Drivers/STM32H5xx_HAL_Driver/Src/stm32h5xx_hal_pcd.c ****   * @param  hpcd PCD handle
1481:Drivers/STM32H5xx_HAL_Driver/Src/stm32h5xx_hal_pcd.c ****   * @param  ep_addr endpoint address
1482:Drivers/STM32H5xx_HAL_Driver/Src/stm32h5xx_hal_pcd.c ****   * @retval Data Size
1483:Drivers/STM32H5xx_HAL_Driver/Src/stm32h5xx_hal_pcd.c ****   */
ARM GAS  /var/folders/l3/rwskfq612tq4b7hmtv37jkjw0000gp/T//ccPIyasB.s 			page 41


1484:Drivers/STM32H5xx_HAL_Driver/Src/stm32h5xx_hal_pcd.c **** uint32_t HAL_PCD_EP_GetRxCount(PCD_HandleTypeDef const *hpcd, uint8_t ep_addr)
1485:Drivers/STM32H5xx_HAL_Driver/Src/stm32h5xx_hal_pcd.c **** {
1486:Drivers/STM32H5xx_HAL_Driver/Src/stm32h5xx_hal_pcd.c ****   return hpcd->OUT_ep[ep_addr & EP_ADDR_MSK].xfer_count;
1487:Drivers/STM32H5xx_HAL_Driver/Src/stm32h5xx_hal_pcd.c **** }
1488:Drivers/STM32H5xx_HAL_Driver/Src/stm32h5xx_hal_pcd.c **** /**
1489:Drivers/STM32H5xx_HAL_Driver/Src/stm32h5xx_hal_pcd.c ****   * @brief  Send an amount of data
1490:Drivers/STM32H5xx_HAL_Driver/Src/stm32h5xx_hal_pcd.c ****   * @param  hpcd PCD handle
1491:Drivers/STM32H5xx_HAL_Driver/Src/stm32h5xx_hal_pcd.c ****   * @param  ep_addr endpoint address
1492:Drivers/STM32H5xx_HAL_Driver/Src/stm32h5xx_hal_pcd.c ****   * @param  pBuf pointer to the transmission buffer
1493:Drivers/STM32H5xx_HAL_Driver/Src/stm32h5xx_hal_pcd.c ****   * @param  len amount of data to be sent
1494:Drivers/STM32H5xx_HAL_Driver/Src/stm32h5xx_hal_pcd.c ****   * @retval HAL status
1495:Drivers/STM32H5xx_HAL_Driver/Src/stm32h5xx_hal_pcd.c ****   */
1496:Drivers/STM32H5xx_HAL_Driver/Src/stm32h5xx_hal_pcd.c **** HAL_StatusTypeDef HAL_PCD_EP_Transmit(PCD_HandleTypeDef *hpcd, uint8_t ep_addr, uint8_t *pBuf, uint
1497:Drivers/STM32H5xx_HAL_Driver/Src/stm32h5xx_hal_pcd.c **** {
1498:Drivers/STM32H5xx_HAL_Driver/Src/stm32h5xx_hal_pcd.c ****   PCD_EPTypeDef *ep;
1499:Drivers/STM32H5xx_HAL_Driver/Src/stm32h5xx_hal_pcd.c **** 
1500:Drivers/STM32H5xx_HAL_Driver/Src/stm32h5xx_hal_pcd.c ****   ep = &hpcd->IN_ep[ep_addr & EP_ADDR_MSK];
1501:Drivers/STM32H5xx_HAL_Driver/Src/stm32h5xx_hal_pcd.c **** 
1502:Drivers/STM32H5xx_HAL_Driver/Src/stm32h5xx_hal_pcd.c ****   /*setup and start the Xfer */
1503:Drivers/STM32H5xx_HAL_Driver/Src/stm32h5xx_hal_pcd.c ****   ep->xfer_buff = pBuf;
1504:Drivers/STM32H5xx_HAL_Driver/Src/stm32h5xx_hal_pcd.c ****   ep->xfer_len = len;
1505:Drivers/STM32H5xx_HAL_Driver/Src/stm32h5xx_hal_pcd.c ****   ep->xfer_fill_db = 1U;
1506:Drivers/STM32H5xx_HAL_Driver/Src/stm32h5xx_hal_pcd.c ****   ep->xfer_len_db = len;
1507:Drivers/STM32H5xx_HAL_Driver/Src/stm32h5xx_hal_pcd.c ****   ep->xfer_count = 0U;
1508:Drivers/STM32H5xx_HAL_Driver/Src/stm32h5xx_hal_pcd.c ****   ep->is_in = 1U;
1509:Drivers/STM32H5xx_HAL_Driver/Src/stm32h5xx_hal_pcd.c ****   ep->num = ep_addr & EP_ADDR_MSK;
1510:Drivers/STM32H5xx_HAL_Driver/Src/stm32h5xx_hal_pcd.c **** 
1511:Drivers/STM32H5xx_HAL_Driver/Src/stm32h5xx_hal_pcd.c ****   (void)USB_EPStartXfer(hpcd->Instance, ep);
1512:Drivers/STM32H5xx_HAL_Driver/Src/stm32h5xx_hal_pcd.c **** 
1513:Drivers/STM32H5xx_HAL_Driver/Src/stm32h5xx_hal_pcd.c ****   return HAL_OK;
1514:Drivers/STM32H5xx_HAL_Driver/Src/stm32h5xx_hal_pcd.c **** }
1515:Drivers/STM32H5xx_HAL_Driver/Src/stm32h5xx_hal_pcd.c **** 
1516:Drivers/STM32H5xx_HAL_Driver/Src/stm32h5xx_hal_pcd.c **** /**
1517:Drivers/STM32H5xx_HAL_Driver/Src/stm32h5xx_hal_pcd.c ****   * @brief  Set a STALL condition over an endpoint
1518:Drivers/STM32H5xx_HAL_Driver/Src/stm32h5xx_hal_pcd.c ****   * @param  hpcd PCD handle
1519:Drivers/STM32H5xx_HAL_Driver/Src/stm32h5xx_hal_pcd.c ****   * @param  ep_addr endpoint address
1520:Drivers/STM32H5xx_HAL_Driver/Src/stm32h5xx_hal_pcd.c ****   * @retval HAL status
1521:Drivers/STM32H5xx_HAL_Driver/Src/stm32h5xx_hal_pcd.c ****   */
1522:Drivers/STM32H5xx_HAL_Driver/Src/stm32h5xx_hal_pcd.c **** HAL_StatusTypeDef HAL_PCD_EP_SetStall(PCD_HandleTypeDef *hpcd, uint8_t ep_addr)
1523:Drivers/STM32H5xx_HAL_Driver/Src/stm32h5xx_hal_pcd.c **** {
1524:Drivers/STM32H5xx_HAL_Driver/Src/stm32h5xx_hal_pcd.c ****   PCD_EPTypeDef *ep;
1525:Drivers/STM32H5xx_HAL_Driver/Src/stm32h5xx_hal_pcd.c **** 
1526:Drivers/STM32H5xx_HAL_Driver/Src/stm32h5xx_hal_pcd.c ****   if (((uint32_t)ep_addr & EP_ADDR_MSK) > hpcd->Init.dev_endpoints)
1527:Drivers/STM32H5xx_HAL_Driver/Src/stm32h5xx_hal_pcd.c ****   {
1528:Drivers/STM32H5xx_HAL_Driver/Src/stm32h5xx_hal_pcd.c ****     return HAL_ERROR;
1529:Drivers/STM32H5xx_HAL_Driver/Src/stm32h5xx_hal_pcd.c ****   }
1530:Drivers/STM32H5xx_HAL_Driver/Src/stm32h5xx_hal_pcd.c **** 
1531:Drivers/STM32H5xx_HAL_Driver/Src/stm32h5xx_hal_pcd.c ****   if ((0x80U & ep_addr) == 0x80U)
1532:Drivers/STM32H5xx_HAL_Driver/Src/stm32h5xx_hal_pcd.c ****   {
1533:Drivers/STM32H5xx_HAL_Driver/Src/stm32h5xx_hal_pcd.c ****     ep = &hpcd->IN_ep[ep_addr & EP_ADDR_MSK];
1534:Drivers/STM32H5xx_HAL_Driver/Src/stm32h5xx_hal_pcd.c ****     ep->is_in = 1U;
1535:Drivers/STM32H5xx_HAL_Driver/Src/stm32h5xx_hal_pcd.c ****   }
1536:Drivers/STM32H5xx_HAL_Driver/Src/stm32h5xx_hal_pcd.c ****   else
1537:Drivers/STM32H5xx_HAL_Driver/Src/stm32h5xx_hal_pcd.c ****   {
1538:Drivers/STM32H5xx_HAL_Driver/Src/stm32h5xx_hal_pcd.c ****     ep = &hpcd->OUT_ep[ep_addr];
1539:Drivers/STM32H5xx_HAL_Driver/Src/stm32h5xx_hal_pcd.c ****     ep->is_in = 0U;
1540:Drivers/STM32H5xx_HAL_Driver/Src/stm32h5xx_hal_pcd.c ****   }
ARM GAS  /var/folders/l3/rwskfq612tq4b7hmtv37jkjw0000gp/T//ccPIyasB.s 			page 42


1541:Drivers/STM32H5xx_HAL_Driver/Src/stm32h5xx_hal_pcd.c **** 
1542:Drivers/STM32H5xx_HAL_Driver/Src/stm32h5xx_hal_pcd.c ****   ep->is_stall = 1U;
1543:Drivers/STM32H5xx_HAL_Driver/Src/stm32h5xx_hal_pcd.c ****   ep->num = ep_addr & EP_ADDR_MSK;
1544:Drivers/STM32H5xx_HAL_Driver/Src/stm32h5xx_hal_pcd.c **** 
1545:Drivers/STM32H5xx_HAL_Driver/Src/stm32h5xx_hal_pcd.c ****   __HAL_LOCK(hpcd);
1546:Drivers/STM32H5xx_HAL_Driver/Src/stm32h5xx_hal_pcd.c **** 
1547:Drivers/STM32H5xx_HAL_Driver/Src/stm32h5xx_hal_pcd.c ****   (void)USB_EPSetStall(hpcd->Instance, ep);
1548:Drivers/STM32H5xx_HAL_Driver/Src/stm32h5xx_hal_pcd.c **** 
1549:Drivers/STM32H5xx_HAL_Driver/Src/stm32h5xx_hal_pcd.c ****   __HAL_UNLOCK(hpcd);
1550:Drivers/STM32H5xx_HAL_Driver/Src/stm32h5xx_hal_pcd.c **** 
1551:Drivers/STM32H5xx_HAL_Driver/Src/stm32h5xx_hal_pcd.c ****   return HAL_OK;
1552:Drivers/STM32H5xx_HAL_Driver/Src/stm32h5xx_hal_pcd.c **** }
1553:Drivers/STM32H5xx_HAL_Driver/Src/stm32h5xx_hal_pcd.c **** 
1554:Drivers/STM32H5xx_HAL_Driver/Src/stm32h5xx_hal_pcd.c **** /**
1555:Drivers/STM32H5xx_HAL_Driver/Src/stm32h5xx_hal_pcd.c ****   * @brief  Clear a STALL condition over in an endpoint
1556:Drivers/STM32H5xx_HAL_Driver/Src/stm32h5xx_hal_pcd.c ****   * @param  hpcd PCD handle
1557:Drivers/STM32H5xx_HAL_Driver/Src/stm32h5xx_hal_pcd.c ****   * @param  ep_addr endpoint address
1558:Drivers/STM32H5xx_HAL_Driver/Src/stm32h5xx_hal_pcd.c ****   * @retval HAL status
1559:Drivers/STM32H5xx_HAL_Driver/Src/stm32h5xx_hal_pcd.c ****   */
1560:Drivers/STM32H5xx_HAL_Driver/Src/stm32h5xx_hal_pcd.c **** HAL_StatusTypeDef HAL_PCD_EP_ClrStall(PCD_HandleTypeDef *hpcd, uint8_t ep_addr)
1561:Drivers/STM32H5xx_HAL_Driver/Src/stm32h5xx_hal_pcd.c **** {
1562:Drivers/STM32H5xx_HAL_Driver/Src/stm32h5xx_hal_pcd.c ****   PCD_EPTypeDef *ep;
1563:Drivers/STM32H5xx_HAL_Driver/Src/stm32h5xx_hal_pcd.c **** 
1564:Drivers/STM32H5xx_HAL_Driver/Src/stm32h5xx_hal_pcd.c ****   if (((uint32_t)ep_addr & 0x0FU) > hpcd->Init.dev_endpoints)
1565:Drivers/STM32H5xx_HAL_Driver/Src/stm32h5xx_hal_pcd.c ****   {
1566:Drivers/STM32H5xx_HAL_Driver/Src/stm32h5xx_hal_pcd.c ****     return HAL_ERROR;
1567:Drivers/STM32H5xx_HAL_Driver/Src/stm32h5xx_hal_pcd.c ****   }
1568:Drivers/STM32H5xx_HAL_Driver/Src/stm32h5xx_hal_pcd.c **** 
1569:Drivers/STM32H5xx_HAL_Driver/Src/stm32h5xx_hal_pcd.c ****   if ((0x80U & ep_addr) == 0x80U)
1570:Drivers/STM32H5xx_HAL_Driver/Src/stm32h5xx_hal_pcd.c ****   {
1571:Drivers/STM32H5xx_HAL_Driver/Src/stm32h5xx_hal_pcd.c ****     ep = &hpcd->IN_ep[ep_addr & EP_ADDR_MSK];
1572:Drivers/STM32H5xx_HAL_Driver/Src/stm32h5xx_hal_pcd.c ****     ep->is_in = 1U;
1573:Drivers/STM32H5xx_HAL_Driver/Src/stm32h5xx_hal_pcd.c ****   }
1574:Drivers/STM32H5xx_HAL_Driver/Src/stm32h5xx_hal_pcd.c ****   else
1575:Drivers/STM32H5xx_HAL_Driver/Src/stm32h5xx_hal_pcd.c ****   {
1576:Drivers/STM32H5xx_HAL_Driver/Src/stm32h5xx_hal_pcd.c ****     ep = &hpcd->OUT_ep[ep_addr & EP_ADDR_MSK];
1577:Drivers/STM32H5xx_HAL_Driver/Src/stm32h5xx_hal_pcd.c ****     ep->is_in = 0U;
1578:Drivers/STM32H5xx_HAL_Driver/Src/stm32h5xx_hal_pcd.c ****   }
1579:Drivers/STM32H5xx_HAL_Driver/Src/stm32h5xx_hal_pcd.c **** 
1580:Drivers/STM32H5xx_HAL_Driver/Src/stm32h5xx_hal_pcd.c ****   ep->is_stall = 0U;
1581:Drivers/STM32H5xx_HAL_Driver/Src/stm32h5xx_hal_pcd.c ****   ep->num = ep_addr & EP_ADDR_MSK;
1582:Drivers/STM32H5xx_HAL_Driver/Src/stm32h5xx_hal_pcd.c **** 
1583:Drivers/STM32H5xx_HAL_Driver/Src/stm32h5xx_hal_pcd.c ****   __HAL_LOCK(hpcd);
1584:Drivers/STM32H5xx_HAL_Driver/Src/stm32h5xx_hal_pcd.c ****   (void)USB_EPClearStall(hpcd->Instance, ep);
1585:Drivers/STM32H5xx_HAL_Driver/Src/stm32h5xx_hal_pcd.c ****   __HAL_UNLOCK(hpcd);
1586:Drivers/STM32H5xx_HAL_Driver/Src/stm32h5xx_hal_pcd.c **** 
1587:Drivers/STM32H5xx_HAL_Driver/Src/stm32h5xx_hal_pcd.c ****   return HAL_OK;
1588:Drivers/STM32H5xx_HAL_Driver/Src/stm32h5xx_hal_pcd.c **** }
1589:Drivers/STM32H5xx_HAL_Driver/Src/stm32h5xx_hal_pcd.c **** 
1590:Drivers/STM32H5xx_HAL_Driver/Src/stm32h5xx_hal_pcd.c **** /**
1591:Drivers/STM32H5xx_HAL_Driver/Src/stm32h5xx_hal_pcd.c ****    * @brief  Abort an USB EP transaction.
1592:Drivers/STM32H5xx_HAL_Driver/Src/stm32h5xx_hal_pcd.c ****    * @param  hpcd PCD handle
1593:Drivers/STM32H5xx_HAL_Driver/Src/stm32h5xx_hal_pcd.c ****    * @param  ep_addr endpoint address
1594:Drivers/STM32H5xx_HAL_Driver/Src/stm32h5xx_hal_pcd.c ****    * @retval HAL status
1595:Drivers/STM32H5xx_HAL_Driver/Src/stm32h5xx_hal_pcd.c ****    */
1596:Drivers/STM32H5xx_HAL_Driver/Src/stm32h5xx_hal_pcd.c **** HAL_StatusTypeDef HAL_PCD_EP_Abort(PCD_HandleTypeDef *hpcd, uint8_t ep_addr)
1597:Drivers/STM32H5xx_HAL_Driver/Src/stm32h5xx_hal_pcd.c **** {
ARM GAS  /var/folders/l3/rwskfq612tq4b7hmtv37jkjw0000gp/T//ccPIyasB.s 			page 43


1598:Drivers/STM32H5xx_HAL_Driver/Src/stm32h5xx_hal_pcd.c ****   HAL_StatusTypeDef ret;
1599:Drivers/STM32H5xx_HAL_Driver/Src/stm32h5xx_hal_pcd.c ****   PCD_EPTypeDef *ep;
1600:Drivers/STM32H5xx_HAL_Driver/Src/stm32h5xx_hal_pcd.c **** 
1601:Drivers/STM32H5xx_HAL_Driver/Src/stm32h5xx_hal_pcd.c ****   if ((0x80U & ep_addr) == 0x80U)
1602:Drivers/STM32H5xx_HAL_Driver/Src/stm32h5xx_hal_pcd.c ****   {
1603:Drivers/STM32H5xx_HAL_Driver/Src/stm32h5xx_hal_pcd.c ****     ep = &hpcd->IN_ep[ep_addr & EP_ADDR_MSK];
1604:Drivers/STM32H5xx_HAL_Driver/Src/stm32h5xx_hal_pcd.c ****   }
1605:Drivers/STM32H5xx_HAL_Driver/Src/stm32h5xx_hal_pcd.c ****   else
1606:Drivers/STM32H5xx_HAL_Driver/Src/stm32h5xx_hal_pcd.c ****   {
1607:Drivers/STM32H5xx_HAL_Driver/Src/stm32h5xx_hal_pcd.c ****     ep = &hpcd->OUT_ep[ep_addr & EP_ADDR_MSK];
1608:Drivers/STM32H5xx_HAL_Driver/Src/stm32h5xx_hal_pcd.c ****   }
1609:Drivers/STM32H5xx_HAL_Driver/Src/stm32h5xx_hal_pcd.c **** 
1610:Drivers/STM32H5xx_HAL_Driver/Src/stm32h5xx_hal_pcd.c ****   /* Stop Xfer */
1611:Drivers/STM32H5xx_HAL_Driver/Src/stm32h5xx_hal_pcd.c ****   ret = USB_EPStopXfer(hpcd->Instance, ep);
1612:Drivers/STM32H5xx_HAL_Driver/Src/stm32h5xx_hal_pcd.c **** 
1613:Drivers/STM32H5xx_HAL_Driver/Src/stm32h5xx_hal_pcd.c ****   return ret;
1614:Drivers/STM32H5xx_HAL_Driver/Src/stm32h5xx_hal_pcd.c **** }
1615:Drivers/STM32H5xx_HAL_Driver/Src/stm32h5xx_hal_pcd.c **** 
1616:Drivers/STM32H5xx_HAL_Driver/Src/stm32h5xx_hal_pcd.c **** /**
1617:Drivers/STM32H5xx_HAL_Driver/Src/stm32h5xx_hal_pcd.c ****   * @brief  Flush an endpoint
1618:Drivers/STM32H5xx_HAL_Driver/Src/stm32h5xx_hal_pcd.c ****   * @param  hpcd PCD handle
1619:Drivers/STM32H5xx_HAL_Driver/Src/stm32h5xx_hal_pcd.c ****   * @param  ep_addr endpoint address
1620:Drivers/STM32H5xx_HAL_Driver/Src/stm32h5xx_hal_pcd.c ****   * @retval HAL status
1621:Drivers/STM32H5xx_HAL_Driver/Src/stm32h5xx_hal_pcd.c ****   */
1622:Drivers/STM32H5xx_HAL_Driver/Src/stm32h5xx_hal_pcd.c **** HAL_StatusTypeDef HAL_PCD_EP_Flush(PCD_HandleTypeDef *hpcd, uint8_t ep_addr)
1623:Drivers/STM32H5xx_HAL_Driver/Src/stm32h5xx_hal_pcd.c **** {
1624:Drivers/STM32H5xx_HAL_Driver/Src/stm32h5xx_hal_pcd.c ****   __HAL_LOCK(hpcd);
1625:Drivers/STM32H5xx_HAL_Driver/Src/stm32h5xx_hal_pcd.c **** 
1626:Drivers/STM32H5xx_HAL_Driver/Src/stm32h5xx_hal_pcd.c ****   if ((ep_addr & 0x80U) == 0x80U)
1627:Drivers/STM32H5xx_HAL_Driver/Src/stm32h5xx_hal_pcd.c ****   {
1628:Drivers/STM32H5xx_HAL_Driver/Src/stm32h5xx_hal_pcd.c ****     (void)USB_FlushTxFifo(hpcd->Instance, (uint32_t)ep_addr & EP_ADDR_MSK);
1629:Drivers/STM32H5xx_HAL_Driver/Src/stm32h5xx_hal_pcd.c ****   }
1630:Drivers/STM32H5xx_HAL_Driver/Src/stm32h5xx_hal_pcd.c ****   else
1631:Drivers/STM32H5xx_HAL_Driver/Src/stm32h5xx_hal_pcd.c ****   {
1632:Drivers/STM32H5xx_HAL_Driver/Src/stm32h5xx_hal_pcd.c ****     (void)USB_FlushRxFifo(hpcd->Instance);
1633:Drivers/STM32H5xx_HAL_Driver/Src/stm32h5xx_hal_pcd.c ****   }
1634:Drivers/STM32H5xx_HAL_Driver/Src/stm32h5xx_hal_pcd.c **** 
1635:Drivers/STM32H5xx_HAL_Driver/Src/stm32h5xx_hal_pcd.c ****   __HAL_UNLOCK(hpcd);
1636:Drivers/STM32H5xx_HAL_Driver/Src/stm32h5xx_hal_pcd.c **** 
1637:Drivers/STM32H5xx_HAL_Driver/Src/stm32h5xx_hal_pcd.c ****   return HAL_OK;
1638:Drivers/STM32H5xx_HAL_Driver/Src/stm32h5xx_hal_pcd.c **** }
1639:Drivers/STM32H5xx_HAL_Driver/Src/stm32h5xx_hal_pcd.c **** 
1640:Drivers/STM32H5xx_HAL_Driver/Src/stm32h5xx_hal_pcd.c **** /**
1641:Drivers/STM32H5xx_HAL_Driver/Src/stm32h5xx_hal_pcd.c ****   * @brief  Activate remote wakeup signalling
1642:Drivers/STM32H5xx_HAL_Driver/Src/stm32h5xx_hal_pcd.c ****   * @param  hpcd PCD handle
1643:Drivers/STM32H5xx_HAL_Driver/Src/stm32h5xx_hal_pcd.c ****   * @retval HAL status
1644:Drivers/STM32H5xx_HAL_Driver/Src/stm32h5xx_hal_pcd.c ****   */
1645:Drivers/STM32H5xx_HAL_Driver/Src/stm32h5xx_hal_pcd.c **** HAL_StatusTypeDef HAL_PCD_ActivateRemoteWakeup(PCD_HandleTypeDef *hpcd)
1646:Drivers/STM32H5xx_HAL_Driver/Src/stm32h5xx_hal_pcd.c **** {
1647:Drivers/STM32H5xx_HAL_Driver/Src/stm32h5xx_hal_pcd.c ****   return (USB_ActivateRemoteWakeup(hpcd->Instance));
1648:Drivers/STM32H5xx_HAL_Driver/Src/stm32h5xx_hal_pcd.c **** }
1649:Drivers/STM32H5xx_HAL_Driver/Src/stm32h5xx_hal_pcd.c **** 
1650:Drivers/STM32H5xx_HAL_Driver/Src/stm32h5xx_hal_pcd.c **** /**
1651:Drivers/STM32H5xx_HAL_Driver/Src/stm32h5xx_hal_pcd.c ****   * @brief  De-activate remote wakeup signalling.
1652:Drivers/STM32H5xx_HAL_Driver/Src/stm32h5xx_hal_pcd.c ****   * @param  hpcd PCD handle
1653:Drivers/STM32H5xx_HAL_Driver/Src/stm32h5xx_hal_pcd.c ****   * @retval HAL status
1654:Drivers/STM32H5xx_HAL_Driver/Src/stm32h5xx_hal_pcd.c ****   */
ARM GAS  /var/folders/l3/rwskfq612tq4b7hmtv37jkjw0000gp/T//ccPIyasB.s 			page 44


1655:Drivers/STM32H5xx_HAL_Driver/Src/stm32h5xx_hal_pcd.c **** HAL_StatusTypeDef HAL_PCD_DeActivateRemoteWakeup(PCD_HandleTypeDef *hpcd)
1656:Drivers/STM32H5xx_HAL_Driver/Src/stm32h5xx_hal_pcd.c **** {
1657:Drivers/STM32H5xx_HAL_Driver/Src/stm32h5xx_hal_pcd.c ****   return (USB_DeActivateRemoteWakeup(hpcd->Instance));
1658:Drivers/STM32H5xx_HAL_Driver/Src/stm32h5xx_hal_pcd.c **** }
1659:Drivers/STM32H5xx_HAL_Driver/Src/stm32h5xx_hal_pcd.c **** 
1660:Drivers/STM32H5xx_HAL_Driver/Src/stm32h5xx_hal_pcd.c **** /**
1661:Drivers/STM32H5xx_HAL_Driver/Src/stm32h5xx_hal_pcd.c ****   * @}
1662:Drivers/STM32H5xx_HAL_Driver/Src/stm32h5xx_hal_pcd.c ****   */
1663:Drivers/STM32H5xx_HAL_Driver/Src/stm32h5xx_hal_pcd.c **** 
1664:Drivers/STM32H5xx_HAL_Driver/Src/stm32h5xx_hal_pcd.c **** /** @defgroup PCD_Exported_Functions_Group4 Peripheral State functions
1665:Drivers/STM32H5xx_HAL_Driver/Src/stm32h5xx_hal_pcd.c ****   *  @brief   Peripheral State functions
1666:Drivers/STM32H5xx_HAL_Driver/Src/stm32h5xx_hal_pcd.c ****   *
1667:Drivers/STM32H5xx_HAL_Driver/Src/stm32h5xx_hal_pcd.c **** @verbatim
1668:Drivers/STM32H5xx_HAL_Driver/Src/stm32h5xx_hal_pcd.c ****  ===============================================================================
1669:Drivers/STM32H5xx_HAL_Driver/Src/stm32h5xx_hal_pcd.c ****                       ##### Peripheral State functions #####
1670:Drivers/STM32H5xx_HAL_Driver/Src/stm32h5xx_hal_pcd.c ****  ===============================================================================
1671:Drivers/STM32H5xx_HAL_Driver/Src/stm32h5xx_hal_pcd.c ****     [..]
1672:Drivers/STM32H5xx_HAL_Driver/Src/stm32h5xx_hal_pcd.c ****     This subsection permits to get in run-time the status of the peripheral
1673:Drivers/STM32H5xx_HAL_Driver/Src/stm32h5xx_hal_pcd.c ****     and the data flow.
1674:Drivers/STM32H5xx_HAL_Driver/Src/stm32h5xx_hal_pcd.c **** 
1675:Drivers/STM32H5xx_HAL_Driver/Src/stm32h5xx_hal_pcd.c **** @endverbatim
1676:Drivers/STM32H5xx_HAL_Driver/Src/stm32h5xx_hal_pcd.c ****   * @{
1677:Drivers/STM32H5xx_HAL_Driver/Src/stm32h5xx_hal_pcd.c ****   */
1678:Drivers/STM32H5xx_HAL_Driver/Src/stm32h5xx_hal_pcd.c **** 
1679:Drivers/STM32H5xx_HAL_Driver/Src/stm32h5xx_hal_pcd.c **** /**
1680:Drivers/STM32H5xx_HAL_Driver/Src/stm32h5xx_hal_pcd.c ****   * @brief  Return the PCD handle state.
1681:Drivers/STM32H5xx_HAL_Driver/Src/stm32h5xx_hal_pcd.c ****   * @param  hpcd PCD handle
1682:Drivers/STM32H5xx_HAL_Driver/Src/stm32h5xx_hal_pcd.c ****   * @retval HAL state
1683:Drivers/STM32H5xx_HAL_Driver/Src/stm32h5xx_hal_pcd.c ****   */
1684:Drivers/STM32H5xx_HAL_Driver/Src/stm32h5xx_hal_pcd.c **** PCD_StateTypeDef HAL_PCD_GetState(PCD_HandleTypeDef const *hpcd)
1685:Drivers/STM32H5xx_HAL_Driver/Src/stm32h5xx_hal_pcd.c **** {
1686:Drivers/STM32H5xx_HAL_Driver/Src/stm32h5xx_hal_pcd.c ****   return hpcd->State;
1687:Drivers/STM32H5xx_HAL_Driver/Src/stm32h5xx_hal_pcd.c **** }
1688:Drivers/STM32H5xx_HAL_Driver/Src/stm32h5xx_hal_pcd.c **** 
1689:Drivers/STM32H5xx_HAL_Driver/Src/stm32h5xx_hal_pcd.c **** /**
1690:Drivers/STM32H5xx_HAL_Driver/Src/stm32h5xx_hal_pcd.c ****   * @}
1691:Drivers/STM32H5xx_HAL_Driver/Src/stm32h5xx_hal_pcd.c ****   */
1692:Drivers/STM32H5xx_HAL_Driver/Src/stm32h5xx_hal_pcd.c **** 
1693:Drivers/STM32H5xx_HAL_Driver/Src/stm32h5xx_hal_pcd.c **** /**
1694:Drivers/STM32H5xx_HAL_Driver/Src/stm32h5xx_hal_pcd.c ****   * @}
1695:Drivers/STM32H5xx_HAL_Driver/Src/stm32h5xx_hal_pcd.c ****   */
1696:Drivers/STM32H5xx_HAL_Driver/Src/stm32h5xx_hal_pcd.c **** 
1697:Drivers/STM32H5xx_HAL_Driver/Src/stm32h5xx_hal_pcd.c **** /* Private functions ---------------------------------------------------------*/
1698:Drivers/STM32H5xx_HAL_Driver/Src/stm32h5xx_hal_pcd.c **** /** @addtogroup PCD_Private_Functions
1699:Drivers/STM32H5xx_HAL_Driver/Src/stm32h5xx_hal_pcd.c ****   * @{
1700:Drivers/STM32H5xx_HAL_Driver/Src/stm32h5xx_hal_pcd.c ****   */
1701:Drivers/STM32H5xx_HAL_Driver/Src/stm32h5xx_hal_pcd.c **** 
1702:Drivers/STM32H5xx_HAL_Driver/Src/stm32h5xx_hal_pcd.c **** 
1703:Drivers/STM32H5xx_HAL_Driver/Src/stm32h5xx_hal_pcd.c **** /**
1704:Drivers/STM32H5xx_HAL_Driver/Src/stm32h5xx_hal_pcd.c ****   * @brief  This function handles PCD Endpoint interrupt request.
1705:Drivers/STM32H5xx_HAL_Driver/Src/stm32h5xx_hal_pcd.c ****   * @param  hpcd PCD handle
1706:Drivers/STM32H5xx_HAL_Driver/Src/stm32h5xx_hal_pcd.c ****   * @retval HAL status
1707:Drivers/STM32H5xx_HAL_Driver/Src/stm32h5xx_hal_pcd.c ****   */
1708:Drivers/STM32H5xx_HAL_Driver/Src/stm32h5xx_hal_pcd.c **** static HAL_StatusTypeDef PCD_EP_ISR_Handler(PCD_HandleTypeDef *hpcd)
1709:Drivers/STM32H5xx_HAL_Driver/Src/stm32h5xx_hal_pcd.c **** {
1710:Drivers/STM32H5xx_HAL_Driver/Src/stm32h5xx_hal_pcd.c ****   PCD_EPTypeDef *ep;
1711:Drivers/STM32H5xx_HAL_Driver/Src/stm32h5xx_hal_pcd.c ****   uint16_t count;
ARM GAS  /var/folders/l3/rwskfq612tq4b7hmtv37jkjw0000gp/T//ccPIyasB.s 			page 45


1712:Drivers/STM32H5xx_HAL_Driver/Src/stm32h5xx_hal_pcd.c ****   uint16_t wIstr;
1713:Drivers/STM32H5xx_HAL_Driver/Src/stm32h5xx_hal_pcd.c ****   uint16_t wEPVal;
1714:Drivers/STM32H5xx_HAL_Driver/Src/stm32h5xx_hal_pcd.c ****   uint16_t TxPctSize;
1715:Drivers/STM32H5xx_HAL_Driver/Src/stm32h5xx_hal_pcd.c ****   uint8_t epindex;
1716:Drivers/STM32H5xx_HAL_Driver/Src/stm32h5xx_hal_pcd.c **** 
1717:Drivers/STM32H5xx_HAL_Driver/Src/stm32h5xx_hal_pcd.c **** #if (USE_USB_DOUBLE_BUFFER != 1U)
1718:Drivers/STM32H5xx_HAL_Driver/Src/stm32h5xx_hal_pcd.c ****   count = 0U;
1719:Drivers/STM32H5xx_HAL_Driver/Src/stm32h5xx_hal_pcd.c **** #endif /* USE_USB_DOUBLE_BUFFER */
1720:Drivers/STM32H5xx_HAL_Driver/Src/stm32h5xx_hal_pcd.c **** 
1721:Drivers/STM32H5xx_HAL_Driver/Src/stm32h5xx_hal_pcd.c ****   /* stay in loop while pending interrupts */
1722:Drivers/STM32H5xx_HAL_Driver/Src/stm32h5xx_hal_pcd.c ****   while ((hpcd->Instance->ISTR & USB_ISTR_CTR) != 0U)
1723:Drivers/STM32H5xx_HAL_Driver/Src/stm32h5xx_hal_pcd.c ****   {
1724:Drivers/STM32H5xx_HAL_Driver/Src/stm32h5xx_hal_pcd.c ****     wIstr = (uint16_t)hpcd->Instance->ISTR;
1725:Drivers/STM32H5xx_HAL_Driver/Src/stm32h5xx_hal_pcd.c **** 
1726:Drivers/STM32H5xx_HAL_Driver/Src/stm32h5xx_hal_pcd.c ****     /* extract highest priority endpoint number */
1727:Drivers/STM32H5xx_HAL_Driver/Src/stm32h5xx_hal_pcd.c ****     epindex = (uint8_t)(wIstr & USB_ISTR_IDN);
1728:Drivers/STM32H5xx_HAL_Driver/Src/stm32h5xx_hal_pcd.c **** 
1729:Drivers/STM32H5xx_HAL_Driver/Src/stm32h5xx_hal_pcd.c ****     if (epindex == 0U)
1730:Drivers/STM32H5xx_HAL_Driver/Src/stm32h5xx_hal_pcd.c ****     {
1731:Drivers/STM32H5xx_HAL_Driver/Src/stm32h5xx_hal_pcd.c ****       /* Decode and service control endpoint interrupt */
1732:Drivers/STM32H5xx_HAL_Driver/Src/stm32h5xx_hal_pcd.c **** 
1733:Drivers/STM32H5xx_HAL_Driver/Src/stm32h5xx_hal_pcd.c ****       /* DIR bit = origin of the interrupt */
1734:Drivers/STM32H5xx_HAL_Driver/Src/stm32h5xx_hal_pcd.c ****       if ((wIstr & USB_ISTR_DIR) == 0U)
1735:Drivers/STM32H5xx_HAL_Driver/Src/stm32h5xx_hal_pcd.c ****       {
1736:Drivers/STM32H5xx_HAL_Driver/Src/stm32h5xx_hal_pcd.c ****         /* DIR = 0 */
1737:Drivers/STM32H5xx_HAL_Driver/Src/stm32h5xx_hal_pcd.c **** 
1738:Drivers/STM32H5xx_HAL_Driver/Src/stm32h5xx_hal_pcd.c ****         /* DIR = 0 => IN  int */
1739:Drivers/STM32H5xx_HAL_Driver/Src/stm32h5xx_hal_pcd.c ****         /* DIR = 0 implies that (EP_CTR_TX = 1) always */
1740:Drivers/STM32H5xx_HAL_Driver/Src/stm32h5xx_hal_pcd.c ****         PCD_CLEAR_TX_EP_CTR(hpcd->Instance, PCD_ENDP0);
1741:Drivers/STM32H5xx_HAL_Driver/Src/stm32h5xx_hal_pcd.c ****         ep = &hpcd->IN_ep[0];
1742:Drivers/STM32H5xx_HAL_Driver/Src/stm32h5xx_hal_pcd.c **** 
1743:Drivers/STM32H5xx_HAL_Driver/Src/stm32h5xx_hal_pcd.c ****         ep->xfer_count = PCD_GET_EP_TX_CNT(hpcd->Instance, ep->num);
1744:Drivers/STM32H5xx_HAL_Driver/Src/stm32h5xx_hal_pcd.c ****         ep->xfer_buff += ep->xfer_count;
1745:Drivers/STM32H5xx_HAL_Driver/Src/stm32h5xx_hal_pcd.c **** 
1746:Drivers/STM32H5xx_HAL_Driver/Src/stm32h5xx_hal_pcd.c ****         /* TX COMPLETE */
1747:Drivers/STM32H5xx_HAL_Driver/Src/stm32h5xx_hal_pcd.c **** #if (USE_HAL_PCD_REGISTER_CALLBACKS == 1U)
1748:Drivers/STM32H5xx_HAL_Driver/Src/stm32h5xx_hal_pcd.c ****         hpcd->DataInStageCallback(hpcd, 0U);
1749:Drivers/STM32H5xx_HAL_Driver/Src/stm32h5xx_hal_pcd.c **** #else
1750:Drivers/STM32H5xx_HAL_Driver/Src/stm32h5xx_hal_pcd.c ****         HAL_PCD_DataInStageCallback(hpcd, 0U);
1751:Drivers/STM32H5xx_HAL_Driver/Src/stm32h5xx_hal_pcd.c **** #endif /* USE_HAL_PCD_REGISTER_CALLBACKS */
1752:Drivers/STM32H5xx_HAL_Driver/Src/stm32h5xx_hal_pcd.c **** 
1753:Drivers/STM32H5xx_HAL_Driver/Src/stm32h5xx_hal_pcd.c ****         if ((hpcd->USB_Address > 0U) && (ep->xfer_len == 0U))
1754:Drivers/STM32H5xx_HAL_Driver/Src/stm32h5xx_hal_pcd.c ****         {
1755:Drivers/STM32H5xx_HAL_Driver/Src/stm32h5xx_hal_pcd.c ****           hpcd->Instance->DADDR = ((uint16_t)hpcd->USB_Address | USB_DADDR_EF);
1756:Drivers/STM32H5xx_HAL_Driver/Src/stm32h5xx_hal_pcd.c ****           hpcd->USB_Address = 0U;
1757:Drivers/STM32H5xx_HAL_Driver/Src/stm32h5xx_hal_pcd.c ****         }
1758:Drivers/STM32H5xx_HAL_Driver/Src/stm32h5xx_hal_pcd.c ****       }
1759:Drivers/STM32H5xx_HAL_Driver/Src/stm32h5xx_hal_pcd.c ****       else
1760:Drivers/STM32H5xx_HAL_Driver/Src/stm32h5xx_hal_pcd.c ****       {
1761:Drivers/STM32H5xx_HAL_Driver/Src/stm32h5xx_hal_pcd.c ****         /* DIR = 1 */
1762:Drivers/STM32H5xx_HAL_Driver/Src/stm32h5xx_hal_pcd.c **** 
1763:Drivers/STM32H5xx_HAL_Driver/Src/stm32h5xx_hal_pcd.c ****         /* DIR = 1 & CTR_RX => SETUP or OUT int */
1764:Drivers/STM32H5xx_HAL_Driver/Src/stm32h5xx_hal_pcd.c ****         /* DIR = 1 & (CTR_TX | CTR_RX) => 2 int pending */
1765:Drivers/STM32H5xx_HAL_Driver/Src/stm32h5xx_hal_pcd.c ****         ep = &hpcd->OUT_ep[0];
1766:Drivers/STM32H5xx_HAL_Driver/Src/stm32h5xx_hal_pcd.c ****         wEPVal = (uint16_t)PCD_GET_ENDPOINT(hpcd->Instance, PCD_ENDP0);
1767:Drivers/STM32H5xx_HAL_Driver/Src/stm32h5xx_hal_pcd.c **** 
1768:Drivers/STM32H5xx_HAL_Driver/Src/stm32h5xx_hal_pcd.c ****         if ((wEPVal & USB_EP_SETUP) != 0U)
ARM GAS  /var/folders/l3/rwskfq612tq4b7hmtv37jkjw0000gp/T//ccPIyasB.s 			page 46


1769:Drivers/STM32H5xx_HAL_Driver/Src/stm32h5xx_hal_pcd.c ****         {
1770:Drivers/STM32H5xx_HAL_Driver/Src/stm32h5xx_hal_pcd.c ****           /* Get SETUP Packet */
1771:Drivers/STM32H5xx_HAL_Driver/Src/stm32h5xx_hal_pcd.c ****           ep->xfer_count = PCD_GET_EP_RX_CNT(hpcd->Instance, ep->num);
1772:Drivers/STM32H5xx_HAL_Driver/Src/stm32h5xx_hal_pcd.c **** 
1773:Drivers/STM32H5xx_HAL_Driver/Src/stm32h5xx_hal_pcd.c ****           USB_ReadPMA(hpcd->Instance, (uint8_t *)hpcd->Setup,
1774:Drivers/STM32H5xx_HAL_Driver/Src/stm32h5xx_hal_pcd.c ****                       ep->pmaadress, (uint16_t)ep->xfer_count);
1775:Drivers/STM32H5xx_HAL_Driver/Src/stm32h5xx_hal_pcd.c **** 
1776:Drivers/STM32H5xx_HAL_Driver/Src/stm32h5xx_hal_pcd.c ****           /* SETUP bit kept frozen while CTR_RX = 1 */
1777:Drivers/STM32H5xx_HAL_Driver/Src/stm32h5xx_hal_pcd.c ****           PCD_CLEAR_RX_EP_CTR(hpcd->Instance, PCD_ENDP0);
1778:Drivers/STM32H5xx_HAL_Driver/Src/stm32h5xx_hal_pcd.c **** 
1779:Drivers/STM32H5xx_HAL_Driver/Src/stm32h5xx_hal_pcd.c ****           /* Process SETUP Packet*/
1780:Drivers/STM32H5xx_HAL_Driver/Src/stm32h5xx_hal_pcd.c **** #if (USE_HAL_PCD_REGISTER_CALLBACKS == 1U)
1781:Drivers/STM32H5xx_HAL_Driver/Src/stm32h5xx_hal_pcd.c ****           hpcd->SetupStageCallback(hpcd);
1782:Drivers/STM32H5xx_HAL_Driver/Src/stm32h5xx_hal_pcd.c **** #else
1783:Drivers/STM32H5xx_HAL_Driver/Src/stm32h5xx_hal_pcd.c ****           HAL_PCD_SetupStageCallback(hpcd);
1784:Drivers/STM32H5xx_HAL_Driver/Src/stm32h5xx_hal_pcd.c **** #endif /* USE_HAL_PCD_REGISTER_CALLBACKS */
1785:Drivers/STM32H5xx_HAL_Driver/Src/stm32h5xx_hal_pcd.c ****         }
1786:Drivers/STM32H5xx_HAL_Driver/Src/stm32h5xx_hal_pcd.c ****         else if ((wEPVal & USB_EP_VTRX) != 0U)
1787:Drivers/STM32H5xx_HAL_Driver/Src/stm32h5xx_hal_pcd.c ****         {
1788:Drivers/STM32H5xx_HAL_Driver/Src/stm32h5xx_hal_pcd.c ****           PCD_CLEAR_RX_EP_CTR(hpcd->Instance, PCD_ENDP0);
1789:Drivers/STM32H5xx_HAL_Driver/Src/stm32h5xx_hal_pcd.c **** 
1790:Drivers/STM32H5xx_HAL_Driver/Src/stm32h5xx_hal_pcd.c ****           /* Get Control Data OUT Packet */
1791:Drivers/STM32H5xx_HAL_Driver/Src/stm32h5xx_hal_pcd.c ****           ep->xfer_count = PCD_GET_EP_RX_CNT(hpcd->Instance, ep->num);
1792:Drivers/STM32H5xx_HAL_Driver/Src/stm32h5xx_hal_pcd.c **** 
1793:Drivers/STM32H5xx_HAL_Driver/Src/stm32h5xx_hal_pcd.c ****           if ((ep->xfer_count != 0U) && (ep->xfer_buff != 0U))
1794:Drivers/STM32H5xx_HAL_Driver/Src/stm32h5xx_hal_pcd.c ****           {
1795:Drivers/STM32H5xx_HAL_Driver/Src/stm32h5xx_hal_pcd.c ****             USB_ReadPMA(hpcd->Instance, ep->xfer_buff,
1796:Drivers/STM32H5xx_HAL_Driver/Src/stm32h5xx_hal_pcd.c ****                         ep->pmaadress, (uint16_t)ep->xfer_count);
1797:Drivers/STM32H5xx_HAL_Driver/Src/stm32h5xx_hal_pcd.c **** 
1798:Drivers/STM32H5xx_HAL_Driver/Src/stm32h5xx_hal_pcd.c ****             ep->xfer_buff += ep->xfer_count;
1799:Drivers/STM32H5xx_HAL_Driver/Src/stm32h5xx_hal_pcd.c **** 
1800:Drivers/STM32H5xx_HAL_Driver/Src/stm32h5xx_hal_pcd.c ****             /* Process Control Data OUT Packet */
1801:Drivers/STM32H5xx_HAL_Driver/Src/stm32h5xx_hal_pcd.c **** #if (USE_HAL_PCD_REGISTER_CALLBACKS == 1U)
1802:Drivers/STM32H5xx_HAL_Driver/Src/stm32h5xx_hal_pcd.c ****             hpcd->DataOutStageCallback(hpcd, 0U);
1803:Drivers/STM32H5xx_HAL_Driver/Src/stm32h5xx_hal_pcd.c **** #else
1804:Drivers/STM32H5xx_HAL_Driver/Src/stm32h5xx_hal_pcd.c ****             HAL_PCD_DataOutStageCallback(hpcd, 0U);
1805:Drivers/STM32H5xx_HAL_Driver/Src/stm32h5xx_hal_pcd.c **** #endif /* USE_HAL_PCD_REGISTER_CALLBACKS */
1806:Drivers/STM32H5xx_HAL_Driver/Src/stm32h5xx_hal_pcd.c ****           }
1807:Drivers/STM32H5xx_HAL_Driver/Src/stm32h5xx_hal_pcd.c **** 
1808:Drivers/STM32H5xx_HAL_Driver/Src/stm32h5xx_hal_pcd.c ****           wEPVal = (uint16_t)PCD_GET_ENDPOINT(hpcd->Instance, PCD_ENDP0);
1809:Drivers/STM32H5xx_HAL_Driver/Src/stm32h5xx_hal_pcd.c **** 
1810:Drivers/STM32H5xx_HAL_Driver/Src/stm32h5xx_hal_pcd.c ****           if (((wEPVal & USB_EP_SETUP) == 0U) && ((wEPVal & USB_EP_RX_STRX) != USB_EP_RX_VALID))
1811:Drivers/STM32H5xx_HAL_Driver/Src/stm32h5xx_hal_pcd.c ****           {
1812:Drivers/STM32H5xx_HAL_Driver/Src/stm32h5xx_hal_pcd.c ****             PCD_SET_EP_RX_CNT(hpcd->Instance, PCD_ENDP0, ep->maxpacket);
1813:Drivers/STM32H5xx_HAL_Driver/Src/stm32h5xx_hal_pcd.c ****             PCD_SET_EP_RX_STATUS(hpcd->Instance, PCD_ENDP0, USB_EP_RX_VALID);
1814:Drivers/STM32H5xx_HAL_Driver/Src/stm32h5xx_hal_pcd.c ****           }
1815:Drivers/STM32H5xx_HAL_Driver/Src/stm32h5xx_hal_pcd.c ****         }
1816:Drivers/STM32H5xx_HAL_Driver/Src/stm32h5xx_hal_pcd.c ****       }
1817:Drivers/STM32H5xx_HAL_Driver/Src/stm32h5xx_hal_pcd.c ****     }
1818:Drivers/STM32H5xx_HAL_Driver/Src/stm32h5xx_hal_pcd.c ****     else
1819:Drivers/STM32H5xx_HAL_Driver/Src/stm32h5xx_hal_pcd.c ****     {
1820:Drivers/STM32H5xx_HAL_Driver/Src/stm32h5xx_hal_pcd.c ****       /* Decode and service non control endpoints interrupt */
1821:Drivers/STM32H5xx_HAL_Driver/Src/stm32h5xx_hal_pcd.c ****       /* process related endpoint register */
1822:Drivers/STM32H5xx_HAL_Driver/Src/stm32h5xx_hal_pcd.c ****       wEPVal = (uint16_t)PCD_GET_ENDPOINT(hpcd->Instance, epindex);
1823:Drivers/STM32H5xx_HAL_Driver/Src/stm32h5xx_hal_pcd.c **** 
1824:Drivers/STM32H5xx_HAL_Driver/Src/stm32h5xx_hal_pcd.c ****       if ((wEPVal & USB_EP_VTRX) != 0U)
1825:Drivers/STM32H5xx_HAL_Driver/Src/stm32h5xx_hal_pcd.c ****       {
ARM GAS  /var/folders/l3/rwskfq612tq4b7hmtv37jkjw0000gp/T//ccPIyasB.s 			page 47


1826:Drivers/STM32H5xx_HAL_Driver/Src/stm32h5xx_hal_pcd.c ****         /* clear int flag */
1827:Drivers/STM32H5xx_HAL_Driver/Src/stm32h5xx_hal_pcd.c ****         PCD_CLEAR_RX_EP_CTR(hpcd->Instance, epindex);
1828:Drivers/STM32H5xx_HAL_Driver/Src/stm32h5xx_hal_pcd.c ****         ep = &hpcd->OUT_ep[epindex];
1829:Drivers/STM32H5xx_HAL_Driver/Src/stm32h5xx_hal_pcd.c **** 
1830:Drivers/STM32H5xx_HAL_Driver/Src/stm32h5xx_hal_pcd.c ****         /* OUT Single Buffering */
1831:Drivers/STM32H5xx_HAL_Driver/Src/stm32h5xx_hal_pcd.c ****         if (ep->doublebuffer == 0U)
1832:Drivers/STM32H5xx_HAL_Driver/Src/stm32h5xx_hal_pcd.c ****         {
1833:Drivers/STM32H5xx_HAL_Driver/Src/stm32h5xx_hal_pcd.c ****           count = (uint16_t)PCD_GET_EP_RX_CNT(hpcd->Instance, ep->num);
1834:Drivers/STM32H5xx_HAL_Driver/Src/stm32h5xx_hal_pcd.c **** 
1835:Drivers/STM32H5xx_HAL_Driver/Src/stm32h5xx_hal_pcd.c ****           if (count != 0U)
1836:Drivers/STM32H5xx_HAL_Driver/Src/stm32h5xx_hal_pcd.c ****           {
1837:Drivers/STM32H5xx_HAL_Driver/Src/stm32h5xx_hal_pcd.c ****             USB_ReadPMA(hpcd->Instance, ep->xfer_buff, ep->pmaadress, count);
1838:Drivers/STM32H5xx_HAL_Driver/Src/stm32h5xx_hal_pcd.c ****           }
1839:Drivers/STM32H5xx_HAL_Driver/Src/stm32h5xx_hal_pcd.c ****         }
1840:Drivers/STM32H5xx_HAL_Driver/Src/stm32h5xx_hal_pcd.c **** #if (USE_USB_DOUBLE_BUFFER == 1U)
1841:Drivers/STM32H5xx_HAL_Driver/Src/stm32h5xx_hal_pcd.c ****         else
1842:Drivers/STM32H5xx_HAL_Driver/Src/stm32h5xx_hal_pcd.c ****         {
1843:Drivers/STM32H5xx_HAL_Driver/Src/stm32h5xx_hal_pcd.c ****           /* manage double buffer bulk out */
1844:Drivers/STM32H5xx_HAL_Driver/Src/stm32h5xx_hal_pcd.c ****           if (ep->type == EP_TYPE_BULK)
1845:Drivers/STM32H5xx_HAL_Driver/Src/stm32h5xx_hal_pcd.c ****           {
1846:Drivers/STM32H5xx_HAL_Driver/Src/stm32h5xx_hal_pcd.c ****             count = HAL_PCD_EP_DB_Receive(hpcd, ep, wEPVal);
1847:Drivers/STM32H5xx_HAL_Driver/Src/stm32h5xx_hal_pcd.c ****           }
1848:Drivers/STM32H5xx_HAL_Driver/Src/stm32h5xx_hal_pcd.c ****           else /* manage double buffer iso out */
1849:Drivers/STM32H5xx_HAL_Driver/Src/stm32h5xx_hal_pcd.c ****           {
1850:Drivers/STM32H5xx_HAL_Driver/Src/stm32h5xx_hal_pcd.c ****             /* free EP OUT Buffer */
1851:Drivers/STM32H5xx_HAL_Driver/Src/stm32h5xx_hal_pcd.c ****             PCD_FREE_USER_BUFFER(hpcd->Instance, ep->num, 0U);
1852:Drivers/STM32H5xx_HAL_Driver/Src/stm32h5xx_hal_pcd.c **** 
1853:Drivers/STM32H5xx_HAL_Driver/Src/stm32h5xx_hal_pcd.c ****             if ((PCD_GET_ENDPOINT(hpcd->Instance, ep->num) & USB_EP_DTOG_RX) != 0U)
1854:Drivers/STM32H5xx_HAL_Driver/Src/stm32h5xx_hal_pcd.c ****             {
1855:Drivers/STM32H5xx_HAL_Driver/Src/stm32h5xx_hal_pcd.c ****               /* read from endpoint BUF0Addr buffer */
1856:Drivers/STM32H5xx_HAL_Driver/Src/stm32h5xx_hal_pcd.c ****               count = (uint16_t)PCD_GET_EP_DBUF0_CNT(hpcd->Instance, ep->num);
1857:Drivers/STM32H5xx_HAL_Driver/Src/stm32h5xx_hal_pcd.c **** 
1858:Drivers/STM32H5xx_HAL_Driver/Src/stm32h5xx_hal_pcd.c ****               if (count != 0U)
1859:Drivers/STM32H5xx_HAL_Driver/Src/stm32h5xx_hal_pcd.c ****               {
1860:Drivers/STM32H5xx_HAL_Driver/Src/stm32h5xx_hal_pcd.c ****                 USB_ReadPMA(hpcd->Instance, ep->xfer_buff, ep->pmaaddr0, count);
1861:Drivers/STM32H5xx_HAL_Driver/Src/stm32h5xx_hal_pcd.c ****               }
1862:Drivers/STM32H5xx_HAL_Driver/Src/stm32h5xx_hal_pcd.c ****             }
1863:Drivers/STM32H5xx_HAL_Driver/Src/stm32h5xx_hal_pcd.c ****             else
1864:Drivers/STM32H5xx_HAL_Driver/Src/stm32h5xx_hal_pcd.c ****             {
1865:Drivers/STM32H5xx_HAL_Driver/Src/stm32h5xx_hal_pcd.c ****               /* read from endpoint BUF1Addr buffer */
1866:Drivers/STM32H5xx_HAL_Driver/Src/stm32h5xx_hal_pcd.c ****               count = (uint16_t)PCD_GET_EP_DBUF1_CNT(hpcd->Instance, ep->num);
1867:Drivers/STM32H5xx_HAL_Driver/Src/stm32h5xx_hal_pcd.c **** 
1868:Drivers/STM32H5xx_HAL_Driver/Src/stm32h5xx_hal_pcd.c ****               if (count != 0U)
1869:Drivers/STM32H5xx_HAL_Driver/Src/stm32h5xx_hal_pcd.c ****               {
1870:Drivers/STM32H5xx_HAL_Driver/Src/stm32h5xx_hal_pcd.c ****                 USB_ReadPMA(hpcd->Instance, ep->xfer_buff, ep->pmaaddr1, count);
1871:Drivers/STM32H5xx_HAL_Driver/Src/stm32h5xx_hal_pcd.c ****               }
1872:Drivers/STM32H5xx_HAL_Driver/Src/stm32h5xx_hal_pcd.c ****             }
1873:Drivers/STM32H5xx_HAL_Driver/Src/stm32h5xx_hal_pcd.c ****           }
1874:Drivers/STM32H5xx_HAL_Driver/Src/stm32h5xx_hal_pcd.c ****         }
1875:Drivers/STM32H5xx_HAL_Driver/Src/stm32h5xx_hal_pcd.c **** #endif /* (USE_USB_DOUBLE_BUFFER == 1U) */
1876:Drivers/STM32H5xx_HAL_Driver/Src/stm32h5xx_hal_pcd.c **** 
1877:Drivers/STM32H5xx_HAL_Driver/Src/stm32h5xx_hal_pcd.c ****         /* multi-packet on the NON control OUT endpoint */
1878:Drivers/STM32H5xx_HAL_Driver/Src/stm32h5xx_hal_pcd.c ****         ep->xfer_count += count;
1879:Drivers/STM32H5xx_HAL_Driver/Src/stm32h5xx_hal_pcd.c ****         ep->xfer_buff += count;
1880:Drivers/STM32H5xx_HAL_Driver/Src/stm32h5xx_hal_pcd.c **** 
1881:Drivers/STM32H5xx_HAL_Driver/Src/stm32h5xx_hal_pcd.c ****         if ((ep->xfer_len == 0U) || (count < ep->maxpacket))
1882:Drivers/STM32H5xx_HAL_Driver/Src/stm32h5xx_hal_pcd.c ****         {
ARM GAS  /var/folders/l3/rwskfq612tq4b7hmtv37jkjw0000gp/T//ccPIyasB.s 			page 48


1883:Drivers/STM32H5xx_HAL_Driver/Src/stm32h5xx_hal_pcd.c ****           /* RX COMPLETE */
1884:Drivers/STM32H5xx_HAL_Driver/Src/stm32h5xx_hal_pcd.c **** #if (USE_HAL_PCD_REGISTER_CALLBACKS == 1U)
1885:Drivers/STM32H5xx_HAL_Driver/Src/stm32h5xx_hal_pcd.c ****           hpcd->DataOutStageCallback(hpcd, ep->num);
1886:Drivers/STM32H5xx_HAL_Driver/Src/stm32h5xx_hal_pcd.c **** #else
1887:Drivers/STM32H5xx_HAL_Driver/Src/stm32h5xx_hal_pcd.c ****           HAL_PCD_DataOutStageCallback(hpcd, ep->num);
1888:Drivers/STM32H5xx_HAL_Driver/Src/stm32h5xx_hal_pcd.c **** #endif /* USE_HAL_PCD_REGISTER_CALLBACKS */
1889:Drivers/STM32H5xx_HAL_Driver/Src/stm32h5xx_hal_pcd.c ****         }
1890:Drivers/STM32H5xx_HAL_Driver/Src/stm32h5xx_hal_pcd.c ****         else
1891:Drivers/STM32H5xx_HAL_Driver/Src/stm32h5xx_hal_pcd.c ****         {
1892:Drivers/STM32H5xx_HAL_Driver/Src/stm32h5xx_hal_pcd.c ****           (void)USB_EPStartXfer(hpcd->Instance, ep);
1893:Drivers/STM32H5xx_HAL_Driver/Src/stm32h5xx_hal_pcd.c ****         }
1894:Drivers/STM32H5xx_HAL_Driver/Src/stm32h5xx_hal_pcd.c ****       }
1895:Drivers/STM32H5xx_HAL_Driver/Src/stm32h5xx_hal_pcd.c **** 
1896:Drivers/STM32H5xx_HAL_Driver/Src/stm32h5xx_hal_pcd.c ****       if ((wEPVal & USB_EP_VTTX) != 0U)
1897:Drivers/STM32H5xx_HAL_Driver/Src/stm32h5xx_hal_pcd.c ****       {
1898:Drivers/STM32H5xx_HAL_Driver/Src/stm32h5xx_hal_pcd.c ****         ep = &hpcd->IN_ep[epindex];
1899:Drivers/STM32H5xx_HAL_Driver/Src/stm32h5xx_hal_pcd.c **** 
1900:Drivers/STM32H5xx_HAL_Driver/Src/stm32h5xx_hal_pcd.c ****         /* clear int flag */
1901:Drivers/STM32H5xx_HAL_Driver/Src/stm32h5xx_hal_pcd.c ****         PCD_CLEAR_TX_EP_CTR(hpcd->Instance, epindex);
1902:Drivers/STM32H5xx_HAL_Driver/Src/stm32h5xx_hal_pcd.c **** 
1903:Drivers/STM32H5xx_HAL_Driver/Src/stm32h5xx_hal_pcd.c ****         if (ep->type == EP_TYPE_ISOC)
1904:Drivers/STM32H5xx_HAL_Driver/Src/stm32h5xx_hal_pcd.c ****         {
1905:Drivers/STM32H5xx_HAL_Driver/Src/stm32h5xx_hal_pcd.c ****           ep->xfer_len = 0U;
1906:Drivers/STM32H5xx_HAL_Driver/Src/stm32h5xx_hal_pcd.c **** 
1907:Drivers/STM32H5xx_HAL_Driver/Src/stm32h5xx_hal_pcd.c **** #if (USE_USB_DOUBLE_BUFFER == 1U)
1908:Drivers/STM32H5xx_HAL_Driver/Src/stm32h5xx_hal_pcd.c ****           if (ep->doublebuffer != 0U)
1909:Drivers/STM32H5xx_HAL_Driver/Src/stm32h5xx_hal_pcd.c ****           {
1910:Drivers/STM32H5xx_HAL_Driver/Src/stm32h5xx_hal_pcd.c ****             if ((wEPVal & USB_EP_DTOG_TX) != 0U)
1911:Drivers/STM32H5xx_HAL_Driver/Src/stm32h5xx_hal_pcd.c ****             {
1912:Drivers/STM32H5xx_HAL_Driver/Src/stm32h5xx_hal_pcd.c ****               PCD_SET_EP_DBUF0_CNT(hpcd->Instance, ep->num, ep->is_in, 0U);
1913:Drivers/STM32H5xx_HAL_Driver/Src/stm32h5xx_hal_pcd.c ****             }
1914:Drivers/STM32H5xx_HAL_Driver/Src/stm32h5xx_hal_pcd.c ****             else
1915:Drivers/STM32H5xx_HAL_Driver/Src/stm32h5xx_hal_pcd.c ****             {
1916:Drivers/STM32H5xx_HAL_Driver/Src/stm32h5xx_hal_pcd.c ****               PCD_SET_EP_DBUF1_CNT(hpcd->Instance, ep->num, ep->is_in, 0U);
1917:Drivers/STM32H5xx_HAL_Driver/Src/stm32h5xx_hal_pcd.c ****             }
1918:Drivers/STM32H5xx_HAL_Driver/Src/stm32h5xx_hal_pcd.c ****           }
1919:Drivers/STM32H5xx_HAL_Driver/Src/stm32h5xx_hal_pcd.c **** #endif /* (USE_USB_DOUBLE_BUFFER == 1U) */
1920:Drivers/STM32H5xx_HAL_Driver/Src/stm32h5xx_hal_pcd.c **** 
1921:Drivers/STM32H5xx_HAL_Driver/Src/stm32h5xx_hal_pcd.c ****           /* TX COMPLETE */
1922:Drivers/STM32H5xx_HAL_Driver/Src/stm32h5xx_hal_pcd.c **** #if (USE_HAL_PCD_REGISTER_CALLBACKS == 1U)
1923:Drivers/STM32H5xx_HAL_Driver/Src/stm32h5xx_hal_pcd.c ****           hpcd->DataInStageCallback(hpcd, ep->num);
1924:Drivers/STM32H5xx_HAL_Driver/Src/stm32h5xx_hal_pcd.c **** #else
1925:Drivers/STM32H5xx_HAL_Driver/Src/stm32h5xx_hal_pcd.c ****           HAL_PCD_DataInStageCallback(hpcd, ep->num);
1926:Drivers/STM32H5xx_HAL_Driver/Src/stm32h5xx_hal_pcd.c **** #endif /* USE_HAL_PCD_REGISTER_CALLBACKS */
1927:Drivers/STM32H5xx_HAL_Driver/Src/stm32h5xx_hal_pcd.c ****         }
1928:Drivers/STM32H5xx_HAL_Driver/Src/stm32h5xx_hal_pcd.c ****         else
1929:Drivers/STM32H5xx_HAL_Driver/Src/stm32h5xx_hal_pcd.c ****         {
1930:Drivers/STM32H5xx_HAL_Driver/Src/stm32h5xx_hal_pcd.c ****           /* Manage Single Buffer Transaction */
1931:Drivers/STM32H5xx_HAL_Driver/Src/stm32h5xx_hal_pcd.c ****           if ((wEPVal & USB_EP_KIND) == 0U)
1932:Drivers/STM32H5xx_HAL_Driver/Src/stm32h5xx_hal_pcd.c ****           {
1933:Drivers/STM32H5xx_HAL_Driver/Src/stm32h5xx_hal_pcd.c ****             /* multi-packet on the NON control IN endpoint */
1934:Drivers/STM32H5xx_HAL_Driver/Src/stm32h5xx_hal_pcd.c ****             TxPctSize = (uint16_t)PCD_GET_EP_TX_CNT(hpcd->Instance, ep->num);
1935:Drivers/STM32H5xx_HAL_Driver/Src/stm32h5xx_hal_pcd.c **** 
1936:Drivers/STM32H5xx_HAL_Driver/Src/stm32h5xx_hal_pcd.c ****             if (ep->xfer_len > TxPctSize)
1937:Drivers/STM32H5xx_HAL_Driver/Src/stm32h5xx_hal_pcd.c ****             {
1938:Drivers/STM32H5xx_HAL_Driver/Src/stm32h5xx_hal_pcd.c ****               ep->xfer_len -= TxPctSize;
1939:Drivers/STM32H5xx_HAL_Driver/Src/stm32h5xx_hal_pcd.c ****             }
ARM GAS  /var/folders/l3/rwskfq612tq4b7hmtv37jkjw0000gp/T//ccPIyasB.s 			page 49


1940:Drivers/STM32H5xx_HAL_Driver/Src/stm32h5xx_hal_pcd.c ****             else
1941:Drivers/STM32H5xx_HAL_Driver/Src/stm32h5xx_hal_pcd.c ****             {
1942:Drivers/STM32H5xx_HAL_Driver/Src/stm32h5xx_hal_pcd.c ****               ep->xfer_len = 0U;
1943:Drivers/STM32H5xx_HAL_Driver/Src/stm32h5xx_hal_pcd.c ****             }
1944:Drivers/STM32H5xx_HAL_Driver/Src/stm32h5xx_hal_pcd.c **** 
1945:Drivers/STM32H5xx_HAL_Driver/Src/stm32h5xx_hal_pcd.c ****             /* Zero Length Packet? */
1946:Drivers/STM32H5xx_HAL_Driver/Src/stm32h5xx_hal_pcd.c ****             if (ep->xfer_len == 0U)
1947:Drivers/STM32H5xx_HAL_Driver/Src/stm32h5xx_hal_pcd.c ****             {
1948:Drivers/STM32H5xx_HAL_Driver/Src/stm32h5xx_hal_pcd.c ****               /* TX COMPLETE */
1949:Drivers/STM32H5xx_HAL_Driver/Src/stm32h5xx_hal_pcd.c **** #if (USE_HAL_PCD_REGISTER_CALLBACKS == 1U)
1950:Drivers/STM32H5xx_HAL_Driver/Src/stm32h5xx_hal_pcd.c ****               hpcd->DataInStageCallback(hpcd, ep->num);
1951:Drivers/STM32H5xx_HAL_Driver/Src/stm32h5xx_hal_pcd.c **** #else
1952:Drivers/STM32H5xx_HAL_Driver/Src/stm32h5xx_hal_pcd.c ****               HAL_PCD_DataInStageCallback(hpcd, ep->num);
1953:Drivers/STM32H5xx_HAL_Driver/Src/stm32h5xx_hal_pcd.c **** #endif /* USE_HAL_PCD_REGISTER_CALLBACKS */
1954:Drivers/STM32H5xx_HAL_Driver/Src/stm32h5xx_hal_pcd.c ****             }
1955:Drivers/STM32H5xx_HAL_Driver/Src/stm32h5xx_hal_pcd.c ****             else
1956:Drivers/STM32H5xx_HAL_Driver/Src/stm32h5xx_hal_pcd.c ****             {
1957:Drivers/STM32H5xx_HAL_Driver/Src/stm32h5xx_hal_pcd.c ****               /* Transfer is not yet Done */
1958:Drivers/STM32H5xx_HAL_Driver/Src/stm32h5xx_hal_pcd.c ****               ep->xfer_buff += TxPctSize;
1959:Drivers/STM32H5xx_HAL_Driver/Src/stm32h5xx_hal_pcd.c ****               ep->xfer_count += TxPctSize;
1960:Drivers/STM32H5xx_HAL_Driver/Src/stm32h5xx_hal_pcd.c ****               (void)USB_EPStartXfer(hpcd->Instance, ep);
1961:Drivers/STM32H5xx_HAL_Driver/Src/stm32h5xx_hal_pcd.c ****             }
1962:Drivers/STM32H5xx_HAL_Driver/Src/stm32h5xx_hal_pcd.c ****           }
1963:Drivers/STM32H5xx_HAL_Driver/Src/stm32h5xx_hal_pcd.c **** #if (USE_USB_DOUBLE_BUFFER == 1U)
1964:Drivers/STM32H5xx_HAL_Driver/Src/stm32h5xx_hal_pcd.c ****           /* Double Buffer bulk IN (bulk transfer Len > Ep_Mps) */
1965:Drivers/STM32H5xx_HAL_Driver/Src/stm32h5xx_hal_pcd.c ****           else
1966:Drivers/STM32H5xx_HAL_Driver/Src/stm32h5xx_hal_pcd.c ****           {
1967:Drivers/STM32H5xx_HAL_Driver/Src/stm32h5xx_hal_pcd.c ****             (void)HAL_PCD_EP_DB_Transmit(hpcd, ep, wEPVal);
1968:Drivers/STM32H5xx_HAL_Driver/Src/stm32h5xx_hal_pcd.c ****           }
1969:Drivers/STM32H5xx_HAL_Driver/Src/stm32h5xx_hal_pcd.c **** #endif /* (USE_USB_DOUBLE_BUFFER == 1U) */
1970:Drivers/STM32H5xx_HAL_Driver/Src/stm32h5xx_hal_pcd.c ****         }
1971:Drivers/STM32H5xx_HAL_Driver/Src/stm32h5xx_hal_pcd.c ****       }
1972:Drivers/STM32H5xx_HAL_Driver/Src/stm32h5xx_hal_pcd.c ****     }
1973:Drivers/STM32H5xx_HAL_Driver/Src/stm32h5xx_hal_pcd.c ****   }
1974:Drivers/STM32H5xx_HAL_Driver/Src/stm32h5xx_hal_pcd.c **** 
1975:Drivers/STM32H5xx_HAL_Driver/Src/stm32h5xx_hal_pcd.c ****   return HAL_OK;
1976:Drivers/STM32H5xx_HAL_Driver/Src/stm32h5xx_hal_pcd.c **** }
1977:Drivers/STM32H5xx_HAL_Driver/Src/stm32h5xx_hal_pcd.c **** 
1978:Drivers/STM32H5xx_HAL_Driver/Src/stm32h5xx_hal_pcd.c **** 
1979:Drivers/STM32H5xx_HAL_Driver/Src/stm32h5xx_hal_pcd.c **** #if (USE_USB_DOUBLE_BUFFER == 1U)
1980:Drivers/STM32H5xx_HAL_Driver/Src/stm32h5xx_hal_pcd.c **** /**
1981:Drivers/STM32H5xx_HAL_Driver/Src/stm32h5xx_hal_pcd.c ****   * @brief  Manage double buffer bulk out transaction from ISR
1982:Drivers/STM32H5xx_HAL_Driver/Src/stm32h5xx_hal_pcd.c ****   * @param  hpcd PCD handle
1983:Drivers/STM32H5xx_HAL_Driver/Src/stm32h5xx_hal_pcd.c ****   * @param  ep current endpoint handle
1984:Drivers/STM32H5xx_HAL_Driver/Src/stm32h5xx_hal_pcd.c ****   * @param  wEPVal Last snapshot of EPRx register value taken in ISR
1985:Drivers/STM32H5xx_HAL_Driver/Src/stm32h5xx_hal_pcd.c ****   * @retval HAL status
1986:Drivers/STM32H5xx_HAL_Driver/Src/stm32h5xx_hal_pcd.c ****   */
1987:Drivers/STM32H5xx_HAL_Driver/Src/stm32h5xx_hal_pcd.c **** static uint16_t HAL_PCD_EP_DB_Receive(PCD_HandleTypeDef *hpcd,
1988:Drivers/STM32H5xx_HAL_Driver/Src/stm32h5xx_hal_pcd.c ****                                       PCD_EPTypeDef *ep, uint16_t wEPVal)
1989:Drivers/STM32H5xx_HAL_Driver/Src/stm32h5xx_hal_pcd.c **** {
 193              		.loc 1 1989 1 is_stmt 1 view -0
 194              		.cfi_startproc
 195              		@ args = 0, pretend = 0, frame = 0
 196              		@ frame_needed = 0, uses_anonymous_args = 0
 197              		.loc 1 1989 1 is_stmt 0 view .LVU40
 198 0000 F8B5     		push	{r3, r4, r5, r6, r7, lr}
 199              	.LCFI6:
ARM GAS  /var/folders/l3/rwskfq612tq4b7hmtv37jkjw0000gp/T//ccPIyasB.s 			page 50


 200              		.cfi_def_cfa_offset 24
 201              		.cfi_offset 3, -24
 202              		.cfi_offset 4, -20
 203              		.cfi_offset 5, -16
 204              		.cfi_offset 6, -12
 205              		.cfi_offset 7, -8
 206              		.cfi_offset 14, -4
 207 0002 0646     		mov	r6, r0
 208 0004 0C46     		mov	r4, r1
 209 0006 1746     		mov	r7, r2
1990:Drivers/STM32H5xx_HAL_Driver/Src/stm32h5xx_hal_pcd.c ****   uint16_t count;
 210              		.loc 1 1990 3 is_stmt 1 view .LVU41
1991:Drivers/STM32H5xx_HAL_Driver/Src/stm32h5xx_hal_pcd.c **** 
1992:Drivers/STM32H5xx_HAL_Driver/Src/stm32h5xx_hal_pcd.c ****   /* Manage Buffer0 OUT */
1993:Drivers/STM32H5xx_HAL_Driver/Src/stm32h5xx_hal_pcd.c ****   if ((wEPVal & USB_EP_DTOG_RX) != 0U)
 211              		.loc 1 1993 3 view .LVU42
 212              		.loc 1 1993 6 is_stmt 0 view .LVU43
 213 0008 12F4804F 		tst	r2, #16384
 214 000c 35D0     		beq	.L14
1994:Drivers/STM32H5xx_HAL_Driver/Src/stm32h5xx_hal_pcd.c ****   {
