ARM GAS  /var/folders/l3/rwskfq612tq4b7hmtv37jkjw0000gp/T//ccx7lwMy.s 			page 1


   1              		.cpu cortex-m33
   2              		.arch armv8-m.main
   3              		.fpu fpv4-sp-d16
   4              		.arch_extension dsp
   5              		.eabi_attribute 27, 1
   6              		.eabi_attribute 28, 1
   7              		.eabi_attribute 20, 1
   8              		.eabi_attribute 21, 1
   9              		.eabi_attribute 23, 3
  10              		.eabi_attribute 24, 1
  11              		.eabi_attribute 25, 1
  12              		.eabi_attribute 26, 1
  13              		.eabi_attribute 30, 1
  14              		.eabi_attribute 34, 1
  15              		.eabi_attribute 18, 4
  16              		.file	"stm32h5xx_hal_dma.c"
  17              		.text
  18              	.Ltext0:
  19              		.cfi_sections	.debug_frame
  20              		.file 1 "Drivers/STM32H5xx_HAL_Driver/Src/stm32h5xx_hal_dma.c"
  21              		.section	.text.DMA_SetConfig,"ax",%progbits
  22              		.align	1
  23              		.syntax unified
  24              		.thumb
  25              		.thumb_func
  27              	DMA_SetConfig:
  28              	.LVL0:
  29              	.LFB344:
   1:Drivers/STM32H5xx_HAL_Driver/Src/stm32h5xx_hal_dma.c **** /**
   2:Drivers/STM32H5xx_HAL_Driver/Src/stm32h5xx_hal_dma.c ****   *************************************************************************************************
   3:Drivers/STM32H5xx_HAL_Driver/Src/stm32h5xx_hal_dma.c ****   * @file    stm32h5xx_hal_dma.c
   4:Drivers/STM32H5xx_HAL_Driver/Src/stm32h5xx_hal_dma.c ****   * @author  MCD Application Team
   5:Drivers/STM32H5xx_HAL_Driver/Src/stm32h5xx_hal_dma.c ****   * @brief   This file provides firmware functions to manage the following functionalities of the D
   6:Drivers/STM32H5xx_HAL_Driver/Src/stm32h5xx_hal_dma.c ****   *          (DMA) peripheral:
   7:Drivers/STM32H5xx_HAL_Driver/Src/stm32h5xx_hal_dma.c ****   *            + Initialization/De-Initialization Functions
   8:Drivers/STM32H5xx_HAL_Driver/Src/stm32h5xx_hal_dma.c ****   *            + I/O Operation Functions
   9:Drivers/STM32H5xx_HAL_Driver/Src/stm32h5xx_hal_dma.c ****   *            + State and Errors Functions
  10:Drivers/STM32H5xx_HAL_Driver/Src/stm32h5xx_hal_dma.c ****   *            + DMA Attributes Functions
  11:Drivers/STM32H5xx_HAL_Driver/Src/stm32h5xx_hal_dma.c ****   *
  12:Drivers/STM32H5xx_HAL_Driver/Src/stm32h5xx_hal_dma.c ****   *************************************************************************************************
  13:Drivers/STM32H5xx_HAL_Driver/Src/stm32h5xx_hal_dma.c ****   * @attention
  14:Drivers/STM32H5xx_HAL_Driver/Src/stm32h5xx_hal_dma.c ****   *
  15:Drivers/STM32H5xx_HAL_Driver/Src/stm32h5xx_hal_dma.c ****   * Copyright (c) 2023 STMicroelectronics.
  16:Drivers/STM32H5xx_HAL_Driver/Src/stm32h5xx_hal_dma.c ****   * All rights reserved.
  17:Drivers/STM32H5xx_HAL_Driver/Src/stm32h5xx_hal_dma.c ****   *
  18:Drivers/STM32H5xx_HAL_Driver/Src/stm32h5xx_hal_dma.c ****   * This software is licensed under terms that can be found in the LICENSE file
  19:Drivers/STM32H5xx_HAL_Driver/Src/stm32h5xx_hal_dma.c ****   * in the root directory of this software component.
  20:Drivers/STM32H5xx_HAL_Driver/Src/stm32h5xx_hal_dma.c ****   * If no LICENSE file comes with this software, it is provided AS-IS.
  21:Drivers/STM32H5xx_HAL_Driver/Src/stm32h5xx_hal_dma.c ****   *
  22:Drivers/STM32H5xx_HAL_Driver/Src/stm32h5xx_hal_dma.c ****   *************************************************************************************************
  23:Drivers/STM32H5xx_HAL_Driver/Src/stm32h5xx_hal_dma.c ****   @verbatim
  24:Drivers/STM32H5xx_HAL_Driver/Src/stm32h5xx_hal_dma.c ****   =================================================================================================
  25:Drivers/STM32H5xx_HAL_Driver/Src/stm32h5xx_hal_dma.c ****                        ##### How to use this driver #####
  26:Drivers/STM32H5xx_HAL_Driver/Src/stm32h5xx_hal_dma.c ****   =================================================================================================
  27:Drivers/STM32H5xx_HAL_Driver/Src/stm32h5xx_hal_dma.c **** 
  28:Drivers/STM32H5xx_HAL_Driver/Src/stm32h5xx_hal_dma.c **** 
  29:Drivers/STM32H5xx_HAL_Driver/Src/stm32h5xx_hal_dma.c ****     [..]
ARM GAS  /var/folders/l3/rwskfq612tq4b7hmtv37jkjw0000gp/T//ccx7lwMy.s 			page 2


  30:Drivers/STM32H5xx_HAL_Driver/Src/stm32h5xx_hal_dma.c ****       DMA transfer modes are divided to 2 major categories :
  31:Drivers/STM32H5xx_HAL_Driver/Src/stm32h5xx_hal_dma.c ****           (+) Normal transfers (legacy)
  32:Drivers/STM32H5xx_HAL_Driver/Src/stm32h5xx_hal_dma.c ****           (+) Linked-list transfers
  33:Drivers/STM32H5xx_HAL_Driver/Src/stm32h5xx_hal_dma.c **** 
  34:Drivers/STM32H5xx_HAL_Driver/Src/stm32h5xx_hal_dma.c ****     [..]
  35:Drivers/STM32H5xx_HAL_Driver/Src/stm32h5xx_hal_dma.c ****       Normal transfers mode is initialized via the standard module and linked-list mode is configur
  36:Drivers/STM32H5xx_HAL_Driver/Src/stm32h5xx_hal_dma.c ****       module.
  37:Drivers/STM32H5xx_HAL_Driver/Src/stm32h5xx_hal_dma.c **** 
  38:Drivers/STM32H5xx_HAL_Driver/Src/stm32h5xx_hal_dma.c ****     [..]
  39:Drivers/STM32H5xx_HAL_Driver/Src/stm32h5xx_hal_dma.c ****       Additionally to linked-list capability, all advanced DMA features are managed and configured 
  40:Drivers/STM32H5xx_HAL_Driver/Src/stm32h5xx_hal_dma.c ****       module as extensions to normal mode.
  41:Drivers/STM32H5xx_HAL_Driver/Src/stm32h5xx_hal_dma.c ****       Advanced features are :
  42:Drivers/STM32H5xx_HAL_Driver/Src/stm32h5xx_hal_dma.c ****           (+) Repeated block feature.
  43:Drivers/STM32H5xx_HAL_Driver/Src/stm32h5xx_hal_dma.c ****           (+) Trigger feature.
  44:Drivers/STM32H5xx_HAL_Driver/Src/stm32h5xx_hal_dma.c ****           (+) Data handling feature.
  45:Drivers/STM32H5xx_HAL_Driver/Src/stm32h5xx_hal_dma.c **** 
  46:Drivers/STM32H5xx_HAL_Driver/Src/stm32h5xx_hal_dma.c ****     [..]
  47:Drivers/STM32H5xx_HAL_Driver/Src/stm32h5xx_hal_dma.c ****       DMA Legacy circular transfer, is replaced by circular linked-list configuration.
  48:Drivers/STM32H5xx_HAL_Driver/Src/stm32h5xx_hal_dma.c **** 
  49:Drivers/STM32H5xx_HAL_Driver/Src/stm32h5xx_hal_dma.c **** 
  50:Drivers/STM32H5xx_HAL_Driver/Src/stm32h5xx_hal_dma.c ****     *** Initialization and De-Initialization ***
  51:Drivers/STM32H5xx_HAL_Driver/Src/stm32h5xx_hal_dma.c ****     ============================================
  52:Drivers/STM32H5xx_HAL_Driver/Src/stm32h5xx_hal_dma.c ****     [..]
  53:Drivers/STM32H5xx_HAL_Driver/Src/stm32h5xx_hal_dma.c ****       For a given channel, enable and configure the peripheral to be connected to the DMA Channel (
  54:Drivers/STM32H5xx_HAL_Driver/Src/stm32h5xx_hal_dma.c ****       SRAM/FLASH memories: no initialization is necessary) please refer to Reference manual for con
  55:Drivers/STM32H5xx_HAL_Driver/Src/stm32h5xx_hal_dma.c ****       peripherals and DMA requests.
  56:Drivers/STM32H5xx_HAL_Driver/Src/stm32h5xx_hal_dma.c **** 
  57:Drivers/STM32H5xx_HAL_Driver/Src/stm32h5xx_hal_dma.c ****     [..]
  58:Drivers/STM32H5xx_HAL_Driver/Src/stm32h5xx_hal_dma.c ****       For a given channel, use HAL_DMA_Init function to program the required configuration for norm
  59:Drivers/STM32H5xx_HAL_Driver/Src/stm32h5xx_hal_dma.c ****       the following parameters:
  60:Drivers/STM32H5xx_HAL_Driver/Src/stm32h5xx_hal_dma.c **** 
  61:Drivers/STM32H5xx_HAL_Driver/Src/stm32h5xx_hal_dma.c ****           (+) Request               : Specifies the DMA channel request
  62:Drivers/STM32H5xx_HAL_Driver/Src/stm32h5xx_hal_dma.c ****               Request parameters    :
  63:Drivers/STM32H5xx_HAL_Driver/Src/stm32h5xx_hal_dma.c ****               (++) can be a value of DMA_Request_Selection
  64:Drivers/STM32H5xx_HAL_Driver/Src/stm32h5xx_hal_dma.c **** 
  65:Drivers/STM32H5xx_HAL_Driver/Src/stm32h5xx_hal_dma.c ****           (+) BlkHWRequest          : Specifies the Block hardware request mode for DMA channel
  66:Drivers/STM32H5xx_HAL_Driver/Src/stm32h5xx_hal_dma.c ****               (++) can be a value of DMA_Block_Request
  67:Drivers/STM32H5xx_HAL_Driver/Src/stm32h5xx_hal_dma.c **** 
  68:Drivers/STM32H5xx_HAL_Driver/Src/stm32h5xx_hal_dma.c ****           (+) Direction             : Specifies the transfer direction for DMA channel
  69:Drivers/STM32H5xx_HAL_Driver/Src/stm32h5xx_hal_dma.c ****               (++) can be a value of DMA_Transfer_Direction
  70:Drivers/STM32H5xx_HAL_Driver/Src/stm32h5xx_hal_dma.c **** 
  71:Drivers/STM32H5xx_HAL_Driver/Src/stm32h5xx_hal_dma.c ****           (+) SrcInc                : Specifies the source increment mode for the DMA channel
  72:Drivers/STM32H5xx_HAL_Driver/Src/stm32h5xx_hal_dma.c ****               (++) can be a value of DMA_Source_Increment_Mode
  73:Drivers/STM32H5xx_HAL_Driver/Src/stm32h5xx_hal_dma.c **** 
  74:Drivers/STM32H5xx_HAL_Driver/Src/stm32h5xx_hal_dma.c ****           (+) DestInc               : Specifies the destination increment mode for the DMA channel
  75:Drivers/STM32H5xx_HAL_Driver/Src/stm32h5xx_hal_dma.c ****               (++) can be a value of DMA_Destination_Increment_Mode
  76:Drivers/STM32H5xx_HAL_Driver/Src/stm32h5xx_hal_dma.c **** 
  77:Drivers/STM32H5xx_HAL_Driver/Src/stm32h5xx_hal_dma.c ****           (+) SrcDataWidth          : Specifies the source data width for the DMA channel
  78:Drivers/STM32H5xx_HAL_Driver/Src/stm32h5xx_hal_dma.c ****               (++) can be a value of DMA_Source_Data_Width
  79:Drivers/STM32H5xx_HAL_Driver/Src/stm32h5xx_hal_dma.c **** 
  80:Drivers/STM32H5xx_HAL_Driver/Src/stm32h5xx_hal_dma.c ****           (+) DestDataWidth         : Specifies the destination data width for the DMA channel
  81:Drivers/STM32H5xx_HAL_Driver/Src/stm32h5xx_hal_dma.c ****               (++) can be a value of DMA_Destination_Data_Width
  82:Drivers/STM32H5xx_HAL_Driver/Src/stm32h5xx_hal_dma.c **** 
  83:Drivers/STM32H5xx_HAL_Driver/Src/stm32h5xx_hal_dma.c ****           (+) Priority              : Specifies the priority for the DMA channel
  84:Drivers/STM32H5xx_HAL_Driver/Src/stm32h5xx_hal_dma.c ****               (++) can be a value of DMA_Priority_Level
  85:Drivers/STM32H5xx_HAL_Driver/Src/stm32h5xx_hal_dma.c **** 
  86:Drivers/STM32H5xx_HAL_Driver/Src/stm32h5xx_hal_dma.c ****           (+) SrcBurstLength        : Specifies the source burst length (number of beats) for the D
ARM GAS  /var/folders/l3/rwskfq612tq4b7hmtv37jkjw0000gp/T//ccx7lwMy.s 			page 3


  87:Drivers/STM32H5xx_HAL_Driver/Src/stm32h5xx_hal_dma.c ****               (++) can be a value of between 1 and 64
  88:Drivers/STM32H5xx_HAL_Driver/Src/stm32h5xx_hal_dma.c **** 
  89:Drivers/STM32H5xx_HAL_Driver/Src/stm32h5xx_hal_dma.c ****           (+) DestBurstLength       : Specifies the destination burst length (number of beats) for 
  90:Drivers/STM32H5xx_HAL_Driver/Src/stm32h5xx_hal_dma.c ****               (++) can be a value of between 1 and 64
  91:Drivers/STM32H5xx_HAL_Driver/Src/stm32h5xx_hal_dma.c **** 
  92:Drivers/STM32H5xx_HAL_Driver/Src/stm32h5xx_hal_dma.c ****           (+) TransferAllocatedPort : Specifies the source and destination allocated ports
  93:Drivers/STM32H5xx_HAL_Driver/Src/stm32h5xx_hal_dma.c ****               (++) can be a value of DMA_Transfer_Allocated_Port
  94:Drivers/STM32H5xx_HAL_Driver/Src/stm32h5xx_hal_dma.c **** 
  95:Drivers/STM32H5xx_HAL_Driver/Src/stm32h5xx_hal_dma.c ****           (+) TransferEventMode     : Specifies the transfer event mode for the DMA channel
  96:Drivers/STM32H5xx_HAL_Driver/Src/stm32h5xx_hal_dma.c ****               (++) can be a value of DMA_Transfer_Event_Mode
  97:Drivers/STM32H5xx_HAL_Driver/Src/stm32h5xx_hal_dma.c **** 
  98:Drivers/STM32H5xx_HAL_Driver/Src/stm32h5xx_hal_dma.c ****           (+) Mode                  : Specifies the transfer mode for the DMA channel
  99:Drivers/STM32H5xx_HAL_Driver/Src/stm32h5xx_hal_dma.c ****               (++) can be one of the following modes :
 100:Drivers/STM32H5xx_HAL_Driver/Src/stm32h5xx_hal_dma.c ****                   (+++) DMA_NORMAL : Normal Mode
 101:Drivers/STM32H5xx_HAL_Driver/Src/stm32h5xx_hal_dma.c ****                   (+++) DMA_PFCTRL : Peripheral Flow Control (peripheral early termination) Mode
 102:Drivers/STM32H5xx_HAL_Driver/Src/stm32h5xx_hal_dma.c **** 
 103:Drivers/STM32H5xx_HAL_Driver/Src/stm32h5xx_hal_dma.c ****     *** Polling mode IO operation ***
 104:Drivers/STM32H5xx_HAL_Driver/Src/stm32h5xx_hal_dma.c ****     =================================
 105:Drivers/STM32H5xx_HAL_Driver/Src/stm32h5xx_hal_dma.c ****     [..]
 106:Drivers/STM32H5xx_HAL_Driver/Src/stm32h5xx_hal_dma.c ****           (+) Use HAL_DMA_Start() to start a DMA normal transfer after the configuration of source 
 107:Drivers/STM32H5xx_HAL_Driver/Src/stm32h5xx_hal_dma.c ****               address and the size of data to be transferred.
 108:Drivers/STM32H5xx_HAL_Driver/Src/stm32h5xx_hal_dma.c **** 
 109:Drivers/STM32H5xx_HAL_Driver/Src/stm32h5xx_hal_dma.c ****           (+) Use HAL_DMA_PollForTransfer() to poll for selected transfer level. In this case a fix
 110:Drivers/STM32H5xx_HAL_Driver/Src/stm32h5xx_hal_dma.c ****               configured by User depending on his application.
 111:Drivers/STM32H5xx_HAL_Driver/Src/stm32h5xx_hal_dma.c ****               Transfer level can be :
 112:Drivers/STM32H5xx_HAL_Driver/Src/stm32h5xx_hal_dma.c ****               (++) HAL_DMA_HALF_TRANSFER
 113:Drivers/STM32H5xx_HAL_Driver/Src/stm32h5xx_hal_dma.c ****               (++) HAL_DMA_FULL_TRANSFER
 114:Drivers/STM32H5xx_HAL_Driver/Src/stm32h5xx_hal_dma.c ****               For circular transfer, this API returns an HAL_ERROR with HAL_DMA_ERROR_NOT_SUPPORTED
 115:Drivers/STM32H5xx_HAL_Driver/Src/stm32h5xx_hal_dma.c **** 
 116:Drivers/STM32H5xx_HAL_Driver/Src/stm32h5xx_hal_dma.c ****           (+) Use HAL_DMA_Abort() function to abort any ongoing DMA transfer in blocking mode.
 117:Drivers/STM32H5xx_HAL_Driver/Src/stm32h5xx_hal_dma.c ****               This API returns HAL_ERROR when there is no ongoing transfer or timeout is reached wh
 118:Drivers/STM32H5xx_HAL_Driver/Src/stm32h5xx_hal_dma.c ****               channel. (This API should not be called from an interrupt service routine)
 119:Drivers/STM32H5xx_HAL_Driver/Src/stm32h5xx_hal_dma.c **** 
 120:Drivers/STM32H5xx_HAL_Driver/Src/stm32h5xx_hal_dma.c **** 
 121:Drivers/STM32H5xx_HAL_Driver/Src/stm32h5xx_hal_dma.c ****     *** Interrupt mode IO operation ***
 122:Drivers/STM32H5xx_HAL_Driver/Src/stm32h5xx_hal_dma.c ****     ===================================
 123:Drivers/STM32H5xx_HAL_Driver/Src/stm32h5xx_hal_dma.c ****     [..]
 124:Drivers/STM32H5xx_HAL_Driver/Src/stm32h5xx_hal_dma.c ****           (+) Configure the DMA interrupt priority using HAL_NVIC_SetPriority()
 125:Drivers/STM32H5xx_HAL_Driver/Src/stm32h5xx_hal_dma.c **** 
 126:Drivers/STM32H5xx_HAL_Driver/Src/stm32h5xx_hal_dma.c ****           (+) Enable the DMA IRQ handler using HAL_NVIC_EnableIRQ()
 127:Drivers/STM32H5xx_HAL_Driver/Src/stm32h5xx_hal_dma.c **** 
 128:Drivers/STM32H5xx_HAL_Driver/Src/stm32h5xx_hal_dma.c ****           (+) Use HAL_DMA_RegisterCallback() function to register user callbacks from the following
 129:Drivers/STM32H5xx_HAL_Driver/Src/stm32h5xx_hal_dma.c ****               (++) XferCpltCallback     : transfer complete callback.
 130:Drivers/STM32H5xx_HAL_Driver/Src/stm32h5xx_hal_dma.c ****               (++) XferHalfCpltCallback : half transfer complete callback.
 131:Drivers/STM32H5xx_HAL_Driver/Src/stm32h5xx_hal_dma.c ****               (++) XferErrorCallback    : transfer error callback.
 132:Drivers/STM32H5xx_HAL_Driver/Src/stm32h5xx_hal_dma.c ****               (++) XferAbortCallback    : transfer abort complete callback.
 133:Drivers/STM32H5xx_HAL_Driver/Src/stm32h5xx_hal_dma.c ****               (++) XferSuspendCallback  : transfer suspend complete callback.
 134:Drivers/STM32H5xx_HAL_Driver/Src/stm32h5xx_hal_dma.c **** 
 135:Drivers/STM32H5xx_HAL_Driver/Src/stm32h5xx_hal_dma.c ****           (+) Use HAL_DMA_Start_IT() to start the DMA transfer after the enable of DMA interrupts a
 136:Drivers/STM32H5xx_HAL_Driver/Src/stm32h5xx_hal_dma.c ****               of source address,destination address and the size of data to be transferred.
 137:Drivers/STM32H5xx_HAL_Driver/Src/stm32h5xx_hal_dma.c **** 
 138:Drivers/STM32H5xx_HAL_Driver/Src/stm32h5xx_hal_dma.c ****           (+) Use HAL_DMA_IRQHandler() called under DMA_IRQHandler() interrupt subroutine to handle
 139:Drivers/STM32H5xx_HAL_Driver/Src/stm32h5xx_hal_dma.c **** 
 140:Drivers/STM32H5xx_HAL_Driver/Src/stm32h5xx_hal_dma.c ****           (+) Use HAL_DMA_Abort_IT() function to abort any on-going DMA transfer in non-blocking mo
 141:Drivers/STM32H5xx_HAL_Driver/Src/stm32h5xx_hal_dma.c ****               This API will suspend immediately the DMA channel execution. When the transfer is eff
 142:Drivers/STM32H5xx_HAL_Driver/Src/stm32h5xx_hal_dma.c ****               an interrupt is generated and HAL_DMA_IRQHandler() will reset the channel and execute
 143:Drivers/STM32H5xx_HAL_Driver/Src/stm32h5xx_hal_dma.c ****               XferAbortCallback. (This API could be called from an interrupt service routine)
ARM GAS  /var/folders/l3/rwskfq612tq4b7hmtv37jkjw0000gp/T//ccx7lwMy.s 			page 4


 144:Drivers/STM32H5xx_HAL_Driver/Src/stm32h5xx_hal_dma.c **** 
 145:Drivers/STM32H5xx_HAL_Driver/Src/stm32h5xx_hal_dma.c **** 
 146:Drivers/STM32H5xx_HAL_Driver/Src/stm32h5xx_hal_dma.c ****     *** State and errors ***
 147:Drivers/STM32H5xx_HAL_Driver/Src/stm32h5xx_hal_dma.c ****     ========================
 148:Drivers/STM32H5xx_HAL_Driver/Src/stm32h5xx_hal_dma.c ****     [..]
 149:Drivers/STM32H5xx_HAL_Driver/Src/stm32h5xx_hal_dma.c ****           (+) Use HAL_DMA_GetState() function to get the DMA state.
 150:Drivers/STM32H5xx_HAL_Driver/Src/stm32h5xx_hal_dma.c ****           (+) Use HAL_DMA_GetError() function to get the DMA error code.
 151:Drivers/STM32H5xx_HAL_Driver/Src/stm32h5xx_hal_dma.c **** 
 152:Drivers/STM32H5xx_HAL_Driver/Src/stm32h5xx_hal_dma.c **** 
 153:Drivers/STM32H5xx_HAL_Driver/Src/stm32h5xx_hal_dma.c ****     *** Security and privilege attributes ***
 154:Drivers/STM32H5xx_HAL_Driver/Src/stm32h5xx_hal_dma.c ****     =========================================
 155:Drivers/STM32H5xx_HAL_Driver/Src/stm32h5xx_hal_dma.c ****     [..]
 156:Drivers/STM32H5xx_HAL_Driver/Src/stm32h5xx_hal_dma.c ****           (+) Use HAL_DMA_ConfigChannelAttributes() function to configure DMA channel security and 
 157:Drivers/STM32H5xx_HAL_Driver/Src/stm32h5xx_hal_dma.c ****               (++) Security  : at channel level, at source level and at destination level.
 158:Drivers/STM32H5xx_HAL_Driver/Src/stm32h5xx_hal_dma.c ****               (++) Privilege : at channel level.
 159:Drivers/STM32H5xx_HAL_Driver/Src/stm32h5xx_hal_dma.c ****           (+) Use HAL_DMA_GetConfigChannelAttributes() function to get the DMA channel attributes.
 160:Drivers/STM32H5xx_HAL_Driver/Src/stm32h5xx_hal_dma.c ****           (+) Use HAL_DMA_LockChannelAttributes() function to lock the DMA channel security and pri
 161:Drivers/STM32H5xx_HAL_Driver/Src/stm32h5xx_hal_dma.c ****               configuration. This API can be called once after each system boot.
 162:Drivers/STM32H5xx_HAL_Driver/Src/stm32h5xx_hal_dma.c ****               If called again, HAL_DMA_ConfigChannelAttributes() API has no effect.
 163:Drivers/STM32H5xx_HAL_Driver/Src/stm32h5xx_hal_dma.c ****               Unlock is done either by a system boot or a by an RCC reset.
 164:Drivers/STM32H5xx_HAL_Driver/Src/stm32h5xx_hal_dma.c ****           (+) Use HAL_DMA_GetLockChannelAttributes() function to get the attributes lock status.
 165:Drivers/STM32H5xx_HAL_Driver/Src/stm32h5xx_hal_dma.c **** 
 166:Drivers/STM32H5xx_HAL_Driver/Src/stm32h5xx_hal_dma.c **** 
 167:Drivers/STM32H5xx_HAL_Driver/Src/stm32h5xx_hal_dma.c ****     *** DMA HAL driver macros list ***
 168:Drivers/STM32H5xx_HAL_Driver/Src/stm32h5xx_hal_dma.c ****     ==================================
 169:Drivers/STM32H5xx_HAL_Driver/Src/stm32h5xx_hal_dma.c ****     [..]
 170:Drivers/STM32H5xx_HAL_Driver/Src/stm32h5xx_hal_dma.c ****       Below the list of most used macros in DMA HAL driver.
 171:Drivers/STM32H5xx_HAL_Driver/Src/stm32h5xx_hal_dma.c **** 
 172:Drivers/STM32H5xx_HAL_Driver/Src/stm32h5xx_hal_dma.c ****           (+) __HAL_DMA_ENABLE        : Enable the specified DMA Channel.
 173:Drivers/STM32H5xx_HAL_Driver/Src/stm32h5xx_hal_dma.c ****           (+) __HAL_DMA_DISABLE       : Disable the specified DMA Channel.
 174:Drivers/STM32H5xx_HAL_Driver/Src/stm32h5xx_hal_dma.c ****           (+) __HAL_DMA_GET_FLAG      : Get the DMA Channel pending flags.
 175:Drivers/STM32H5xx_HAL_Driver/Src/stm32h5xx_hal_dma.c ****           (+) __HAL_DMA_CLEAR_FLAG    : Clear the DMA Channel pending flags.
 176:Drivers/STM32H5xx_HAL_Driver/Src/stm32h5xx_hal_dma.c ****           (+) __HAL_DMA_ENABLE_IT     : Enable the specified DMA Channel interrupts.
 177:Drivers/STM32H5xx_HAL_Driver/Src/stm32h5xx_hal_dma.c ****           (+) __HAL_DMA_DISABLE_IT    : Disable the specified DMA Channel interrupts.
 178:Drivers/STM32H5xx_HAL_Driver/Src/stm32h5xx_hal_dma.c ****           (+) __HAL_DMA_GET_IT_SOURCE : Check whether the specified DMA Channel interrupt has occur
 179:Drivers/STM32H5xx_HAL_Driver/Src/stm32h5xx_hal_dma.c **** 
 180:Drivers/STM32H5xx_HAL_Driver/Src/stm32h5xx_hal_dma.c ****     [..]
 181:Drivers/STM32H5xx_HAL_Driver/Src/stm32h5xx_hal_dma.c ****      (@) You can refer to the header file of the DMA HAL driver for more useful macros.
 182:Drivers/STM32H5xx_HAL_Driver/Src/stm32h5xx_hal_dma.c **** 
 183:Drivers/STM32H5xx_HAL_Driver/Src/stm32h5xx_hal_dma.c ****     @endverbatim
 184:Drivers/STM32H5xx_HAL_Driver/Src/stm32h5xx_hal_dma.c ****   *************************************************************************************************
 185:Drivers/STM32H5xx_HAL_Driver/Src/stm32h5xx_hal_dma.c ****   */
 186:Drivers/STM32H5xx_HAL_Driver/Src/stm32h5xx_hal_dma.c **** 
 187:Drivers/STM32H5xx_HAL_Driver/Src/stm32h5xx_hal_dma.c **** /* Includes ---------------------------------------------------------------------------------------
 188:Drivers/STM32H5xx_HAL_Driver/Src/stm32h5xx_hal_dma.c **** #include "stm32h5xx_hal.h"
 189:Drivers/STM32H5xx_HAL_Driver/Src/stm32h5xx_hal_dma.c **** 
 190:Drivers/STM32H5xx_HAL_Driver/Src/stm32h5xx_hal_dma.c **** /** @addtogroup STM32H5xx_HAL_Driver
 191:Drivers/STM32H5xx_HAL_Driver/Src/stm32h5xx_hal_dma.c ****   * @{
 192:Drivers/STM32H5xx_HAL_Driver/Src/stm32h5xx_hal_dma.c ****   */
 193:Drivers/STM32H5xx_HAL_Driver/Src/stm32h5xx_hal_dma.c **** 
 194:Drivers/STM32H5xx_HAL_Driver/Src/stm32h5xx_hal_dma.c **** /** @defgroup DMA DMA
 195:Drivers/STM32H5xx_HAL_Driver/Src/stm32h5xx_hal_dma.c ****   * @brief DMA HAL module driver
 196:Drivers/STM32H5xx_HAL_Driver/Src/stm32h5xx_hal_dma.c ****   * @{
 197:Drivers/STM32H5xx_HAL_Driver/Src/stm32h5xx_hal_dma.c ****   */
 198:Drivers/STM32H5xx_HAL_Driver/Src/stm32h5xx_hal_dma.c **** 
 199:Drivers/STM32H5xx_HAL_Driver/Src/stm32h5xx_hal_dma.c **** #ifdef HAL_DMA_MODULE_ENABLED
 200:Drivers/STM32H5xx_HAL_Driver/Src/stm32h5xx_hal_dma.c **** 
ARM GAS  /var/folders/l3/rwskfq612tq4b7hmtv37jkjw0000gp/T//ccx7lwMy.s 			page 5


 201:Drivers/STM32H5xx_HAL_Driver/Src/stm32h5xx_hal_dma.c **** /* Private typedef --------------------------------------------------------------------------------
 202:Drivers/STM32H5xx_HAL_Driver/Src/stm32h5xx_hal_dma.c **** /* Private constants ------------------------------------------------------------------------------
 203:Drivers/STM32H5xx_HAL_Driver/Src/stm32h5xx_hal_dma.c **** /* Private macro ----------------------------------------------------------------------------------
 204:Drivers/STM32H5xx_HAL_Driver/Src/stm32h5xx_hal_dma.c **** /* Private variables ------------------------------------------------------------------------------
 205:Drivers/STM32H5xx_HAL_Driver/Src/stm32h5xx_hal_dma.c **** /* Private function prototypes --------------------------------------------------------------------
 206:Drivers/STM32H5xx_HAL_Driver/Src/stm32h5xx_hal_dma.c **** static void DMA_SetConfig(DMA_HandleTypeDef const *const hdma,
 207:Drivers/STM32H5xx_HAL_Driver/Src/stm32h5xx_hal_dma.c ****                           uint32_t SrcAddress,
 208:Drivers/STM32H5xx_HAL_Driver/Src/stm32h5xx_hal_dma.c ****                           uint32_t DstAddress,
 209:Drivers/STM32H5xx_HAL_Driver/Src/stm32h5xx_hal_dma.c ****                           uint32_t SrcDataSize);
 210:Drivers/STM32H5xx_HAL_Driver/Src/stm32h5xx_hal_dma.c **** static void DMA_Init(DMA_HandleTypeDef const *const hdma);
 211:Drivers/STM32H5xx_HAL_Driver/Src/stm32h5xx_hal_dma.c **** 
 212:Drivers/STM32H5xx_HAL_Driver/Src/stm32h5xx_hal_dma.c **** /* Exported functions -----------------------------------------------------------------------------
 213:Drivers/STM32H5xx_HAL_Driver/Src/stm32h5xx_hal_dma.c **** 
 214:Drivers/STM32H5xx_HAL_Driver/Src/stm32h5xx_hal_dma.c **** /** @addtogroup DMA_Exported_Functions DMA Exported Functions
 215:Drivers/STM32H5xx_HAL_Driver/Src/stm32h5xx_hal_dma.c ****   * @{
 216:Drivers/STM32H5xx_HAL_Driver/Src/stm32h5xx_hal_dma.c ****   */
 217:Drivers/STM32H5xx_HAL_Driver/Src/stm32h5xx_hal_dma.c **** 
 218:Drivers/STM32H5xx_HAL_Driver/Src/stm32h5xx_hal_dma.c **** /** @addtogroup DMA_Exported_Functions_Group1
 219:Drivers/STM32H5xx_HAL_Driver/Src/stm32h5xx_hal_dma.c ****   *
 220:Drivers/STM32H5xx_HAL_Driver/Src/stm32h5xx_hal_dma.c **** @verbatim
 221:Drivers/STM32H5xx_HAL_Driver/Src/stm32h5xx_hal_dma.c ****   =================================================================================================
 222:Drivers/STM32H5xx_HAL_Driver/Src/stm32h5xx_hal_dma.c ****                        ##### Initialization and de-initialization functions #####
 223:Drivers/STM32H5xx_HAL_Driver/Src/stm32h5xx_hal_dma.c ****   =================================================================================================
 224:Drivers/STM32H5xx_HAL_Driver/Src/stm32h5xx_hal_dma.c ****     [..]
 225:Drivers/STM32H5xx_HAL_Driver/Src/stm32h5xx_hal_dma.c ****       This section provides functions allowing to initialize and de-initialize the DMA channel in n
 226:Drivers/STM32H5xx_HAL_Driver/Src/stm32h5xx_hal_dma.c **** 
 227:Drivers/STM32H5xx_HAL_Driver/Src/stm32h5xx_hal_dma.c ****     [..]
 228:Drivers/STM32H5xx_HAL_Driver/Src/stm32h5xx_hal_dma.c ****       (+) The HAL_DMA_Init() function follows the DMA channel configuration procedures as described
 229:Drivers/STM32H5xx_HAL_Driver/Src/stm32h5xx_hal_dma.c ****       (+) The HAL_DMA_DeInit() function allows to de-initialize the DMA channel.
 230:Drivers/STM32H5xx_HAL_Driver/Src/stm32h5xx_hal_dma.c **** 
 231:Drivers/STM32H5xx_HAL_Driver/Src/stm32h5xx_hal_dma.c **** @endverbatim
 232:Drivers/STM32H5xx_HAL_Driver/Src/stm32h5xx_hal_dma.c ****   * @{
 233:Drivers/STM32H5xx_HAL_Driver/Src/stm32h5xx_hal_dma.c ****   */
 234:Drivers/STM32H5xx_HAL_Driver/Src/stm32h5xx_hal_dma.c **** 
 235:Drivers/STM32H5xx_HAL_Driver/Src/stm32h5xx_hal_dma.c **** /**
 236:Drivers/STM32H5xx_HAL_Driver/Src/stm32h5xx_hal_dma.c ****   * @brief  Initialize the DMA channel in normal mode according to the specified parameters in the 
 237:Drivers/STM32H5xx_HAL_Driver/Src/stm32h5xx_hal_dma.c ****   *         create the associated handle.
 238:Drivers/STM32H5xx_HAL_Driver/Src/stm32h5xx_hal_dma.c ****   * @param  hdma : Pointer to a DMA_HandleTypeDef structure that contains the configuration informa
 239:Drivers/STM32H5xx_HAL_Driver/Src/stm32h5xx_hal_dma.c ****   *                specified DMA Channel.
 240:Drivers/STM32H5xx_HAL_Driver/Src/stm32h5xx_hal_dma.c ****   * @retval HAL status.
 241:Drivers/STM32H5xx_HAL_Driver/Src/stm32h5xx_hal_dma.c ****   */
 242:Drivers/STM32H5xx_HAL_Driver/Src/stm32h5xx_hal_dma.c **** HAL_StatusTypeDef HAL_DMA_Init(DMA_HandleTypeDef *const hdma)
 243:Drivers/STM32H5xx_HAL_Driver/Src/stm32h5xx_hal_dma.c **** {
 244:Drivers/STM32H5xx_HAL_Driver/Src/stm32h5xx_hal_dma.c ****   /* Get tick number */
 245:Drivers/STM32H5xx_HAL_Driver/Src/stm32h5xx_hal_dma.c ****   uint32_t tickstart = HAL_GetTick();
 246:Drivers/STM32H5xx_HAL_Driver/Src/stm32h5xx_hal_dma.c **** 
 247:Drivers/STM32H5xx_HAL_Driver/Src/stm32h5xx_hal_dma.c ****   /* Check the DMA peripheral handle parameter */
 248:Drivers/STM32H5xx_HAL_Driver/Src/stm32h5xx_hal_dma.c ****   if (hdma == NULL)
 249:Drivers/STM32H5xx_HAL_Driver/Src/stm32h5xx_hal_dma.c ****   {
 250:Drivers/STM32H5xx_HAL_Driver/Src/stm32h5xx_hal_dma.c ****     return HAL_ERROR;
 251:Drivers/STM32H5xx_HAL_Driver/Src/stm32h5xx_hal_dma.c ****   }
 252:Drivers/STM32H5xx_HAL_Driver/Src/stm32h5xx_hal_dma.c **** 
 253:Drivers/STM32H5xx_HAL_Driver/Src/stm32h5xx_hal_dma.c ****   /* Check the parameters */
 254:Drivers/STM32H5xx_HAL_Driver/Src/stm32h5xx_hal_dma.c ****   assert_param(IS_DMA_ALL_INSTANCE(hdma->Instance));
 255:Drivers/STM32H5xx_HAL_Driver/Src/stm32h5xx_hal_dma.c ****   assert_param(IS_DMA_DIRECTION(hdma->Init.Direction));
 256:Drivers/STM32H5xx_HAL_Driver/Src/stm32h5xx_hal_dma.c ****   if (hdma->Init.Direction != DMA_MEMORY_TO_MEMORY)
 257:Drivers/STM32H5xx_HAL_Driver/Src/stm32h5xx_hal_dma.c ****   {
ARM GAS  /var/folders/l3/rwskfq612tq4b7hmtv37jkjw0000gp/T//ccx7lwMy.s 			page 6


 258:Drivers/STM32H5xx_HAL_Driver/Src/stm32h5xx_hal_dma.c ****     assert_param(IS_DMA_REQUEST(hdma->Init.Request));
 259:Drivers/STM32H5xx_HAL_Driver/Src/stm32h5xx_hal_dma.c ****   }
 260:Drivers/STM32H5xx_HAL_Driver/Src/stm32h5xx_hal_dma.c ****   assert_param(IS_DMA_BLOCK_HW_REQUEST(hdma->Init.BlkHWRequest));
 261:Drivers/STM32H5xx_HAL_Driver/Src/stm32h5xx_hal_dma.c ****   assert_param(IS_DMA_SOURCE_INC(hdma->Init.SrcInc));
 262:Drivers/STM32H5xx_HAL_Driver/Src/stm32h5xx_hal_dma.c ****   assert_param(IS_DMA_DESTINATION_INC(hdma->Init.DestInc));
 263:Drivers/STM32H5xx_HAL_Driver/Src/stm32h5xx_hal_dma.c ****   assert_param(IS_DMA_SOURCE_DATA_WIDTH(hdma->Init.SrcDataWidth));
 264:Drivers/STM32H5xx_HAL_Driver/Src/stm32h5xx_hal_dma.c ****   assert_param(IS_DMA_DESTINATION_DATA_WIDTH(hdma->Init.DestDataWidth));
 265:Drivers/STM32H5xx_HAL_Driver/Src/stm32h5xx_hal_dma.c ****   assert_param(IS_DMA_PRIORITY(hdma->Init.Priority));
 266:Drivers/STM32H5xx_HAL_Driver/Src/stm32h5xx_hal_dma.c ****   assert_param(IS_DMA_TCEM_EVENT_MODE(hdma->Init.TransferEventMode));
 267:Drivers/STM32H5xx_HAL_Driver/Src/stm32h5xx_hal_dma.c ****   assert_param(IS_DMA_MODE(hdma->Init.Mode));
 268:Drivers/STM32H5xx_HAL_Driver/Src/stm32h5xx_hal_dma.c ****   if (hdma->Init.Mode == DMA_PFCTRL)
 269:Drivers/STM32H5xx_HAL_Driver/Src/stm32h5xx_hal_dma.c ****   {
 270:Drivers/STM32H5xx_HAL_Driver/Src/stm32h5xx_hal_dma.c ****     assert_param(IS_DMA_PFREQ_INSTANCE(hdma->Instance));
 271:Drivers/STM32H5xx_HAL_Driver/Src/stm32h5xx_hal_dma.c ****   }
 272:Drivers/STM32H5xx_HAL_Driver/Src/stm32h5xx_hal_dma.c ****   /* Check DMA channel instance */
 273:Drivers/STM32H5xx_HAL_Driver/Src/stm32h5xx_hal_dma.c ****   if (IS_GPDMA_INSTANCE(hdma->Instance) != 0U)
 274:Drivers/STM32H5xx_HAL_Driver/Src/stm32h5xx_hal_dma.c ****   {
 275:Drivers/STM32H5xx_HAL_Driver/Src/stm32h5xx_hal_dma.c ****     assert_param(IS_DMA_BURST_LENGTH(hdma->Init.SrcBurstLength));
 276:Drivers/STM32H5xx_HAL_Driver/Src/stm32h5xx_hal_dma.c ****     assert_param(IS_DMA_BURST_LENGTH(hdma->Init.DestBurstLength));
 277:Drivers/STM32H5xx_HAL_Driver/Src/stm32h5xx_hal_dma.c ****     assert_param(IS_DMA_TRANSFER_ALLOCATED_PORT(hdma->Init.TransferAllocatedPort));
 278:Drivers/STM32H5xx_HAL_Driver/Src/stm32h5xx_hal_dma.c ****   }
 279:Drivers/STM32H5xx_HAL_Driver/Src/stm32h5xx_hal_dma.c **** 
 280:Drivers/STM32H5xx_HAL_Driver/Src/stm32h5xx_hal_dma.c ****   /* Allocate lock resource */
 281:Drivers/STM32H5xx_HAL_Driver/Src/stm32h5xx_hal_dma.c ****   __HAL_UNLOCK(hdma);
 282:Drivers/STM32H5xx_HAL_Driver/Src/stm32h5xx_hal_dma.c **** 
 283:Drivers/STM32H5xx_HAL_Driver/Src/stm32h5xx_hal_dma.c ****   /* Update the DMA channel state */
 284:Drivers/STM32H5xx_HAL_Driver/Src/stm32h5xx_hal_dma.c ****   hdma->State = HAL_DMA_STATE_BUSY;
 285:Drivers/STM32H5xx_HAL_Driver/Src/stm32h5xx_hal_dma.c **** 
 286:Drivers/STM32H5xx_HAL_Driver/Src/stm32h5xx_hal_dma.c ****   /* Disable the DMA channel */
 287:Drivers/STM32H5xx_HAL_Driver/Src/stm32h5xx_hal_dma.c ****   __HAL_DMA_DISABLE(hdma);
 288:Drivers/STM32H5xx_HAL_Driver/Src/stm32h5xx_hal_dma.c **** 
 289:Drivers/STM32H5xx_HAL_Driver/Src/stm32h5xx_hal_dma.c ****   /* Check if the DMA channel is effectively disabled */
 290:Drivers/STM32H5xx_HAL_Driver/Src/stm32h5xx_hal_dma.c ****   while ((hdma->Instance->CCR & DMA_CCR_EN) != 0U)
 291:Drivers/STM32H5xx_HAL_Driver/Src/stm32h5xx_hal_dma.c ****   {
 292:Drivers/STM32H5xx_HAL_Driver/Src/stm32h5xx_hal_dma.c ****     /* Check for the Timeout */
 293:Drivers/STM32H5xx_HAL_Driver/Src/stm32h5xx_hal_dma.c ****     if ((HAL_GetTick() - tickstart) > HAL_TIMEOUT_DMA_ABORT)
 294:Drivers/STM32H5xx_HAL_Driver/Src/stm32h5xx_hal_dma.c ****     {
 295:Drivers/STM32H5xx_HAL_Driver/Src/stm32h5xx_hal_dma.c ****       /* Update the DMA channel error code */
 296:Drivers/STM32H5xx_HAL_Driver/Src/stm32h5xx_hal_dma.c ****       hdma->ErrorCode = HAL_DMA_ERROR_TIMEOUT;
 297:Drivers/STM32H5xx_HAL_Driver/Src/stm32h5xx_hal_dma.c **** 
 298:Drivers/STM32H5xx_HAL_Driver/Src/stm32h5xx_hal_dma.c ****       /* Update the DMA channel state */
 299:Drivers/STM32H5xx_HAL_Driver/Src/stm32h5xx_hal_dma.c ****       hdma->State = HAL_DMA_STATE_ERROR;
 300:Drivers/STM32H5xx_HAL_Driver/Src/stm32h5xx_hal_dma.c **** 
 301:Drivers/STM32H5xx_HAL_Driver/Src/stm32h5xx_hal_dma.c ****       return HAL_ERROR;
 302:Drivers/STM32H5xx_HAL_Driver/Src/stm32h5xx_hal_dma.c ****     }
 303:Drivers/STM32H5xx_HAL_Driver/Src/stm32h5xx_hal_dma.c ****   }
 304:Drivers/STM32H5xx_HAL_Driver/Src/stm32h5xx_hal_dma.c **** 
 305:Drivers/STM32H5xx_HAL_Driver/Src/stm32h5xx_hal_dma.c ****   /* Initialize the DMA channel registers */
 306:Drivers/STM32H5xx_HAL_Driver/Src/stm32h5xx_hal_dma.c ****   DMA_Init(hdma);
 307:Drivers/STM32H5xx_HAL_Driver/Src/stm32h5xx_hal_dma.c **** 
 308:Drivers/STM32H5xx_HAL_Driver/Src/stm32h5xx_hal_dma.c ****   /* Update DMA channel operation mode */
 309:Drivers/STM32H5xx_HAL_Driver/Src/stm32h5xx_hal_dma.c ****   hdma->Mode = hdma->Init.Mode;
 310:Drivers/STM32H5xx_HAL_Driver/Src/stm32h5xx_hal_dma.c **** 
 311:Drivers/STM32H5xx_HAL_Driver/Src/stm32h5xx_hal_dma.c ****   /* Update the DMA channel error code */
 312:Drivers/STM32H5xx_HAL_Driver/Src/stm32h5xx_hal_dma.c ****   hdma->ErrorCode = HAL_DMA_ERROR_NONE;
 313:Drivers/STM32H5xx_HAL_Driver/Src/stm32h5xx_hal_dma.c **** 
 314:Drivers/STM32H5xx_HAL_Driver/Src/stm32h5xx_hal_dma.c ****   /* Update the DMA channel state */
ARM GAS  /var/folders/l3/rwskfq612tq4b7hmtv37jkjw0000gp/T//ccx7lwMy.s 			page 7


 315:Drivers/STM32H5xx_HAL_Driver/Src/stm32h5xx_hal_dma.c ****   hdma->State = HAL_DMA_STATE_READY;
 316:Drivers/STM32H5xx_HAL_Driver/Src/stm32h5xx_hal_dma.c **** 
 317:Drivers/STM32H5xx_HAL_Driver/Src/stm32h5xx_hal_dma.c ****   return HAL_OK;
 318:Drivers/STM32H5xx_HAL_Driver/Src/stm32h5xx_hal_dma.c **** }
 319:Drivers/STM32H5xx_HAL_Driver/Src/stm32h5xx_hal_dma.c **** 
 320:Drivers/STM32H5xx_HAL_Driver/Src/stm32h5xx_hal_dma.c **** /**
 321:Drivers/STM32H5xx_HAL_Driver/Src/stm32h5xx_hal_dma.c ****   * @brief  DeInitialize the DMA channel when it is configured in normal mode.
 322:Drivers/STM32H5xx_HAL_Driver/Src/stm32h5xx_hal_dma.c ****   * @param  hdma : Pointer to a DMA_HandleTypeDef structure that contains the configuration informa
 323:Drivers/STM32H5xx_HAL_Driver/Src/stm32h5xx_hal_dma.c ****   *                specified DMA Channel.
 324:Drivers/STM32H5xx_HAL_Driver/Src/stm32h5xx_hal_dma.c ****   * @retval HAL status.
 325:Drivers/STM32H5xx_HAL_Driver/Src/stm32h5xx_hal_dma.c ****   */
 326:Drivers/STM32H5xx_HAL_Driver/Src/stm32h5xx_hal_dma.c **** HAL_StatusTypeDef HAL_DMA_DeInit(DMA_HandleTypeDef *const hdma)
 327:Drivers/STM32H5xx_HAL_Driver/Src/stm32h5xx_hal_dma.c **** {
 328:Drivers/STM32H5xx_HAL_Driver/Src/stm32h5xx_hal_dma.c **** 
 329:Drivers/STM32H5xx_HAL_Driver/Src/stm32h5xx_hal_dma.c ****   DMA_TypeDef *p_dma_instance;
 330:Drivers/STM32H5xx_HAL_Driver/Src/stm32h5xx_hal_dma.c **** 
 331:Drivers/STM32H5xx_HAL_Driver/Src/stm32h5xx_hal_dma.c ****   uint32_t tickstart = HAL_GetTick();
 332:Drivers/STM32H5xx_HAL_Driver/Src/stm32h5xx_hal_dma.c **** 
 333:Drivers/STM32H5xx_HAL_Driver/Src/stm32h5xx_hal_dma.c ****   /* Check the DMA peripheral handle parameter */
 334:Drivers/STM32H5xx_HAL_Driver/Src/stm32h5xx_hal_dma.c ****   if (hdma == NULL)
 335:Drivers/STM32H5xx_HAL_Driver/Src/stm32h5xx_hal_dma.c ****   {
 336:Drivers/STM32H5xx_HAL_Driver/Src/stm32h5xx_hal_dma.c ****     return HAL_ERROR;
 337:Drivers/STM32H5xx_HAL_Driver/Src/stm32h5xx_hal_dma.c ****   }
 338:Drivers/STM32H5xx_HAL_Driver/Src/stm32h5xx_hal_dma.c **** 
 339:Drivers/STM32H5xx_HAL_Driver/Src/stm32h5xx_hal_dma.c ****   /* Check the parameters */
 340:Drivers/STM32H5xx_HAL_Driver/Src/stm32h5xx_hal_dma.c ****   assert_param(IS_DMA_ALL_INSTANCE(hdma->Instance));
 341:Drivers/STM32H5xx_HAL_Driver/Src/stm32h5xx_hal_dma.c **** 
 342:Drivers/STM32H5xx_HAL_Driver/Src/stm32h5xx_hal_dma.c ****   /* Get DMA instance */
 343:Drivers/STM32H5xx_HAL_Driver/Src/stm32h5xx_hal_dma.c ****   p_dma_instance = GET_DMA_INSTANCE(hdma);
 344:Drivers/STM32H5xx_HAL_Driver/Src/stm32h5xx_hal_dma.c **** 
 345:Drivers/STM32H5xx_HAL_Driver/Src/stm32h5xx_hal_dma.c ****   /* Disable the selected DMA Channel */
 346:Drivers/STM32H5xx_HAL_Driver/Src/stm32h5xx_hal_dma.c ****   __HAL_DMA_DISABLE(hdma);
 347:Drivers/STM32H5xx_HAL_Driver/Src/stm32h5xx_hal_dma.c **** 
 348:Drivers/STM32H5xx_HAL_Driver/Src/stm32h5xx_hal_dma.c ****   /* Check if the DMA channel is effectively disabled */
 349:Drivers/STM32H5xx_HAL_Driver/Src/stm32h5xx_hal_dma.c ****   while ((hdma->Instance->CCR & DMA_CCR_EN) != 0U)
 350:Drivers/STM32H5xx_HAL_Driver/Src/stm32h5xx_hal_dma.c ****   {
 351:Drivers/STM32H5xx_HAL_Driver/Src/stm32h5xx_hal_dma.c ****     /* Check for the Timeout */
 352:Drivers/STM32H5xx_HAL_Driver/Src/stm32h5xx_hal_dma.c ****     if ((HAL_GetTick() - tickstart) > HAL_TIMEOUT_DMA_ABORT)
 353:Drivers/STM32H5xx_HAL_Driver/Src/stm32h5xx_hal_dma.c ****     {
 354:Drivers/STM32H5xx_HAL_Driver/Src/stm32h5xx_hal_dma.c ****       /* Update the DMA channel error code */
 355:Drivers/STM32H5xx_HAL_Driver/Src/stm32h5xx_hal_dma.c ****       hdma->ErrorCode = HAL_DMA_ERROR_TIMEOUT;
 356:Drivers/STM32H5xx_HAL_Driver/Src/stm32h5xx_hal_dma.c **** 
 357:Drivers/STM32H5xx_HAL_Driver/Src/stm32h5xx_hal_dma.c ****       /* Update the DMA channel state */
 358:Drivers/STM32H5xx_HAL_Driver/Src/stm32h5xx_hal_dma.c ****       hdma->State = HAL_DMA_STATE_ERROR;
 359:Drivers/STM32H5xx_HAL_Driver/Src/stm32h5xx_hal_dma.c **** 
 360:Drivers/STM32H5xx_HAL_Driver/Src/stm32h5xx_hal_dma.c ****       return HAL_ERROR;
 361:Drivers/STM32H5xx_HAL_Driver/Src/stm32h5xx_hal_dma.c ****     }
 362:Drivers/STM32H5xx_HAL_Driver/Src/stm32h5xx_hal_dma.c ****   }
 363:Drivers/STM32H5xx_HAL_Driver/Src/stm32h5xx_hal_dma.c **** 
 364:Drivers/STM32H5xx_HAL_Driver/Src/stm32h5xx_hal_dma.c ****   /* Reset DMA Channel registers */
 365:Drivers/STM32H5xx_HAL_Driver/Src/stm32h5xx_hal_dma.c ****   hdma->Instance->CLBAR = 0U;
 366:Drivers/STM32H5xx_HAL_Driver/Src/stm32h5xx_hal_dma.c ****   hdma->Instance->CCR   = 0U;
 367:Drivers/STM32H5xx_HAL_Driver/Src/stm32h5xx_hal_dma.c ****   hdma->Instance->CTR1  = 0U;
 368:Drivers/STM32H5xx_HAL_Driver/Src/stm32h5xx_hal_dma.c ****   hdma->Instance->CTR2  = 0U;
 369:Drivers/STM32H5xx_HAL_Driver/Src/stm32h5xx_hal_dma.c ****   hdma->Instance->CBR1  = 0U;
 370:Drivers/STM32H5xx_HAL_Driver/Src/stm32h5xx_hal_dma.c ****   hdma->Instance->CSAR  = 0U;
 371:Drivers/STM32H5xx_HAL_Driver/Src/stm32h5xx_hal_dma.c ****   hdma->Instance->CDAR  = 0U;
ARM GAS  /var/folders/l3/rwskfq612tq4b7hmtv37jkjw0000gp/T//ccx7lwMy.s 			page 8


 372:Drivers/STM32H5xx_HAL_Driver/Src/stm32h5xx_hal_dma.c ****   hdma->Instance->CLLR  = 0U;
 373:Drivers/STM32H5xx_HAL_Driver/Src/stm32h5xx_hal_dma.c **** 
 374:Drivers/STM32H5xx_HAL_Driver/Src/stm32h5xx_hal_dma.c ****   /* Reset 2D Addressing registers */
 375:Drivers/STM32H5xx_HAL_Driver/Src/stm32h5xx_hal_dma.c ****   if (IS_DMA_2D_ADDRESSING_INSTANCE(hdma->Instance) != 0U)
 376:Drivers/STM32H5xx_HAL_Driver/Src/stm32h5xx_hal_dma.c ****   {
 377:Drivers/STM32H5xx_HAL_Driver/Src/stm32h5xx_hal_dma.c ****     hdma->Instance->CTR3 = 0U;
 378:Drivers/STM32H5xx_HAL_Driver/Src/stm32h5xx_hal_dma.c ****     hdma->Instance->CBR2 = 0U;
 379:Drivers/STM32H5xx_HAL_Driver/Src/stm32h5xx_hal_dma.c ****   }
 380:Drivers/STM32H5xx_HAL_Driver/Src/stm32h5xx_hal_dma.c **** 
 381:Drivers/STM32H5xx_HAL_Driver/Src/stm32h5xx_hal_dma.c ****   /* Clear privilege attribute */
 382:Drivers/STM32H5xx_HAL_Driver/Src/stm32h5xx_hal_dma.c ****   CLEAR_BIT(p_dma_instance->PRIVCFGR, (1UL << (GET_DMA_CHANNEL(hdma) & 0x1FU)));
 383:Drivers/STM32H5xx_HAL_Driver/Src/stm32h5xx_hal_dma.c **** 
 384:Drivers/STM32H5xx_HAL_Driver/Src/stm32h5xx_hal_dma.c **** #if defined (__ARM_FEATURE_CMSE) && (__ARM_FEATURE_CMSE == 3U)
 385:Drivers/STM32H5xx_HAL_Driver/Src/stm32h5xx_hal_dma.c ****   /* Clear secure attribute */
 386:Drivers/STM32H5xx_HAL_Driver/Src/stm32h5xx_hal_dma.c ****   CLEAR_BIT(p_dma_instance->SECCFGR, (1UL << (GET_DMA_CHANNEL(hdma) & 0x1FU)));
 387:Drivers/STM32H5xx_HAL_Driver/Src/stm32h5xx_hal_dma.c **** #endif /* (__ARM_FEATURE_CMSE) && (__ARM_FEATURE_CMSE == 3U) */
 388:Drivers/STM32H5xx_HAL_Driver/Src/stm32h5xx_hal_dma.c **** 
 389:Drivers/STM32H5xx_HAL_Driver/Src/stm32h5xx_hal_dma.c ****   /* Clear all flags */
 390:Drivers/STM32H5xx_HAL_Driver/Src/stm32h5xx_hal_dma.c ****   __HAL_DMA_CLEAR_FLAG(hdma, (DMA_FLAG_TC | DMA_FLAG_HT | DMA_FLAG_DTE | DMA_FLAG_ULE | DMA_FLAG_US
 391:Drivers/STM32H5xx_HAL_Driver/Src/stm32h5xx_hal_dma.c ****                               DMA_FLAG_TO));
 392:Drivers/STM32H5xx_HAL_Driver/Src/stm32h5xx_hal_dma.c **** 
 393:Drivers/STM32H5xx_HAL_Driver/Src/stm32h5xx_hal_dma.c ****   /* Clean all callbacks */
 394:Drivers/STM32H5xx_HAL_Driver/Src/stm32h5xx_hal_dma.c ****   hdma->XferCpltCallback     = NULL;
 395:Drivers/STM32H5xx_HAL_Driver/Src/stm32h5xx_hal_dma.c ****   hdma->XferHalfCpltCallback = NULL;
 396:Drivers/STM32H5xx_HAL_Driver/Src/stm32h5xx_hal_dma.c ****   hdma->XferErrorCallback    = NULL;
 397:Drivers/STM32H5xx_HAL_Driver/Src/stm32h5xx_hal_dma.c ****   hdma->XferAbortCallback    = NULL;
 398:Drivers/STM32H5xx_HAL_Driver/Src/stm32h5xx_hal_dma.c ****   hdma->XferSuspendCallback  = NULL;
 399:Drivers/STM32H5xx_HAL_Driver/Src/stm32h5xx_hal_dma.c **** 
 400:Drivers/STM32H5xx_HAL_Driver/Src/stm32h5xx_hal_dma.c ****   /* Clean DMA queue */
 401:Drivers/STM32H5xx_HAL_Driver/Src/stm32h5xx_hal_dma.c ****   hdma->LinkedListQueue = NULL;
 402:Drivers/STM32H5xx_HAL_Driver/Src/stm32h5xx_hal_dma.c **** 
 403:Drivers/STM32H5xx_HAL_Driver/Src/stm32h5xx_hal_dma.c ****   /* Clean DMA parent */
 404:Drivers/STM32H5xx_HAL_Driver/Src/stm32h5xx_hal_dma.c ****   if (hdma->Parent != NULL)
 405:Drivers/STM32H5xx_HAL_Driver/Src/stm32h5xx_hal_dma.c ****   {
 406:Drivers/STM32H5xx_HAL_Driver/Src/stm32h5xx_hal_dma.c ****     hdma->Parent = NULL;
 407:Drivers/STM32H5xx_HAL_Driver/Src/stm32h5xx_hal_dma.c ****   }
 408:Drivers/STM32H5xx_HAL_Driver/Src/stm32h5xx_hal_dma.c **** 
 409:Drivers/STM32H5xx_HAL_Driver/Src/stm32h5xx_hal_dma.c ****   /* Update DMA channel operation mode */
 410:Drivers/STM32H5xx_HAL_Driver/Src/stm32h5xx_hal_dma.c ****   hdma->Mode = DMA_NORMAL;
 411:Drivers/STM32H5xx_HAL_Driver/Src/stm32h5xx_hal_dma.c **** 
 412:Drivers/STM32H5xx_HAL_Driver/Src/stm32h5xx_hal_dma.c ****   /* Update the DMA channel error code */
 413:Drivers/STM32H5xx_HAL_Driver/Src/stm32h5xx_hal_dma.c ****   hdma->ErrorCode = HAL_DMA_ERROR_NONE;
 414:Drivers/STM32H5xx_HAL_Driver/Src/stm32h5xx_hal_dma.c **** 
 415:Drivers/STM32H5xx_HAL_Driver/Src/stm32h5xx_hal_dma.c ****   /* Update the DMA channel state */
 416:Drivers/STM32H5xx_HAL_Driver/Src/stm32h5xx_hal_dma.c ****   hdma->State = HAL_DMA_STATE_RESET;
 417:Drivers/STM32H5xx_HAL_Driver/Src/stm32h5xx_hal_dma.c **** 
 418:Drivers/STM32H5xx_HAL_Driver/Src/stm32h5xx_hal_dma.c ****   /* Release Lock */
 419:Drivers/STM32H5xx_HAL_Driver/Src/stm32h5xx_hal_dma.c ****   __HAL_UNLOCK(hdma);
 420:Drivers/STM32H5xx_HAL_Driver/Src/stm32h5xx_hal_dma.c **** 
 421:Drivers/STM32H5xx_HAL_Driver/Src/stm32h5xx_hal_dma.c ****   return HAL_OK;
 422:Drivers/STM32H5xx_HAL_Driver/Src/stm32h5xx_hal_dma.c **** }
 423:Drivers/STM32H5xx_HAL_Driver/Src/stm32h5xx_hal_dma.c **** /**
 424:Drivers/STM32H5xx_HAL_Driver/Src/stm32h5xx_hal_dma.c ****   * @}
 425:Drivers/STM32H5xx_HAL_Driver/Src/stm32h5xx_hal_dma.c ****   */
 426:Drivers/STM32H5xx_HAL_Driver/Src/stm32h5xx_hal_dma.c **** 
 427:Drivers/STM32H5xx_HAL_Driver/Src/stm32h5xx_hal_dma.c **** /** @addtogroup DMA_Exported_Functions_Group2
 428:Drivers/STM32H5xx_HAL_Driver/Src/stm32h5xx_hal_dma.c ****   *
ARM GAS  /var/folders/l3/rwskfq612tq4b7hmtv37jkjw0000gp/T//ccx7lwMy.s 			page 9


 429:Drivers/STM32H5xx_HAL_Driver/Src/stm32h5xx_hal_dma.c **** @verbatim
 430:Drivers/STM32H5xx_HAL_Driver/Src/stm32h5xx_hal_dma.c ****   =================================================================================================
 431:Drivers/STM32H5xx_HAL_Driver/Src/stm32h5xx_hal_dma.c ****                                 ##### IO operation functions #####
 432:Drivers/STM32H5xx_HAL_Driver/Src/stm32h5xx_hal_dma.c ****   =================================================================================================
 433:Drivers/STM32H5xx_HAL_Driver/Src/stm32h5xx_hal_dma.c ****     [..]
 434:Drivers/STM32H5xx_HAL_Driver/Src/stm32h5xx_hal_dma.c ****       This section provides functions allowing to :
 435:Drivers/STM32H5xx_HAL_Driver/Src/stm32h5xx_hal_dma.c ****       (+) Configure the source, destination address and data size and Start DMA transfer in normal 
 436:Drivers/STM32H5xx_HAL_Driver/Src/stm32h5xx_hal_dma.c ****       (+) Abort DMA transfer
 437:Drivers/STM32H5xx_HAL_Driver/Src/stm32h5xx_hal_dma.c ****       (+) Poll for transfer complete
 438:Drivers/STM32H5xx_HAL_Driver/Src/stm32h5xx_hal_dma.c ****       (+) Handle DMA interrupt request
 439:Drivers/STM32H5xx_HAL_Driver/Src/stm32h5xx_hal_dma.c ****       (+) Register and Unregister DMA callbacks
 440:Drivers/STM32H5xx_HAL_Driver/Src/stm32h5xx_hal_dma.c **** 
 441:Drivers/STM32H5xx_HAL_Driver/Src/stm32h5xx_hal_dma.c ****     [..]
 442:Drivers/STM32H5xx_HAL_Driver/Src/stm32h5xx_hal_dma.c ****       (+) The HAL_DMA_Start() function allows to start the DMA channel transfer in normal mode (Blo
 443:Drivers/STM32H5xx_HAL_Driver/Src/stm32h5xx_hal_dma.c ****       (+) The HAL_DMA_Start_IT() function allows to start the DMA channel transfer in normal mode (
 444:Drivers/STM32H5xx_HAL_Driver/Src/stm32h5xx_hal_dma.c ****       (+) The HAL_DMA_Abort() function allows to abort any on-going transfer (Blocking mode).
 445:Drivers/STM32H5xx_HAL_Driver/Src/stm32h5xx_hal_dma.c ****       (+) The HAL_DMA_Abort_IT() function allows to abort any on-going transfer (Non-blocking mode)
 446:Drivers/STM32H5xx_HAL_Driver/Src/stm32h5xx_hal_dma.c ****       (+) The HAL_DMA_PollForTransfer() function allows to poll on half transfer and transfer compl
 447:Drivers/STM32H5xx_HAL_Driver/Src/stm32h5xx_hal_dma.c ****           This API cannot be used for circular transfers.
 448:Drivers/STM32H5xx_HAL_Driver/Src/stm32h5xx_hal_dma.c ****       (+) The HAL_DMA_IRQHandler() function allows to handle any DMA channel interrupt (Non-blockin
 449:Drivers/STM32H5xx_HAL_Driver/Src/stm32h5xx_hal_dma.c ****       (+) The HAL_DMA_RegisterCallback() and HAL_DMA_UnRegisterCallback() functions allow respectiv
 450:Drivers/STM32H5xx_HAL_Driver/Src/stm32h5xx_hal_dma.c ****           unregister user customized callbacks.
 451:Drivers/STM32H5xx_HAL_Driver/Src/stm32h5xx_hal_dma.c ****           User callbacks are called under HAL_DMA_IRQHandler().
 452:Drivers/STM32H5xx_HAL_Driver/Src/stm32h5xx_hal_dma.c **** 
 453:Drivers/STM32H5xx_HAL_Driver/Src/stm32h5xx_hal_dma.c **** @endverbatim
 454:Drivers/STM32H5xx_HAL_Driver/Src/stm32h5xx_hal_dma.c ****   * @{
 455:Drivers/STM32H5xx_HAL_Driver/Src/stm32h5xx_hal_dma.c ****   */
 456:Drivers/STM32H5xx_HAL_Driver/Src/stm32h5xx_hal_dma.c **** 
 457:Drivers/STM32H5xx_HAL_Driver/Src/stm32h5xx_hal_dma.c **** /**
 458:Drivers/STM32H5xx_HAL_Driver/Src/stm32h5xx_hal_dma.c ****   * @brief  Start the DMA channel transfer in normal mode (Blocking mode).
 459:Drivers/STM32H5xx_HAL_Driver/Src/stm32h5xx_hal_dma.c ****   * @param  hdma        : Pointer to a DMA_HandleTypeDef structure that contains the configuration 
 460:Drivers/STM32H5xx_HAL_Driver/Src/stm32h5xx_hal_dma.c ****   *                       the specified DMA Channel.
 461:Drivers/STM32H5xx_HAL_Driver/Src/stm32h5xx_hal_dma.c ****   * @param  SrcAddress  : The source data address.
 462:Drivers/STM32H5xx_HAL_Driver/Src/stm32h5xx_hal_dma.c ****   * @param  DstAddress  : The destination data address.
 463:Drivers/STM32H5xx_HAL_Driver/Src/stm32h5xx_hal_dma.c ****   * @param  SrcDataSize : The length of data to be transferred from source to destination in bytes.
 464:Drivers/STM32H5xx_HAL_Driver/Src/stm32h5xx_hal_dma.c ****   * @retval HAL status.
 465:Drivers/STM32H5xx_HAL_Driver/Src/stm32h5xx_hal_dma.c ****   */
 466:Drivers/STM32H5xx_HAL_Driver/Src/stm32h5xx_hal_dma.c **** HAL_StatusTypeDef HAL_DMA_Start(DMA_HandleTypeDef *const hdma,
 467:Drivers/STM32H5xx_HAL_Driver/Src/stm32h5xx_hal_dma.c ****                                 uint32_t SrcAddress,
 468:Drivers/STM32H5xx_HAL_Driver/Src/stm32h5xx_hal_dma.c ****                                 uint32_t DstAddress,
 469:Drivers/STM32H5xx_HAL_Driver/Src/stm32h5xx_hal_dma.c ****                                 uint32_t SrcDataSize)
 470:Drivers/STM32H5xx_HAL_Driver/Src/stm32h5xx_hal_dma.c **** {
 471:Drivers/STM32H5xx_HAL_Driver/Src/stm32h5xx_hal_dma.c ****   /* Check the DMA peripheral handle parameter */
 472:Drivers/STM32H5xx_HAL_Driver/Src/stm32h5xx_hal_dma.c ****   if (hdma == NULL)
 473:Drivers/STM32H5xx_HAL_Driver/Src/stm32h5xx_hal_dma.c ****   {
 474:Drivers/STM32H5xx_HAL_Driver/Src/stm32h5xx_hal_dma.c ****     return HAL_ERROR;
 475:Drivers/STM32H5xx_HAL_Driver/Src/stm32h5xx_hal_dma.c ****   }
 476:Drivers/STM32H5xx_HAL_Driver/Src/stm32h5xx_hal_dma.c **** 
 477:Drivers/STM32H5xx_HAL_Driver/Src/stm32h5xx_hal_dma.c ****   /* Check the parameters */
 478:Drivers/STM32H5xx_HAL_Driver/Src/stm32h5xx_hal_dma.c ****   assert_param(IS_DMA_BLOCK_SIZE(SrcDataSize));
 479:Drivers/STM32H5xx_HAL_Driver/Src/stm32h5xx_hal_dma.c **** 
 480:Drivers/STM32H5xx_HAL_Driver/Src/stm32h5xx_hal_dma.c ****   /* Process locked */
 481:Drivers/STM32H5xx_HAL_Driver/Src/stm32h5xx_hal_dma.c ****   __HAL_LOCK(hdma);
 482:Drivers/STM32H5xx_HAL_Driver/Src/stm32h5xx_hal_dma.c **** 
 483:Drivers/STM32H5xx_HAL_Driver/Src/stm32h5xx_hal_dma.c ****   /* Check DMA channel state */
 484:Drivers/STM32H5xx_HAL_Driver/Src/stm32h5xx_hal_dma.c ****   if (hdma->State == HAL_DMA_STATE_READY)
 485:Drivers/STM32H5xx_HAL_Driver/Src/stm32h5xx_hal_dma.c ****   {
ARM GAS  /var/folders/l3/rwskfq612tq4b7hmtv37jkjw0000gp/T//ccx7lwMy.s 			page 10


 486:Drivers/STM32H5xx_HAL_Driver/Src/stm32h5xx_hal_dma.c ****     /* Update the DMA channel state */
 487:Drivers/STM32H5xx_HAL_Driver/Src/stm32h5xx_hal_dma.c ****     hdma->State = HAL_DMA_STATE_BUSY;
 488:Drivers/STM32H5xx_HAL_Driver/Src/stm32h5xx_hal_dma.c **** 
 489:Drivers/STM32H5xx_HAL_Driver/Src/stm32h5xx_hal_dma.c ****     /* Update the DMA channel error code */
 490:Drivers/STM32H5xx_HAL_Driver/Src/stm32h5xx_hal_dma.c ****     hdma->ErrorCode = HAL_DMA_ERROR_NONE;
 491:Drivers/STM32H5xx_HAL_Driver/Src/stm32h5xx_hal_dma.c **** 
 492:Drivers/STM32H5xx_HAL_Driver/Src/stm32h5xx_hal_dma.c ****     /* Configure the source address, destination address, the data size and clear flags */
 493:Drivers/STM32H5xx_HAL_Driver/Src/stm32h5xx_hal_dma.c ****     DMA_SetConfig(hdma, SrcAddress, DstAddress, SrcDataSize);
 494:Drivers/STM32H5xx_HAL_Driver/Src/stm32h5xx_hal_dma.c **** 
 495:Drivers/STM32H5xx_HAL_Driver/Src/stm32h5xx_hal_dma.c ****     /* Enable DMA channel */
 496:Drivers/STM32H5xx_HAL_Driver/Src/stm32h5xx_hal_dma.c ****     __HAL_DMA_ENABLE(hdma);
 497:Drivers/STM32H5xx_HAL_Driver/Src/stm32h5xx_hal_dma.c ****   }
 498:Drivers/STM32H5xx_HAL_Driver/Src/stm32h5xx_hal_dma.c ****   else
 499:Drivers/STM32H5xx_HAL_Driver/Src/stm32h5xx_hal_dma.c ****   {
 500:Drivers/STM32H5xx_HAL_Driver/Src/stm32h5xx_hal_dma.c ****     /* Update the DMA channel error code */
 501:Drivers/STM32H5xx_HAL_Driver/Src/stm32h5xx_hal_dma.c ****     hdma->ErrorCode = HAL_DMA_ERROR_BUSY;
 502:Drivers/STM32H5xx_HAL_Driver/Src/stm32h5xx_hal_dma.c **** 
 503:Drivers/STM32H5xx_HAL_Driver/Src/stm32h5xx_hal_dma.c ****     /* Process unlocked */
 504:Drivers/STM32H5xx_HAL_Driver/Src/stm32h5xx_hal_dma.c ****     __HAL_UNLOCK(hdma);
 505:Drivers/STM32H5xx_HAL_Driver/Src/stm32h5xx_hal_dma.c **** 
 506:Drivers/STM32H5xx_HAL_Driver/Src/stm32h5xx_hal_dma.c ****     return HAL_ERROR;
 507:Drivers/STM32H5xx_HAL_Driver/Src/stm32h5xx_hal_dma.c ****   }
 508:Drivers/STM32H5xx_HAL_Driver/Src/stm32h5xx_hal_dma.c **** 
 509:Drivers/STM32H5xx_HAL_Driver/Src/stm32h5xx_hal_dma.c ****   return HAL_OK;
 510:Drivers/STM32H5xx_HAL_Driver/Src/stm32h5xx_hal_dma.c **** }
 511:Drivers/STM32H5xx_HAL_Driver/Src/stm32h5xx_hal_dma.c **** 
 512:Drivers/STM32H5xx_HAL_Driver/Src/stm32h5xx_hal_dma.c **** /**
 513:Drivers/STM32H5xx_HAL_Driver/Src/stm32h5xx_hal_dma.c ****   * @brief  Starts the DMA channel transfer in normal mode with interrupts enabled (Non-blocking mo
 514:Drivers/STM32H5xx_HAL_Driver/Src/stm32h5xx_hal_dma.c ****   * @param  hdma         : Pointer to a DMA_HandleTypeDef structure that contains the configuration
 515:Drivers/STM32H5xx_HAL_Driver/Src/stm32h5xx_hal_dma.c ****   *                        specified DMA Channel.
 516:Drivers/STM32H5xx_HAL_Driver/Src/stm32h5xx_hal_dma.c ****   * @param  SrcAddress   : The source data address.
 517:Drivers/STM32H5xx_HAL_Driver/Src/stm32h5xx_hal_dma.c ****   * @param  DstAddress   : The destination data address.
 518:Drivers/STM32H5xx_HAL_Driver/Src/stm32h5xx_hal_dma.c ****   * @param  SrcDataSize  : The length of data to be transferred from source to destination in bytes
 519:Drivers/STM32H5xx_HAL_Driver/Src/stm32h5xx_hal_dma.c ****   * @retval HAL status.
 520:Drivers/STM32H5xx_HAL_Driver/Src/stm32h5xx_hal_dma.c ****   */
 521:Drivers/STM32H5xx_HAL_Driver/Src/stm32h5xx_hal_dma.c **** HAL_StatusTypeDef HAL_DMA_Start_IT(DMA_HandleTypeDef *const hdma,
 522:Drivers/STM32H5xx_HAL_Driver/Src/stm32h5xx_hal_dma.c ****                                    uint32_t SrcAddress,
 523:Drivers/STM32H5xx_HAL_Driver/Src/stm32h5xx_hal_dma.c ****                                    uint32_t DstAddress,
 524:Drivers/STM32H5xx_HAL_Driver/Src/stm32h5xx_hal_dma.c ****                                    uint32_t SrcDataSize)
 525:Drivers/STM32H5xx_HAL_Driver/Src/stm32h5xx_hal_dma.c **** {
 526:Drivers/STM32H5xx_HAL_Driver/Src/stm32h5xx_hal_dma.c ****   /* Check the DMA peripheral handle parameter */
 527:Drivers/STM32H5xx_HAL_Driver/Src/stm32h5xx_hal_dma.c ****   if (hdma == NULL)
 528:Drivers/STM32H5xx_HAL_Driver/Src/stm32h5xx_hal_dma.c ****   {
 529:Drivers/STM32H5xx_HAL_Driver/Src/stm32h5xx_hal_dma.c ****     return HAL_ERROR;
 530:Drivers/STM32H5xx_HAL_Driver/Src/stm32h5xx_hal_dma.c ****   }
 531:Drivers/STM32H5xx_HAL_Driver/Src/stm32h5xx_hal_dma.c **** 
 532:Drivers/STM32H5xx_HAL_Driver/Src/stm32h5xx_hal_dma.c ****   /* Check the parameters */
 533:Drivers/STM32H5xx_HAL_Driver/Src/stm32h5xx_hal_dma.c ****   assert_param(IS_DMA_BLOCK_SIZE(SrcDataSize));
 534:Drivers/STM32H5xx_HAL_Driver/Src/stm32h5xx_hal_dma.c **** 
 535:Drivers/STM32H5xx_HAL_Driver/Src/stm32h5xx_hal_dma.c ****   /* Process locked */
 536:Drivers/STM32H5xx_HAL_Driver/Src/stm32h5xx_hal_dma.c ****   __HAL_LOCK(hdma);
 537:Drivers/STM32H5xx_HAL_Driver/Src/stm32h5xx_hal_dma.c **** 
 538:Drivers/STM32H5xx_HAL_Driver/Src/stm32h5xx_hal_dma.c ****   /* Check DMA channel state */
 539:Drivers/STM32H5xx_HAL_Driver/Src/stm32h5xx_hal_dma.c ****   if (hdma->State == HAL_DMA_STATE_READY)
 540:Drivers/STM32H5xx_HAL_Driver/Src/stm32h5xx_hal_dma.c ****   {
 541:Drivers/STM32H5xx_HAL_Driver/Src/stm32h5xx_hal_dma.c ****     /* Update the DMA channel state */
 542:Drivers/STM32H5xx_HAL_Driver/Src/stm32h5xx_hal_dma.c ****     hdma->State = HAL_DMA_STATE_BUSY;
ARM GAS  /var/folders/l3/rwskfq612tq4b7hmtv37jkjw0000gp/T//ccx7lwMy.s 			page 11


 543:Drivers/STM32H5xx_HAL_Driver/Src/stm32h5xx_hal_dma.c **** 
 544:Drivers/STM32H5xx_HAL_Driver/Src/stm32h5xx_hal_dma.c ****     /* Update the DMA channel error code */
 545:Drivers/STM32H5xx_HAL_Driver/Src/stm32h5xx_hal_dma.c ****     hdma->ErrorCode = HAL_DMA_ERROR_NONE;
 546:Drivers/STM32H5xx_HAL_Driver/Src/stm32h5xx_hal_dma.c **** 
 547:Drivers/STM32H5xx_HAL_Driver/Src/stm32h5xx_hal_dma.c ****     /* Configure the source address, destination address, the data size and clear flags */
 548:Drivers/STM32H5xx_HAL_Driver/Src/stm32h5xx_hal_dma.c ****     DMA_SetConfig(hdma, SrcAddress, DstAddress, SrcDataSize);
 549:Drivers/STM32H5xx_HAL_Driver/Src/stm32h5xx_hal_dma.c **** 
 550:Drivers/STM32H5xx_HAL_Driver/Src/stm32h5xx_hal_dma.c ****     /* Enable common interrupts: Transfer Complete and Transfer Errors ITs */
 551:Drivers/STM32H5xx_HAL_Driver/Src/stm32h5xx_hal_dma.c ****     __HAL_DMA_ENABLE_IT(hdma, (DMA_IT_TC | DMA_IT_DTE | DMA_IT_ULE | DMA_IT_USE | DMA_IT_TO));
 552:Drivers/STM32H5xx_HAL_Driver/Src/stm32h5xx_hal_dma.c **** 
 553:Drivers/STM32H5xx_HAL_Driver/Src/stm32h5xx_hal_dma.c ****     /* Check half transfer complete callback */
 554:Drivers/STM32H5xx_HAL_Driver/Src/stm32h5xx_hal_dma.c ****     if (hdma->XferHalfCpltCallback != NULL)
 555:Drivers/STM32H5xx_HAL_Driver/Src/stm32h5xx_hal_dma.c ****     {
 556:Drivers/STM32H5xx_HAL_Driver/Src/stm32h5xx_hal_dma.c ****       /* If Half Transfer complete callback is set, enable the corresponding IT */
 557:Drivers/STM32H5xx_HAL_Driver/Src/stm32h5xx_hal_dma.c ****       __HAL_DMA_ENABLE_IT(hdma, DMA_IT_HT);
 558:Drivers/STM32H5xx_HAL_Driver/Src/stm32h5xx_hal_dma.c ****     }
 559:Drivers/STM32H5xx_HAL_Driver/Src/stm32h5xx_hal_dma.c **** 
 560:Drivers/STM32H5xx_HAL_Driver/Src/stm32h5xx_hal_dma.c ****     /* Check Half suspend callback */
 561:Drivers/STM32H5xx_HAL_Driver/Src/stm32h5xx_hal_dma.c ****     if (hdma->XferSuspendCallback != NULL)
 562:Drivers/STM32H5xx_HAL_Driver/Src/stm32h5xx_hal_dma.c ****     {
 563:Drivers/STM32H5xx_HAL_Driver/Src/stm32h5xx_hal_dma.c ****       /* If Transfer suspend callback is set, enable the corresponding IT */
 564:Drivers/STM32H5xx_HAL_Driver/Src/stm32h5xx_hal_dma.c ****       __HAL_DMA_ENABLE_IT(hdma, DMA_IT_SUSP);
 565:Drivers/STM32H5xx_HAL_Driver/Src/stm32h5xx_hal_dma.c ****     }
 566:Drivers/STM32H5xx_HAL_Driver/Src/stm32h5xx_hal_dma.c **** 
 567:Drivers/STM32H5xx_HAL_Driver/Src/stm32h5xx_hal_dma.c ****     /* Enable DMA channel */
 568:Drivers/STM32H5xx_HAL_Driver/Src/stm32h5xx_hal_dma.c ****     __HAL_DMA_ENABLE(hdma);
 569:Drivers/STM32H5xx_HAL_Driver/Src/stm32h5xx_hal_dma.c ****   }
 570:Drivers/STM32H5xx_HAL_Driver/Src/stm32h5xx_hal_dma.c ****   else
 571:Drivers/STM32H5xx_HAL_Driver/Src/stm32h5xx_hal_dma.c ****   {
 572:Drivers/STM32H5xx_HAL_Driver/Src/stm32h5xx_hal_dma.c ****     /* Update the DMA channel error code */
 573:Drivers/STM32H5xx_HAL_Driver/Src/stm32h5xx_hal_dma.c ****     hdma->ErrorCode = HAL_DMA_ERROR_BUSY;
 574:Drivers/STM32H5xx_HAL_Driver/Src/stm32h5xx_hal_dma.c **** 
 575:Drivers/STM32H5xx_HAL_Driver/Src/stm32h5xx_hal_dma.c ****     /* Process unlocked */
 576:Drivers/STM32H5xx_HAL_Driver/Src/stm32h5xx_hal_dma.c ****     __HAL_UNLOCK(hdma);
 577:Drivers/STM32H5xx_HAL_Driver/Src/stm32h5xx_hal_dma.c **** 
 578:Drivers/STM32H5xx_HAL_Driver/Src/stm32h5xx_hal_dma.c ****     return HAL_ERROR;
 579:Drivers/STM32H5xx_HAL_Driver/Src/stm32h5xx_hal_dma.c ****   }
 580:Drivers/STM32H5xx_HAL_Driver/Src/stm32h5xx_hal_dma.c **** 
 581:Drivers/STM32H5xx_HAL_Driver/Src/stm32h5xx_hal_dma.c ****   return HAL_OK;
 582:Drivers/STM32H5xx_HAL_Driver/Src/stm32h5xx_hal_dma.c **** }
 583:Drivers/STM32H5xx_HAL_Driver/Src/stm32h5xx_hal_dma.c **** 
 584:Drivers/STM32H5xx_HAL_Driver/Src/stm32h5xx_hal_dma.c **** /**
 585:Drivers/STM32H5xx_HAL_Driver/Src/stm32h5xx_hal_dma.c ****   * @brief  Abort any on-going DMA channel transfer (Blocking mode).
 586:Drivers/STM32H5xx_HAL_Driver/Src/stm32h5xx_hal_dma.c ****   * @param  hdma : Pointer to a DMA_HandleTypeDef structure that contains the configuration informa
 587:Drivers/STM32H5xx_HAL_Driver/Src/stm32h5xx_hal_dma.c ****   *                specified DMA Channel.
 588:Drivers/STM32H5xx_HAL_Driver/Src/stm32h5xx_hal_dma.c ****   * @note   After suspending a DMA channel, a wait until the DMA channel is effectively stopped is 
 589:Drivers/STM32H5xx_HAL_Driver/Src/stm32h5xx_hal_dma.c ****   *         is suspended while a data transfer is on-going, the current data will be transferred an
 590:Drivers/STM32H5xx_HAL_Driver/Src/stm32h5xx_hal_dma.c ****   *         effectively suspended only after the transfer of any on-going data is finished.
 591:Drivers/STM32H5xx_HAL_Driver/Src/stm32h5xx_hal_dma.c ****   * @retval HAL status.
 592:Drivers/STM32H5xx_HAL_Driver/Src/stm32h5xx_hal_dma.c ****   */
 593:Drivers/STM32H5xx_HAL_Driver/Src/stm32h5xx_hal_dma.c **** HAL_StatusTypeDef HAL_DMA_Abort(DMA_HandleTypeDef *const hdma)
 594:Drivers/STM32H5xx_HAL_Driver/Src/stm32h5xx_hal_dma.c **** {
 595:Drivers/STM32H5xx_HAL_Driver/Src/stm32h5xx_hal_dma.c ****   /* Get tick number */
 596:Drivers/STM32H5xx_HAL_Driver/Src/stm32h5xx_hal_dma.c ****   uint32_t tickstart =  HAL_GetTick();
 597:Drivers/STM32H5xx_HAL_Driver/Src/stm32h5xx_hal_dma.c **** 
 598:Drivers/STM32H5xx_HAL_Driver/Src/stm32h5xx_hal_dma.c ****   /* Check the DMA peripheral handle parameter */
 599:Drivers/STM32H5xx_HAL_Driver/Src/stm32h5xx_hal_dma.c ****   if (hdma == NULL)
ARM GAS  /var/folders/l3/rwskfq612tq4b7hmtv37jkjw0000gp/T//ccx7lwMy.s 			page 12


 600:Drivers/STM32H5xx_HAL_Driver/Src/stm32h5xx_hal_dma.c ****   {
 601:Drivers/STM32H5xx_HAL_Driver/Src/stm32h5xx_hal_dma.c ****     return HAL_ERROR;
 602:Drivers/STM32H5xx_HAL_Driver/Src/stm32h5xx_hal_dma.c ****   }
 603:Drivers/STM32H5xx_HAL_Driver/Src/stm32h5xx_hal_dma.c **** 
 604:Drivers/STM32H5xx_HAL_Driver/Src/stm32h5xx_hal_dma.c ****   /* Check DMA channel state */
 605:Drivers/STM32H5xx_HAL_Driver/Src/stm32h5xx_hal_dma.c ****   if (hdma->State != HAL_DMA_STATE_BUSY)
 606:Drivers/STM32H5xx_HAL_Driver/Src/stm32h5xx_hal_dma.c ****   {
 607:Drivers/STM32H5xx_HAL_Driver/Src/stm32h5xx_hal_dma.c ****     /* Update the DMA channel error code */
 608:Drivers/STM32H5xx_HAL_Driver/Src/stm32h5xx_hal_dma.c ****     hdma->ErrorCode = HAL_DMA_ERROR_NO_XFER;
 609:Drivers/STM32H5xx_HAL_Driver/Src/stm32h5xx_hal_dma.c **** 
 610:Drivers/STM32H5xx_HAL_Driver/Src/stm32h5xx_hal_dma.c ****     /* Process Unlocked */
 611:Drivers/STM32H5xx_HAL_Driver/Src/stm32h5xx_hal_dma.c ****     __HAL_UNLOCK(hdma);
 612:Drivers/STM32H5xx_HAL_Driver/Src/stm32h5xx_hal_dma.c **** 
 613:Drivers/STM32H5xx_HAL_Driver/Src/stm32h5xx_hal_dma.c ****     return HAL_ERROR;
 614:Drivers/STM32H5xx_HAL_Driver/Src/stm32h5xx_hal_dma.c ****   }
 615:Drivers/STM32H5xx_HAL_Driver/Src/stm32h5xx_hal_dma.c ****   else
 616:Drivers/STM32H5xx_HAL_Driver/Src/stm32h5xx_hal_dma.c ****   {
 617:Drivers/STM32H5xx_HAL_Driver/Src/stm32h5xx_hal_dma.c ****     /* Suspend the channel */
 618:Drivers/STM32H5xx_HAL_Driver/Src/stm32h5xx_hal_dma.c ****     hdma->Instance->CCR |= DMA_CCR_SUSP;
 619:Drivers/STM32H5xx_HAL_Driver/Src/stm32h5xx_hal_dma.c **** 
 620:Drivers/STM32H5xx_HAL_Driver/Src/stm32h5xx_hal_dma.c ****     /* Update the DMA channel state */
 621:Drivers/STM32H5xx_HAL_Driver/Src/stm32h5xx_hal_dma.c ****     hdma->State = HAL_DMA_STATE_SUSPEND;
 622:Drivers/STM32H5xx_HAL_Driver/Src/stm32h5xx_hal_dma.c **** 
 623:Drivers/STM32H5xx_HAL_Driver/Src/stm32h5xx_hal_dma.c ****     /* Check if the DMA Channel is suspended */
 624:Drivers/STM32H5xx_HAL_Driver/Src/stm32h5xx_hal_dma.c ****     while ((hdma->Instance->CSR & DMA_CSR_SUSPF) == 0U)
 625:Drivers/STM32H5xx_HAL_Driver/Src/stm32h5xx_hal_dma.c ****     {
 626:Drivers/STM32H5xx_HAL_Driver/Src/stm32h5xx_hal_dma.c ****       /* Check for the Timeout */
 627:Drivers/STM32H5xx_HAL_Driver/Src/stm32h5xx_hal_dma.c ****       if ((HAL_GetTick() - tickstart) > HAL_TIMEOUT_DMA_ABORT)
 628:Drivers/STM32H5xx_HAL_Driver/Src/stm32h5xx_hal_dma.c ****       {
 629:Drivers/STM32H5xx_HAL_Driver/Src/stm32h5xx_hal_dma.c ****         /* Update the DMA channel error code */
 630:Drivers/STM32H5xx_HAL_Driver/Src/stm32h5xx_hal_dma.c ****         hdma->ErrorCode |= HAL_DMA_ERROR_TIMEOUT;
 631:Drivers/STM32H5xx_HAL_Driver/Src/stm32h5xx_hal_dma.c **** 
 632:Drivers/STM32H5xx_HAL_Driver/Src/stm32h5xx_hal_dma.c ****         /* Update the DMA channel state */
 633:Drivers/STM32H5xx_HAL_Driver/Src/stm32h5xx_hal_dma.c ****         hdma->State = HAL_DMA_STATE_ERROR;
 634:Drivers/STM32H5xx_HAL_Driver/Src/stm32h5xx_hal_dma.c **** 
 635:Drivers/STM32H5xx_HAL_Driver/Src/stm32h5xx_hal_dma.c ****         /* Check DMA channel transfer mode */
 636:Drivers/STM32H5xx_HAL_Driver/Src/stm32h5xx_hal_dma.c ****         if ((hdma->Mode & DMA_LINKEDLIST) == DMA_LINKEDLIST)
 637:Drivers/STM32H5xx_HAL_Driver/Src/stm32h5xx_hal_dma.c ****         {
 638:Drivers/STM32H5xx_HAL_Driver/Src/stm32h5xx_hal_dma.c ****           /* Update the linked-list queue state */
 639:Drivers/STM32H5xx_HAL_Driver/Src/stm32h5xx_hal_dma.c ****           hdma->LinkedListQueue->State = HAL_DMA_QUEUE_STATE_READY;
 640:Drivers/STM32H5xx_HAL_Driver/Src/stm32h5xx_hal_dma.c ****         }
 641:Drivers/STM32H5xx_HAL_Driver/Src/stm32h5xx_hal_dma.c **** 
 642:Drivers/STM32H5xx_HAL_Driver/Src/stm32h5xx_hal_dma.c ****         /* Process Unlocked */
 643:Drivers/STM32H5xx_HAL_Driver/Src/stm32h5xx_hal_dma.c ****         __HAL_UNLOCK(hdma);
 644:Drivers/STM32H5xx_HAL_Driver/Src/stm32h5xx_hal_dma.c **** 
 645:Drivers/STM32H5xx_HAL_Driver/Src/stm32h5xx_hal_dma.c ****         return HAL_ERROR;
 646:Drivers/STM32H5xx_HAL_Driver/Src/stm32h5xx_hal_dma.c ****       }
 647:Drivers/STM32H5xx_HAL_Driver/Src/stm32h5xx_hal_dma.c ****     }
 648:Drivers/STM32H5xx_HAL_Driver/Src/stm32h5xx_hal_dma.c **** 
 649:Drivers/STM32H5xx_HAL_Driver/Src/stm32h5xx_hal_dma.c ****     /* Reset the channel */
 650:Drivers/STM32H5xx_HAL_Driver/Src/stm32h5xx_hal_dma.c ****     hdma->Instance->CCR |= DMA_CCR_RESET;
 651:Drivers/STM32H5xx_HAL_Driver/Src/stm32h5xx_hal_dma.c **** 
 652:Drivers/STM32H5xx_HAL_Driver/Src/stm32h5xx_hal_dma.c ****     /* Update the DMA channel state */
 653:Drivers/STM32H5xx_HAL_Driver/Src/stm32h5xx_hal_dma.c ****     hdma->State = HAL_DMA_STATE_ABORT;
 654:Drivers/STM32H5xx_HAL_Driver/Src/stm32h5xx_hal_dma.c **** 
 655:Drivers/STM32H5xx_HAL_Driver/Src/stm32h5xx_hal_dma.c ****     /* Clear all status flags */
 656:Drivers/STM32H5xx_HAL_Driver/Src/stm32h5xx_hal_dma.c ****     __HAL_DMA_CLEAR_FLAG(hdma, (DMA_FLAG_TC | DMA_FLAG_HT | DMA_FLAG_DTE | DMA_FLAG_ULE | DMA_FLAG_
ARM GAS  /var/folders/l3/rwskfq612tq4b7hmtv37jkjw0000gp/T//ccx7lwMy.s 			page 13


 657:Drivers/STM32H5xx_HAL_Driver/Src/stm32h5xx_hal_dma.c ****                                 DMA_FLAG_TO));
 658:Drivers/STM32H5xx_HAL_Driver/Src/stm32h5xx_hal_dma.c **** 
 659:Drivers/STM32H5xx_HAL_Driver/Src/stm32h5xx_hal_dma.c ****     /* Update the DMA channel state */
 660:Drivers/STM32H5xx_HAL_Driver/Src/stm32h5xx_hal_dma.c ****     hdma->State = HAL_DMA_STATE_READY;
 661:Drivers/STM32H5xx_HAL_Driver/Src/stm32h5xx_hal_dma.c **** 
 662:Drivers/STM32H5xx_HAL_Driver/Src/stm32h5xx_hal_dma.c ****     /* Check DMA channel transfer mode */
 663:Drivers/STM32H5xx_HAL_Driver/Src/stm32h5xx_hal_dma.c ****     if ((hdma->Mode & DMA_LINKEDLIST) == DMA_LINKEDLIST)
 664:Drivers/STM32H5xx_HAL_Driver/Src/stm32h5xx_hal_dma.c ****     {
 665:Drivers/STM32H5xx_HAL_Driver/Src/stm32h5xx_hal_dma.c ****       /* Update the linked-list queue state */
 666:Drivers/STM32H5xx_HAL_Driver/Src/stm32h5xx_hal_dma.c ****       hdma->LinkedListQueue->State = HAL_DMA_QUEUE_STATE_READY;
 667:Drivers/STM32H5xx_HAL_Driver/Src/stm32h5xx_hal_dma.c **** 
 668:Drivers/STM32H5xx_HAL_Driver/Src/stm32h5xx_hal_dma.c ****       /* Clear remaining data size to ensure loading linked-list from memory next start */
 669:Drivers/STM32H5xx_HAL_Driver/Src/stm32h5xx_hal_dma.c ****       hdma->Instance->CBR1 = 0U;
 670:Drivers/STM32H5xx_HAL_Driver/Src/stm32h5xx_hal_dma.c ****     }
 671:Drivers/STM32H5xx_HAL_Driver/Src/stm32h5xx_hal_dma.c **** 
 672:Drivers/STM32H5xx_HAL_Driver/Src/stm32h5xx_hal_dma.c ****     /* Process Unlocked */
 673:Drivers/STM32H5xx_HAL_Driver/Src/stm32h5xx_hal_dma.c ****     __HAL_UNLOCK(hdma);
 674:Drivers/STM32H5xx_HAL_Driver/Src/stm32h5xx_hal_dma.c ****   }
 675:Drivers/STM32H5xx_HAL_Driver/Src/stm32h5xx_hal_dma.c **** 
 676:Drivers/STM32H5xx_HAL_Driver/Src/stm32h5xx_hal_dma.c ****   return HAL_OK;
 677:Drivers/STM32H5xx_HAL_Driver/Src/stm32h5xx_hal_dma.c **** }
 678:Drivers/STM32H5xx_HAL_Driver/Src/stm32h5xx_hal_dma.c **** 
 679:Drivers/STM32H5xx_HAL_Driver/Src/stm32h5xx_hal_dma.c **** /**
 680:Drivers/STM32H5xx_HAL_Driver/Src/stm32h5xx_hal_dma.c ****   * @brief  Abort any on-going DMA channel transfer in interrupt mode (Non-blocking mode).
 681:Drivers/STM32H5xx_HAL_Driver/Src/stm32h5xx_hal_dma.c ****   * @param  hdma : Pointer to a DMA_HandleTypeDef structure that contains the configuration informa
 682:Drivers/STM32H5xx_HAL_Driver/Src/stm32h5xx_hal_dma.c ****   *                specified DMA Channel.
 683:Drivers/STM32H5xx_HAL_Driver/Src/stm32h5xx_hal_dma.c ****   * @retval HAL status.
 684:Drivers/STM32H5xx_HAL_Driver/Src/stm32h5xx_hal_dma.c ****   */
 685:Drivers/STM32H5xx_HAL_Driver/Src/stm32h5xx_hal_dma.c **** HAL_StatusTypeDef HAL_DMA_Abort_IT(DMA_HandleTypeDef *const hdma)
 686:Drivers/STM32H5xx_HAL_Driver/Src/stm32h5xx_hal_dma.c **** {
 687:Drivers/STM32H5xx_HAL_Driver/Src/stm32h5xx_hal_dma.c ****   /* Check the DMA peripheral handle parameter */
 688:Drivers/STM32H5xx_HAL_Driver/Src/stm32h5xx_hal_dma.c ****   if (hdma == NULL)
 689:Drivers/STM32H5xx_HAL_Driver/Src/stm32h5xx_hal_dma.c ****   {
 690:Drivers/STM32H5xx_HAL_Driver/Src/stm32h5xx_hal_dma.c ****     return HAL_ERROR;
 691:Drivers/STM32H5xx_HAL_Driver/Src/stm32h5xx_hal_dma.c ****   }
 692:Drivers/STM32H5xx_HAL_Driver/Src/stm32h5xx_hal_dma.c **** 
 693:Drivers/STM32H5xx_HAL_Driver/Src/stm32h5xx_hal_dma.c ****   /* Check DMA channel state */
 694:Drivers/STM32H5xx_HAL_Driver/Src/stm32h5xx_hal_dma.c ****   if (hdma->State != HAL_DMA_STATE_BUSY)
 695:Drivers/STM32H5xx_HAL_Driver/Src/stm32h5xx_hal_dma.c ****   {
 696:Drivers/STM32H5xx_HAL_Driver/Src/stm32h5xx_hal_dma.c ****     /* Update the DMA channel error code */
 697:Drivers/STM32H5xx_HAL_Driver/Src/stm32h5xx_hal_dma.c ****     hdma->ErrorCode = HAL_DMA_ERROR_NO_XFER;
 698:Drivers/STM32H5xx_HAL_Driver/Src/stm32h5xx_hal_dma.c **** 
 699:Drivers/STM32H5xx_HAL_Driver/Src/stm32h5xx_hal_dma.c ****     return HAL_ERROR;
 700:Drivers/STM32H5xx_HAL_Driver/Src/stm32h5xx_hal_dma.c ****   }
 701:Drivers/STM32H5xx_HAL_Driver/Src/stm32h5xx_hal_dma.c ****   else
 702:Drivers/STM32H5xx_HAL_Driver/Src/stm32h5xx_hal_dma.c ****   {
 703:Drivers/STM32H5xx_HAL_Driver/Src/stm32h5xx_hal_dma.c ****     /* Update the DMA channel state */
 704:Drivers/STM32H5xx_HAL_Driver/Src/stm32h5xx_hal_dma.c ****     hdma->State = HAL_DMA_STATE_ABORT;
 705:Drivers/STM32H5xx_HAL_Driver/Src/stm32h5xx_hal_dma.c **** 
 706:Drivers/STM32H5xx_HAL_Driver/Src/stm32h5xx_hal_dma.c ****     /* Suspend the channel and activate suspend interrupt */
 707:Drivers/STM32H5xx_HAL_Driver/Src/stm32h5xx_hal_dma.c ****     hdma->Instance->CCR |= (DMA_CCR_SUSP | DMA_CCR_SUSPIE);
 708:Drivers/STM32H5xx_HAL_Driver/Src/stm32h5xx_hal_dma.c ****   }
 709:Drivers/STM32H5xx_HAL_Driver/Src/stm32h5xx_hal_dma.c **** 
 710:Drivers/STM32H5xx_HAL_Driver/Src/stm32h5xx_hal_dma.c ****   return HAL_OK;
 711:Drivers/STM32H5xx_HAL_Driver/Src/stm32h5xx_hal_dma.c **** }
 712:Drivers/STM32H5xx_HAL_Driver/Src/stm32h5xx_hal_dma.c **** 
 713:Drivers/STM32H5xx_HAL_Driver/Src/stm32h5xx_hal_dma.c **** /**
ARM GAS  /var/folders/l3/rwskfq612tq4b7hmtv37jkjw0000gp/T//ccx7lwMy.s 			page 14


 714:Drivers/STM32H5xx_HAL_Driver/Src/stm32h5xx_hal_dma.c ****   * @brief  Polling for transfer status (Blocking mode).
 715:Drivers/STM32H5xx_HAL_Driver/Src/stm32h5xx_hal_dma.c ****   * @param  hdma          : Pointer to a DMA_HandleTypeDef structure that contains the configuratio
 716:Drivers/STM32H5xx_HAL_Driver/Src/stm32h5xx_hal_dma.c ****   *                         specified DMA Channel.
 717:Drivers/STM32H5xx_HAL_Driver/Src/stm32h5xx_hal_dma.c ****   * @param  CompleteLevel : Specifies the DMA level complete.
 718:Drivers/STM32H5xx_HAL_Driver/Src/stm32h5xx_hal_dma.c ****   * @param  Timeout       : Timeout duration.
 719:Drivers/STM32H5xx_HAL_Driver/Src/stm32h5xx_hal_dma.c ****   * @retval HAL status
 720:Drivers/STM32H5xx_HAL_Driver/Src/stm32h5xx_hal_dma.c ****   */
 721:Drivers/STM32H5xx_HAL_Driver/Src/stm32h5xx_hal_dma.c **** HAL_StatusTypeDef HAL_DMA_PollForTransfer(DMA_HandleTypeDef *const hdma,
 722:Drivers/STM32H5xx_HAL_Driver/Src/stm32h5xx_hal_dma.c ****                                           HAL_DMA_LevelCompleteTypeDef CompleteLevel,
 723:Drivers/STM32H5xx_HAL_Driver/Src/stm32h5xx_hal_dma.c ****                                           uint32_t Timeout)
 724:Drivers/STM32H5xx_HAL_Driver/Src/stm32h5xx_hal_dma.c **** {
 725:Drivers/STM32H5xx_HAL_Driver/Src/stm32h5xx_hal_dma.c ****   /* Get tick number */
 726:Drivers/STM32H5xx_HAL_Driver/Src/stm32h5xx_hal_dma.c ****   uint32_t tickstart = HAL_GetTick();
 727:Drivers/STM32H5xx_HAL_Driver/Src/stm32h5xx_hal_dma.c ****   uint32_t level_flag;
 728:Drivers/STM32H5xx_HAL_Driver/Src/stm32h5xx_hal_dma.c ****   uint32_t tmp_csr;
 729:Drivers/STM32H5xx_HAL_Driver/Src/stm32h5xx_hal_dma.c **** 
 730:Drivers/STM32H5xx_HAL_Driver/Src/stm32h5xx_hal_dma.c ****   /* Check the DMA peripheral handle parameter */
 731:Drivers/STM32H5xx_HAL_Driver/Src/stm32h5xx_hal_dma.c ****   if (hdma == NULL)
 732:Drivers/STM32H5xx_HAL_Driver/Src/stm32h5xx_hal_dma.c ****   {
 733:Drivers/STM32H5xx_HAL_Driver/Src/stm32h5xx_hal_dma.c ****     return HAL_ERROR;
 734:Drivers/STM32H5xx_HAL_Driver/Src/stm32h5xx_hal_dma.c ****   }
 735:Drivers/STM32H5xx_HAL_Driver/Src/stm32h5xx_hal_dma.c **** 
 736:Drivers/STM32H5xx_HAL_Driver/Src/stm32h5xx_hal_dma.c ****   /* Check the parameters */
 737:Drivers/STM32H5xx_HAL_Driver/Src/stm32h5xx_hal_dma.c ****   assert_param(IS_DMA_LEVEL_COMPLETE(CompleteLevel));
 738:Drivers/STM32H5xx_HAL_Driver/Src/stm32h5xx_hal_dma.c **** 
 739:Drivers/STM32H5xx_HAL_Driver/Src/stm32h5xx_hal_dma.c ****   /* Check DMA channel state */
 740:Drivers/STM32H5xx_HAL_Driver/Src/stm32h5xx_hal_dma.c ****   if (hdma->State != HAL_DMA_STATE_BUSY)
 741:Drivers/STM32H5xx_HAL_Driver/Src/stm32h5xx_hal_dma.c ****   {
 742:Drivers/STM32H5xx_HAL_Driver/Src/stm32h5xx_hal_dma.c ****     /* Update the DMA channel error code */
 743:Drivers/STM32H5xx_HAL_Driver/Src/stm32h5xx_hal_dma.c ****     hdma->ErrorCode = HAL_DMA_ERROR_NO_XFER;
 744:Drivers/STM32H5xx_HAL_Driver/Src/stm32h5xx_hal_dma.c **** 
 745:Drivers/STM32H5xx_HAL_Driver/Src/stm32h5xx_hal_dma.c ****     /* Process Unlocked */
 746:Drivers/STM32H5xx_HAL_Driver/Src/stm32h5xx_hal_dma.c ****     __HAL_UNLOCK(hdma);
 747:Drivers/STM32H5xx_HAL_Driver/Src/stm32h5xx_hal_dma.c **** 
 748:Drivers/STM32H5xx_HAL_Driver/Src/stm32h5xx_hal_dma.c ****     return HAL_ERROR;
 749:Drivers/STM32H5xx_HAL_Driver/Src/stm32h5xx_hal_dma.c ****   }
 750:Drivers/STM32H5xx_HAL_Driver/Src/stm32h5xx_hal_dma.c **** 
 751:Drivers/STM32H5xx_HAL_Driver/Src/stm32h5xx_hal_dma.c ****   /* Polling mode is not supported in circular mode */
 752:Drivers/STM32H5xx_HAL_Driver/Src/stm32h5xx_hal_dma.c ****   if ((hdma->Mode & DMA_LINKEDLIST_CIRCULAR) == DMA_LINKEDLIST_CIRCULAR)
 753:Drivers/STM32H5xx_HAL_Driver/Src/stm32h5xx_hal_dma.c ****   {
 754:Drivers/STM32H5xx_HAL_Driver/Src/stm32h5xx_hal_dma.c ****     /* Update the DMA channel error code */
 755:Drivers/STM32H5xx_HAL_Driver/Src/stm32h5xx_hal_dma.c ****     hdma->ErrorCode = HAL_DMA_ERROR_NOT_SUPPORTED;
 756:Drivers/STM32H5xx_HAL_Driver/Src/stm32h5xx_hal_dma.c **** 
 757:Drivers/STM32H5xx_HAL_Driver/Src/stm32h5xx_hal_dma.c ****     return HAL_ERROR;
 758:Drivers/STM32H5xx_HAL_Driver/Src/stm32h5xx_hal_dma.c ****   }
 759:Drivers/STM32H5xx_HAL_Driver/Src/stm32h5xx_hal_dma.c **** 
 760:Drivers/STM32H5xx_HAL_Driver/Src/stm32h5xx_hal_dma.c ****   /* Get the level transfer complete flag */
 761:Drivers/STM32H5xx_HAL_Driver/Src/stm32h5xx_hal_dma.c ****   level_flag = ((CompleteLevel == HAL_DMA_FULL_TRANSFER) ? DMA_FLAG_IDLE : DMA_FLAG_HT);
 762:Drivers/STM32H5xx_HAL_Driver/Src/stm32h5xx_hal_dma.c **** 
 763:Drivers/STM32H5xx_HAL_Driver/Src/stm32h5xx_hal_dma.c ****   /* Get DMA channel status */
 764:Drivers/STM32H5xx_HAL_Driver/Src/stm32h5xx_hal_dma.c ****   tmp_csr = hdma->Instance->CSR;
 765:Drivers/STM32H5xx_HAL_Driver/Src/stm32h5xx_hal_dma.c **** 
 766:Drivers/STM32H5xx_HAL_Driver/Src/stm32h5xx_hal_dma.c ****   while ((tmp_csr & level_flag) == 0U)
 767:Drivers/STM32H5xx_HAL_Driver/Src/stm32h5xx_hal_dma.c ****   {
 768:Drivers/STM32H5xx_HAL_Driver/Src/stm32h5xx_hal_dma.c ****     /* Check for the timeout */
 769:Drivers/STM32H5xx_HAL_Driver/Src/stm32h5xx_hal_dma.c ****     if (Timeout != HAL_MAX_DELAY)
 770:Drivers/STM32H5xx_HAL_Driver/Src/stm32h5xx_hal_dma.c ****     {
ARM GAS  /var/folders/l3/rwskfq612tq4b7hmtv37jkjw0000gp/T//ccx7lwMy.s 			page 15


 771:Drivers/STM32H5xx_HAL_Driver/Src/stm32h5xx_hal_dma.c ****       if (((HAL_GetTick() - tickstart) > Timeout) || (Timeout == 0U))
 772:Drivers/STM32H5xx_HAL_Driver/Src/stm32h5xx_hal_dma.c ****       {
 773:Drivers/STM32H5xx_HAL_Driver/Src/stm32h5xx_hal_dma.c ****         /* Update the DMA channel error code */
 774:Drivers/STM32H5xx_HAL_Driver/Src/stm32h5xx_hal_dma.c ****         hdma->ErrorCode |= HAL_DMA_ERROR_TIMEOUT;
 775:Drivers/STM32H5xx_HAL_Driver/Src/stm32h5xx_hal_dma.c **** 
 776:Drivers/STM32H5xx_HAL_Driver/Src/stm32h5xx_hal_dma.c ****         /*
 777:Drivers/STM32H5xx_HAL_Driver/Src/stm32h5xx_hal_dma.c ****           If timeout, abort the current transfer.
 778:Drivers/STM32H5xx_HAL_Driver/Src/stm32h5xx_hal_dma.c ****           Note that the Abort function will
 779:Drivers/STM32H5xx_HAL_Driver/Src/stm32h5xx_hal_dma.c ****           - Clear all transfer flags.
 780:Drivers/STM32H5xx_HAL_Driver/Src/stm32h5xx_hal_dma.c ****           - Unlock.
 781:Drivers/STM32H5xx_HAL_Driver/Src/stm32h5xx_hal_dma.c ****           - Set the State.
 782:Drivers/STM32H5xx_HAL_Driver/Src/stm32h5xx_hal_dma.c ****         */
 783:Drivers/STM32H5xx_HAL_Driver/Src/stm32h5xx_hal_dma.c ****         (void)HAL_DMA_Abort(hdma);
 784:Drivers/STM32H5xx_HAL_Driver/Src/stm32h5xx_hal_dma.c **** 
 785:Drivers/STM32H5xx_HAL_Driver/Src/stm32h5xx_hal_dma.c ****         return HAL_ERROR;
 786:Drivers/STM32H5xx_HAL_Driver/Src/stm32h5xx_hal_dma.c ****       }
 787:Drivers/STM32H5xx_HAL_Driver/Src/stm32h5xx_hal_dma.c ****     }
 788:Drivers/STM32H5xx_HAL_Driver/Src/stm32h5xx_hal_dma.c **** 
 789:Drivers/STM32H5xx_HAL_Driver/Src/stm32h5xx_hal_dma.c ****     /* Get a newer CSR register value */
 790:Drivers/STM32H5xx_HAL_Driver/Src/stm32h5xx_hal_dma.c ****     tmp_csr = hdma->Instance->CSR;
 791:Drivers/STM32H5xx_HAL_Driver/Src/stm32h5xx_hal_dma.c ****   }
 792:Drivers/STM32H5xx_HAL_Driver/Src/stm32h5xx_hal_dma.c **** 
 793:Drivers/STM32H5xx_HAL_Driver/Src/stm32h5xx_hal_dma.c ****   /* Check trigger overrun flag */
 794:Drivers/STM32H5xx_HAL_Driver/Src/stm32h5xx_hal_dma.c ****   if ((tmp_csr & DMA_FLAG_TO) != 0U)
 795:Drivers/STM32H5xx_HAL_Driver/Src/stm32h5xx_hal_dma.c ****   {
 796:Drivers/STM32H5xx_HAL_Driver/Src/stm32h5xx_hal_dma.c ****     /* Update the DMA channel error code */
 797:Drivers/STM32H5xx_HAL_Driver/Src/stm32h5xx_hal_dma.c ****     hdma->ErrorCode |= HAL_DMA_ERROR_TO;
 798:Drivers/STM32H5xx_HAL_Driver/Src/stm32h5xx_hal_dma.c **** 
 799:Drivers/STM32H5xx_HAL_Driver/Src/stm32h5xx_hal_dma.c ****     /* Clear the error flag */
 800:Drivers/STM32H5xx_HAL_Driver/Src/stm32h5xx_hal_dma.c ****     __HAL_DMA_CLEAR_FLAG(hdma, DMA_FLAG_TO);
 801:Drivers/STM32H5xx_HAL_Driver/Src/stm32h5xx_hal_dma.c ****   }
 802:Drivers/STM32H5xx_HAL_Driver/Src/stm32h5xx_hal_dma.c **** 
 803:Drivers/STM32H5xx_HAL_Driver/Src/stm32h5xx_hal_dma.c ****   /* Check error flags */
 804:Drivers/STM32H5xx_HAL_Driver/Src/stm32h5xx_hal_dma.c ****   if ((tmp_csr & (DMA_FLAG_DTE | DMA_FLAG_ULE | DMA_FLAG_USE)) != 0U)
 805:Drivers/STM32H5xx_HAL_Driver/Src/stm32h5xx_hal_dma.c ****   {
 806:Drivers/STM32H5xx_HAL_Driver/Src/stm32h5xx_hal_dma.c ****     /* Check the data transfer error flag */
 807:Drivers/STM32H5xx_HAL_Driver/Src/stm32h5xx_hal_dma.c ****     if ((tmp_csr & DMA_FLAG_DTE) != 0U)
 808:Drivers/STM32H5xx_HAL_Driver/Src/stm32h5xx_hal_dma.c ****     {
 809:Drivers/STM32H5xx_HAL_Driver/Src/stm32h5xx_hal_dma.c ****       /* Update the DMA channel error code */
 810:Drivers/STM32H5xx_HAL_Driver/Src/stm32h5xx_hal_dma.c ****       hdma->ErrorCode |= HAL_DMA_ERROR_DTE;
 811:Drivers/STM32H5xx_HAL_Driver/Src/stm32h5xx_hal_dma.c **** 
 812:Drivers/STM32H5xx_HAL_Driver/Src/stm32h5xx_hal_dma.c ****       /* Clear the error flag */
 813:Drivers/STM32H5xx_HAL_Driver/Src/stm32h5xx_hal_dma.c ****       __HAL_DMA_CLEAR_FLAG(hdma, DMA_FLAG_DTE);
 814:Drivers/STM32H5xx_HAL_Driver/Src/stm32h5xx_hal_dma.c ****     }
 815:Drivers/STM32H5xx_HAL_Driver/Src/stm32h5xx_hal_dma.c **** 
 816:Drivers/STM32H5xx_HAL_Driver/Src/stm32h5xx_hal_dma.c ****     /* Check the update link error flag */
 817:Drivers/STM32H5xx_HAL_Driver/Src/stm32h5xx_hal_dma.c ****     if ((tmp_csr & DMA_FLAG_ULE) != 0U)
 818:Drivers/STM32H5xx_HAL_Driver/Src/stm32h5xx_hal_dma.c ****     {
 819:Drivers/STM32H5xx_HAL_Driver/Src/stm32h5xx_hal_dma.c ****       /* Update the DMA channel error code */
 820:Drivers/STM32H5xx_HAL_Driver/Src/stm32h5xx_hal_dma.c ****       hdma->ErrorCode |= HAL_DMA_ERROR_ULE;
 821:Drivers/STM32H5xx_HAL_Driver/Src/stm32h5xx_hal_dma.c **** 
 822:Drivers/STM32H5xx_HAL_Driver/Src/stm32h5xx_hal_dma.c ****       /* Clear the error flag */
 823:Drivers/STM32H5xx_HAL_Driver/Src/stm32h5xx_hal_dma.c ****       __HAL_DMA_CLEAR_FLAG(hdma, DMA_FLAG_ULE);
 824:Drivers/STM32H5xx_HAL_Driver/Src/stm32h5xx_hal_dma.c ****     }
 825:Drivers/STM32H5xx_HAL_Driver/Src/stm32h5xx_hal_dma.c **** 
 826:Drivers/STM32H5xx_HAL_Driver/Src/stm32h5xx_hal_dma.c ****     /* Check the user setting error flag */
 827:Drivers/STM32H5xx_HAL_Driver/Src/stm32h5xx_hal_dma.c ****     if ((tmp_csr & DMA_FLAG_USE) != 0U)
ARM GAS  /var/folders/l3/rwskfq612tq4b7hmtv37jkjw0000gp/T//ccx7lwMy.s 			page 16


 828:Drivers/STM32H5xx_HAL_Driver/Src/stm32h5xx_hal_dma.c ****     {
 829:Drivers/STM32H5xx_HAL_Driver/Src/stm32h5xx_hal_dma.c ****       /* Update the DMA channel error code */
 830:Drivers/STM32H5xx_HAL_Driver/Src/stm32h5xx_hal_dma.c ****       hdma->ErrorCode |= HAL_DMA_ERROR_USE;
 831:Drivers/STM32H5xx_HAL_Driver/Src/stm32h5xx_hal_dma.c **** 
 832:Drivers/STM32H5xx_HAL_Driver/Src/stm32h5xx_hal_dma.c ****       /* Clear the error flag */
 833:Drivers/STM32H5xx_HAL_Driver/Src/stm32h5xx_hal_dma.c ****       __HAL_DMA_CLEAR_FLAG(hdma, DMA_FLAG_USE);
 834:Drivers/STM32H5xx_HAL_Driver/Src/stm32h5xx_hal_dma.c ****     }
 835:Drivers/STM32H5xx_HAL_Driver/Src/stm32h5xx_hal_dma.c **** 
 836:Drivers/STM32H5xx_HAL_Driver/Src/stm32h5xx_hal_dma.c ****     /* Reset the channel */
 837:Drivers/STM32H5xx_HAL_Driver/Src/stm32h5xx_hal_dma.c ****     hdma->Instance->CCR |= DMA_CCR_RESET;
 838:Drivers/STM32H5xx_HAL_Driver/Src/stm32h5xx_hal_dma.c **** 
 839:Drivers/STM32H5xx_HAL_Driver/Src/stm32h5xx_hal_dma.c ****     /* Update the DMA channel state */
 840:Drivers/STM32H5xx_HAL_Driver/Src/stm32h5xx_hal_dma.c ****     hdma->State = HAL_DMA_STATE_READY;
 841:Drivers/STM32H5xx_HAL_Driver/Src/stm32h5xx_hal_dma.c **** 
 842:Drivers/STM32H5xx_HAL_Driver/Src/stm32h5xx_hal_dma.c ****     /* Check DMA channel transfer mode */
 843:Drivers/STM32H5xx_HAL_Driver/Src/stm32h5xx_hal_dma.c ****     if ((hdma->Mode & DMA_LINKEDLIST) == DMA_LINKEDLIST)
 844:Drivers/STM32H5xx_HAL_Driver/Src/stm32h5xx_hal_dma.c ****     {
 845:Drivers/STM32H5xx_HAL_Driver/Src/stm32h5xx_hal_dma.c ****       /* Update the linked-list queue state */
 846:Drivers/STM32H5xx_HAL_Driver/Src/stm32h5xx_hal_dma.c ****       hdma->LinkedListQueue->State = HAL_DMA_QUEUE_STATE_READY;
 847:Drivers/STM32H5xx_HAL_Driver/Src/stm32h5xx_hal_dma.c ****     }
 848:Drivers/STM32H5xx_HAL_Driver/Src/stm32h5xx_hal_dma.c **** 
 849:Drivers/STM32H5xx_HAL_Driver/Src/stm32h5xx_hal_dma.c ****     /* Process Unlocked */
 850:Drivers/STM32H5xx_HAL_Driver/Src/stm32h5xx_hal_dma.c ****     __HAL_UNLOCK(hdma);
 851:Drivers/STM32H5xx_HAL_Driver/Src/stm32h5xx_hal_dma.c **** 
 852:Drivers/STM32H5xx_HAL_Driver/Src/stm32h5xx_hal_dma.c ****     return HAL_ERROR;
 853:Drivers/STM32H5xx_HAL_Driver/Src/stm32h5xx_hal_dma.c ****   }
 854:Drivers/STM32H5xx_HAL_Driver/Src/stm32h5xx_hal_dma.c **** 
 855:Drivers/STM32H5xx_HAL_Driver/Src/stm32h5xx_hal_dma.c ****   /* Clear the transfer level flag */
 856:Drivers/STM32H5xx_HAL_Driver/Src/stm32h5xx_hal_dma.c ****   if (CompleteLevel == HAL_DMA_HALF_TRANSFER)
 857:Drivers/STM32H5xx_HAL_Driver/Src/stm32h5xx_hal_dma.c ****   {
 858:Drivers/STM32H5xx_HAL_Driver/Src/stm32h5xx_hal_dma.c ****     /* Clear the Half Transfer flag */
 859:Drivers/STM32H5xx_HAL_Driver/Src/stm32h5xx_hal_dma.c ****     __HAL_DMA_CLEAR_FLAG(hdma, DMA_FLAG_HT);
 860:Drivers/STM32H5xx_HAL_Driver/Src/stm32h5xx_hal_dma.c ****   }
 861:Drivers/STM32H5xx_HAL_Driver/Src/stm32h5xx_hal_dma.c ****   else if (CompleteLevel == HAL_DMA_FULL_TRANSFER)
 862:Drivers/STM32H5xx_HAL_Driver/Src/stm32h5xx_hal_dma.c ****   {
 863:Drivers/STM32H5xx_HAL_Driver/Src/stm32h5xx_hal_dma.c ****     /* Clear the transfer flags */
 864:Drivers/STM32H5xx_HAL_Driver/Src/stm32h5xx_hal_dma.c ****     __HAL_DMA_CLEAR_FLAG(hdma, (DMA_FLAG_TC | DMA_FLAG_HT));
 865:Drivers/STM32H5xx_HAL_Driver/Src/stm32h5xx_hal_dma.c **** 
 866:Drivers/STM32H5xx_HAL_Driver/Src/stm32h5xx_hal_dma.c ****     /* Update the DMA channel state */
 867:Drivers/STM32H5xx_HAL_Driver/Src/stm32h5xx_hal_dma.c ****     hdma->State = HAL_DMA_STATE_READY;
 868:Drivers/STM32H5xx_HAL_Driver/Src/stm32h5xx_hal_dma.c **** 
 869:Drivers/STM32H5xx_HAL_Driver/Src/stm32h5xx_hal_dma.c ****     /* Check DMA channel transfer mode */
 870:Drivers/STM32H5xx_HAL_Driver/Src/stm32h5xx_hal_dma.c ****     if ((hdma->Mode & DMA_LINKEDLIST) == DMA_LINKEDLIST)
 871:Drivers/STM32H5xx_HAL_Driver/Src/stm32h5xx_hal_dma.c ****     {
 872:Drivers/STM32H5xx_HAL_Driver/Src/stm32h5xx_hal_dma.c ****       /* Update the linked-list queue state */
 873:Drivers/STM32H5xx_HAL_Driver/Src/stm32h5xx_hal_dma.c ****       hdma->LinkedListQueue->State = HAL_DMA_QUEUE_STATE_READY;
 874:Drivers/STM32H5xx_HAL_Driver/Src/stm32h5xx_hal_dma.c ****     }
 875:Drivers/STM32H5xx_HAL_Driver/Src/stm32h5xx_hal_dma.c **** 
 876:Drivers/STM32H5xx_HAL_Driver/Src/stm32h5xx_hal_dma.c ****     /* Process unlocked */
 877:Drivers/STM32H5xx_HAL_Driver/Src/stm32h5xx_hal_dma.c ****     __HAL_UNLOCK(hdma);
 878:Drivers/STM32H5xx_HAL_Driver/Src/stm32h5xx_hal_dma.c ****   }
 879:Drivers/STM32H5xx_HAL_Driver/Src/stm32h5xx_hal_dma.c ****   else
 880:Drivers/STM32H5xx_HAL_Driver/Src/stm32h5xx_hal_dma.c ****   {
 881:Drivers/STM32H5xx_HAL_Driver/Src/stm32h5xx_hal_dma.c ****     return HAL_ERROR;
 882:Drivers/STM32H5xx_HAL_Driver/Src/stm32h5xx_hal_dma.c ****   }
 883:Drivers/STM32H5xx_HAL_Driver/Src/stm32h5xx_hal_dma.c **** 
 884:Drivers/STM32H5xx_HAL_Driver/Src/stm32h5xx_hal_dma.c ****   return HAL_OK;
ARM GAS  /var/folders/l3/rwskfq612tq4b7hmtv37jkjw0000gp/T//ccx7lwMy.s 			page 17


 885:Drivers/STM32H5xx_HAL_Driver/Src/stm32h5xx_hal_dma.c **** }
 886:Drivers/STM32H5xx_HAL_Driver/Src/stm32h5xx_hal_dma.c **** 
 887:Drivers/STM32H5xx_HAL_Driver/Src/stm32h5xx_hal_dma.c **** /**
 888:Drivers/STM32H5xx_HAL_Driver/Src/stm32h5xx_hal_dma.c ****   * @brief  Handle DMA interrupt request (Non-blocking mode).
 889:Drivers/STM32H5xx_HAL_Driver/Src/stm32h5xx_hal_dma.c ****   * @param  hdma : Pointer to a DMA_HandleTypeDef structure that contains the configuration informa
 890:Drivers/STM32H5xx_HAL_Driver/Src/stm32h5xx_hal_dma.c ****   *                specified DMA Channel.
 891:Drivers/STM32H5xx_HAL_Driver/Src/stm32h5xx_hal_dma.c ****   * @retval None.
 892:Drivers/STM32H5xx_HAL_Driver/Src/stm32h5xx_hal_dma.c ****   */
 893:Drivers/STM32H5xx_HAL_Driver/Src/stm32h5xx_hal_dma.c **** void HAL_DMA_IRQHandler(DMA_HandleTypeDef *const hdma)
 894:Drivers/STM32H5xx_HAL_Driver/Src/stm32h5xx_hal_dma.c **** {
 895:Drivers/STM32H5xx_HAL_Driver/Src/stm32h5xx_hal_dma.c ****   const DMA_TypeDef *p_dma_instance = GET_DMA_INSTANCE(hdma);
 896:Drivers/STM32H5xx_HAL_Driver/Src/stm32h5xx_hal_dma.c ****   uint32_t global_it_flag =  1UL << (GET_DMA_CHANNEL(hdma) & 0x1FU);
 897:Drivers/STM32H5xx_HAL_Driver/Src/stm32h5xx_hal_dma.c ****   uint32_t global_active_flag_ns = IS_DMA_GLOBAL_ACTIVE_FLAG_NS(p_dma_instance, global_it_flag);
 898:Drivers/STM32H5xx_HAL_Driver/Src/stm32h5xx_hal_dma.c **** #if defined (__ARM_FEATURE_CMSE) && (__ARM_FEATURE_CMSE == 3U)
 899:Drivers/STM32H5xx_HAL_Driver/Src/stm32h5xx_hal_dma.c ****   uint32_t global_active_flag_s = IS_DMA_GLOBAL_ACTIVE_FLAG_S(p_dma_instance, global_it_flag);
 900:Drivers/STM32H5xx_HAL_Driver/Src/stm32h5xx_hal_dma.c **** #endif /* (__ARM_FEATURE_CMSE) && (__ARM_FEATURE_CMSE == 3U) */
 901:Drivers/STM32H5xx_HAL_Driver/Src/stm32h5xx_hal_dma.c **** 
 902:Drivers/STM32H5xx_HAL_Driver/Src/stm32h5xx_hal_dma.c ****   /* Global Interrupt Flag management *************************************************************
 903:Drivers/STM32H5xx_HAL_Driver/Src/stm32h5xx_hal_dma.c **** #if defined (__ARM_FEATURE_CMSE) && (__ARM_FEATURE_CMSE == 3U)
 904:Drivers/STM32H5xx_HAL_Driver/Src/stm32h5xx_hal_dma.c ****   if ((global_active_flag_s == 0U) && (global_active_flag_ns == 0U))
 905:Drivers/STM32H5xx_HAL_Driver/Src/stm32h5xx_hal_dma.c **** #else
 906:Drivers/STM32H5xx_HAL_Driver/Src/stm32h5xx_hal_dma.c ****   if (global_active_flag_ns == 0U)
 907:Drivers/STM32H5xx_HAL_Driver/Src/stm32h5xx_hal_dma.c **** #endif /* (__ARM_FEATURE_CMSE) && (__ARM_FEATURE_CMSE == 3U) */
 908:Drivers/STM32H5xx_HAL_Driver/Src/stm32h5xx_hal_dma.c ****   {
 909:Drivers/STM32H5xx_HAL_Driver/Src/stm32h5xx_hal_dma.c ****     return; /* the global interrupt flag for the current channel is down , nothing to do */
 910:Drivers/STM32H5xx_HAL_Driver/Src/stm32h5xx_hal_dma.c ****   }
 911:Drivers/STM32H5xx_HAL_Driver/Src/stm32h5xx_hal_dma.c **** 
 912:Drivers/STM32H5xx_HAL_Driver/Src/stm32h5xx_hal_dma.c ****   /* Data Transfer Error Interrupt management *****************************************************
 913:Drivers/STM32H5xx_HAL_Driver/Src/stm32h5xx_hal_dma.c ****   if ((__HAL_DMA_GET_FLAG(hdma, DMA_FLAG_DTE) != 0U))
 914:Drivers/STM32H5xx_HAL_Driver/Src/stm32h5xx_hal_dma.c ****   {
 915:Drivers/STM32H5xx_HAL_Driver/Src/stm32h5xx_hal_dma.c ****     /* Check if interrupt source is enabled */
 916:Drivers/STM32H5xx_HAL_Driver/Src/stm32h5xx_hal_dma.c ****     if (__HAL_DMA_GET_IT_SOURCE(hdma, DMA_IT_DTE) != 0U)
 917:Drivers/STM32H5xx_HAL_Driver/Src/stm32h5xx_hal_dma.c ****     {
 918:Drivers/STM32H5xx_HAL_Driver/Src/stm32h5xx_hal_dma.c ****       /* Clear the transfer error flag */
 919:Drivers/STM32H5xx_HAL_Driver/Src/stm32h5xx_hal_dma.c ****       __HAL_DMA_CLEAR_FLAG(hdma, DMA_FLAG_DTE);
 920:Drivers/STM32H5xx_HAL_Driver/Src/stm32h5xx_hal_dma.c **** 
 921:Drivers/STM32H5xx_HAL_Driver/Src/stm32h5xx_hal_dma.c ****       /* Update the DMA channel error code */
 922:Drivers/STM32H5xx_HAL_Driver/Src/stm32h5xx_hal_dma.c ****       hdma->ErrorCode |= HAL_DMA_ERROR_DTE;
 923:Drivers/STM32H5xx_HAL_Driver/Src/stm32h5xx_hal_dma.c ****     }
 924:Drivers/STM32H5xx_HAL_Driver/Src/stm32h5xx_hal_dma.c ****   }
 925:Drivers/STM32H5xx_HAL_Driver/Src/stm32h5xx_hal_dma.c **** 
 926:Drivers/STM32H5xx_HAL_Driver/Src/stm32h5xx_hal_dma.c ****   /* Update Linked-list Error Interrupt management ************************************************
 927:Drivers/STM32H5xx_HAL_Driver/Src/stm32h5xx_hal_dma.c ****   if ((__HAL_DMA_GET_FLAG(hdma, DMA_FLAG_ULE) != 0U))
 928:Drivers/STM32H5xx_HAL_Driver/Src/stm32h5xx_hal_dma.c ****   {
 929:Drivers/STM32H5xx_HAL_Driver/Src/stm32h5xx_hal_dma.c ****     /* Check if interrupt source is enabled */
 930:Drivers/STM32H5xx_HAL_Driver/Src/stm32h5xx_hal_dma.c ****     if (__HAL_DMA_GET_IT_SOURCE(hdma, DMA_IT_ULE) != 0U)
 931:Drivers/STM32H5xx_HAL_Driver/Src/stm32h5xx_hal_dma.c ****     {
 932:Drivers/STM32H5xx_HAL_Driver/Src/stm32h5xx_hal_dma.c ****       /* Clear the update linked-list error flag */
 933:Drivers/STM32H5xx_HAL_Driver/Src/stm32h5xx_hal_dma.c ****       __HAL_DMA_CLEAR_FLAG(hdma, DMA_FLAG_ULE);
 934:Drivers/STM32H5xx_HAL_Driver/Src/stm32h5xx_hal_dma.c **** 
 935:Drivers/STM32H5xx_HAL_Driver/Src/stm32h5xx_hal_dma.c ****       /* Update the DMA channel error code */
 936:Drivers/STM32H5xx_HAL_Driver/Src/stm32h5xx_hal_dma.c ****       hdma->ErrorCode |= HAL_DMA_ERROR_ULE;
 937:Drivers/STM32H5xx_HAL_Driver/Src/stm32h5xx_hal_dma.c ****     }
 938:Drivers/STM32H5xx_HAL_Driver/Src/stm32h5xx_hal_dma.c ****   }
 939:Drivers/STM32H5xx_HAL_Driver/Src/stm32h5xx_hal_dma.c **** 
 940:Drivers/STM32H5xx_HAL_Driver/Src/stm32h5xx_hal_dma.c ****   /* User Setting Error Interrupt management ******************************************************
 941:Drivers/STM32H5xx_HAL_Driver/Src/stm32h5xx_hal_dma.c ****   if ((__HAL_DMA_GET_FLAG(hdma, DMA_FLAG_USE) != 0U))
ARM GAS  /var/folders/l3/rwskfq612tq4b7hmtv37jkjw0000gp/T//ccx7lwMy.s 			page 18


 942:Drivers/STM32H5xx_HAL_Driver/Src/stm32h5xx_hal_dma.c ****   {
 943:Drivers/STM32H5xx_HAL_Driver/Src/stm32h5xx_hal_dma.c ****     /* Check if interrupt source is enabled */
 944:Drivers/STM32H5xx_HAL_Driver/Src/stm32h5xx_hal_dma.c ****     if (__HAL_DMA_GET_IT_SOURCE(hdma, DMA_IT_USE) != 0U)
 945:Drivers/STM32H5xx_HAL_Driver/Src/stm32h5xx_hal_dma.c ****     {
 946:Drivers/STM32H5xx_HAL_Driver/Src/stm32h5xx_hal_dma.c ****       /* Clear the user setting error flag */
 947:Drivers/STM32H5xx_HAL_Driver/Src/stm32h5xx_hal_dma.c ****       __HAL_DMA_CLEAR_FLAG(hdma, DMA_FLAG_USE);
 948:Drivers/STM32H5xx_HAL_Driver/Src/stm32h5xx_hal_dma.c **** 
 949:Drivers/STM32H5xx_HAL_Driver/Src/stm32h5xx_hal_dma.c ****       /* Update the DMA channel error code */
 950:Drivers/STM32H5xx_HAL_Driver/Src/stm32h5xx_hal_dma.c ****       hdma->ErrorCode |= HAL_DMA_ERROR_USE;
 951:Drivers/STM32H5xx_HAL_Driver/Src/stm32h5xx_hal_dma.c ****     }
 952:Drivers/STM32H5xx_HAL_Driver/Src/stm32h5xx_hal_dma.c ****   }
 953:Drivers/STM32H5xx_HAL_Driver/Src/stm32h5xx_hal_dma.c **** 
 954:Drivers/STM32H5xx_HAL_Driver/Src/stm32h5xx_hal_dma.c ****   /* Trigger Overrun Interrupt management *********************************************************
 955:Drivers/STM32H5xx_HAL_Driver/Src/stm32h5xx_hal_dma.c ****   if ((__HAL_DMA_GET_FLAG(hdma, DMA_FLAG_TO) != 0U))
 956:Drivers/STM32H5xx_HAL_Driver/Src/stm32h5xx_hal_dma.c ****   {
 957:Drivers/STM32H5xx_HAL_Driver/Src/stm32h5xx_hal_dma.c ****     /* Check if interrupt source is enabled */
 958:Drivers/STM32H5xx_HAL_Driver/Src/stm32h5xx_hal_dma.c ****     if (__HAL_DMA_GET_IT_SOURCE(hdma, DMA_IT_TO) != 0U)
 959:Drivers/STM32H5xx_HAL_Driver/Src/stm32h5xx_hal_dma.c ****     {
 960:Drivers/STM32H5xx_HAL_Driver/Src/stm32h5xx_hal_dma.c ****       /* Clear the trigger overrun flag */
 961:Drivers/STM32H5xx_HAL_Driver/Src/stm32h5xx_hal_dma.c ****       __HAL_DMA_CLEAR_FLAG(hdma, DMA_FLAG_TO);
 962:Drivers/STM32H5xx_HAL_Driver/Src/stm32h5xx_hal_dma.c **** 
 963:Drivers/STM32H5xx_HAL_Driver/Src/stm32h5xx_hal_dma.c ****       /* Update the DMA channel error code */
 964:Drivers/STM32H5xx_HAL_Driver/Src/stm32h5xx_hal_dma.c ****       hdma->ErrorCode |= HAL_DMA_ERROR_TO;
 965:Drivers/STM32H5xx_HAL_Driver/Src/stm32h5xx_hal_dma.c ****     }
 966:Drivers/STM32H5xx_HAL_Driver/Src/stm32h5xx_hal_dma.c ****   }
 967:Drivers/STM32H5xx_HAL_Driver/Src/stm32h5xx_hal_dma.c **** 
 968:Drivers/STM32H5xx_HAL_Driver/Src/stm32h5xx_hal_dma.c ****   /* Half Transfer Complete Interrupt management **************************************************
 969:Drivers/STM32H5xx_HAL_Driver/Src/stm32h5xx_hal_dma.c ****   if ((__HAL_DMA_GET_FLAG(hdma, DMA_FLAG_HT) != 0U))
 970:Drivers/STM32H5xx_HAL_Driver/Src/stm32h5xx_hal_dma.c ****   {
 971:Drivers/STM32H5xx_HAL_Driver/Src/stm32h5xx_hal_dma.c ****     /* Check if interrupt source is enabled */
 972:Drivers/STM32H5xx_HAL_Driver/Src/stm32h5xx_hal_dma.c ****     if (__HAL_DMA_GET_IT_SOURCE(hdma, DMA_IT_HT) != 0U)
 973:Drivers/STM32H5xx_HAL_Driver/Src/stm32h5xx_hal_dma.c ****     {
 974:Drivers/STM32H5xx_HAL_Driver/Src/stm32h5xx_hal_dma.c ****       /* Clear the half transfer flag */
 975:Drivers/STM32H5xx_HAL_Driver/Src/stm32h5xx_hal_dma.c ****       __HAL_DMA_CLEAR_FLAG(hdma, DMA_FLAG_HT);
 976:Drivers/STM32H5xx_HAL_Driver/Src/stm32h5xx_hal_dma.c **** 
 977:Drivers/STM32H5xx_HAL_Driver/Src/stm32h5xx_hal_dma.c ****       /* Check half transfer complete callback */
 978:Drivers/STM32H5xx_HAL_Driver/Src/stm32h5xx_hal_dma.c ****       if (hdma->XferHalfCpltCallback != NULL)
 979:Drivers/STM32H5xx_HAL_Driver/Src/stm32h5xx_hal_dma.c ****       {
 980:Drivers/STM32H5xx_HAL_Driver/Src/stm32h5xx_hal_dma.c ****         /* Half transfer callback */
 981:Drivers/STM32H5xx_HAL_Driver/Src/stm32h5xx_hal_dma.c ****         hdma->XferHalfCpltCallback(hdma);
 982:Drivers/STM32H5xx_HAL_Driver/Src/stm32h5xx_hal_dma.c ****       }
 983:Drivers/STM32H5xx_HAL_Driver/Src/stm32h5xx_hal_dma.c ****     }
 984:Drivers/STM32H5xx_HAL_Driver/Src/stm32h5xx_hal_dma.c ****   }
 985:Drivers/STM32H5xx_HAL_Driver/Src/stm32h5xx_hal_dma.c **** 
 986:Drivers/STM32H5xx_HAL_Driver/Src/stm32h5xx_hal_dma.c ****   /* Suspend Transfer Interrupt management ********************************************************
 987:Drivers/STM32H5xx_HAL_Driver/Src/stm32h5xx_hal_dma.c ****   if ((__HAL_DMA_GET_FLAG(hdma, DMA_FLAG_SUSP) != 0U))
 988:Drivers/STM32H5xx_HAL_Driver/Src/stm32h5xx_hal_dma.c ****   {
 989:Drivers/STM32H5xx_HAL_Driver/Src/stm32h5xx_hal_dma.c ****     /* Check if interrupt source is enabled */
 990:Drivers/STM32H5xx_HAL_Driver/Src/stm32h5xx_hal_dma.c ****     if (__HAL_DMA_GET_IT_SOURCE(hdma, DMA_IT_SUSP) != 0U)
 991:Drivers/STM32H5xx_HAL_Driver/Src/stm32h5xx_hal_dma.c ****     {
 992:Drivers/STM32H5xx_HAL_Driver/Src/stm32h5xx_hal_dma.c ****       /* Clear the block transfer complete flag */
 993:Drivers/STM32H5xx_HAL_Driver/Src/stm32h5xx_hal_dma.c ****       __HAL_DMA_CLEAR_FLAG(hdma, DMA_FLAG_SUSP);
 994:Drivers/STM32H5xx_HAL_Driver/Src/stm32h5xx_hal_dma.c **** 
 995:Drivers/STM32H5xx_HAL_Driver/Src/stm32h5xx_hal_dma.c ****       /* Check DMA channel state */
 996:Drivers/STM32H5xx_HAL_Driver/Src/stm32h5xx_hal_dma.c ****       if (hdma->State == HAL_DMA_STATE_ABORT)
 997:Drivers/STM32H5xx_HAL_Driver/Src/stm32h5xx_hal_dma.c ****       {
 998:Drivers/STM32H5xx_HAL_Driver/Src/stm32h5xx_hal_dma.c ****         /* Disable the suspend transfer interrupt */
ARM GAS  /var/folders/l3/rwskfq612tq4b7hmtv37jkjw0000gp/T//ccx7lwMy.s 			page 19


 999:Drivers/STM32H5xx_HAL_Driver/Src/stm32h5xx_hal_dma.c ****         __HAL_DMA_DISABLE_IT(hdma, DMA_IT_SUSP);
1000:Drivers/STM32H5xx_HAL_Driver/Src/stm32h5xx_hal_dma.c **** 
1001:Drivers/STM32H5xx_HAL_Driver/Src/stm32h5xx_hal_dma.c ****         /* Reset the channel internal state and reset the FIFO */
1002:Drivers/STM32H5xx_HAL_Driver/Src/stm32h5xx_hal_dma.c ****         hdma->Instance->CCR |= DMA_CCR_RESET;
1003:Drivers/STM32H5xx_HAL_Driver/Src/stm32h5xx_hal_dma.c **** 
1004:Drivers/STM32H5xx_HAL_Driver/Src/stm32h5xx_hal_dma.c ****         /* Update the DMA channel state */
1005:Drivers/STM32H5xx_HAL_Driver/Src/stm32h5xx_hal_dma.c ****         hdma->State = HAL_DMA_STATE_READY;
1006:Drivers/STM32H5xx_HAL_Driver/Src/stm32h5xx_hal_dma.c **** 
1007:Drivers/STM32H5xx_HAL_Driver/Src/stm32h5xx_hal_dma.c ****         /* Check DMA channel transfer mode */
1008:Drivers/STM32H5xx_HAL_Driver/Src/stm32h5xx_hal_dma.c ****         if ((hdma->Mode & DMA_LINKEDLIST) == DMA_LINKEDLIST)
1009:Drivers/STM32H5xx_HAL_Driver/Src/stm32h5xx_hal_dma.c ****         {
1010:Drivers/STM32H5xx_HAL_Driver/Src/stm32h5xx_hal_dma.c ****           /* Update the linked-list queue state */
1011:Drivers/STM32H5xx_HAL_Driver/Src/stm32h5xx_hal_dma.c ****           hdma->LinkedListQueue->State = HAL_DMA_QUEUE_STATE_READY;
1012:Drivers/STM32H5xx_HAL_Driver/Src/stm32h5xx_hal_dma.c **** 
1013:Drivers/STM32H5xx_HAL_Driver/Src/stm32h5xx_hal_dma.c ****           /* Clear remaining data size to ensure loading linked-list from memory next start */
1014:Drivers/STM32H5xx_HAL_Driver/Src/stm32h5xx_hal_dma.c ****           hdma->Instance->CBR1 = 0U;
1015:Drivers/STM32H5xx_HAL_Driver/Src/stm32h5xx_hal_dma.c ****         }
1016:Drivers/STM32H5xx_HAL_Driver/Src/stm32h5xx_hal_dma.c **** 
1017:Drivers/STM32H5xx_HAL_Driver/Src/stm32h5xx_hal_dma.c ****         /* Process Unlocked */
1018:Drivers/STM32H5xx_HAL_Driver/Src/stm32h5xx_hal_dma.c ****         __HAL_UNLOCK(hdma);
1019:Drivers/STM32H5xx_HAL_Driver/Src/stm32h5xx_hal_dma.c **** 
1020:Drivers/STM32H5xx_HAL_Driver/Src/stm32h5xx_hal_dma.c ****         /* Check transfer abort callback */
1021:Drivers/STM32H5xx_HAL_Driver/Src/stm32h5xx_hal_dma.c ****         if (hdma->XferAbortCallback != NULL)
1022:Drivers/STM32H5xx_HAL_Driver/Src/stm32h5xx_hal_dma.c ****         {
1023:Drivers/STM32H5xx_HAL_Driver/Src/stm32h5xx_hal_dma.c ****           /* Transfer abort callback */
1024:Drivers/STM32H5xx_HAL_Driver/Src/stm32h5xx_hal_dma.c ****           hdma->XferAbortCallback(hdma);
1025:Drivers/STM32H5xx_HAL_Driver/Src/stm32h5xx_hal_dma.c ****         }
1026:Drivers/STM32H5xx_HAL_Driver/Src/stm32h5xx_hal_dma.c **** 
1027:Drivers/STM32H5xx_HAL_Driver/Src/stm32h5xx_hal_dma.c ****         return;
1028:Drivers/STM32H5xx_HAL_Driver/Src/stm32h5xx_hal_dma.c ****       }
1029:Drivers/STM32H5xx_HAL_Driver/Src/stm32h5xx_hal_dma.c ****       else
1030:Drivers/STM32H5xx_HAL_Driver/Src/stm32h5xx_hal_dma.c ****       {
1031:Drivers/STM32H5xx_HAL_Driver/Src/stm32h5xx_hal_dma.c ****         /* Update the DMA channel state */
1032:Drivers/STM32H5xx_HAL_Driver/Src/stm32h5xx_hal_dma.c ****         hdma->State = HAL_DMA_STATE_SUSPEND;
1033:Drivers/STM32H5xx_HAL_Driver/Src/stm32h5xx_hal_dma.c **** 
1034:Drivers/STM32H5xx_HAL_Driver/Src/stm32h5xx_hal_dma.c ****         /* Check transfer suspend callback */
1035:Drivers/STM32H5xx_HAL_Driver/Src/stm32h5xx_hal_dma.c ****         if (hdma->XferSuspendCallback != NULL)
1036:Drivers/STM32H5xx_HAL_Driver/Src/stm32h5xx_hal_dma.c ****         {
1037:Drivers/STM32H5xx_HAL_Driver/Src/stm32h5xx_hal_dma.c ****           /* Transfer suspend callback */
1038:Drivers/STM32H5xx_HAL_Driver/Src/stm32h5xx_hal_dma.c ****           hdma->XferSuspendCallback(hdma);
1039:Drivers/STM32H5xx_HAL_Driver/Src/stm32h5xx_hal_dma.c ****         }
1040:Drivers/STM32H5xx_HAL_Driver/Src/stm32h5xx_hal_dma.c ****       }
1041:Drivers/STM32H5xx_HAL_Driver/Src/stm32h5xx_hal_dma.c ****     }
1042:Drivers/STM32H5xx_HAL_Driver/Src/stm32h5xx_hal_dma.c ****   }
1043:Drivers/STM32H5xx_HAL_Driver/Src/stm32h5xx_hal_dma.c **** 
1044:Drivers/STM32H5xx_HAL_Driver/Src/stm32h5xx_hal_dma.c ****   /* Transfer Complete Interrupt management *******************************************************
1045:Drivers/STM32H5xx_HAL_Driver/Src/stm32h5xx_hal_dma.c ****   if ((__HAL_DMA_GET_FLAG(hdma, DMA_FLAG_TC) != 0U))
1046:Drivers/STM32H5xx_HAL_Driver/Src/stm32h5xx_hal_dma.c ****   {
1047:Drivers/STM32H5xx_HAL_Driver/Src/stm32h5xx_hal_dma.c ****     /* Check if interrupt source is enabled */
1048:Drivers/STM32H5xx_HAL_Driver/Src/stm32h5xx_hal_dma.c ****     if (__HAL_DMA_GET_IT_SOURCE(hdma, DMA_IT_TC) != 0U)
1049:Drivers/STM32H5xx_HAL_Driver/Src/stm32h5xx_hal_dma.c ****     {
1050:Drivers/STM32H5xx_HAL_Driver/Src/stm32h5xx_hal_dma.c ****       /* Check DMA channel transfer mode */
1051:Drivers/STM32H5xx_HAL_Driver/Src/stm32h5xx_hal_dma.c ****       if ((hdma->Mode & DMA_LINKEDLIST) == DMA_LINKEDLIST)
1052:Drivers/STM32H5xx_HAL_Driver/Src/stm32h5xx_hal_dma.c ****       {
1053:Drivers/STM32H5xx_HAL_Driver/Src/stm32h5xx_hal_dma.c ****         /* If linked-list transfer */
1054:Drivers/STM32H5xx_HAL_Driver/Src/stm32h5xx_hal_dma.c ****         if (hdma->Instance->CLLR == 0U)
1055:Drivers/STM32H5xx_HAL_Driver/Src/stm32h5xx_hal_dma.c ****         {
ARM GAS  /var/folders/l3/rwskfq612tq4b7hmtv37jkjw0000gp/T//ccx7lwMy.s 			page 20


1056:Drivers/STM32H5xx_HAL_Driver/Src/stm32h5xx_hal_dma.c ****           if (hdma->Instance->CBR1 == 0U)
1057:Drivers/STM32H5xx_HAL_Driver/Src/stm32h5xx_hal_dma.c ****           {
1058:Drivers/STM32H5xx_HAL_Driver/Src/stm32h5xx_hal_dma.c ****             /* Update the DMA channel state */
1059:Drivers/STM32H5xx_HAL_Driver/Src/stm32h5xx_hal_dma.c ****             hdma->State = HAL_DMA_STATE_READY;
1060:Drivers/STM32H5xx_HAL_Driver/Src/stm32h5xx_hal_dma.c **** 
1061:Drivers/STM32H5xx_HAL_Driver/Src/stm32h5xx_hal_dma.c ****             /* Update the linked-list queue state */
1062:Drivers/STM32H5xx_HAL_Driver/Src/stm32h5xx_hal_dma.c ****             hdma->LinkedListQueue->State = HAL_DMA_QUEUE_STATE_READY;
1063:Drivers/STM32H5xx_HAL_Driver/Src/stm32h5xx_hal_dma.c ****           }
1064:Drivers/STM32H5xx_HAL_Driver/Src/stm32h5xx_hal_dma.c ****         }
1065:Drivers/STM32H5xx_HAL_Driver/Src/stm32h5xx_hal_dma.c ****       }
1066:Drivers/STM32H5xx_HAL_Driver/Src/stm32h5xx_hal_dma.c ****       else
1067:Drivers/STM32H5xx_HAL_Driver/Src/stm32h5xx_hal_dma.c ****       {
1068:Drivers/STM32H5xx_HAL_Driver/Src/stm32h5xx_hal_dma.c ****         /* If normal transfer */
1069:Drivers/STM32H5xx_HAL_Driver/Src/stm32h5xx_hal_dma.c ****         if (hdma->Instance->CBR1 == 0U)
1070:Drivers/STM32H5xx_HAL_Driver/Src/stm32h5xx_hal_dma.c ****         {
1071:Drivers/STM32H5xx_HAL_Driver/Src/stm32h5xx_hal_dma.c ****           /* Update the DMA channel state */
1072:Drivers/STM32H5xx_HAL_Driver/Src/stm32h5xx_hal_dma.c ****           hdma->State = HAL_DMA_STATE_READY;
1073:Drivers/STM32H5xx_HAL_Driver/Src/stm32h5xx_hal_dma.c ****         }
1074:Drivers/STM32H5xx_HAL_Driver/Src/stm32h5xx_hal_dma.c ****       }
1075:Drivers/STM32H5xx_HAL_Driver/Src/stm32h5xx_hal_dma.c **** 
1076:Drivers/STM32H5xx_HAL_Driver/Src/stm32h5xx_hal_dma.c ****       /* Clear TC and HT transfer flags */
1077:Drivers/STM32H5xx_HAL_Driver/Src/stm32h5xx_hal_dma.c ****       __HAL_DMA_CLEAR_FLAG(hdma, (DMA_FLAG_TC | DMA_FLAG_HT));
1078:Drivers/STM32H5xx_HAL_Driver/Src/stm32h5xx_hal_dma.c **** 
1079:Drivers/STM32H5xx_HAL_Driver/Src/stm32h5xx_hal_dma.c ****       /* Process Unlocked */
1080:Drivers/STM32H5xx_HAL_Driver/Src/stm32h5xx_hal_dma.c ****       __HAL_UNLOCK(hdma);
1081:Drivers/STM32H5xx_HAL_Driver/Src/stm32h5xx_hal_dma.c **** 
1082:Drivers/STM32H5xx_HAL_Driver/Src/stm32h5xx_hal_dma.c ****       /* Check transfer complete callback */
1083:Drivers/STM32H5xx_HAL_Driver/Src/stm32h5xx_hal_dma.c ****       if (hdma->XferCpltCallback != NULL)
1084:Drivers/STM32H5xx_HAL_Driver/Src/stm32h5xx_hal_dma.c ****       {
1085:Drivers/STM32H5xx_HAL_Driver/Src/stm32h5xx_hal_dma.c ****         /* Channel Transfer Complete callback */
1086:Drivers/STM32H5xx_HAL_Driver/Src/stm32h5xx_hal_dma.c ****         hdma->XferCpltCallback(hdma);
1087:Drivers/STM32H5xx_HAL_Driver/Src/stm32h5xx_hal_dma.c ****       }
1088:Drivers/STM32H5xx_HAL_Driver/Src/stm32h5xx_hal_dma.c ****     }
1089:Drivers/STM32H5xx_HAL_Driver/Src/stm32h5xx_hal_dma.c ****   }
1090:Drivers/STM32H5xx_HAL_Driver/Src/stm32h5xx_hal_dma.c **** 
1091:Drivers/STM32H5xx_HAL_Driver/Src/stm32h5xx_hal_dma.c ****   /* Manage error case ****************************************************************************
1092:Drivers/STM32H5xx_HAL_Driver/Src/stm32h5xx_hal_dma.c ****   if (hdma->ErrorCode != HAL_DMA_ERROR_NONE)
1093:Drivers/STM32H5xx_HAL_Driver/Src/stm32h5xx_hal_dma.c ****   {
1094:Drivers/STM32H5xx_HAL_Driver/Src/stm32h5xx_hal_dma.c ****     /* Reset the channel internal state and reset the FIFO */
1095:Drivers/STM32H5xx_HAL_Driver/Src/stm32h5xx_hal_dma.c ****     hdma->Instance->CCR |= DMA_CCR_RESET;
1096:Drivers/STM32H5xx_HAL_Driver/Src/stm32h5xx_hal_dma.c **** 
1097:Drivers/STM32H5xx_HAL_Driver/Src/stm32h5xx_hal_dma.c ****     /* Update the DMA channel state */
1098:Drivers/STM32H5xx_HAL_Driver/Src/stm32h5xx_hal_dma.c ****     hdma->State = HAL_DMA_STATE_READY;
1099:Drivers/STM32H5xx_HAL_Driver/Src/stm32h5xx_hal_dma.c **** 
1100:Drivers/STM32H5xx_HAL_Driver/Src/stm32h5xx_hal_dma.c ****     /* Check DMA channel transfer mode */
1101:Drivers/STM32H5xx_HAL_Driver/Src/stm32h5xx_hal_dma.c ****     if ((hdma->Mode & DMA_LINKEDLIST) == DMA_LINKEDLIST)
1102:Drivers/STM32H5xx_HAL_Driver/Src/stm32h5xx_hal_dma.c ****     {
1103:Drivers/STM32H5xx_HAL_Driver/Src/stm32h5xx_hal_dma.c ****       /* Update the linked-list queue state */
1104:Drivers/STM32H5xx_HAL_Driver/Src/stm32h5xx_hal_dma.c ****       hdma->LinkedListQueue->State = HAL_DMA_QUEUE_STATE_READY;
1105:Drivers/STM32H5xx_HAL_Driver/Src/stm32h5xx_hal_dma.c ****     }
1106:Drivers/STM32H5xx_HAL_Driver/Src/stm32h5xx_hal_dma.c **** 
1107:Drivers/STM32H5xx_HAL_Driver/Src/stm32h5xx_hal_dma.c ****     /* Process Unlocked */
1108:Drivers/STM32H5xx_HAL_Driver/Src/stm32h5xx_hal_dma.c ****     __HAL_UNLOCK(hdma);
1109:Drivers/STM32H5xx_HAL_Driver/Src/stm32h5xx_hal_dma.c **** 
1110:Drivers/STM32H5xx_HAL_Driver/Src/stm32h5xx_hal_dma.c ****     /* Check transfer error callback */
1111:Drivers/STM32H5xx_HAL_Driver/Src/stm32h5xx_hal_dma.c ****     if (hdma->XferErrorCallback != NULL)
1112:Drivers/STM32H5xx_HAL_Driver/Src/stm32h5xx_hal_dma.c ****     {
ARM GAS  /var/folders/l3/rwskfq612tq4b7hmtv37jkjw0000gp/T//ccx7lwMy.s 			page 21


1113:Drivers/STM32H5xx_HAL_Driver/Src/stm32h5xx_hal_dma.c ****       /* Transfer error callback */
1114:Drivers/STM32H5xx_HAL_Driver/Src/stm32h5xx_hal_dma.c ****       hdma->XferErrorCallback(hdma);
1115:Drivers/STM32H5xx_HAL_Driver/Src/stm32h5xx_hal_dma.c ****     }
1116:Drivers/STM32H5xx_HAL_Driver/Src/stm32h5xx_hal_dma.c ****   }
1117:Drivers/STM32H5xx_HAL_Driver/Src/stm32h5xx_hal_dma.c **** }
1118:Drivers/STM32H5xx_HAL_Driver/Src/stm32h5xx_hal_dma.c **** 
1119:Drivers/STM32H5xx_HAL_Driver/Src/stm32h5xx_hal_dma.c **** /**
1120:Drivers/STM32H5xx_HAL_Driver/Src/stm32h5xx_hal_dma.c ****   * @brief  Register callback according to specified ID.
1121:Drivers/STM32H5xx_HAL_Driver/Src/stm32h5xx_hal_dma.c ****   * @note   The HAL_DMA_RegisterCallback() may be called before HAL_DMA_Init() in HAL_DMA_STATE_RES
1122:Drivers/STM32H5xx_HAL_Driver/Src/stm32h5xx_hal_dma.c ****   *         to register callbacks for HAL_DMA_MSPINIT_CB_ID and HAL_DMA_MSPDEINIT_CB_ID.
1123:Drivers/STM32H5xx_HAL_Driver/Src/stm32h5xx_hal_dma.c ****   * @param  hdma       : Pointer to a DMA_HandleTypeDef structure that contains the configuration i
1124:Drivers/STM32H5xx_HAL_Driver/Src/stm32h5xx_hal_dma.c ****   *                      specified DMA Channel.
1125:Drivers/STM32H5xx_HAL_Driver/Src/stm32h5xx_hal_dma.c ****   * @param  CallbackID : User Callback identifier which could be a value of HAL_DMA_CallbackIDTypeD
1126:Drivers/STM32H5xx_HAL_Driver/Src/stm32h5xx_hal_dma.c ****   * @param  pCallback  : Pointer to private callback function.
1127:Drivers/STM32H5xx_HAL_Driver/Src/stm32h5xx_hal_dma.c ****   * @retval HAL status.
1128:Drivers/STM32H5xx_HAL_Driver/Src/stm32h5xx_hal_dma.c ****   */
1129:Drivers/STM32H5xx_HAL_Driver/Src/stm32h5xx_hal_dma.c **** HAL_StatusTypeDef HAL_DMA_RegisterCallback(DMA_HandleTypeDef *const hdma,
1130:Drivers/STM32H5xx_HAL_Driver/Src/stm32h5xx_hal_dma.c ****                                            HAL_DMA_CallbackIDTypeDef CallbackID,
1131:Drivers/STM32H5xx_HAL_Driver/Src/stm32h5xx_hal_dma.c ****                                            void (*const pCallback)(DMA_HandleTypeDef *const _hdma))
1132:Drivers/STM32H5xx_HAL_Driver/Src/stm32h5xx_hal_dma.c **** {
1133:Drivers/STM32H5xx_HAL_Driver/Src/stm32h5xx_hal_dma.c ****   HAL_StatusTypeDef status = HAL_OK;
1134:Drivers/STM32H5xx_HAL_Driver/Src/stm32h5xx_hal_dma.c **** 
1135:Drivers/STM32H5xx_HAL_Driver/Src/stm32h5xx_hal_dma.c ****   /* Check the DMA peripheral handle parameter */
1136:Drivers/STM32H5xx_HAL_Driver/Src/stm32h5xx_hal_dma.c ****   if (hdma == NULL)
1137:Drivers/STM32H5xx_HAL_Driver/Src/stm32h5xx_hal_dma.c ****   {
1138:Drivers/STM32H5xx_HAL_Driver/Src/stm32h5xx_hal_dma.c ****     return HAL_ERROR;
1139:Drivers/STM32H5xx_HAL_Driver/Src/stm32h5xx_hal_dma.c ****   }
1140:Drivers/STM32H5xx_HAL_Driver/Src/stm32h5xx_hal_dma.c **** 
1141:Drivers/STM32H5xx_HAL_Driver/Src/stm32h5xx_hal_dma.c ****   /* Check DMA channel state */
1142:Drivers/STM32H5xx_HAL_Driver/Src/stm32h5xx_hal_dma.c ****   if (hdma->State == HAL_DMA_STATE_READY)
1143:Drivers/STM32H5xx_HAL_Driver/Src/stm32h5xx_hal_dma.c ****   {
1144:Drivers/STM32H5xx_HAL_Driver/Src/stm32h5xx_hal_dma.c ****     /* Check callback ID */
1145:Drivers/STM32H5xx_HAL_Driver/Src/stm32h5xx_hal_dma.c ****     switch (CallbackID)
1146:Drivers/STM32H5xx_HAL_Driver/Src/stm32h5xx_hal_dma.c ****     {
1147:Drivers/STM32H5xx_HAL_Driver/Src/stm32h5xx_hal_dma.c ****       case HAL_DMA_XFER_CPLT_CB_ID:
1148:Drivers/STM32H5xx_HAL_Driver/Src/stm32h5xx_hal_dma.c ****       {
1149:Drivers/STM32H5xx_HAL_Driver/Src/stm32h5xx_hal_dma.c ****         /* Register transfer complete callback */
1150:Drivers/STM32H5xx_HAL_Driver/Src/stm32h5xx_hal_dma.c ****         hdma->XferCpltCallback = pCallback;
1151:Drivers/STM32H5xx_HAL_Driver/Src/stm32h5xx_hal_dma.c ****         break;
1152:Drivers/STM32H5xx_HAL_Driver/Src/stm32h5xx_hal_dma.c ****       }
1153:Drivers/STM32H5xx_HAL_Driver/Src/stm32h5xx_hal_dma.c **** 
1154:Drivers/STM32H5xx_HAL_Driver/Src/stm32h5xx_hal_dma.c ****       case HAL_DMA_XFER_HALFCPLT_CB_ID:
1155:Drivers/STM32H5xx_HAL_Driver/Src/stm32h5xx_hal_dma.c ****       {
1156:Drivers/STM32H5xx_HAL_Driver/Src/stm32h5xx_hal_dma.c ****         /* Register half transfer callback */
1157:Drivers/STM32H5xx_HAL_Driver/Src/stm32h5xx_hal_dma.c ****         hdma->XferHalfCpltCallback = pCallback;
1158:Drivers/STM32H5xx_HAL_Driver/Src/stm32h5xx_hal_dma.c ****         break;
1159:Drivers/STM32H5xx_HAL_Driver/Src/stm32h5xx_hal_dma.c ****       }
1160:Drivers/STM32H5xx_HAL_Driver/Src/stm32h5xx_hal_dma.c **** 
1161:Drivers/STM32H5xx_HAL_Driver/Src/stm32h5xx_hal_dma.c ****       case HAL_DMA_XFER_ERROR_CB_ID:
1162:Drivers/STM32H5xx_HAL_Driver/Src/stm32h5xx_hal_dma.c ****       {
1163:Drivers/STM32H5xx_HAL_Driver/Src/stm32h5xx_hal_dma.c ****         /* Register transfer error callback */
1164:Drivers/STM32H5xx_HAL_Driver/Src/stm32h5xx_hal_dma.c ****         hdma->XferErrorCallback = pCallback;
1165:Drivers/STM32H5xx_HAL_Driver/Src/stm32h5xx_hal_dma.c ****         break;
1166:Drivers/STM32H5xx_HAL_Driver/Src/stm32h5xx_hal_dma.c ****       }
1167:Drivers/STM32H5xx_HAL_Driver/Src/stm32h5xx_hal_dma.c **** 
1168:Drivers/STM32H5xx_HAL_Driver/Src/stm32h5xx_hal_dma.c ****       case HAL_DMA_XFER_ABORT_CB_ID:
1169:Drivers/STM32H5xx_HAL_Driver/Src/stm32h5xx_hal_dma.c ****       {
ARM GAS  /var/folders/l3/rwskfq612tq4b7hmtv37jkjw0000gp/T//ccx7lwMy.s 			page 22


1170:Drivers/STM32H5xx_HAL_Driver/Src/stm32h5xx_hal_dma.c ****         /* Register abort callback */
1171:Drivers/STM32H5xx_HAL_Driver/Src/stm32h5xx_hal_dma.c ****         hdma->XferAbortCallback = pCallback;
1172:Drivers/STM32H5xx_HAL_Driver/Src/stm32h5xx_hal_dma.c ****         break;
1173:Drivers/STM32H5xx_HAL_Driver/Src/stm32h5xx_hal_dma.c ****       }
1174:Drivers/STM32H5xx_HAL_Driver/Src/stm32h5xx_hal_dma.c **** 
1175:Drivers/STM32H5xx_HAL_Driver/Src/stm32h5xx_hal_dma.c ****       case HAL_DMA_XFER_SUSPEND_CB_ID:
1176:Drivers/STM32H5xx_HAL_Driver/Src/stm32h5xx_hal_dma.c ****       {
1177:Drivers/STM32H5xx_HAL_Driver/Src/stm32h5xx_hal_dma.c ****         /* Register suspend callback */
1178:Drivers/STM32H5xx_HAL_Driver/Src/stm32h5xx_hal_dma.c ****         hdma->XferSuspendCallback = pCallback;
1179:Drivers/STM32H5xx_HAL_Driver/Src/stm32h5xx_hal_dma.c ****         break;
1180:Drivers/STM32H5xx_HAL_Driver/Src/stm32h5xx_hal_dma.c ****       }
1181:Drivers/STM32H5xx_HAL_Driver/Src/stm32h5xx_hal_dma.c **** 
1182:Drivers/STM32H5xx_HAL_Driver/Src/stm32h5xx_hal_dma.c ****       default:
1183:Drivers/STM32H5xx_HAL_Driver/Src/stm32h5xx_hal_dma.c ****       {
1184:Drivers/STM32H5xx_HAL_Driver/Src/stm32h5xx_hal_dma.c ****         /* Update error status */
1185:Drivers/STM32H5xx_HAL_Driver/Src/stm32h5xx_hal_dma.c ****         status = HAL_ERROR;
1186:Drivers/STM32H5xx_HAL_Driver/Src/stm32h5xx_hal_dma.c ****         break;
1187:Drivers/STM32H5xx_HAL_Driver/Src/stm32h5xx_hal_dma.c ****       }
1188:Drivers/STM32H5xx_HAL_Driver/Src/stm32h5xx_hal_dma.c ****     }
1189:Drivers/STM32H5xx_HAL_Driver/Src/stm32h5xx_hal_dma.c ****   }
1190:Drivers/STM32H5xx_HAL_Driver/Src/stm32h5xx_hal_dma.c ****   else
1191:Drivers/STM32H5xx_HAL_Driver/Src/stm32h5xx_hal_dma.c ****   {
1192:Drivers/STM32H5xx_HAL_Driver/Src/stm32h5xx_hal_dma.c ****     /* Update error status */
1193:Drivers/STM32H5xx_HAL_Driver/Src/stm32h5xx_hal_dma.c ****     status =  HAL_ERROR;
1194:Drivers/STM32H5xx_HAL_Driver/Src/stm32h5xx_hal_dma.c ****   }
1195:Drivers/STM32H5xx_HAL_Driver/Src/stm32h5xx_hal_dma.c **** 
1196:Drivers/STM32H5xx_HAL_Driver/Src/stm32h5xx_hal_dma.c ****   return status;
1197:Drivers/STM32H5xx_HAL_Driver/Src/stm32h5xx_hal_dma.c **** }
1198:Drivers/STM32H5xx_HAL_Driver/Src/stm32h5xx_hal_dma.c **** 
1199:Drivers/STM32H5xx_HAL_Driver/Src/stm32h5xx_hal_dma.c **** /**
1200:Drivers/STM32H5xx_HAL_Driver/Src/stm32h5xx_hal_dma.c ****   * @brief  Unregister callback according to specified ID.
1201:Drivers/STM32H5xx_HAL_Driver/Src/stm32h5xx_hal_dma.c ****   * @note   The HAL_DMA_UnRegisterCallback() may be called before HAL_DMA_Init() in HAL_DMA_STATE_R
1202:Drivers/STM32H5xx_HAL_Driver/Src/stm32h5xx_hal_dma.c ****   *         to un-register callbacks for HAL_DMA_MSPINIT_CB_ID and HAL_DMA_MSPDEINIT_CB_ID.
1203:Drivers/STM32H5xx_HAL_Driver/Src/stm32h5xx_hal_dma.c ****   * @param  hdma       : Pointer to a DMA_HandleTypeDef structure that contains the configuration i
1204:Drivers/STM32H5xx_HAL_Driver/Src/stm32h5xx_hal_dma.c ****   *                      specified DMA Channel.
1205:Drivers/STM32H5xx_HAL_Driver/Src/stm32h5xx_hal_dma.c ****   * @param  CallbackID : User Callback identifier which could be a value of HAL_DMA_CallbackIDTypeD
1206:Drivers/STM32H5xx_HAL_Driver/Src/stm32h5xx_hal_dma.c ****   * @retval HAL status.
1207:Drivers/STM32H5xx_HAL_Driver/Src/stm32h5xx_hal_dma.c ****   */
1208:Drivers/STM32H5xx_HAL_Driver/Src/stm32h5xx_hal_dma.c **** HAL_StatusTypeDef HAL_DMA_UnRegisterCallback(DMA_HandleTypeDef *const hdma,
1209:Drivers/STM32H5xx_HAL_Driver/Src/stm32h5xx_hal_dma.c ****                                              HAL_DMA_CallbackIDTypeDef CallbackID)
1210:Drivers/STM32H5xx_HAL_Driver/Src/stm32h5xx_hal_dma.c **** {
1211:Drivers/STM32H5xx_HAL_Driver/Src/stm32h5xx_hal_dma.c ****   HAL_StatusTypeDef status = HAL_OK;
1212:Drivers/STM32H5xx_HAL_Driver/Src/stm32h5xx_hal_dma.c **** 
1213:Drivers/STM32H5xx_HAL_Driver/Src/stm32h5xx_hal_dma.c ****   /* Check the DMA peripheral handle parameter */
1214:Drivers/STM32H5xx_HAL_Driver/Src/stm32h5xx_hal_dma.c ****   if (hdma == NULL)
1215:Drivers/STM32H5xx_HAL_Driver/Src/stm32h5xx_hal_dma.c ****   {
1216:Drivers/STM32H5xx_HAL_Driver/Src/stm32h5xx_hal_dma.c ****     return HAL_ERROR;
1217:Drivers/STM32H5xx_HAL_Driver/Src/stm32h5xx_hal_dma.c ****   }
1218:Drivers/STM32H5xx_HAL_Driver/Src/stm32h5xx_hal_dma.c **** 
1219:Drivers/STM32H5xx_HAL_Driver/Src/stm32h5xx_hal_dma.c ****   /* Check DMA channel state */
1220:Drivers/STM32H5xx_HAL_Driver/Src/stm32h5xx_hal_dma.c ****   if (hdma->State == HAL_DMA_STATE_READY)
1221:Drivers/STM32H5xx_HAL_Driver/Src/stm32h5xx_hal_dma.c ****   {
1222:Drivers/STM32H5xx_HAL_Driver/Src/stm32h5xx_hal_dma.c ****     /* Check callback ID */
1223:Drivers/STM32H5xx_HAL_Driver/Src/stm32h5xx_hal_dma.c ****     switch (CallbackID)
1224:Drivers/STM32H5xx_HAL_Driver/Src/stm32h5xx_hal_dma.c ****     {
1225:Drivers/STM32H5xx_HAL_Driver/Src/stm32h5xx_hal_dma.c ****       case HAL_DMA_XFER_CPLT_CB_ID:
1226:Drivers/STM32H5xx_HAL_Driver/Src/stm32h5xx_hal_dma.c ****       {
ARM GAS  /var/folders/l3/rwskfq612tq4b7hmtv37jkjw0000gp/T//ccx7lwMy.s 			page 23


1227:Drivers/STM32H5xx_HAL_Driver/Src/stm32h5xx_hal_dma.c ****         /* UnRegister transfer complete callback */
1228:Drivers/STM32H5xx_HAL_Driver/Src/stm32h5xx_hal_dma.c ****         hdma->XferCpltCallback = NULL;
1229:Drivers/STM32H5xx_HAL_Driver/Src/stm32h5xx_hal_dma.c ****         break;
1230:Drivers/STM32H5xx_HAL_Driver/Src/stm32h5xx_hal_dma.c ****       }
1231:Drivers/STM32H5xx_HAL_Driver/Src/stm32h5xx_hal_dma.c **** 
1232:Drivers/STM32H5xx_HAL_Driver/Src/stm32h5xx_hal_dma.c ****       case HAL_DMA_XFER_HALFCPLT_CB_ID:
1233:Drivers/STM32H5xx_HAL_Driver/Src/stm32h5xx_hal_dma.c ****       {
1234:Drivers/STM32H5xx_HAL_Driver/Src/stm32h5xx_hal_dma.c ****         /* UnRegister half transfer callback */
1235:Drivers/STM32H5xx_HAL_Driver/Src/stm32h5xx_hal_dma.c ****         hdma->XferHalfCpltCallback = NULL;
1236:Drivers/STM32H5xx_HAL_Driver/Src/stm32h5xx_hal_dma.c ****         break;
1237:Drivers/STM32H5xx_HAL_Driver/Src/stm32h5xx_hal_dma.c ****       }
1238:Drivers/STM32H5xx_HAL_Driver/Src/stm32h5xx_hal_dma.c **** 
1239:Drivers/STM32H5xx_HAL_Driver/Src/stm32h5xx_hal_dma.c ****       case HAL_DMA_XFER_ERROR_CB_ID:
1240:Drivers/STM32H5xx_HAL_Driver/Src/stm32h5xx_hal_dma.c ****       {
1241:Drivers/STM32H5xx_HAL_Driver/Src/stm32h5xx_hal_dma.c ****         /* UnRegister transfer error callback */
1242:Drivers/STM32H5xx_HAL_Driver/Src/stm32h5xx_hal_dma.c ****         hdma->XferErrorCallback = NULL;
1243:Drivers/STM32H5xx_HAL_Driver/Src/stm32h5xx_hal_dma.c ****         break;
1244:Drivers/STM32H5xx_HAL_Driver/Src/stm32h5xx_hal_dma.c ****       }
1245:Drivers/STM32H5xx_HAL_Driver/Src/stm32h5xx_hal_dma.c **** 
1246:Drivers/STM32H5xx_HAL_Driver/Src/stm32h5xx_hal_dma.c ****       case HAL_DMA_XFER_ABORT_CB_ID:
1247:Drivers/STM32H5xx_HAL_Driver/Src/stm32h5xx_hal_dma.c ****       {
1248:Drivers/STM32H5xx_HAL_Driver/Src/stm32h5xx_hal_dma.c ****         /* UnRegister abort callback */
1249:Drivers/STM32H5xx_HAL_Driver/Src/stm32h5xx_hal_dma.c ****         hdma->XferAbortCallback = NULL;
1250:Drivers/STM32H5xx_HAL_Driver/Src/stm32h5xx_hal_dma.c ****         break;
1251:Drivers/STM32H5xx_HAL_Driver/Src/stm32h5xx_hal_dma.c ****       }
1252:Drivers/STM32H5xx_HAL_Driver/Src/stm32h5xx_hal_dma.c **** 
1253:Drivers/STM32H5xx_HAL_Driver/Src/stm32h5xx_hal_dma.c ****       case HAL_DMA_XFER_SUSPEND_CB_ID:
1254:Drivers/STM32H5xx_HAL_Driver/Src/stm32h5xx_hal_dma.c ****       {
1255:Drivers/STM32H5xx_HAL_Driver/Src/stm32h5xx_hal_dma.c ****         /* UnRegister suspend callback */
1256:Drivers/STM32H5xx_HAL_Driver/Src/stm32h5xx_hal_dma.c ****         hdma->XferSuspendCallback = NULL;
1257:Drivers/STM32H5xx_HAL_Driver/Src/stm32h5xx_hal_dma.c ****         break;
1258:Drivers/STM32H5xx_HAL_Driver/Src/stm32h5xx_hal_dma.c ****       }
1259:Drivers/STM32H5xx_HAL_Driver/Src/stm32h5xx_hal_dma.c **** 
1260:Drivers/STM32H5xx_HAL_Driver/Src/stm32h5xx_hal_dma.c ****       case HAL_DMA_XFER_ALL_CB_ID:
1261:Drivers/STM32H5xx_HAL_Driver/Src/stm32h5xx_hal_dma.c ****       {
1262:Drivers/STM32H5xx_HAL_Driver/Src/stm32h5xx_hal_dma.c ****         /* UnRegister all available callbacks */
1263:Drivers/STM32H5xx_HAL_Driver/Src/stm32h5xx_hal_dma.c ****         hdma->XferCpltCallback     = NULL;
1264:Drivers/STM32H5xx_HAL_Driver/Src/stm32h5xx_hal_dma.c ****         hdma->XferHalfCpltCallback = NULL;
1265:Drivers/STM32H5xx_HAL_Driver/Src/stm32h5xx_hal_dma.c ****         hdma->XferErrorCallback    = NULL;
1266:Drivers/STM32H5xx_HAL_Driver/Src/stm32h5xx_hal_dma.c ****         hdma->XferAbortCallback    = NULL;
1267:Drivers/STM32H5xx_HAL_Driver/Src/stm32h5xx_hal_dma.c ****         hdma->XferSuspendCallback  = NULL;
1268:Drivers/STM32H5xx_HAL_Driver/Src/stm32h5xx_hal_dma.c ****         break;
1269:Drivers/STM32H5xx_HAL_Driver/Src/stm32h5xx_hal_dma.c ****       }
1270:Drivers/STM32H5xx_HAL_Driver/Src/stm32h5xx_hal_dma.c **** 
1271:Drivers/STM32H5xx_HAL_Driver/Src/stm32h5xx_hal_dma.c ****       default:
1272:Drivers/STM32H5xx_HAL_Driver/Src/stm32h5xx_hal_dma.c ****       {
1273:Drivers/STM32H5xx_HAL_Driver/Src/stm32h5xx_hal_dma.c ****         /* Update error status */
1274:Drivers/STM32H5xx_HAL_Driver/Src/stm32h5xx_hal_dma.c ****         status = HAL_ERROR;
1275:Drivers/STM32H5xx_HAL_Driver/Src/stm32h5xx_hal_dma.c ****         break;
1276:Drivers/STM32H5xx_HAL_Driver/Src/stm32h5xx_hal_dma.c ****       }
1277:Drivers/STM32H5xx_HAL_Driver/Src/stm32h5xx_hal_dma.c ****     }
1278:Drivers/STM32H5xx_HAL_Driver/Src/stm32h5xx_hal_dma.c ****   }
1279:Drivers/STM32H5xx_HAL_Driver/Src/stm32h5xx_hal_dma.c ****   else
1280:Drivers/STM32H5xx_HAL_Driver/Src/stm32h5xx_hal_dma.c ****   {
1281:Drivers/STM32H5xx_HAL_Driver/Src/stm32h5xx_hal_dma.c ****     /* Update error status */
1282:Drivers/STM32H5xx_HAL_Driver/Src/stm32h5xx_hal_dma.c ****     status = HAL_ERROR;
1283:Drivers/STM32H5xx_HAL_Driver/Src/stm32h5xx_hal_dma.c ****   }
ARM GAS  /var/folders/l3/rwskfq612tq4b7hmtv37jkjw0000gp/T//ccx7lwMy.s 			page 24


1284:Drivers/STM32H5xx_HAL_Driver/Src/stm32h5xx_hal_dma.c **** 
1285:Drivers/STM32H5xx_HAL_Driver/Src/stm32h5xx_hal_dma.c ****   return status;
1286:Drivers/STM32H5xx_HAL_Driver/Src/stm32h5xx_hal_dma.c **** }
1287:Drivers/STM32H5xx_HAL_Driver/Src/stm32h5xx_hal_dma.c **** /**
1288:Drivers/STM32H5xx_HAL_Driver/Src/stm32h5xx_hal_dma.c ****   * @}
1289:Drivers/STM32H5xx_HAL_Driver/Src/stm32h5xx_hal_dma.c ****   */
1290:Drivers/STM32H5xx_HAL_Driver/Src/stm32h5xx_hal_dma.c **** 
1291:Drivers/STM32H5xx_HAL_Driver/Src/stm32h5xx_hal_dma.c **** /** @addtogroup DMA_Exported_Functions_Group3
1292:Drivers/STM32H5xx_HAL_Driver/Src/stm32h5xx_hal_dma.c ****   *
1293:Drivers/STM32H5xx_HAL_Driver/Src/stm32h5xx_hal_dma.c **** @verbatim
1294:Drivers/STM32H5xx_HAL_Driver/Src/stm32h5xx_hal_dma.c ****   =================================================================================================
1295:Drivers/STM32H5xx_HAL_Driver/Src/stm32h5xx_hal_dma.c ****                               ##### State and Errors functions #####
1296:Drivers/STM32H5xx_HAL_Driver/Src/stm32h5xx_hal_dma.c ****   =================================================================================================
1297:Drivers/STM32H5xx_HAL_Driver/Src/stm32h5xx_hal_dma.c ****     [..]
1298:Drivers/STM32H5xx_HAL_Driver/Src/stm32h5xx_hal_dma.c ****       This section provides functions allowing to :
1299:Drivers/STM32H5xx_HAL_Driver/Src/stm32h5xx_hal_dma.c ****       (+) Check the DMA state
1300:Drivers/STM32H5xx_HAL_Driver/Src/stm32h5xx_hal_dma.c ****       (+) Get error code
1301:Drivers/STM32H5xx_HAL_Driver/Src/stm32h5xx_hal_dma.c **** 
1302:Drivers/STM32H5xx_HAL_Driver/Src/stm32h5xx_hal_dma.c ****     [..]
1303:Drivers/STM32H5xx_HAL_Driver/Src/stm32h5xx_hal_dma.c ****       (+) The HAL_DMA_GetState() function allows to get the DMA channel state.
1304:Drivers/STM32H5xx_HAL_Driver/Src/stm32h5xx_hal_dma.c ****       (+) The HAL_DMA_DeInit() function allows to get the DMA channel error code.
1305:Drivers/STM32H5xx_HAL_Driver/Src/stm32h5xx_hal_dma.c **** 
1306:Drivers/STM32H5xx_HAL_Driver/Src/stm32h5xx_hal_dma.c **** @endverbatim
1307:Drivers/STM32H5xx_HAL_Driver/Src/stm32h5xx_hal_dma.c ****   * @{
1308:Drivers/STM32H5xx_HAL_Driver/Src/stm32h5xx_hal_dma.c ****   */
1309:Drivers/STM32H5xx_HAL_Driver/Src/stm32h5xx_hal_dma.c **** 
1310:Drivers/STM32H5xx_HAL_Driver/Src/stm32h5xx_hal_dma.c **** /**
1311:Drivers/STM32H5xx_HAL_Driver/Src/stm32h5xx_hal_dma.c ****   * @brief  Returns the DMA channel state.
1312:Drivers/STM32H5xx_HAL_Driver/Src/stm32h5xx_hal_dma.c ****   * @param  hdma : Pointer to a DMA_HandleTypeDef structure that contains the configuration informa
1313:Drivers/STM32H5xx_HAL_Driver/Src/stm32h5xx_hal_dma.c ****   *                specified DMA Channel.
1314:Drivers/STM32H5xx_HAL_Driver/Src/stm32h5xx_hal_dma.c ****   * @retval DMA state.
1315:Drivers/STM32H5xx_HAL_Driver/Src/stm32h5xx_hal_dma.c ****   */
1316:Drivers/STM32H5xx_HAL_Driver/Src/stm32h5xx_hal_dma.c **** HAL_DMA_StateTypeDef HAL_DMA_GetState(DMA_HandleTypeDef const *const hdma)
1317:Drivers/STM32H5xx_HAL_Driver/Src/stm32h5xx_hal_dma.c **** {
1318:Drivers/STM32H5xx_HAL_Driver/Src/stm32h5xx_hal_dma.c ****   /* Return the DMA channel state */
1319:Drivers/STM32H5xx_HAL_Driver/Src/stm32h5xx_hal_dma.c ****   return hdma->State;
1320:Drivers/STM32H5xx_HAL_Driver/Src/stm32h5xx_hal_dma.c **** }
1321:Drivers/STM32H5xx_HAL_Driver/Src/stm32h5xx_hal_dma.c **** 
1322:Drivers/STM32H5xx_HAL_Driver/Src/stm32h5xx_hal_dma.c **** /**
1323:Drivers/STM32H5xx_HAL_Driver/Src/stm32h5xx_hal_dma.c ****   * @brief  Return the DMA channel error code.
1324:Drivers/STM32H5xx_HAL_Driver/Src/stm32h5xx_hal_dma.c ****   * @param  hdma : Pointer to a DMA_HandleTypeDef structure that contains the configuration informa
1325:Drivers/STM32H5xx_HAL_Driver/Src/stm32h5xx_hal_dma.c ****   *                specified DMA Channel.
1326:Drivers/STM32H5xx_HAL_Driver/Src/stm32h5xx_hal_dma.c ****   * @retval DMA Error Code.
1327:Drivers/STM32H5xx_HAL_Driver/Src/stm32h5xx_hal_dma.c ****   */
1328:Drivers/STM32H5xx_HAL_Driver/Src/stm32h5xx_hal_dma.c **** uint32_t HAL_DMA_GetError(DMA_HandleTypeDef const *const hdma)
1329:Drivers/STM32H5xx_HAL_Driver/Src/stm32h5xx_hal_dma.c **** {
1330:Drivers/STM32H5xx_HAL_Driver/Src/stm32h5xx_hal_dma.c ****   /* Return the DMA channel error code */
1331:Drivers/STM32H5xx_HAL_Driver/Src/stm32h5xx_hal_dma.c ****   return hdma->ErrorCode;
1332:Drivers/STM32H5xx_HAL_Driver/Src/stm32h5xx_hal_dma.c **** }
1333:Drivers/STM32H5xx_HAL_Driver/Src/stm32h5xx_hal_dma.c **** /**
1334:Drivers/STM32H5xx_HAL_Driver/Src/stm32h5xx_hal_dma.c ****   * @}
1335:Drivers/STM32H5xx_HAL_Driver/Src/stm32h5xx_hal_dma.c ****   */
1336:Drivers/STM32H5xx_HAL_Driver/Src/stm32h5xx_hal_dma.c **** 
1337:Drivers/STM32H5xx_HAL_Driver/Src/stm32h5xx_hal_dma.c **** /** @addtogroup DMA_Exported_Functions_Group4
1338:Drivers/STM32H5xx_HAL_Driver/Src/stm32h5xx_hal_dma.c ****   *
1339:Drivers/STM32H5xx_HAL_Driver/Src/stm32h5xx_hal_dma.c **** @verbatim
1340:Drivers/STM32H5xx_HAL_Driver/Src/stm32h5xx_hal_dma.c ****   =================================================================================================
ARM GAS  /var/folders/l3/rwskfq612tq4b7hmtv37jkjw0000gp/T//ccx7lwMy.s 			page 25


1341:Drivers/STM32H5xx_HAL_Driver/Src/stm32h5xx_hal_dma.c ****                            ##### DMA Attributes functions #####
1342:Drivers/STM32H5xx_HAL_Driver/Src/stm32h5xx_hal_dma.c ****   =================================================================================================
1343:Drivers/STM32H5xx_HAL_Driver/Src/stm32h5xx_hal_dma.c ****     [..]
1344:Drivers/STM32H5xx_HAL_Driver/Src/stm32h5xx_hal_dma.c ****       This section provides functions allowing to :
1345:Drivers/STM32H5xx_HAL_Driver/Src/stm32h5xx_hal_dma.c ****       (+) Configure DMA channel secure and privilege attributes.
1346:Drivers/STM32H5xx_HAL_Driver/Src/stm32h5xx_hal_dma.c ****       (+) Get DMA channel secure and privilege attributes.
1347:Drivers/STM32H5xx_HAL_Driver/Src/stm32h5xx_hal_dma.c ****       (+) Lock DMA channel secure and privilege attributes configuration.
1348:Drivers/STM32H5xx_HAL_Driver/Src/stm32h5xx_hal_dma.c ****       (+) Check whether DMA channel secure and privilege attributes configuration is locked or not.
1349:Drivers/STM32H5xx_HAL_Driver/Src/stm32h5xx_hal_dma.c **** 
1350:Drivers/STM32H5xx_HAL_Driver/Src/stm32h5xx_hal_dma.c ****     [..]
1351:Drivers/STM32H5xx_HAL_Driver/Src/stm32h5xx_hal_dma.c ****       (+) The HAL_DMA_ConfigChannelAttributes() function allows to configure DMA channel security a
1352:Drivers/STM32H5xx_HAL_Driver/Src/stm32h5xx_hal_dma.c ****           attributes.
1353:Drivers/STM32H5xx_HAL_Driver/Src/stm32h5xx_hal_dma.c ****       (+) The HAL_DMA_GetConfigChannelAttributes() function allows to get DMA channel security and 
1354:Drivers/STM32H5xx_HAL_Driver/Src/stm32h5xx_hal_dma.c ****           configuration.
1355:Drivers/STM32H5xx_HAL_Driver/Src/stm32h5xx_hal_dma.c ****       (+) The HAL_DMA_LockChannelAttributes() function allows to lock the DMA channel security and 
1356:Drivers/STM32H5xx_HAL_Driver/Src/stm32h5xx_hal_dma.c ****       (+) The HAL_DMA_GetLockChannelAttributes() function allows to get the DMA channel security an
1357:Drivers/STM32H5xx_HAL_Driver/Src/stm32h5xx_hal_dma.c ****           attributes lock status.
1358:Drivers/STM32H5xx_HAL_Driver/Src/stm32h5xx_hal_dma.c **** 
1359:Drivers/STM32H5xx_HAL_Driver/Src/stm32h5xx_hal_dma.c **** @endverbatim
1360:Drivers/STM32H5xx_HAL_Driver/Src/stm32h5xx_hal_dma.c ****   * @{
1361:Drivers/STM32H5xx_HAL_Driver/Src/stm32h5xx_hal_dma.c ****   */
1362:Drivers/STM32H5xx_HAL_Driver/Src/stm32h5xx_hal_dma.c **** 
1363:Drivers/STM32H5xx_HAL_Driver/Src/stm32h5xx_hal_dma.c **** /**
1364:Drivers/STM32H5xx_HAL_Driver/Src/stm32h5xx_hal_dma.c ****   * @brief  Configure the DMA channel security and privilege attribute(s).
1365:Drivers/STM32H5xx_HAL_Driver/Src/stm32h5xx_hal_dma.c ****   * @note   These attributes cannot be modified when the corresponding lock state is enabled.
1366:Drivers/STM32H5xx_HAL_Driver/Src/stm32h5xx_hal_dma.c ****   * @param  hdma              : Pointer to a DMA_HandleTypeDef structure that contains the configur
1367:Drivers/STM32H5xx_HAL_Driver/Src/stm32h5xx_hal_dma.c ****   *                             the specified DMA Channel.
1368:Drivers/STM32H5xx_HAL_Driver/Src/stm32h5xx_hal_dma.c ****   * @param  ChannelAttributes : Specifies the DMA channel secure/privilege attributes.
1369:Drivers/STM32H5xx_HAL_Driver/Src/stm32h5xx_hal_dma.c ****   *                             This parameter can be a one or a combination of @ref DMA_Channel_At
1370:Drivers/STM32H5xx_HAL_Driver/Src/stm32h5xx_hal_dma.c ****   * @retval HAL Status.
1371:Drivers/STM32H5xx_HAL_Driver/Src/stm32h5xx_hal_dma.c ****   */
1372:Drivers/STM32H5xx_HAL_Driver/Src/stm32h5xx_hal_dma.c **** HAL_StatusTypeDef HAL_DMA_ConfigChannelAttributes(DMA_HandleTypeDef *const hdma, uint32_t ChannelAt
1373:Drivers/STM32H5xx_HAL_Driver/Src/stm32h5xx_hal_dma.c **** {
1374:Drivers/STM32H5xx_HAL_Driver/Src/stm32h5xx_hal_dma.c ****   DMA_TypeDef *p_dma_instance;
1375:Drivers/STM32H5xx_HAL_Driver/Src/stm32h5xx_hal_dma.c ****   uint32_t channel_idx;
1376:Drivers/STM32H5xx_HAL_Driver/Src/stm32h5xx_hal_dma.c **** 
1377:Drivers/STM32H5xx_HAL_Driver/Src/stm32h5xx_hal_dma.c ****   /* Check the DMA peripheral handle parameter */
1378:Drivers/STM32H5xx_HAL_Driver/Src/stm32h5xx_hal_dma.c ****   if (hdma == NULL)
1379:Drivers/STM32H5xx_HAL_Driver/Src/stm32h5xx_hal_dma.c ****   {
1380:Drivers/STM32H5xx_HAL_Driver/Src/stm32h5xx_hal_dma.c ****     return HAL_ERROR;
1381:Drivers/STM32H5xx_HAL_Driver/Src/stm32h5xx_hal_dma.c ****   }
1382:Drivers/STM32H5xx_HAL_Driver/Src/stm32h5xx_hal_dma.c **** 
1383:Drivers/STM32H5xx_HAL_Driver/Src/stm32h5xx_hal_dma.c ****   /* Check the parameters */
1384:Drivers/STM32H5xx_HAL_Driver/Src/stm32h5xx_hal_dma.c ****   assert_param(IS_DMA_ATTRIBUTES(ChannelAttributes));
1385:Drivers/STM32H5xx_HAL_Driver/Src/stm32h5xx_hal_dma.c **** 
1386:Drivers/STM32H5xx_HAL_Driver/Src/stm32h5xx_hal_dma.c ****   /* Get DMA instance */
1387:Drivers/STM32H5xx_HAL_Driver/Src/stm32h5xx_hal_dma.c ****   p_dma_instance = GET_DMA_INSTANCE(hdma);
1388:Drivers/STM32H5xx_HAL_Driver/Src/stm32h5xx_hal_dma.c **** 
1389:Drivers/STM32H5xx_HAL_Driver/Src/stm32h5xx_hal_dma.c ****   /* Get channel index */
1390:Drivers/STM32H5xx_HAL_Driver/Src/stm32h5xx_hal_dma.c ****   channel_idx = 1UL << (GET_DMA_CHANNEL(hdma) & 0x1FU);
1391:Drivers/STM32H5xx_HAL_Driver/Src/stm32h5xx_hal_dma.c **** 
1392:Drivers/STM32H5xx_HAL_Driver/Src/stm32h5xx_hal_dma.c ****   /* Check DMA channel privilege attribute management */
1393:Drivers/STM32H5xx_HAL_Driver/Src/stm32h5xx_hal_dma.c ****   if ((ChannelAttributes & DMA_CHANNEL_ATTR_PRIV_MASK) == DMA_CHANNEL_ATTR_PRIV_MASK)
1394:Drivers/STM32H5xx_HAL_Driver/Src/stm32h5xx_hal_dma.c ****   {
1395:Drivers/STM32H5xx_HAL_Driver/Src/stm32h5xx_hal_dma.c ****     /* Configure DMA channel privilege attribute */
1396:Drivers/STM32H5xx_HAL_Driver/Src/stm32h5xx_hal_dma.c ****     if ((ChannelAttributes & DMA_CHANNEL_PRIV) == DMA_CHANNEL_PRIV)
1397:Drivers/STM32H5xx_HAL_Driver/Src/stm32h5xx_hal_dma.c ****     {
ARM GAS  /var/folders/l3/rwskfq612tq4b7hmtv37jkjw0000gp/T//ccx7lwMy.s 			page 26


1398:Drivers/STM32H5xx_HAL_Driver/Src/stm32h5xx_hal_dma.c ****       p_dma_instance->PRIVCFGR |= channel_idx;
1399:Drivers/STM32H5xx_HAL_Driver/Src/stm32h5xx_hal_dma.c ****     }
1400:Drivers/STM32H5xx_HAL_Driver/Src/stm32h5xx_hal_dma.c ****     else
1401:Drivers/STM32H5xx_HAL_Driver/Src/stm32h5xx_hal_dma.c ****     {
1402:Drivers/STM32H5xx_HAL_Driver/Src/stm32h5xx_hal_dma.c ****       p_dma_instance->PRIVCFGR &= (~channel_idx);
1403:Drivers/STM32H5xx_HAL_Driver/Src/stm32h5xx_hal_dma.c ****     }
1404:Drivers/STM32H5xx_HAL_Driver/Src/stm32h5xx_hal_dma.c ****   }
1405:Drivers/STM32H5xx_HAL_Driver/Src/stm32h5xx_hal_dma.c **** 
1406:Drivers/STM32H5xx_HAL_Driver/Src/stm32h5xx_hal_dma.c **** #if defined (__ARM_FEATURE_CMSE) && (__ARM_FEATURE_CMSE == 3U)
1407:Drivers/STM32H5xx_HAL_Driver/Src/stm32h5xx_hal_dma.c ****   /* Check DMA channel security attribute management */
1408:Drivers/STM32H5xx_HAL_Driver/Src/stm32h5xx_hal_dma.c ****   if ((ChannelAttributes & DMA_CHANNEL_ATTR_SEC_MASK) == DMA_CHANNEL_ATTR_SEC_MASK)
1409:Drivers/STM32H5xx_HAL_Driver/Src/stm32h5xx_hal_dma.c ****   {
1410:Drivers/STM32H5xx_HAL_Driver/Src/stm32h5xx_hal_dma.c ****     /* Configure DMA channel security attribute */
1411:Drivers/STM32H5xx_HAL_Driver/Src/stm32h5xx_hal_dma.c ****     if ((ChannelAttributes & DMA_CHANNEL_SEC) == DMA_CHANNEL_SEC)
1412:Drivers/STM32H5xx_HAL_Driver/Src/stm32h5xx_hal_dma.c ****     {
1413:Drivers/STM32H5xx_HAL_Driver/Src/stm32h5xx_hal_dma.c ****       p_dma_instance->SECCFGR |= channel_idx;
1414:Drivers/STM32H5xx_HAL_Driver/Src/stm32h5xx_hal_dma.c ****     }
1415:Drivers/STM32H5xx_HAL_Driver/Src/stm32h5xx_hal_dma.c ****     else
1416:Drivers/STM32H5xx_HAL_Driver/Src/stm32h5xx_hal_dma.c ****     {
1417:Drivers/STM32H5xx_HAL_Driver/Src/stm32h5xx_hal_dma.c ****       p_dma_instance->SECCFGR &= (~channel_idx);
1418:Drivers/STM32H5xx_HAL_Driver/Src/stm32h5xx_hal_dma.c ****     }
1419:Drivers/STM32H5xx_HAL_Driver/Src/stm32h5xx_hal_dma.c ****   }
1420:Drivers/STM32H5xx_HAL_Driver/Src/stm32h5xx_hal_dma.c **** 
1421:Drivers/STM32H5xx_HAL_Driver/Src/stm32h5xx_hal_dma.c ****   /* Channel source security attribute management */
1422:Drivers/STM32H5xx_HAL_Driver/Src/stm32h5xx_hal_dma.c ****   if ((ChannelAttributes & DMA_CHANNEL_ATTR_SEC_SRC_MASK) == DMA_CHANNEL_ATTR_SEC_SRC_MASK)
1423:Drivers/STM32H5xx_HAL_Driver/Src/stm32h5xx_hal_dma.c ****   {
1424:Drivers/STM32H5xx_HAL_Driver/Src/stm32h5xx_hal_dma.c ****     /* Configure DMA channel source security attribute */
1425:Drivers/STM32H5xx_HAL_Driver/Src/stm32h5xx_hal_dma.c ****     if ((ChannelAttributes & DMA_CHANNEL_SRC_SEC) == DMA_CHANNEL_SRC_SEC)
1426:Drivers/STM32H5xx_HAL_Driver/Src/stm32h5xx_hal_dma.c ****     {
1427:Drivers/STM32H5xx_HAL_Driver/Src/stm32h5xx_hal_dma.c ****       hdma->Instance->CTR1 |= DMA_CTR1_SSEC;
1428:Drivers/STM32H5xx_HAL_Driver/Src/stm32h5xx_hal_dma.c ****     }
1429:Drivers/STM32H5xx_HAL_Driver/Src/stm32h5xx_hal_dma.c ****     else
1430:Drivers/STM32H5xx_HAL_Driver/Src/stm32h5xx_hal_dma.c ****     {
1431:Drivers/STM32H5xx_HAL_Driver/Src/stm32h5xx_hal_dma.c ****       hdma->Instance->CTR1 &= (~DMA_CTR1_SSEC);
1432:Drivers/STM32H5xx_HAL_Driver/Src/stm32h5xx_hal_dma.c ****     }
1433:Drivers/STM32H5xx_HAL_Driver/Src/stm32h5xx_hal_dma.c ****   }
1434:Drivers/STM32H5xx_HAL_Driver/Src/stm32h5xx_hal_dma.c **** 
1435:Drivers/STM32H5xx_HAL_Driver/Src/stm32h5xx_hal_dma.c ****   /* Channel destination security attribute management */
1436:Drivers/STM32H5xx_HAL_Driver/Src/stm32h5xx_hal_dma.c ****   if ((ChannelAttributes & DMA_CHANNEL_ATTR_SEC_DEST_MASK) == DMA_CHANNEL_ATTR_SEC_DEST_MASK)
1437:Drivers/STM32H5xx_HAL_Driver/Src/stm32h5xx_hal_dma.c ****   {
1438:Drivers/STM32H5xx_HAL_Driver/Src/stm32h5xx_hal_dma.c ****     /* Configure DMA channel destination security attribute */
1439:Drivers/STM32H5xx_HAL_Driver/Src/stm32h5xx_hal_dma.c ****     if ((ChannelAttributes & DMA_CHANNEL_DEST_SEC) == DMA_CHANNEL_DEST_SEC)
1440:Drivers/STM32H5xx_HAL_Driver/Src/stm32h5xx_hal_dma.c ****     {
1441:Drivers/STM32H5xx_HAL_Driver/Src/stm32h5xx_hal_dma.c ****       hdma->Instance->CTR1 |= DMA_CTR1_DSEC;
1442:Drivers/STM32H5xx_HAL_Driver/Src/stm32h5xx_hal_dma.c ****     }
1443:Drivers/STM32H5xx_HAL_Driver/Src/stm32h5xx_hal_dma.c ****     else
1444:Drivers/STM32H5xx_HAL_Driver/Src/stm32h5xx_hal_dma.c ****     {
1445:Drivers/STM32H5xx_HAL_Driver/Src/stm32h5xx_hal_dma.c ****       hdma->Instance->CTR1 &= (~DMA_CTR1_DSEC);
1446:Drivers/STM32H5xx_HAL_Driver/Src/stm32h5xx_hal_dma.c ****     }
1447:Drivers/STM32H5xx_HAL_Driver/Src/stm32h5xx_hal_dma.c ****   }
1448:Drivers/STM32H5xx_HAL_Driver/Src/stm32h5xx_hal_dma.c **** #endif /* (__ARM_FEATURE_CMSE) && (__ARM_FEATURE_CMSE == 3U) */
1449:Drivers/STM32H5xx_HAL_Driver/Src/stm32h5xx_hal_dma.c **** 
1450:Drivers/STM32H5xx_HAL_Driver/Src/stm32h5xx_hal_dma.c ****   return HAL_OK;
1451:Drivers/STM32H5xx_HAL_Driver/Src/stm32h5xx_hal_dma.c **** }
1452:Drivers/STM32H5xx_HAL_Driver/Src/stm32h5xx_hal_dma.c **** 
1453:Drivers/STM32H5xx_HAL_Driver/Src/stm32h5xx_hal_dma.c **** /**
1454:Drivers/STM32H5xx_HAL_Driver/Src/stm32h5xx_hal_dma.c ****   * @brief  Get the DMA channel security and privilege attributes.
ARM GAS  /var/folders/l3/rwskfq612tq4b7hmtv37jkjw0000gp/T//ccx7lwMy.s 			page 27


1455:Drivers/STM32H5xx_HAL_Driver/Src/stm32h5xx_hal_dma.c ****   * @param  hdma               : Pointer to a DMA_HandleTypeDef structure that contains the configu
1456:Drivers/STM32H5xx_HAL_Driver/Src/stm32h5xx_hal_dma.c ****   *                              for the specified DMA Channel.
1457:Drivers/STM32H5xx_HAL_Driver/Src/stm32h5xx_hal_dma.c ****   * @param  pChannelAttributes : Pointer to the returned attributes.
1458:Drivers/STM32H5xx_HAL_Driver/Src/stm32h5xx_hal_dma.c ****   * @retval HAL Status.
1459:Drivers/STM32H5xx_HAL_Driver/Src/stm32h5xx_hal_dma.c ****   */
1460:Drivers/STM32H5xx_HAL_Driver/Src/stm32h5xx_hal_dma.c **** HAL_StatusTypeDef HAL_DMA_GetConfigChannelAttributes(DMA_HandleTypeDef const *const hdma,
1461:Drivers/STM32H5xx_HAL_Driver/Src/stm32h5xx_hal_dma.c ****                                                      uint32_t *const pChannelAttributes)
1462:Drivers/STM32H5xx_HAL_Driver/Src/stm32h5xx_hal_dma.c **** {
1463:Drivers/STM32H5xx_HAL_Driver/Src/stm32h5xx_hal_dma.c ****   const DMA_TypeDef *p_dma_instance;
1464:Drivers/STM32H5xx_HAL_Driver/Src/stm32h5xx_hal_dma.c ****   uint32_t attributes;
1465:Drivers/STM32H5xx_HAL_Driver/Src/stm32h5xx_hal_dma.c ****   uint32_t channel_idx;
1466:Drivers/STM32H5xx_HAL_Driver/Src/stm32h5xx_hal_dma.c **** 
1467:Drivers/STM32H5xx_HAL_Driver/Src/stm32h5xx_hal_dma.c ****   /* Check the DMA peripheral handle and channel attributes parameters */
1468:Drivers/STM32H5xx_HAL_Driver/Src/stm32h5xx_hal_dma.c ****   if ((hdma == NULL) || (pChannelAttributes == NULL))
1469:Drivers/STM32H5xx_HAL_Driver/Src/stm32h5xx_hal_dma.c ****   {
1470:Drivers/STM32H5xx_HAL_Driver/Src/stm32h5xx_hal_dma.c ****     return HAL_ERROR;
1471:Drivers/STM32H5xx_HAL_Driver/Src/stm32h5xx_hal_dma.c ****   }
1472:Drivers/STM32H5xx_HAL_Driver/Src/stm32h5xx_hal_dma.c **** 
1473:Drivers/STM32H5xx_HAL_Driver/Src/stm32h5xx_hal_dma.c ****   /* Get DMA instance */
1474:Drivers/STM32H5xx_HAL_Driver/Src/stm32h5xx_hal_dma.c ****   p_dma_instance = GET_DMA_INSTANCE(hdma);
1475:Drivers/STM32H5xx_HAL_Driver/Src/stm32h5xx_hal_dma.c **** 
1476:Drivers/STM32H5xx_HAL_Driver/Src/stm32h5xx_hal_dma.c ****   /* Get channel index */
1477:Drivers/STM32H5xx_HAL_Driver/Src/stm32h5xx_hal_dma.c ****   channel_idx = 1UL << (GET_DMA_CHANNEL(hdma) & 0x1FU);
1478:Drivers/STM32H5xx_HAL_Driver/Src/stm32h5xx_hal_dma.c **** 
1479:Drivers/STM32H5xx_HAL_Driver/Src/stm32h5xx_hal_dma.c ****   /* Get DMA channel privilege attribute */
1480:Drivers/STM32H5xx_HAL_Driver/Src/stm32h5xx_hal_dma.c ****   attributes = ((p_dma_instance->PRIVCFGR & channel_idx) == 0U) ? DMA_CHANNEL_NPRIV : DMA_CHANNEL_P
1481:Drivers/STM32H5xx_HAL_Driver/Src/stm32h5xx_hal_dma.c **** 
1482:Drivers/STM32H5xx_HAL_Driver/Src/stm32h5xx_hal_dma.c **** #if defined (DMA_SECCFGR_SEC0)
1483:Drivers/STM32H5xx_HAL_Driver/Src/stm32h5xx_hal_dma.c ****   /* Get DMA channel security attribute */
1484:Drivers/STM32H5xx_HAL_Driver/Src/stm32h5xx_hal_dma.c ****   attributes |= ((p_dma_instance->SECCFGR & channel_idx) == 0U) ? DMA_CHANNEL_NSEC : DMA_CHANNEL_SE
1485:Drivers/STM32H5xx_HAL_Driver/Src/stm32h5xx_hal_dma.c **** 
1486:Drivers/STM32H5xx_HAL_Driver/Src/stm32h5xx_hal_dma.c ****   /* Get DMA channel source security attribute */
1487:Drivers/STM32H5xx_HAL_Driver/Src/stm32h5xx_hal_dma.c ****   attributes |= ((hdma->Instance->CTR1 & DMA_CTR1_SSEC) == 0U) ? DMA_CHANNEL_SRC_NSEC : DMA_CHANNEL
1488:Drivers/STM32H5xx_HAL_Driver/Src/stm32h5xx_hal_dma.c **** 
1489:Drivers/STM32H5xx_HAL_Driver/Src/stm32h5xx_hal_dma.c ****   /* Get DMA channel destination security attribute */
1490:Drivers/STM32H5xx_HAL_Driver/Src/stm32h5xx_hal_dma.c ****   attributes |= ((hdma->Instance->CTR1 & DMA_CTR1_DSEC) == 0U) ? DMA_CHANNEL_DEST_NSEC : DMA_CHANNE
1491:Drivers/STM32H5xx_HAL_Driver/Src/stm32h5xx_hal_dma.c **** #endif /* DMA_SECCFGR_SEC0 */
1492:Drivers/STM32H5xx_HAL_Driver/Src/stm32h5xx_hal_dma.c **** 
1493:Drivers/STM32H5xx_HAL_Driver/Src/stm32h5xx_hal_dma.c ****   /* return value */
1494:Drivers/STM32H5xx_HAL_Driver/Src/stm32h5xx_hal_dma.c ****   *pChannelAttributes = attributes;
1495:Drivers/STM32H5xx_HAL_Driver/Src/stm32h5xx_hal_dma.c **** 
1496:Drivers/STM32H5xx_HAL_Driver/Src/stm32h5xx_hal_dma.c ****   return HAL_OK;
1497:Drivers/STM32H5xx_HAL_Driver/Src/stm32h5xx_hal_dma.c **** }
1498:Drivers/STM32H5xx_HAL_Driver/Src/stm32h5xx_hal_dma.c **** 
1499:Drivers/STM32H5xx_HAL_Driver/Src/stm32h5xx_hal_dma.c **** 
1500:Drivers/STM32H5xx_HAL_Driver/Src/stm32h5xx_hal_dma.c **** #if defined (DMA_RCFGLOCKR_LOCK0)
1501:Drivers/STM32H5xx_HAL_Driver/Src/stm32h5xx_hal_dma.c **** #if defined (__ARM_FEATURE_CMSE) && (__ARM_FEATURE_CMSE == 3U)
1502:Drivers/STM32H5xx_HAL_Driver/Src/stm32h5xx_hal_dma.c **** /**
1503:Drivers/STM32H5xx_HAL_Driver/Src/stm32h5xx_hal_dma.c ****   * @brief  Lock the DMA channel security and privilege attribute(s).
1504:Drivers/STM32H5xx_HAL_Driver/Src/stm32h5xx_hal_dma.c ****   * @param  hdma : Pointer to a DMA_HandleTypeDef structure that contains the configuration informa
1505:Drivers/STM32H5xx_HAL_Driver/Src/stm32h5xx_hal_dma.c ****   *                specified DMA Channel.
1506:Drivers/STM32H5xx_HAL_Driver/Src/stm32h5xx_hal_dma.c ****   * @retval HAL Status.
1507:Drivers/STM32H5xx_HAL_Driver/Src/stm32h5xx_hal_dma.c ****   */
1508:Drivers/STM32H5xx_HAL_Driver/Src/stm32h5xx_hal_dma.c **** HAL_StatusTypeDef HAL_DMA_LockChannelAttributes(DMA_HandleTypeDef const *const hdma)
1509:Drivers/STM32H5xx_HAL_Driver/Src/stm32h5xx_hal_dma.c **** {
1510:Drivers/STM32H5xx_HAL_Driver/Src/stm32h5xx_hal_dma.c ****   DMA_TypeDef *p_dma_instance;
1511:Drivers/STM32H5xx_HAL_Driver/Src/stm32h5xx_hal_dma.c ****   uint32_t channel_idx;
ARM GAS  /var/folders/l3/rwskfq612tq4b7hmtv37jkjw0000gp/T//ccx7lwMy.s 			page 28


1512:Drivers/STM32H5xx_HAL_Driver/Src/stm32h5xx_hal_dma.c **** 
1513:Drivers/STM32H5xx_HAL_Driver/Src/stm32h5xx_hal_dma.c ****   /* Check the DMA peripheral handle parameter */
1514:Drivers/STM32H5xx_HAL_Driver/Src/stm32h5xx_hal_dma.c ****   if (hdma == NULL)
1515:Drivers/STM32H5xx_HAL_Driver/Src/stm32h5xx_hal_dma.c ****   {
1516:Drivers/STM32H5xx_HAL_Driver/Src/stm32h5xx_hal_dma.c ****     return HAL_ERROR;
1517:Drivers/STM32H5xx_HAL_Driver/Src/stm32h5xx_hal_dma.c ****   }
1518:Drivers/STM32H5xx_HAL_Driver/Src/stm32h5xx_hal_dma.c **** 
1519:Drivers/STM32H5xx_HAL_Driver/Src/stm32h5xx_hal_dma.c ****   /* Get DMA instance */
1520:Drivers/STM32H5xx_HAL_Driver/Src/stm32h5xx_hal_dma.c ****   p_dma_instance = GET_DMA_INSTANCE(hdma);
1521:Drivers/STM32H5xx_HAL_Driver/Src/stm32h5xx_hal_dma.c **** 
1522:Drivers/STM32H5xx_HAL_Driver/Src/stm32h5xx_hal_dma.c ****   /* Get channel index */
1523:Drivers/STM32H5xx_HAL_Driver/Src/stm32h5xx_hal_dma.c ****   channel_idx = 1UL << (GET_DMA_CHANNEL(hdma) & 0x1FU);
1524:Drivers/STM32H5xx_HAL_Driver/Src/stm32h5xx_hal_dma.c **** 
1525:Drivers/STM32H5xx_HAL_Driver/Src/stm32h5xx_hal_dma.c ****   /* Lock the DMA channel privilege and security attributes */
1526:Drivers/STM32H5xx_HAL_Driver/Src/stm32h5xx_hal_dma.c ****   p_dma_instance->RCFGLOCKR |= channel_idx;
1527:Drivers/STM32H5xx_HAL_Driver/Src/stm32h5xx_hal_dma.c **** 
1528:Drivers/STM32H5xx_HAL_Driver/Src/stm32h5xx_hal_dma.c ****   return HAL_OK;
1529:Drivers/STM32H5xx_HAL_Driver/Src/stm32h5xx_hal_dma.c **** }
1530:Drivers/STM32H5xx_HAL_Driver/Src/stm32h5xx_hal_dma.c **** #endif /* (__ARM_FEATURE_CMSE) && (__ARM_FEATURE_CMSE == 3U) */
1531:Drivers/STM32H5xx_HAL_Driver/Src/stm32h5xx_hal_dma.c **** 
1532:Drivers/STM32H5xx_HAL_Driver/Src/stm32h5xx_hal_dma.c **** /**
1533:Drivers/STM32H5xx_HAL_Driver/Src/stm32h5xx_hal_dma.c ****   * @brief  Get the security and privilege attribute lock state of a DMA channel.
1534:Drivers/STM32H5xx_HAL_Driver/Src/stm32h5xx_hal_dma.c ****   * @param  hdma       : Pointer to a DMA_HandleTypeDef structure that contains the configuration i
1535:Drivers/STM32H5xx_HAL_Driver/Src/stm32h5xx_hal_dma.c ****   *                      specified DMA Channel.
1536:Drivers/STM32H5xx_HAL_Driver/Src/stm32h5xx_hal_dma.c ****   * @param  pLockState : Pointer to lock state (returned value can be DMA_CHANNEL_ATTRIBUTE_UNLOCKE
1537:Drivers/STM32H5xx_HAL_Driver/Src/stm32h5xx_hal_dma.c ****   *                      DMA_CHANNEL_ATTRIBUTE_LOCKED).
1538:Drivers/STM32H5xx_HAL_Driver/Src/stm32h5xx_hal_dma.c ****   * @retval HAL status.
1539:Drivers/STM32H5xx_HAL_Driver/Src/stm32h5xx_hal_dma.c ****   */
1540:Drivers/STM32H5xx_HAL_Driver/Src/stm32h5xx_hal_dma.c **** HAL_StatusTypeDef HAL_DMA_GetLockChannelAttributes(DMA_HandleTypeDef const *const hdma, uint32_t *c
1541:Drivers/STM32H5xx_HAL_Driver/Src/stm32h5xx_hal_dma.c **** {
1542:Drivers/STM32H5xx_HAL_Driver/Src/stm32h5xx_hal_dma.c ****   DMA_TypeDef *p_dma_instance;
1543:Drivers/STM32H5xx_HAL_Driver/Src/stm32h5xx_hal_dma.c ****   uint32_t channel_idx;
1544:Drivers/STM32H5xx_HAL_Driver/Src/stm32h5xx_hal_dma.c **** 
1545:Drivers/STM32H5xx_HAL_Driver/Src/stm32h5xx_hal_dma.c ****   /* Check the DMA peripheral handle and lock state parameters */
1546:Drivers/STM32H5xx_HAL_Driver/Src/stm32h5xx_hal_dma.c ****   if ((hdma == NULL) || (pLockState == NULL))
1547:Drivers/STM32H5xx_HAL_Driver/Src/stm32h5xx_hal_dma.c ****   {
1548:Drivers/STM32H5xx_HAL_Driver/Src/stm32h5xx_hal_dma.c ****     return HAL_ERROR;
1549:Drivers/STM32H5xx_HAL_Driver/Src/stm32h5xx_hal_dma.c ****   }
1550:Drivers/STM32H5xx_HAL_Driver/Src/stm32h5xx_hal_dma.c **** 
1551:Drivers/STM32H5xx_HAL_Driver/Src/stm32h5xx_hal_dma.c ****   /* Get DMA instance */
1552:Drivers/STM32H5xx_HAL_Driver/Src/stm32h5xx_hal_dma.c ****   p_dma_instance = GET_DMA_INSTANCE(hdma);
1553:Drivers/STM32H5xx_HAL_Driver/Src/stm32h5xx_hal_dma.c **** 
1554:Drivers/STM32H5xx_HAL_Driver/Src/stm32h5xx_hal_dma.c ****   /* Get channel index */
1555:Drivers/STM32H5xx_HAL_Driver/Src/stm32h5xx_hal_dma.c ****   channel_idx = 1UL << (GET_DMA_CHANNEL(hdma) & 0x1FU);
1556:Drivers/STM32H5xx_HAL_Driver/Src/stm32h5xx_hal_dma.c **** 
1557:Drivers/STM32H5xx_HAL_Driver/Src/stm32h5xx_hal_dma.c ****   /* Get channel lock attribute state */
1558:Drivers/STM32H5xx_HAL_Driver/Src/stm32h5xx_hal_dma.c ****   *pLockState = ((p_dma_instance->RCFGLOCKR & channel_idx) == 0U) ? DMA_CHANNEL_ATTRIBUTE_UNLOCKED 
1559:Drivers/STM32H5xx_HAL_Driver/Src/stm32h5xx_hal_dma.c ****                 DMA_CHANNEL_ATTRIBUTE_LOCKED;
1560:Drivers/STM32H5xx_HAL_Driver/Src/stm32h5xx_hal_dma.c **** 
1561:Drivers/STM32H5xx_HAL_Driver/Src/stm32h5xx_hal_dma.c ****   return HAL_OK;
1562:Drivers/STM32H5xx_HAL_Driver/Src/stm32h5xx_hal_dma.c **** }
1563:Drivers/STM32H5xx_HAL_Driver/Src/stm32h5xx_hal_dma.c **** #endif /* DMA_RCFGLOCKR_LOCK0 */
1564:Drivers/STM32H5xx_HAL_Driver/Src/stm32h5xx_hal_dma.c **** /**
1565:Drivers/STM32H5xx_HAL_Driver/Src/stm32h5xx_hal_dma.c ****   * @}
1566:Drivers/STM32H5xx_HAL_Driver/Src/stm32h5xx_hal_dma.c ****   */
1567:Drivers/STM32H5xx_HAL_Driver/Src/stm32h5xx_hal_dma.c **** 
1568:Drivers/STM32H5xx_HAL_Driver/Src/stm32h5xx_hal_dma.c **** /**
ARM GAS  /var/folders/l3/rwskfq612tq4b7hmtv37jkjw0000gp/T//ccx7lwMy.s 			page 29


1569:Drivers/STM32H5xx_HAL_Driver/Src/stm32h5xx_hal_dma.c ****   * @}
1570:Drivers/STM32H5xx_HAL_Driver/Src/stm32h5xx_hal_dma.c ****   */
1571:Drivers/STM32H5xx_HAL_Driver/Src/stm32h5xx_hal_dma.c **** 
1572:Drivers/STM32H5xx_HAL_Driver/Src/stm32h5xx_hal_dma.c **** 
1573:Drivers/STM32H5xx_HAL_Driver/Src/stm32h5xx_hal_dma.c **** /* Private functions ------------------------------------------------------------------------------
1574:Drivers/STM32H5xx_HAL_Driver/Src/stm32h5xx_hal_dma.c **** /** @defgroup DMA_Private_Functions DMA Private Functions
1575:Drivers/STM32H5xx_HAL_Driver/Src/stm32h5xx_hal_dma.c ****   * @brief    DMA Private Functions
1576:Drivers/STM32H5xx_HAL_Driver/Src/stm32h5xx_hal_dma.c ****   * @{
1577:Drivers/STM32H5xx_HAL_Driver/Src/stm32h5xx_hal_dma.c ****   */
1578:Drivers/STM32H5xx_HAL_Driver/Src/stm32h5xx_hal_dma.c **** 
1579:Drivers/STM32H5xx_HAL_Driver/Src/stm32h5xx_hal_dma.c **** /**
1580:Drivers/STM32H5xx_HAL_Driver/Src/stm32h5xx_hal_dma.c ****   * @brief  Set the DMA channel normal transfer parameters.
1581:Drivers/STM32H5xx_HAL_Driver/Src/stm32h5xx_hal_dma.c ****   * @param  hdma        : Pointer to a DMA_HandleTypeDef structure that contains the configuration 
1582:Drivers/STM32H5xx_HAL_Driver/Src/stm32h5xx_hal_dma.c ****   *                       specified DMA Channel.
1583:Drivers/STM32H5xx_HAL_Driver/Src/stm32h5xx_hal_dma.c ****   * @param  SrcAddress  : The source data address.
1584:Drivers/STM32H5xx_HAL_Driver/Src/stm32h5xx_hal_dma.c ****   * @param  DstAddress  : The destination data address.
1585:Drivers/STM32H5xx_HAL_Driver/Src/stm32h5xx_hal_dma.c ****   * @param  SrcDataSize : The length of data to be transferred from source to destination in bytes.
1586:Drivers/STM32H5xx_HAL_Driver/Src/stm32h5xx_hal_dma.c ****   * @retval None.
1587:Drivers/STM32H5xx_HAL_Driver/Src/stm32h5xx_hal_dma.c ****   */
1588:Drivers/STM32H5xx_HAL_Driver/Src/stm32h5xx_hal_dma.c **** static void DMA_SetConfig(DMA_HandleTypeDef const *const hdma,
1589:Drivers/STM32H5xx_HAL_Driver/Src/stm32h5xx_hal_dma.c ****                           uint32_t SrcAddress,
1590:Drivers/STM32H5xx_HAL_Driver/Src/stm32h5xx_hal_dma.c ****                           uint32_t DstAddress,
1591:Drivers/STM32H5xx_HAL_Driver/Src/stm32h5xx_hal_dma.c ****                           uint32_t SrcDataSize)
1592:Drivers/STM32H5xx_HAL_Driver/Src/stm32h5xx_hal_dma.c **** {
  30              		.loc 1 1592 1 view -0
  31              		.cfi_startproc
  32              		@ args = 0, pretend = 0, frame = 0
  33              		@ frame_needed = 0, uses_anonymous_args = 0
  34              		@ link register save eliminated.
  35              		.loc 1 1592 1 is_stmt 0 view .LVU1
  36 0000 30B4     		push	{r4, r5}
  37              	.LCFI0:
  38              		.cfi_def_cfa_offset 8
  39              		.cfi_offset 4, -8
  40              		.cfi_offset 5, -4
1593:Drivers/STM32H5xx_HAL_Driver/Src/stm32h5xx_hal_dma.c ****   /* Configure the DMA channel data size */
1594:Drivers/STM32H5xx_HAL_Driver/Src/stm32h5xx_hal_dma.c ****   MODIFY_REG(hdma->Instance->CBR1, DMA_CBR1_BNDT, (SrcDataSize & DMA_CBR1_BNDT));
  41              		.loc 1 1594 3 is_stmt 1 view .LVU2
  42 0002 0568     		ldr	r5, [r0]
  43 0004 AC6C     		ldr	r4, [r5, #72]
  44 0006 4FEA144C 		lsr	ip, r4, #16
  45 000a 4FEA0C4C 		lsl	ip, ip, #16
  46 000e 9BB2     		uxth	r3, r3
  47              	.LVL1:
  48              		.loc 1 1594 3 is_stmt 0 view .LVU3
  49 0010 4CEA0303 		orr	r3, ip, r3
  50 0014 AB64     		str	r3, [r5, #72]
1595:Drivers/STM32H5xx_HAL_Driver/Src/stm32h5xx_hal_dma.c **** 
1596:Drivers/STM32H5xx_HAL_Driver/Src/stm32h5xx_hal_dma.c ****   /* Clear all interrupt flags */
1597:Drivers/STM32H5xx_HAL_Driver/Src/stm32h5xx_hal_dma.c ****   __HAL_DMA_CLEAR_FLAG(hdma, DMA_FLAG_TC | DMA_FLAG_HT | DMA_FLAG_DTE | DMA_FLAG_ULE | DMA_FLAG_USE
  51              		.loc 1 1597 3 is_stmt 1 view .LVU4
  52 0016 0368     		ldr	r3, [r0]
  53 0018 4FF4FE44 		mov	r4, #32512
  54 001c DC60     		str	r4, [r3, #12]
1598:Drivers/STM32H5xx_HAL_Driver/Src/stm32h5xx_hal_dma.c ****                        DMA_FLAG_TO);
1599:Drivers/STM32H5xx_HAL_Driver/Src/stm32h5xx_hal_dma.c **** 
1600:Drivers/STM32H5xx_HAL_Driver/Src/stm32h5xx_hal_dma.c ****   /* Configure DMA channel source address */
ARM GAS  /var/folders/l3/rwskfq612tq4b7hmtv37jkjw0000gp/T//ccx7lwMy.s 			page 30


1601:Drivers/STM32H5xx_HAL_Driver/Src/stm32h5xx_hal_dma.c ****   hdma->Instance->CSAR = SrcAddress;
  55              		.loc 1 1601 3 view .LVU5
  56              		.loc 1 1601 7 is_stmt 0 view .LVU6
  57 001e 0368     		ldr	r3, [r0]
  58              		.loc 1 1601 24 view .LVU7
  59 0020 D964     		str	r1, [r3, #76]
1602:Drivers/STM32H5xx_HAL_Driver/Src/stm32h5xx_hal_dma.c **** 
1603:Drivers/STM32H5xx_HAL_Driver/Src/stm32h5xx_hal_dma.c ****   /* Configure DMA channel destination address */
1604:Drivers/STM32H5xx_HAL_Driver/Src/stm32h5xx_hal_dma.c ****   hdma->Instance->CDAR = DstAddress;
  60              		.loc 1 1604 3 is_stmt 1 view .LVU8
  61              		.loc 1 1604 7 is_stmt 0 view .LVU9
  62 0022 0368     		ldr	r3, [r0]
  63              		.loc 1 1604 24 view .LVU10
  64 0024 1A65     		str	r2, [r3, #80]
1605:Drivers/STM32H5xx_HAL_Driver/Src/stm32h5xx_hal_dma.c **** }
  65              		.loc 1 1605 1 view .LVU11
  66 0026 30BC     		pop	{r4, r5}
  67              	.LCFI1:
  68              		.cfi_restore 5
  69              		.cfi_restore 4
  70              		.cfi_def_cfa_offset 0
  71 0028 7047     		bx	lr
  72              		.cfi_endproc
  73              	.LFE344:
  75              		.section	.text.DMA_Init,"ax",%progbits
  76              		.align	1
  77              		.syntax unified
  78              		.thumb
  79              		.thumb_func
  81              	DMA_Init:
  82              	.LVL2:
  83              	.LFB345:
1606:Drivers/STM32H5xx_HAL_Driver/Src/stm32h5xx_hal_dma.c **** 
1607:Drivers/STM32H5xx_HAL_Driver/Src/stm32h5xx_hal_dma.c **** /**
1608:Drivers/STM32H5xx_HAL_Driver/Src/stm32h5xx_hal_dma.c ****   * @brief  Initialize the DMA channel in normal mode according to the specified parameters in the 
1609:Drivers/STM32H5xx_HAL_Driver/Src/stm32h5xx_hal_dma.c ****   * @param  hdma : pointer to a DMA_HandleTypeDef structure that contains the configuration informa
1610:Drivers/STM32H5xx_HAL_Driver/Src/stm32h5xx_hal_dma.c ****   *                specified DMA Channel.
1611:Drivers/STM32H5xx_HAL_Driver/Src/stm32h5xx_hal_dma.c ****   * @retval None.
1612:Drivers/STM32H5xx_HAL_Driver/Src/stm32h5xx_hal_dma.c ****   */
1613:Drivers/STM32H5xx_HAL_Driver/Src/stm32h5xx_hal_dma.c **** static void DMA_Init(DMA_HandleTypeDef const *const hdma)
1614:Drivers/STM32H5xx_HAL_Driver/Src/stm32h5xx_hal_dma.c **** {
  84              		.loc 1 1614 1 is_stmt 1 view -0
  85              		.cfi_startproc
  86              		@ args = 0, pretend = 0, frame = 0
  87              		@ frame_needed = 0, uses_anonymous_args = 0
  88              		@ link register save eliminated.
  89              		.loc 1 1614 1 is_stmt 0 view .LVU13
  90 0000 10B4     		push	{r4}
  91              	.LCFI2:
  92              		.cfi_def_cfa_offset 4
  93              		.cfi_offset 4, -4
1615:Drivers/STM32H5xx_HAL_Driver/Src/stm32h5xx_hal_dma.c ****   uint32_t tmpreg;
  94              		.loc 1 1615 3 is_stmt 1 view .LVU14
1616:Drivers/STM32H5xx_HAL_Driver/Src/stm32h5xx_hal_dma.c **** 
1617:Drivers/STM32H5xx_HAL_Driver/Src/stm32h5xx_hal_dma.c ****   /* Prepare DMA Channel Control Register (CCR) value *********************************************
1618:Drivers/STM32H5xx_HAL_Driver/Src/stm32h5xx_hal_dma.c ****   tmpreg = hdma->Init.Priority;
  95              		.loc 1 1618 3 view .LVU15
ARM GAS  /var/folders/l3/rwskfq612tq4b7hmtv37jkjw0000gp/T//ccx7lwMy.s 			page 31


  96              		.loc 1 1618 10 is_stmt 0 view .LVU16
  97 0002 016A     		ldr	r1, [r0, #32]
  98              	.LVL3:
1619:Drivers/STM32H5xx_HAL_Driver/Src/stm32h5xx_hal_dma.c **** 
1620:Drivers/STM32H5xx_HAL_Driver/Src/stm32h5xx_hal_dma.c ****   /* Write DMA Channel Control Register (CCR) */
1621:Drivers/STM32H5xx_HAL_Driver/Src/stm32h5xx_hal_dma.c ****   MODIFY_REG(hdma->Instance->CCR, DMA_CCR_PRIO | DMA_CCR_LAP | DMA_CCR_LSM, tmpreg);
  99              		.loc 1 1621 3 is_stmt 1 view .LVU17
 100 0004 0268     		ldr	r2, [r0]
 101 0006 5369     		ldr	r3, [r2, #20]
 102 0008 23F44303 		bic	r3, r3, #12779520
 103 000c 0B43     		orrs	r3, r3, r1
 104 000e 5361     		str	r3, [r2, #20]
1622:Drivers/STM32H5xx_HAL_Driver/Src/stm32h5xx_hal_dma.c **** 
1623:Drivers/STM32H5xx_HAL_Driver/Src/stm32h5xx_hal_dma.c ****   /* Prepare DMA Channel Transfer Register (CTR1) value *******************************************
1624:Drivers/STM32H5xx_HAL_Driver/Src/stm32h5xx_hal_dma.c ****   tmpreg = hdma->Init.DestInc | hdma->Init.DestDataWidth | hdma->Init.SrcInc | hdma->Init.SrcDataWi
 105              		.loc 1 1624 3 view .LVU18
 106              		.loc 1 1624 22 is_stmt 0 view .LVU19
 107 0010 4369     		ldr	r3, [r0, #20]
 108              		.loc 1 1624 43 view .LVU20
 109 0012 C269     		ldr	r2, [r0, #28]
 110              		.loc 1 1624 31 view .LVU21
 111 0014 1343     		orrs	r3, r3, r2
 112              		.loc 1 1624 70 view .LVU22
 113 0016 0269     		ldr	r2, [r0, #16]
 114              		.loc 1 1624 58 view .LVU23
 115 0018 1343     		orrs	r3, r3, r2
 116              		.loc 1 1624 90 view .LVU24
 117 001a 8269     		ldr	r2, [r0, #24]
 118              		.loc 1 1624 10 view .LVU25
 119 001c 1343     		orrs	r3, r3, r2
 120              	.LVL4:
1625:Drivers/STM32H5xx_HAL_Driver/Src/stm32h5xx_hal_dma.c **** 
1626:Drivers/STM32H5xx_HAL_Driver/Src/stm32h5xx_hal_dma.c ****   /* Add parameters specific to GPDMA */
1627:Drivers/STM32H5xx_HAL_Driver/Src/stm32h5xx_hal_dma.c ****   if (IS_GPDMA_INSTANCE(hdma->Instance) != 0U)
 121              		.loc 1 1627 3 is_stmt 1 view .LVU26
 122              		.loc 1 1627 7 is_stmt 0 view .LVU27
 123 001e 0468     		ldr	r4, [r0]
 124 0020 564A     		ldr	r2, .L14
 125 0022 9442     		cmp	r4, r2
 126 0024 2DD0     		beq	.L4
 127              		.loc 1 1627 7 discriminator 2 view .LVU28
 128 0026 8032     		adds	r2, r2, #128
 129 0028 9442     		cmp	r4, r2
 130 002a 2AD0     		beq	.L4
 131              		.loc 1 1627 7 discriminator 4 view .LVU29
 132 002c 8032     		adds	r2, r2, #128
 133 002e 9442     		cmp	r4, r2
 134 0030 27D0     		beq	.L4
 135              		.loc 1 1627 7 discriminator 6 view .LVU30
 136 0032 8032     		adds	r2, r2, #128
 137 0034 9442     		cmp	r4, r2
 138 0036 24D0     		beq	.L4
 139              		.loc 1 1627 7 discriminator 8 view .LVU31
 140 0038 8032     		adds	r2, r2, #128
 141 003a 9442     		cmp	r4, r2
 142 003c 21D0     		beq	.L4
 143              		.loc 1 1627 7 discriminator 10 view .LVU32
ARM GAS  /var/folders/l3/rwskfq612tq4b7hmtv37jkjw0000gp/T//ccx7lwMy.s 			page 32


 144 003e 8032     		adds	r2, r2, #128
 145 0040 9442     		cmp	r4, r2
 146 0042 1ED0     		beq	.L4
 147              		.loc 1 1627 7 discriminator 12 view .LVU33
 148 0044 8032     		adds	r2, r2, #128
 149 0046 9442     		cmp	r4, r2
 150 0048 1BD0     		beq	.L4
 151              		.loc 1 1627 7 discriminator 14 view .LVU34
 152 004a 8032     		adds	r2, r2, #128
 153 004c 9442     		cmp	r4, r2
 154 004e 18D0     		beq	.L4
 155              		.loc 1 1627 7 discriminator 16 view .LVU35
 156 0050 02F54862 		add	r2, r2, #3200
 157 0054 9442     		cmp	r4, r2
 158 0056 14D0     		beq	.L4
 159              		.loc 1 1627 7 discriminator 18 view .LVU36
 160 0058 8032     		adds	r2, r2, #128
 161 005a 9442     		cmp	r4, r2
 162 005c 11D0     		beq	.L4
 163              		.loc 1 1627 7 discriminator 20 view .LVU37
 164 005e 8032     		adds	r2, r2, #128
 165 0060 9442     		cmp	r4, r2
 166 0062 0ED0     		beq	.L4
 167              		.loc 1 1627 7 discriminator 22 view .LVU38
 168 0064 8032     		adds	r2, r2, #128
 169 0066 9442     		cmp	r4, r2
 170 0068 0BD0     		beq	.L4
 171              		.loc 1 1627 7 discriminator 24 view .LVU39
 172 006a 8032     		adds	r2, r2, #128
 173 006c 9442     		cmp	r4, r2
 174 006e 08D0     		beq	.L4
 175              		.loc 1 1627 7 discriminator 26 view .LVU40
 176 0070 8032     		adds	r2, r2, #128
 177 0072 9442     		cmp	r4, r2
 178 0074 05D0     		beq	.L4
 179              		.loc 1 1627 7 discriminator 28 view .LVU41
 180 0076 8032     		adds	r2, r2, #128
 181 0078 9442     		cmp	r4, r2
 182 007a 02D0     		beq	.L4
 183              		.loc 1 1627 7 discriminator 30 view .LVU42
 184 007c 8032     		adds	r2, r2, #128
 185 007e 9442     		cmp	r4, r2
 186 0080 0DD1     		bne	.L5
 187              	.L4:
1628:Drivers/STM32H5xx_HAL_Driver/Src/stm32h5xx_hal_dma.c ****   {
1629:Drivers/STM32H5xx_HAL_Driver/Src/stm32h5xx_hal_dma.c ****     tmpreg |= (hdma->Init.TransferAllocatedPort                                             |
 188              		.loc 1 1629 5 is_stmt 1 view .LVU43
 189              		.loc 1 1629 26 is_stmt 0 view .LVU44
 190 0082 C16A     		ldr	r1, [r0, #44]
1630:Drivers/STM32H5xx_HAL_Driver/Src/stm32h5xx_hal_dma.c ****                (((hdma->Init.DestBurstLength - 1U) << DMA_CTR1_DBL_1_Pos) & DMA_CTR1_DBL_1) |
 191              		.loc 1 1630 29 view .LVU45
 192 0084 826A     		ldr	r2, [r0, #40]
 193              		.loc 1 1630 46 view .LVU46
 194 0086 013A     		subs	r2, r2, #1
 195              		.loc 1 1630 52 view .LVU47
 196 0088 1205     		lsls	r2, r2, #20
 197              		.loc 1 1630 75 view .LVU48
ARM GAS  /var/folders/l3/rwskfq612tq4b7hmtv37jkjw0000gp/T//ccx7lwMy.s 			page 33


 198 008a 02F07C72 		and	r2, r2, #66060288
1629:Drivers/STM32H5xx_HAL_Driver/Src/stm32h5xx_hal_dma.c ****                (((hdma->Init.DestBurstLength - 1U) << DMA_CTR1_DBL_1_Pos) & DMA_CTR1_DBL_1) |
 199              		.loc 1 1629 93 view .LVU49
 200 008e 1143     		orrs	r1, r1, r2
1631:Drivers/STM32H5xx_HAL_Driver/Src/stm32h5xx_hal_dma.c ****                (((hdma->Init.SrcBurstLength - 1U) << DMA_CTR1_SBL_1_Pos) & DMA_CTR1_SBL_1));
 201              		.loc 1 1631 29 view .LVU50
 202 0090 426A     		ldr	r2, [r0, #36]
 203              		.loc 1 1631 45 view .LVU51
 204 0092 013A     		subs	r2, r2, #1
 205              		.loc 1 1631 51 view .LVU52
 206 0094 1201     		lsls	r2, r2, #4
 207              		.loc 1 1631 74 view .LVU53
 208 0096 02F47C72 		and	r2, r2, #1008
1630:Drivers/STM32H5xx_HAL_Driver/Src/stm32h5xx_hal_dma.c ****                (((hdma->Init.DestBurstLength - 1U) << DMA_CTR1_DBL_1_Pos) & DMA_CTR1_DBL_1) |
 209              		.loc 1 1630 93 view .LVU54
 210 009a 1143     		orrs	r1, r1, r2
1629:Drivers/STM32H5xx_HAL_Driver/Src/stm32h5xx_hal_dma.c ****                (((hdma->Init.DestBurstLength - 1U) << DMA_CTR1_DBL_1_Pos) & DMA_CTR1_DBL_1) |
 211              		.loc 1 1629 12 view .LVU55
 212 009c 0B43     		orrs	r3, r3, r1
 213              	.LVL5:
 214              	.L5:
1632:Drivers/STM32H5xx_HAL_Driver/Src/stm32h5xx_hal_dma.c ****   }
1633:Drivers/STM32H5xx_HAL_Driver/Src/stm32h5xx_hal_dma.c **** 
1634:Drivers/STM32H5xx_HAL_Driver/Src/stm32h5xx_hal_dma.c ****   /* Write DMA Channel Transfer Register 1 (CTR1) */
1635:Drivers/STM32H5xx_HAL_Driver/Src/stm32h5xx_hal_dma.c **** #if defined (DMA_CTR1_SSEC)
1636:Drivers/STM32H5xx_HAL_Driver/Src/stm32h5xx_hal_dma.c ****   MODIFY_REG(hdma->Instance->CTR1, ~(DMA_CTR1_SSEC | DMA_CTR1_DSEC), tmpreg);
1637:Drivers/STM32H5xx_HAL_Driver/Src/stm32h5xx_hal_dma.c **** #else
1638:Drivers/STM32H5xx_HAL_Driver/Src/stm32h5xx_hal_dma.c ****   WRITE_REG(hdma->Instance->CTR1, tmpreg);
 215              		.loc 1 1638 3 is_stmt 1 view .LVU56
 216 009e 2364     		str	r3, [r4, #64]
1639:Drivers/STM32H5xx_HAL_Driver/Src/stm32h5xx_hal_dma.c **** #endif /* DMA_CTR1_SSEC */
1640:Drivers/STM32H5xx_HAL_Driver/Src/stm32h5xx_hal_dma.c **** 
1641:Drivers/STM32H5xx_HAL_Driver/Src/stm32h5xx_hal_dma.c ****   /* Prepare DMA Channel Transfer Register 2 (CTR2) value *****************************************
1642:Drivers/STM32H5xx_HAL_Driver/Src/stm32h5xx_hal_dma.c ****   tmpreg = hdma->Init.BlkHWRequest | (hdma->Init.Request & DMA_CTR2_REQSEL) | hdma->Init.TransferEv
 217              		.loc 1 1642 3 view .LVU57
 218              		.loc 1 1642 22 is_stmt 0 view .LVU58
 219 00a0 8368     		ldr	r3, [r0, #8]
 220              	.LVL6:
 221              		.loc 1 1642 58 view .LVU59
 222 00a2 0279     		ldrb	r2, [r0, #4]	@ zero_extendqisi2
 223              		.loc 1 1642 36 view .LVU60
 224 00a4 1343     		orrs	r3, r3, r2
 225              		.loc 1 1642 89 view .LVU61
 226 00a6 026B     		ldr	r2, [r0, #48]
 227              		.loc 1 1642 10 view .LVU62
 228 00a8 1343     		orrs	r3, r3, r2
 229              	.LVL7:
1643:Drivers/STM32H5xx_HAL_Driver/Src/stm32h5xx_hal_dma.c **** 
1644:Drivers/STM32H5xx_HAL_Driver/Src/stm32h5xx_hal_dma.c ****   /* Memory to Peripheral Transfer */
1645:Drivers/STM32H5xx_HAL_Driver/Src/stm32h5xx_hal_dma.c ****   if ((hdma->Init.Direction) == DMA_MEMORY_TO_PERIPH)
 230              		.loc 1 1645 3 is_stmt 1 view .LVU63
 231              		.loc 1 1645 18 is_stmt 0 view .LVU64
 232 00aa C268     		ldr	r2, [r0, #12]
 233              		.loc 1 1645 6 view .LVU65
 234 00ac B2F5806F 		cmp	r2, #1024
 235 00b0 2BD0     		beq	.L12
1646:Drivers/STM32H5xx_HAL_Driver/Src/stm32h5xx_hal_dma.c ****   {
ARM GAS  /var/folders/l3/rwskfq612tq4b7hmtv37jkjw0000gp/T//ccx7lwMy.s 			page 34


1647:Drivers/STM32H5xx_HAL_Driver/Src/stm32h5xx_hal_dma.c ****     if (IS_GPDMA_INSTANCE(hdma->Instance) != 0U)
1648:Drivers/STM32H5xx_HAL_Driver/Src/stm32h5xx_hal_dma.c ****     {
1649:Drivers/STM32H5xx_HAL_Driver/Src/stm32h5xx_hal_dma.c ****       tmpreg |= DMA_CTR2_DREQ;
1650:Drivers/STM32H5xx_HAL_Driver/Src/stm32h5xx_hal_dma.c ****     }
1651:Drivers/STM32H5xx_HAL_Driver/Src/stm32h5xx_hal_dma.c ****   }
1652:Drivers/STM32H5xx_HAL_Driver/Src/stm32h5xx_hal_dma.c ****   /* Memory to Memory Transfer */
1653:Drivers/STM32H5xx_HAL_Driver/Src/stm32h5xx_hal_dma.c ****   else if ((hdma->Init.Direction) == DMA_MEMORY_TO_MEMORY)
 236              		.loc 1 1653 8 is_stmt 1 view .LVU66
 237              		.loc 1 1653 11 is_stmt 0 view .LVU67
 238 00b2 B2F5007F 		cmp	r2, #512
 239 00b6 5DD0     		beq	.L13
 240              	.LVL8:
 241              	.L8:
1654:Drivers/STM32H5xx_HAL_Driver/Src/stm32h5xx_hal_dma.c ****   {
1655:Drivers/STM32H5xx_HAL_Driver/Src/stm32h5xx_hal_dma.c ****     tmpreg |= DMA_CTR2_SWREQ;
1656:Drivers/STM32H5xx_HAL_Driver/Src/stm32h5xx_hal_dma.c ****   }
1657:Drivers/STM32H5xx_HAL_Driver/Src/stm32h5xx_hal_dma.c ****   else
1658:Drivers/STM32H5xx_HAL_Driver/Src/stm32h5xx_hal_dma.c ****   {
1659:Drivers/STM32H5xx_HAL_Driver/Src/stm32h5xx_hal_dma.c ****     /* Nothing to do */
1660:Drivers/STM32H5xx_HAL_Driver/Src/stm32h5xx_hal_dma.c ****   }
 242              		.loc 1 1660 3 is_stmt 1 view .LVU68
1661:Drivers/STM32H5xx_HAL_Driver/Src/stm32h5xx_hal_dma.c **** 
1662:Drivers/STM32H5xx_HAL_Driver/Src/stm32h5xx_hal_dma.c ****   /* Set DMA channel operation mode */
1663:Drivers/STM32H5xx_HAL_Driver/Src/stm32h5xx_hal_dma.c ****   tmpreg |= hdma->Init.Mode;
 243              		.loc 1 1663 3 view .LVU69
 244              		.loc 1 1663 23 is_stmt 0 view .LVU70
 245 00b8 426B     		ldr	r2, [r0, #52]
 246              		.loc 1 1663 10 view .LVU71
 247 00ba 1A43     		orrs	r2, r2, r3
 248              	.LVL9:
1664:Drivers/STM32H5xx_HAL_Driver/Src/stm32h5xx_hal_dma.c **** 
1665:Drivers/STM32H5xx_HAL_Driver/Src/stm32h5xx_hal_dma.c ****   /* Write DMA Channel Transfer Register 2 (CTR2) */
1666:Drivers/STM32H5xx_HAL_Driver/Src/stm32h5xx_hal_dma.c ****   MODIFY_REG(hdma->Instance->CTR2, (DMA_CTR2_TCEM  | DMA_CTR2_TRIGPOL | DMA_CTR2_TRIGSEL | DMA_CTR2
 249              		.loc 1 1666 3 is_stmt 1 view .LVU72
 250 00bc 0168     		ldr	r1, [r0]
 251 00be 4B6C     		ldr	r3, [r1, #68]
 252 00c0 23F04343 		bic	r3, r3, #-1023410176
 253 00c4 23F47F13 		bic	r3, r3, #4177920
 254 00c8 23F4F753 		bic	r3, r3, #7904
 255 00cc 23F01F03 		bic	r3, r3, #31
 256 00d0 1343     		orrs	r3, r3, r2
 257 00d2 4B64     		str	r3, [r1, #68]
1667:Drivers/STM32H5xx_HAL_Driver/Src/stm32h5xx_hal_dma.c ****                                     DMA_CTR2_PFREQ | DMA_CTR2_BREQ  | DMA_CTR2_DREQ    | DMA_CTR2_S
1668:Drivers/STM32H5xx_HAL_Driver/Src/stm32h5xx_hal_dma.c ****                                     DMA_CTR2_REQSEL), tmpreg);
1669:Drivers/STM32H5xx_HAL_Driver/Src/stm32h5xx_hal_dma.c **** 
1670:Drivers/STM32H5xx_HAL_Driver/Src/stm32h5xx_hal_dma.c **** 
1671:Drivers/STM32H5xx_HAL_Driver/Src/stm32h5xx_hal_dma.c ****   /* Write DMA Channel Block Register 1 (CBR1) ****************************************************
1672:Drivers/STM32H5xx_HAL_Driver/Src/stm32h5xx_hal_dma.c ****   WRITE_REG(hdma->Instance->CBR1, 0U);
 258              		.loc 1 1672 3 view .LVU73
 259 00d4 0368     		ldr	r3, [r0]
 260 00d6 0022     		movs	r2, #0
 261              	.LVL10:
 262              		.loc 1 1672 3 is_stmt 0 view .LVU74
 263 00d8 9A64     		str	r2, [r3, #72]
1673:Drivers/STM32H5xx_HAL_Driver/Src/stm32h5xx_hal_dma.c **** 
1674:Drivers/STM32H5xx_HAL_Driver/Src/stm32h5xx_hal_dma.c ****   /* If 2D Addressing is supported by current channel */
1675:Drivers/STM32H5xx_HAL_Driver/Src/stm32h5xx_hal_dma.c ****   if (IS_DMA_2D_ADDRESSING_INSTANCE(hdma->Instance) != 0U)
ARM GAS  /var/folders/l3/rwskfq612tq4b7hmtv37jkjw0000gp/T//ccx7lwMy.s 			page 35


 264              		.loc 1 1675 3 is_stmt 1 view .LVU75
 265              		.loc 1 1675 7 is_stmt 0 view .LVU76
 266 00da 0368     		ldr	r3, [r0]
 267 00dc 284A     		ldr	r2, .L14+4
 268 00de 9342     		cmp	r3, r2
 269 00e0 09D0     		beq	.L9
 270              		.loc 1 1675 7 discriminator 2 view .LVU77
 271 00e2 8032     		adds	r2, r2, #128
 272 00e4 9342     		cmp	r3, r2
 273 00e6 06D0     		beq	.L9
 274              		.loc 1 1675 7 discriminator 4 view .LVU78
 275 00e8 02F57862 		add	r2, r2, #3968
 276 00ec 9342     		cmp	r3, r2
 277 00ee 02D0     		beq	.L9
 278              		.loc 1 1675 7 discriminator 6 view .LVU79
 279 00f0 8032     		adds	r2, r2, #128
 280 00f2 9342     		cmp	r3, r2
 281 00f4 03D1     		bne	.L10
 282              	.L9:
1676:Drivers/STM32H5xx_HAL_Driver/Src/stm32h5xx_hal_dma.c ****   {
1677:Drivers/STM32H5xx_HAL_Driver/Src/stm32h5xx_hal_dma.c ****     /* Write DMA Channel Transfer Register 3 (CTR3) ***********************************************
1678:Drivers/STM32H5xx_HAL_Driver/Src/stm32h5xx_hal_dma.c ****     WRITE_REG(hdma->Instance->CTR3, 0U);
 283              		.loc 1 1678 5 is_stmt 1 view .LVU80
 284 00f6 0022     		movs	r2, #0
 285 00f8 5A65     		str	r2, [r3, #84]
1679:Drivers/STM32H5xx_HAL_Driver/Src/stm32h5xx_hal_dma.c **** 
1680:Drivers/STM32H5xx_HAL_Driver/Src/stm32h5xx_hal_dma.c ****     /* Write DMA Channel Block Register 2 (CBR2) **************************************************
1681:Drivers/STM32H5xx_HAL_Driver/Src/stm32h5xx_hal_dma.c ****     WRITE_REG(hdma->Instance->CBR2, 0U);
 286              		.loc 1 1681 5 view .LVU81
 287 00fa 0368     		ldr	r3, [r0]
 288 00fc 9A65     		str	r2, [r3, #88]
 289              	.L10:
1682:Drivers/STM32H5xx_HAL_Driver/Src/stm32h5xx_hal_dma.c ****   }
1683:Drivers/STM32H5xx_HAL_Driver/Src/stm32h5xx_hal_dma.c **** 
1684:Drivers/STM32H5xx_HAL_Driver/Src/stm32h5xx_hal_dma.c ****   /* Write DMA Channel linked-list address register (CLLR) ****************************************
1685:Drivers/STM32H5xx_HAL_Driver/Src/stm32h5xx_hal_dma.c ****   WRITE_REG(hdma->Instance->CLLR, 0U);
 290              		.loc 1 1685 3 view .LVU82
 291 00fe 0368     		ldr	r3, [r0]
 292 0100 0022     		movs	r2, #0
 293 0102 DA67     		str	r2, [r3, #124]
1686:Drivers/STM32H5xx_HAL_Driver/Src/stm32h5xx_hal_dma.c **** }
 294              		.loc 1 1686 1 is_stmt 0 view .LVU83
 295 0104 5DF8044B 		ldr	r4, [sp], #4
 296              	.LCFI3:
 297              		.cfi_remember_state
 298              		.cfi_restore 4
 299              		.cfi_def_cfa_offset 0
 300 0108 7047     		bx	lr
 301              	.LVL11:
 302              	.L12:
 303              	.LCFI4:
 304              		.cfi_restore_state
1647:Drivers/STM32H5xx_HAL_Driver/Src/stm32h5xx_hal_dma.c ****     {
 305              		.loc 1 1647 5 is_stmt 1 view .LVU84
1647:Drivers/STM32H5xx_HAL_Driver/Src/stm32h5xx_hal_dma.c ****     {
 306              		.loc 1 1647 9 is_stmt 0 view .LVU85
 307 010a 0268     		ldr	r2, [r0]
ARM GAS  /var/folders/l3/rwskfq612tq4b7hmtv37jkjw0000gp/T//ccx7lwMy.s 			page 36


 308 010c 1B49     		ldr	r1, .L14
 309 010e 8A42     		cmp	r2, r1
 310 0110 2DD0     		beq	.L7
1647:Drivers/STM32H5xx_HAL_Driver/Src/stm32h5xx_hal_dma.c ****     {
 311              		.loc 1 1647 9 discriminator 2 view .LVU86
 312 0112 8031     		adds	r1, r1, #128
 313 0114 8A42     		cmp	r2, r1
 314 0116 2AD0     		beq	.L7
1647:Drivers/STM32H5xx_HAL_Driver/Src/stm32h5xx_hal_dma.c ****     {
 315              		.loc 1 1647 9 discriminator 4 view .LVU87
 316 0118 8031     		adds	r1, r1, #128
 317 011a 8A42     		cmp	r2, r1
 318 011c 27D0     		beq	.L7
1647:Drivers/STM32H5xx_HAL_Driver/Src/stm32h5xx_hal_dma.c ****     {
 319              		.loc 1 1647 9 discriminator 6 view .LVU88
 320 011e 8031     		adds	r1, r1, #128
 321 0120 8A42     		cmp	r2, r1
 322 0122 24D0     		beq	.L7
1647:Drivers/STM32H5xx_HAL_Driver/Src/stm32h5xx_hal_dma.c ****     {
 323              		.loc 1 1647 9 discriminator 8 view .LVU89
 324 0124 8031     		adds	r1, r1, #128
 325 0126 8A42     		cmp	r2, r1
 326 0128 21D0     		beq	.L7
1647:Drivers/STM32H5xx_HAL_Driver/Src/stm32h5xx_hal_dma.c ****     {
 327              		.loc 1 1647 9 discriminator 10 view .LVU90
 328 012a 8031     		adds	r1, r1, #128
 329 012c 8A42     		cmp	r2, r1
 330 012e 1ED0     		beq	.L7
1647:Drivers/STM32H5xx_HAL_Driver/Src/stm32h5xx_hal_dma.c ****     {
 331              		.loc 1 1647 9 discriminator 12 view .LVU91
 332 0130 8031     		adds	r1, r1, #128
 333 0132 8A42     		cmp	r2, r1
 334 0134 1BD0     		beq	.L7
1647:Drivers/STM32H5xx_HAL_Driver/Src/stm32h5xx_hal_dma.c ****     {
 335              		.loc 1 1647 9 discriminator 14 view .LVU92
 336 0136 8031     		adds	r1, r1, #128
 337 0138 8A42     		cmp	r2, r1
 338 013a 18D0     		beq	.L7
1647:Drivers/STM32H5xx_HAL_Driver/Src/stm32h5xx_hal_dma.c ****     {
 339              		.loc 1 1647 9 discriminator 16 view .LVU93
 340 013c 01F54861 		add	r1, r1, #3200
 341 0140 8A42     		cmp	r2, r1
 342 0142 14D0     		beq	.L7
1647:Drivers/STM32H5xx_HAL_Driver/Src/stm32h5xx_hal_dma.c ****     {
 343              		.loc 1 1647 9 discriminator 18 view .LVU94
 344 0144 8031     		adds	r1, r1, #128
 345 0146 8A42     		cmp	r2, r1
 346 0148 11D0     		beq	.L7
1647:Drivers/STM32H5xx_HAL_Driver/Src/stm32h5xx_hal_dma.c ****     {
 347              		.loc 1 1647 9 discriminator 20 view .LVU95
 348 014a 8031     		adds	r1, r1, #128
 349 014c 8A42     		cmp	r2, r1
 350 014e 0ED0     		beq	.L7
1647:Drivers/STM32H5xx_HAL_Driver/Src/stm32h5xx_hal_dma.c ****     {
 351              		.loc 1 1647 9 discriminator 22 view .LVU96
 352 0150 8031     		adds	r1, r1, #128
 353 0152 8A42     		cmp	r2, r1
ARM GAS  /var/folders/l3/rwskfq612tq4b7hmtv37jkjw0000gp/T//ccx7lwMy.s 			page 37


 354 0154 0BD0     		beq	.L7
1647:Drivers/STM32H5xx_HAL_Driver/Src/stm32h5xx_hal_dma.c ****     {
 355              		.loc 1 1647 9 discriminator 24 view .LVU97
 356 0156 8031     		adds	r1, r1, #128
 357 0158 8A42     		cmp	r2, r1
 358 015a 08D0     		beq	.L7
1647:Drivers/STM32H5xx_HAL_Driver/Src/stm32h5xx_hal_dma.c ****     {
 359              		.loc 1 1647 9 discriminator 26 view .LVU98
 360 015c 8031     		adds	r1, r1, #128
 361 015e 8A42     		cmp	r2, r1
 362 0160 05D0     		beq	.L7
1647:Drivers/STM32H5xx_HAL_Driver/Src/stm32h5xx_hal_dma.c ****     {
 363              		.loc 1 1647 9 discriminator 28 view .LVU99
 364 0162 8031     		adds	r1, r1, #128
 365 0164 8A42     		cmp	r2, r1
 366 0166 02D0     		beq	.L7
1647:Drivers/STM32H5xx_HAL_Driver/Src/stm32h5xx_hal_dma.c ****     {
 367              		.loc 1 1647 9 discriminator 30 view .LVU100
 368 0168 8031     		adds	r1, r1, #128
 369 016a 8A42     		cmp	r2, r1
 370 016c A4D1     		bne	.L8
 371              	.L7:
1649:Drivers/STM32H5xx_HAL_Driver/Src/stm32h5xx_hal_dma.c ****     }
 372              		.loc 1 1649 7 is_stmt 1 view .LVU101
1649:Drivers/STM32H5xx_HAL_Driver/Src/stm32h5xx_hal_dma.c ****     }
 373              		.loc 1 1649 14 is_stmt 0 view .LVU102
 374 016e 43F48063 		orr	r3, r3, #1024
 375              	.LVL12:
1649:Drivers/STM32H5xx_HAL_Driver/Src/stm32h5xx_hal_dma.c ****     }
 376              		.loc 1 1649 14 view .LVU103
 377 0172 A1E7     		b	.L8
 378              	.L13:
1655:Drivers/STM32H5xx_HAL_Driver/Src/stm32h5xx_hal_dma.c ****   }
 379              		.loc 1 1655 5 is_stmt 1 view .LVU104
1655:Drivers/STM32H5xx_HAL_Driver/Src/stm32h5xx_hal_dma.c ****   }
 380              		.loc 1 1655 12 is_stmt 0 view .LVU105
 381 0174 43F40073 		orr	r3, r3, #512
 382              	.LVL13:
1655:Drivers/STM32H5xx_HAL_Driver/Src/stm32h5xx_hal_dma.c ****   }
 383              		.loc 1 1655 12 view .LVU106
 384 0178 9EE7     		b	.L8
 385              	.L15:
 386 017a 00BF     		.align	2
 387              	.L14:
 388 017c 50000240 		.word	1073872976
 389 0180 50030240 		.word	1073873744
 390              		.cfi_endproc
 391              	.LFE345:
 393              		.section	.text.HAL_DMA_Init,"ax",%progbits
 394              		.align	1
 395              		.global	HAL_DMA_Init
 396              		.syntax unified
 397              		.thumb
 398              		.thumb_func
 400              	HAL_DMA_Init:
 401              	.LVL14:
 402              	.LFB330:
ARM GAS  /var/folders/l3/rwskfq612tq4b7hmtv37jkjw0000gp/T//ccx7lwMy.s 			page 38


 243:Drivers/STM32H5xx_HAL_Driver/Src/stm32h5xx_hal_dma.c ****   /* Get tick number */
 403              		.loc 1 243 1 is_stmt 1 view -0
 404              		.cfi_startproc
 405              		@ args = 0, pretend = 0, frame = 0
 406              		@ frame_needed = 0, uses_anonymous_args = 0
 243:Drivers/STM32H5xx_HAL_Driver/Src/stm32h5xx_hal_dma.c ****   /* Get tick number */
 407              		.loc 1 243 1 is_stmt 0 view .LVU108
 408 0000 38B5     		push	{r3, r4, r5, lr}
 409              	.LCFI5:
 410              		.cfi_def_cfa_offset 16
 411              		.cfi_offset 3, -16
 412              		.cfi_offset 4, -12
 413              		.cfi_offset 5, -8
 414              		.cfi_offset 14, -4
 415 0002 0446     		mov	r4, r0
 245:Drivers/STM32H5xx_HAL_Driver/Src/stm32h5xx_hal_dma.c **** 
 416              		.loc 1 245 3 is_stmt 1 view .LVU109
 245:Drivers/STM32H5xx_HAL_Driver/Src/stm32h5xx_hal_dma.c **** 
 417              		.loc 1 245 24 is_stmt 0 view .LVU110
 418 0004 FFF7FEFF 		bl	HAL_GetTick
 419              	.LVL15:
 248:Drivers/STM32H5xx_HAL_Driver/Src/stm32h5xx_hal_dma.c ****   {
 420              		.loc 1 248 3 is_stmt 1 view .LVU111
 248:Drivers/STM32H5xx_HAL_Driver/Src/stm32h5xx_hal_dma.c ****   {
 421              		.loc 1 248 6 is_stmt 0 view .LVU112
 422 0008 3CB3     		cbz	r4, .L20
 423 000a 0546     		mov	r5, r0
 254:Drivers/STM32H5xx_HAL_Driver/Src/stm32h5xx_hal_dma.c ****   assert_param(IS_DMA_DIRECTION(hdma->Init.Direction));
 424              		.loc 1 254 3 is_stmt 1 view .LVU113
 255:Drivers/STM32H5xx_HAL_Driver/Src/stm32h5xx_hal_dma.c ****   if (hdma->Init.Direction != DMA_MEMORY_TO_MEMORY)
 425              		.loc 1 255 3 view .LVU114
 256:Drivers/STM32H5xx_HAL_Driver/Src/stm32h5xx_hal_dma.c ****   {
 426              		.loc 1 256 3 view .LVU115
 258:Drivers/STM32H5xx_HAL_Driver/Src/stm32h5xx_hal_dma.c ****   }
 427              		.loc 1 258 5 view .LVU116
 260:Drivers/STM32H5xx_HAL_Driver/Src/stm32h5xx_hal_dma.c ****   assert_param(IS_DMA_SOURCE_INC(hdma->Init.SrcInc));
 428              		.loc 1 260 3 view .LVU117
 261:Drivers/STM32H5xx_HAL_Driver/Src/stm32h5xx_hal_dma.c ****   assert_param(IS_DMA_DESTINATION_INC(hdma->Init.DestInc));
 429              		.loc 1 261 3 view .LVU118
 262:Drivers/STM32H5xx_HAL_Driver/Src/stm32h5xx_hal_dma.c ****   assert_param(IS_DMA_SOURCE_DATA_WIDTH(hdma->Init.SrcDataWidth));
 430              		.loc 1 262 3 view .LVU119
 263:Drivers/STM32H5xx_HAL_Driver/Src/stm32h5xx_hal_dma.c ****   assert_param(IS_DMA_DESTINATION_DATA_WIDTH(hdma->Init.DestDataWidth));
 431              		.loc 1 263 3 view .LVU120
 264:Drivers/STM32H5xx_HAL_Driver/Src/stm32h5xx_hal_dma.c ****   assert_param(IS_DMA_PRIORITY(hdma->Init.Priority));
 432              		.loc 1 264 3 view .LVU121
 265:Drivers/STM32H5xx_HAL_Driver/Src/stm32h5xx_hal_dma.c ****   assert_param(IS_DMA_TCEM_EVENT_MODE(hdma->Init.TransferEventMode));
 433              		.loc 1 265 3 view .LVU122
 266:Drivers/STM32H5xx_HAL_Driver/Src/stm32h5xx_hal_dma.c ****   assert_param(IS_DMA_MODE(hdma->Init.Mode));
 434              		.loc 1 266 3 view .LVU123
 267:Drivers/STM32H5xx_HAL_Driver/Src/stm32h5xx_hal_dma.c ****   if (hdma->Init.Mode == DMA_PFCTRL)
 435              		.loc 1 267 3 view .LVU124
 268:Drivers/STM32H5xx_HAL_Driver/Src/stm32h5xx_hal_dma.c ****   {
 436              		.loc 1 268 3 view .LVU125
 270:Drivers/STM32H5xx_HAL_Driver/Src/stm32h5xx_hal_dma.c ****   }
 437              		.loc 1 270 5 view .LVU126
 273:Drivers/STM32H5xx_HAL_Driver/Src/stm32h5xx_hal_dma.c ****   {
 438              		.loc 1 273 3 view .LVU127
ARM GAS  /var/folders/l3/rwskfq612tq4b7hmtv37jkjw0000gp/T//ccx7lwMy.s 			page 39


 273:Drivers/STM32H5xx_HAL_Driver/Src/stm32h5xx_hal_dma.c ****   {
 439              		.loc 1 273 7 is_stmt 0 view .LVU128
 440 000c 2268     		ldr	r2, [r4]
 275:Drivers/STM32H5xx_HAL_Driver/Src/stm32h5xx_hal_dma.c ****     assert_param(IS_DMA_BURST_LENGTH(hdma->Init.DestBurstLength));
 441              		.loc 1 275 5 is_stmt 1 view .LVU129
 276:Drivers/STM32H5xx_HAL_Driver/Src/stm32h5xx_hal_dma.c ****     assert_param(IS_DMA_TRANSFER_ALLOCATED_PORT(hdma->Init.TransferAllocatedPort));
 442              		.loc 1 276 5 view .LVU130
 277:Drivers/STM32H5xx_HAL_Driver/Src/stm32h5xx_hal_dma.c ****   }
 443              		.loc 1 277 5 view .LVU131
 281:Drivers/STM32H5xx_HAL_Driver/Src/stm32h5xx_hal_dma.c **** 
 444              		.loc 1 281 3 view .LVU132
 281:Drivers/STM32H5xx_HAL_Driver/Src/stm32h5xx_hal_dma.c **** 
 445              		.loc 1 281 3 view .LVU133
 446 000e 0023     		movs	r3, #0
 447 0010 84F84C30 		strb	r3, [r4, #76]
 281:Drivers/STM32H5xx_HAL_Driver/Src/stm32h5xx_hal_dma.c **** 
 448              		.loc 1 281 3 view .LVU134
 284:Drivers/STM32H5xx_HAL_Driver/Src/stm32h5xx_hal_dma.c **** 
 449              		.loc 1 284 3 view .LVU135
 284:Drivers/STM32H5xx_HAL_Driver/Src/stm32h5xx_hal_dma.c **** 
 450              		.loc 1 284 15 is_stmt 0 view .LVU136
 451 0014 0223     		movs	r3, #2
 452 0016 84F85430 		strb	r3, [r4, #84]
 287:Drivers/STM32H5xx_HAL_Driver/Src/stm32h5xx_hal_dma.c **** 
 453              		.loc 1 287 3 is_stmt 1 view .LVU137
 454 001a 5369     		ldr	r3, [r2, #20]
 455 001c 43F00603 		orr	r3, r3, #6
 456 0020 5361     		str	r3, [r2, #20]
 290:Drivers/STM32H5xx_HAL_Driver/Src/stm32h5xx_hal_dma.c ****   {
 457              		.loc 1 290 3 view .LVU138
 458              	.LVL16:
 459              	.L18:
 290:Drivers/STM32H5xx_HAL_Driver/Src/stm32h5xx_hal_dma.c ****   {
 460              		.loc 1 290 45 view .LVU139
 290:Drivers/STM32H5xx_HAL_Driver/Src/stm32h5xx_hal_dma.c ****   {
 461              		.loc 1 290 15 is_stmt 0 view .LVU140
 462 0022 2368     		ldr	r3, [r4]
 290:Drivers/STM32H5xx_HAL_Driver/Src/stm32h5xx_hal_dma.c ****   {
 463              		.loc 1 290 25 view .LVU141
 464 0024 5B69     		ldr	r3, [r3, #20]
 290:Drivers/STM32H5xx_HAL_Driver/Src/stm32h5xx_hal_dma.c ****   {
 465              		.loc 1 290 45 view .LVU142
 466 0026 13F0010F 		tst	r3, #1
 467 002a 0BD0     		beq	.L22
 293:Drivers/STM32H5xx_HAL_Driver/Src/stm32h5xx_hal_dma.c ****     {
 468              		.loc 1 293 5 is_stmt 1 view .LVU143
 293:Drivers/STM32H5xx_HAL_Driver/Src/stm32h5xx_hal_dma.c ****     {
 469              		.loc 1 293 10 is_stmt 0 view .LVU144
 470 002c FFF7FEFF 		bl	HAL_GetTick
 471              	.LVL17:
 293:Drivers/STM32H5xx_HAL_Driver/Src/stm32h5xx_hal_dma.c ****     {
 472              		.loc 1 293 24 discriminator 1 view .LVU145
 473 0030 431B     		subs	r3, r0, r5
 293:Drivers/STM32H5xx_HAL_Driver/Src/stm32h5xx_hal_dma.c ****     {
 474              		.loc 1 293 8 discriminator 1 view .LVU146
 475 0032 052B     		cmp	r3, #5
 476 0034 F5D9     		bls	.L18
ARM GAS  /var/folders/l3/rwskfq612tq4b7hmtv37jkjw0000gp/T//ccx7lwMy.s 			page 40


 296:Drivers/STM32H5xx_HAL_Driver/Src/stm32h5xx_hal_dma.c **** 
 477              		.loc 1 296 7 is_stmt 1 view .LVU147
 296:Drivers/STM32H5xx_HAL_Driver/Src/stm32h5xx_hal_dma.c **** 
 478              		.loc 1 296 23 is_stmt 0 view .LVU148
 479 0036 1023     		movs	r3, #16
 480 0038 A365     		str	r3, [r4, #88]
 299:Drivers/STM32H5xx_HAL_Driver/Src/stm32h5xx_hal_dma.c **** 
 481              		.loc 1 299 7 is_stmt 1 view .LVU149
 299:Drivers/STM32H5xx_HAL_Driver/Src/stm32h5xx_hal_dma.c **** 
 482              		.loc 1 299 19 is_stmt 0 view .LVU150
 483 003a 0323     		movs	r3, #3
 484 003c 84F85430 		strb	r3, [r4, #84]
 301:Drivers/STM32H5xx_HAL_Driver/Src/stm32h5xx_hal_dma.c ****     }
 485              		.loc 1 301 7 is_stmt 1 view .LVU151
 301:Drivers/STM32H5xx_HAL_Driver/Src/stm32h5xx_hal_dma.c ****     }
 486              		.loc 1 301 14 is_stmt 0 view .LVU152
 487 0040 0120     		movs	r0, #1
 488 0042 09E0     		b	.L17
 489              	.L22:
 306:Drivers/STM32H5xx_HAL_Driver/Src/stm32h5xx_hal_dma.c **** 
 490              		.loc 1 306 3 is_stmt 1 view .LVU153
 491 0044 2046     		mov	r0, r4
 492 0046 FFF7FEFF 		bl	DMA_Init
 493              	.LVL18:
 309:Drivers/STM32H5xx_HAL_Driver/Src/stm32h5xx_hal_dma.c **** 
 494              		.loc 1 309 3 view .LVU154
 309:Drivers/STM32H5xx_HAL_Driver/Src/stm32h5xx_hal_dma.c **** 
 495              		.loc 1 309 26 is_stmt 0 view .LVU155
 496 004a 636B     		ldr	r3, [r4, #52]
 309:Drivers/STM32H5xx_HAL_Driver/Src/stm32h5xx_hal_dma.c **** 
 497              		.loc 1 309 14 view .LVU156
 498 004c 2365     		str	r3, [r4, #80]
 312:Drivers/STM32H5xx_HAL_Driver/Src/stm32h5xx_hal_dma.c **** 
 499              		.loc 1 312 3 is_stmt 1 view .LVU157
 312:Drivers/STM32H5xx_HAL_Driver/Src/stm32h5xx_hal_dma.c **** 
 500              		.loc 1 312 19 is_stmt 0 view .LVU158
 501 004e 0020     		movs	r0, #0
 502 0050 A065     		str	r0, [r4, #88]
 315:Drivers/STM32H5xx_HAL_Driver/Src/stm32h5xx_hal_dma.c **** 
 503              		.loc 1 315 3 is_stmt 1 view .LVU159
 315:Drivers/STM32H5xx_HAL_Driver/Src/stm32h5xx_hal_dma.c **** 
 504              		.loc 1 315 15 is_stmt 0 view .LVU160
 505 0052 0123     		movs	r3, #1
 506 0054 84F85430 		strb	r3, [r4, #84]
 317:Drivers/STM32H5xx_HAL_Driver/Src/stm32h5xx_hal_dma.c **** }
 507              		.loc 1 317 3 is_stmt 1 view .LVU161
 508              	.LVL19:
 509              	.L17:
 318:Drivers/STM32H5xx_HAL_Driver/Src/stm32h5xx_hal_dma.c **** 
 510              		.loc 1 318 1 is_stmt 0 view .LVU162
 511 0058 38BD     		pop	{r3, r4, r5, pc}
 512              	.LVL20:
 513              	.L20:
 250:Drivers/STM32H5xx_HAL_Driver/Src/stm32h5xx_hal_dma.c ****   }
 514              		.loc 1 250 12 view .LVU163
 515 005a 0120     		movs	r0, #1
 516              	.LVL21:
ARM GAS  /var/folders/l3/rwskfq612tq4b7hmtv37jkjw0000gp/T//ccx7lwMy.s 			page 41


 250:Drivers/STM32H5xx_HAL_Driver/Src/stm32h5xx_hal_dma.c ****   }
 517              		.loc 1 250 12 view .LVU164
 518 005c FCE7     		b	.L17
 519              		.cfi_endproc
 520              	.LFE330:
 522              		.section	.text.HAL_DMA_DeInit,"ax",%progbits
 523              		.align	1
 524              		.global	HAL_DMA_DeInit
 525              		.syntax unified
 526              		.thumb
 527              		.thumb_func
 529              	HAL_DMA_DeInit:
 530              	.LVL22:
 531              	.LFB331:
 327:Drivers/STM32H5xx_HAL_Driver/Src/stm32h5xx_hal_dma.c **** 
 532              		.loc 1 327 1 is_stmt 1 view -0
 533              		.cfi_startproc
 534              		@ args = 0, pretend = 0, frame = 0
 535              		@ frame_needed = 0, uses_anonymous_args = 0
 327:Drivers/STM32H5xx_HAL_Driver/Src/stm32h5xx_hal_dma.c **** 
 536              		.loc 1 327 1 is_stmt 0 view .LVU166
 537 0000 70B5     		push	{r4, r5, r6, lr}
 538              	.LCFI6:
 539              		.cfi_def_cfa_offset 16
 540              		.cfi_offset 4, -16
 541              		.cfi_offset 5, -12
 542              		.cfi_offset 6, -8
 543              		.cfi_offset 14, -4
 544 0002 0446     		mov	r4, r0
 329:Drivers/STM32H5xx_HAL_Driver/Src/stm32h5xx_hal_dma.c **** 
 545              		.loc 1 329 3 is_stmt 1 view .LVU167
 331:Drivers/STM32H5xx_HAL_Driver/Src/stm32h5xx_hal_dma.c **** 
 546              		.loc 1 331 3 view .LVU168
 331:Drivers/STM32H5xx_HAL_Driver/Src/stm32h5xx_hal_dma.c **** 
 547              		.loc 1 331 24 is_stmt 0 view .LVU169
 548 0004 FFF7FEFF 		bl	HAL_GetTick
 549              	.LVL23:
 334:Drivers/STM32H5xx_HAL_Driver/Src/stm32h5xx_hal_dma.c ****   {
 550              		.loc 1 334 3 is_stmt 1 view .LVU170
 334:Drivers/STM32H5xx_HAL_Driver/Src/stm32h5xx_hal_dma.c ****   {
 551              		.loc 1 334 6 is_stmt 0 view .LVU171
 552 0008 002C     		cmp	r4, #0
 553 000a 60D0     		beq	.L30
 554 000c 0546     		mov	r5, r0
 340:Drivers/STM32H5xx_HAL_Driver/Src/stm32h5xx_hal_dma.c **** 
 555              		.loc 1 340 3 is_stmt 1 view .LVU172
 343:Drivers/STM32H5xx_HAL_Driver/Src/stm32h5xx_hal_dma.c **** 
 556              		.loc 1 343 3 view .LVU173
 343:Drivers/STM32H5xx_HAL_Driver/Src/stm32h5xx_hal_dma.c **** 
 557              		.loc 1 343 20 is_stmt 0 view .LVU174
 558 000e 2368     		ldr	r3, [r4]
 559 0010 23F47F66 		bic	r6, r3, #4080
 560 0014 26F00F06 		bic	r6, r6, #15
 561              	.LVL24:
 346:Drivers/STM32H5xx_HAL_Driver/Src/stm32h5xx_hal_dma.c **** 
 562              		.loc 1 346 3 is_stmt 1 view .LVU175
 563 0018 5A69     		ldr	r2, [r3, #20]
ARM GAS  /var/folders/l3/rwskfq612tq4b7hmtv37jkjw0000gp/T//ccx7lwMy.s 			page 42


 564 001a 42F00602 		orr	r2, r2, #6
 565 001e 5A61     		str	r2, [r3, #20]
 349:Drivers/STM32H5xx_HAL_Driver/Src/stm32h5xx_hal_dma.c ****   {
 566              		.loc 1 349 3 view .LVU176
 567              	.LVL25:
 568              	.L25:
 349:Drivers/STM32H5xx_HAL_Driver/Src/stm32h5xx_hal_dma.c ****   {
 569              		.loc 1 349 45 view .LVU177
 349:Drivers/STM32H5xx_HAL_Driver/Src/stm32h5xx_hal_dma.c ****   {
 570              		.loc 1 349 15 is_stmt 0 view .LVU178
 571 0020 2368     		ldr	r3, [r4]
 349:Drivers/STM32H5xx_HAL_Driver/Src/stm32h5xx_hal_dma.c ****   {
 572              		.loc 1 349 25 view .LVU179
 573 0022 5A69     		ldr	r2, [r3, #20]
 349:Drivers/STM32H5xx_HAL_Driver/Src/stm32h5xx_hal_dma.c ****   {
 574              		.loc 1 349 45 view .LVU180
 575 0024 12F0010F 		tst	r2, #1
 576 0028 0BD0     		beq	.L32
 352:Drivers/STM32H5xx_HAL_Driver/Src/stm32h5xx_hal_dma.c ****     {
 577              		.loc 1 352 5 is_stmt 1 view .LVU181
 352:Drivers/STM32H5xx_HAL_Driver/Src/stm32h5xx_hal_dma.c ****     {
 578              		.loc 1 352 10 is_stmt 0 view .LVU182
 579 002a FFF7FEFF 		bl	HAL_GetTick
 580              	.LVL26:
 352:Drivers/STM32H5xx_HAL_Driver/Src/stm32h5xx_hal_dma.c ****     {
 581              		.loc 1 352 24 discriminator 1 view .LVU183
 582 002e 431B     		subs	r3, r0, r5
 352:Drivers/STM32H5xx_HAL_Driver/Src/stm32h5xx_hal_dma.c ****     {
 583              		.loc 1 352 8 discriminator 1 view .LVU184
 584 0030 052B     		cmp	r3, #5
 585 0032 F5D9     		bls	.L25
 355:Drivers/STM32H5xx_HAL_Driver/Src/stm32h5xx_hal_dma.c **** 
 586              		.loc 1 355 7 is_stmt 1 view .LVU185
 355:Drivers/STM32H5xx_HAL_Driver/Src/stm32h5xx_hal_dma.c **** 
 587              		.loc 1 355 23 is_stmt 0 view .LVU186
 588 0034 1023     		movs	r3, #16
 589 0036 A365     		str	r3, [r4, #88]
 358:Drivers/STM32H5xx_HAL_Driver/Src/stm32h5xx_hal_dma.c **** 
 590              		.loc 1 358 7 is_stmt 1 view .LVU187
 358:Drivers/STM32H5xx_HAL_Driver/Src/stm32h5xx_hal_dma.c **** 
 591              		.loc 1 358 19 is_stmt 0 view .LVU188
 592 0038 0323     		movs	r3, #3
 593 003a 84F85430 		strb	r3, [r4, #84]
 360:Drivers/STM32H5xx_HAL_Driver/Src/stm32h5xx_hal_dma.c ****     }
 594              		.loc 1 360 7 is_stmt 1 view .LVU189
 360:Drivers/STM32H5xx_HAL_Driver/Src/stm32h5xx_hal_dma.c ****     }
 595              		.loc 1 360 14 is_stmt 0 view .LVU190
 596 003e 0120     		movs	r0, #1
 597 0040 44E0     		b	.L24
 598              	.L32:
 365:Drivers/STM32H5xx_HAL_Driver/Src/stm32h5xx_hal_dma.c ****   hdma->Instance->CCR   = 0U;
 599              		.loc 1 365 3 is_stmt 1 view .LVU191
 365:Drivers/STM32H5xx_HAL_Driver/Src/stm32h5xx_hal_dma.c ****   hdma->Instance->CCR   = 0U;
 600              		.loc 1 365 25 is_stmt 0 view .LVU192
 601 0042 0022     		movs	r2, #0
 602 0044 1A60     		str	r2, [r3]
 366:Drivers/STM32H5xx_HAL_Driver/Src/stm32h5xx_hal_dma.c ****   hdma->Instance->CTR1  = 0U;
ARM GAS  /var/folders/l3/rwskfq612tq4b7hmtv37jkjw0000gp/T//ccx7lwMy.s 			page 43


 603              		.loc 1 366 3 is_stmt 1 view .LVU193
 366:Drivers/STM32H5xx_HAL_Driver/Src/stm32h5xx_hal_dma.c ****   hdma->Instance->CTR1  = 0U;
 604              		.loc 1 366 7 is_stmt 0 view .LVU194
 605 0046 2368     		ldr	r3, [r4]
 366:Drivers/STM32H5xx_HAL_Driver/Src/stm32h5xx_hal_dma.c ****   hdma->Instance->CTR1  = 0U;
 606              		.loc 1 366 25 view .LVU195
 607 0048 5A61     		str	r2, [r3, #20]
 367:Drivers/STM32H5xx_HAL_Driver/Src/stm32h5xx_hal_dma.c ****   hdma->Instance->CTR2  = 0U;
 608              		.loc 1 367 3 is_stmt 1 view .LVU196
 367:Drivers/STM32H5xx_HAL_Driver/Src/stm32h5xx_hal_dma.c ****   hdma->Instance->CTR2  = 0U;
 609              		.loc 1 367 7 is_stmt 0 view .LVU197
 610 004a 2368     		ldr	r3, [r4]
 367:Drivers/STM32H5xx_HAL_Driver/Src/stm32h5xx_hal_dma.c ****   hdma->Instance->CTR2  = 0U;
 611              		.loc 1 367 25 view .LVU198
 612 004c 1A64     		str	r2, [r3, #64]
 368:Drivers/STM32H5xx_HAL_Driver/Src/stm32h5xx_hal_dma.c ****   hdma->Instance->CBR1  = 0U;
 613              		.loc 1 368 3 is_stmt 1 view .LVU199
 368:Drivers/STM32H5xx_HAL_Driver/Src/stm32h5xx_hal_dma.c ****   hdma->Instance->CBR1  = 0U;
 614              		.loc 1 368 7 is_stmt 0 view .LVU200
 615 004e 2368     		ldr	r3, [r4]
 368:Drivers/STM32H5xx_HAL_Driver/Src/stm32h5xx_hal_dma.c ****   hdma->Instance->CBR1  = 0U;
 616              		.loc 1 368 25 view .LVU201
 617 0050 5A64     		str	r2, [r3, #68]
 369:Drivers/STM32H5xx_HAL_Driver/Src/stm32h5xx_hal_dma.c ****   hdma->Instance->CSAR  = 0U;
 618              		.loc 1 369 3 is_stmt 1 view .LVU202
 369:Drivers/STM32H5xx_HAL_Driver/Src/stm32h5xx_hal_dma.c ****   hdma->Instance->CSAR  = 0U;
 619              		.loc 1 369 7 is_stmt 0 view .LVU203
 620 0052 2368     		ldr	r3, [r4]
 369:Drivers/STM32H5xx_HAL_Driver/Src/stm32h5xx_hal_dma.c ****   hdma->Instance->CSAR  = 0U;
 621              		.loc 1 369 25 view .LVU204
 622 0054 9A64     		str	r2, [r3, #72]
 370:Drivers/STM32H5xx_HAL_Driver/Src/stm32h5xx_hal_dma.c ****   hdma->Instance->CDAR  = 0U;
 623              		.loc 1 370 3 is_stmt 1 view .LVU205
 370:Drivers/STM32H5xx_HAL_Driver/Src/stm32h5xx_hal_dma.c ****   hdma->Instance->CDAR  = 0U;
 624              		.loc 1 370 7 is_stmt 0 view .LVU206
 625 0056 2368     		ldr	r3, [r4]
 370:Drivers/STM32H5xx_HAL_Driver/Src/stm32h5xx_hal_dma.c ****   hdma->Instance->CDAR  = 0U;
 626              		.loc 1 370 25 view .LVU207
 627 0058 DA64     		str	r2, [r3, #76]
 371:Drivers/STM32H5xx_HAL_Driver/Src/stm32h5xx_hal_dma.c ****   hdma->Instance->CLLR  = 0U;
 628              		.loc 1 371 3 is_stmt 1 view .LVU208
 371:Drivers/STM32H5xx_HAL_Driver/Src/stm32h5xx_hal_dma.c ****   hdma->Instance->CLLR  = 0U;
 629              		.loc 1 371 7 is_stmt 0 view .LVU209
 630 005a 2368     		ldr	r3, [r4]
 371:Drivers/STM32H5xx_HAL_Driver/Src/stm32h5xx_hal_dma.c ****   hdma->Instance->CLLR  = 0U;
 631              		.loc 1 371 25 view .LVU210
 632 005c 1A65     		str	r2, [r3, #80]
 372:Drivers/STM32H5xx_HAL_Driver/Src/stm32h5xx_hal_dma.c **** 
 633              		.loc 1 372 3 is_stmt 1 view .LVU211
 372:Drivers/STM32H5xx_HAL_Driver/Src/stm32h5xx_hal_dma.c **** 
 634              		.loc 1 372 7 is_stmt 0 view .LVU212
 635 005e 2368     		ldr	r3, [r4]
 372:Drivers/STM32H5xx_HAL_Driver/Src/stm32h5xx_hal_dma.c **** 
 636              		.loc 1 372 25 view .LVU213
 637 0060 DA67     		str	r2, [r3, #124]
 375:Drivers/STM32H5xx_HAL_Driver/Src/stm32h5xx_hal_dma.c ****   {
 638              		.loc 1 375 3 is_stmt 1 view .LVU214
ARM GAS  /var/folders/l3/rwskfq612tq4b7hmtv37jkjw0000gp/T//ccx7lwMy.s 			page 44


 375:Drivers/STM32H5xx_HAL_Driver/Src/stm32h5xx_hal_dma.c ****   {
 639              		.loc 1 375 7 is_stmt 0 view .LVU215
 640 0062 2368     		ldr	r3, [r4]
 641 0064 1B4A     		ldr	r2, .L33
 642 0066 9342     		cmp	r3, r2
 643 0068 09D0     		beq	.L27
 375:Drivers/STM32H5xx_HAL_Driver/Src/stm32h5xx_hal_dma.c ****   {
 644              		.loc 1 375 7 discriminator 2 view .LVU216
 645 006a 8032     		adds	r2, r2, #128
 646 006c 9342     		cmp	r3, r2
 647 006e 06D0     		beq	.L27
 375:Drivers/STM32H5xx_HAL_Driver/Src/stm32h5xx_hal_dma.c ****   {
 648              		.loc 1 375 7 discriminator 4 view .LVU217
 649 0070 02F57862 		add	r2, r2, #3968
 650 0074 9342     		cmp	r3, r2
 651 0076 02D0     		beq	.L27
 375:Drivers/STM32H5xx_HAL_Driver/Src/stm32h5xx_hal_dma.c ****   {
 652              		.loc 1 375 7 discriminator 6 view .LVU218
 653 0078 8032     		adds	r2, r2, #128
 654 007a 9342     		cmp	r3, r2
 655 007c 03D1     		bne	.L28
 656              	.L27:
 377:Drivers/STM32H5xx_HAL_Driver/Src/stm32h5xx_hal_dma.c ****     hdma->Instance->CBR2 = 0U;
 657              		.loc 1 377 5 is_stmt 1 view .LVU219
 377:Drivers/STM32H5xx_HAL_Driver/Src/stm32h5xx_hal_dma.c ****     hdma->Instance->CBR2 = 0U;
 658              		.loc 1 377 26 is_stmt 0 view .LVU220
 659 007e 0022     		movs	r2, #0
 660 0080 5A65     		str	r2, [r3, #84]
 378:Drivers/STM32H5xx_HAL_Driver/Src/stm32h5xx_hal_dma.c ****   }
 661              		.loc 1 378 5 is_stmt 1 view .LVU221
 378:Drivers/STM32H5xx_HAL_Driver/Src/stm32h5xx_hal_dma.c ****   }
 662              		.loc 1 378 9 is_stmt 0 view .LVU222
 663 0082 2368     		ldr	r3, [r4]
 378:Drivers/STM32H5xx_HAL_Driver/Src/stm32h5xx_hal_dma.c ****   }
 664              		.loc 1 378 26 view .LVU223
 665 0084 9A65     		str	r2, [r3, #88]
 666              	.L28:
 382:Drivers/STM32H5xx_HAL_Driver/Src/stm32h5xx_hal_dma.c **** 
 667              		.loc 1 382 3 is_stmt 1 view .LVU224
 668 0086 7268     		ldr	r2, [r6, #4]
 669 0088 2368     		ldr	r3, [r4]
 670 008a C3F30B03 		ubfx	r3, r3, #0, #12
 671 008e 503B     		subs	r3, r3, #80
 672 0090 C3F3C413 		ubfx	r3, r3, #7, #5
 673 0094 0121     		movs	r1, #1
 674 0096 01FA03F3 		lsl	r3, r1, r3
 675 009a 22EA0303 		bic	r3, r2, r3
 676 009e 7360     		str	r3, [r6, #4]
 390:Drivers/STM32H5xx_HAL_Driver/Src/stm32h5xx_hal_dma.c ****                               DMA_FLAG_TO));
 677              		.loc 1 390 3 view .LVU225
 678 00a0 2368     		ldr	r3, [r4]
 679 00a2 4FF4FE42 		mov	r2, #32512
 680 00a6 DA60     		str	r2, [r3, #12]
 394:Drivers/STM32H5xx_HAL_Driver/Src/stm32h5xx_hal_dma.c ****   hdma->XferHalfCpltCallback = NULL;
 681              		.loc 1 394 3 view .LVU226
 394:Drivers/STM32H5xx_HAL_Driver/Src/stm32h5xx_hal_dma.c ****   hdma->XferHalfCpltCallback = NULL;
 682              		.loc 1 394 30 is_stmt 0 view .LVU227
ARM GAS  /var/folders/l3/rwskfq612tq4b7hmtv37jkjw0000gp/T//ccx7lwMy.s 			page 45


 683 00a8 0023     		movs	r3, #0
 684 00aa 2366     		str	r3, [r4, #96]
 395:Drivers/STM32H5xx_HAL_Driver/Src/stm32h5xx_hal_dma.c ****   hdma->XferErrorCallback    = NULL;
 685              		.loc 1 395 3 is_stmt 1 view .LVU228
 395:Drivers/STM32H5xx_HAL_Driver/Src/stm32h5xx_hal_dma.c ****   hdma->XferErrorCallback    = NULL;
 686              		.loc 1 395 30 is_stmt 0 view .LVU229
 687 00ac 6366     		str	r3, [r4, #100]
 396:Drivers/STM32H5xx_HAL_Driver/Src/stm32h5xx_hal_dma.c ****   hdma->XferAbortCallback    = NULL;
 688              		.loc 1 396 3 is_stmt 1 view .LVU230
 396:Drivers/STM32H5xx_HAL_Driver/Src/stm32h5xx_hal_dma.c ****   hdma->XferAbortCallback    = NULL;
 689              		.loc 1 396 30 is_stmt 0 view .LVU231
 690 00ae A366     		str	r3, [r4, #104]
 397:Drivers/STM32H5xx_HAL_Driver/Src/stm32h5xx_hal_dma.c ****   hdma->XferSuspendCallback  = NULL;
 691              		.loc 1 397 3 is_stmt 1 view .LVU232
 397:Drivers/STM32H5xx_HAL_Driver/Src/stm32h5xx_hal_dma.c ****   hdma->XferSuspendCallback  = NULL;
 692              		.loc 1 397 30 is_stmt 0 view .LVU233
 693 00b0 E366     		str	r3, [r4, #108]
 398:Drivers/STM32H5xx_HAL_Driver/Src/stm32h5xx_hal_dma.c **** 
 694              		.loc 1 398 3 is_stmt 1 view .LVU234
 398:Drivers/STM32H5xx_HAL_Driver/Src/stm32h5xx_hal_dma.c **** 
 695              		.loc 1 398 30 is_stmt 0 view .LVU235
 696 00b2 2367     		str	r3, [r4, #112]
 401:Drivers/STM32H5xx_HAL_Driver/Src/stm32h5xx_hal_dma.c **** 
 697              		.loc 1 401 3 is_stmt 1 view .LVU236
 401:Drivers/STM32H5xx_HAL_Driver/Src/stm32h5xx_hal_dma.c **** 
 698              		.loc 1 401 25 is_stmt 0 view .LVU237
 699 00b4 6367     		str	r3, [r4, #116]
 404:Drivers/STM32H5xx_HAL_Driver/Src/stm32h5xx_hal_dma.c ****   {
 700              		.loc 1 404 3 is_stmt 1 view .LVU238
 404:Drivers/STM32H5xx_HAL_Driver/Src/stm32h5xx_hal_dma.c ****   {
 701              		.loc 1 404 11 is_stmt 0 view .LVU239
 702 00b6 E36D     		ldr	r3, [r4, #92]
 404:Drivers/STM32H5xx_HAL_Driver/Src/stm32h5xx_hal_dma.c ****   {
 703              		.loc 1 404 6 view .LVU240
 704 00b8 0BB1     		cbz	r3, .L29
 406:Drivers/STM32H5xx_HAL_Driver/Src/stm32h5xx_hal_dma.c ****   }
 705              		.loc 1 406 5 is_stmt 1 view .LVU241
 406:Drivers/STM32H5xx_HAL_Driver/Src/stm32h5xx_hal_dma.c ****   }
 706              		.loc 1 406 18 is_stmt 0 view .LVU242
 707 00ba 0023     		movs	r3, #0
 708 00bc E365     		str	r3, [r4, #92]
 709              	.L29:
 410:Drivers/STM32H5xx_HAL_Driver/Src/stm32h5xx_hal_dma.c **** 
 710              		.loc 1 410 3 is_stmt 1 view .LVU243
 410:Drivers/STM32H5xx_HAL_Driver/Src/stm32h5xx_hal_dma.c **** 
 711              		.loc 1 410 14 is_stmt 0 view .LVU244
 712 00be 0020     		movs	r0, #0
 713 00c0 2065     		str	r0, [r4, #80]
 413:Drivers/STM32H5xx_HAL_Driver/Src/stm32h5xx_hal_dma.c **** 
 714              		.loc 1 413 3 is_stmt 1 view .LVU245
 413:Drivers/STM32H5xx_HAL_Driver/Src/stm32h5xx_hal_dma.c **** 
 715              		.loc 1 413 19 is_stmt 0 view .LVU246
 716 00c2 A065     		str	r0, [r4, #88]
 416:Drivers/STM32H5xx_HAL_Driver/Src/stm32h5xx_hal_dma.c **** 
 717              		.loc 1 416 3 is_stmt 1 view .LVU247
 416:Drivers/STM32H5xx_HAL_Driver/Src/stm32h5xx_hal_dma.c **** 
 718              		.loc 1 416 15 is_stmt 0 view .LVU248
ARM GAS  /var/folders/l3/rwskfq612tq4b7hmtv37jkjw0000gp/T//ccx7lwMy.s 			page 46


 719 00c4 84F85400 		strb	r0, [r4, #84]
 419:Drivers/STM32H5xx_HAL_Driver/Src/stm32h5xx_hal_dma.c **** 
 720              		.loc 1 419 3 is_stmt 1 view .LVU249
 419:Drivers/STM32H5xx_HAL_Driver/Src/stm32h5xx_hal_dma.c **** 
 721              		.loc 1 419 3 view .LVU250
 722 00c8 84F84C00 		strb	r0, [r4, #76]
 419:Drivers/STM32H5xx_HAL_Driver/Src/stm32h5xx_hal_dma.c **** 
 723              		.loc 1 419 3 view .LVU251
 421:Drivers/STM32H5xx_HAL_Driver/Src/stm32h5xx_hal_dma.c **** }
 724              		.loc 1 421 3 view .LVU252
 725              	.LVL27:
 726              	.L24:
 422:Drivers/STM32H5xx_HAL_Driver/Src/stm32h5xx_hal_dma.c **** /**
 727              		.loc 1 422 1 is_stmt 0 view .LVU253
 728 00cc 70BD     		pop	{r4, r5, r6, pc}
 729              	.LVL28:
 730              	.L30:
 336:Drivers/STM32H5xx_HAL_Driver/Src/stm32h5xx_hal_dma.c ****   }
 731              		.loc 1 336 12 view .LVU254
 732 00ce 0120     		movs	r0, #1
 733              	.LVL29:
 336:Drivers/STM32H5xx_HAL_Driver/Src/stm32h5xx_hal_dma.c ****   }
 734              		.loc 1 336 12 view .LVU255
 735 00d0 FCE7     		b	.L24
 736              	.L34:
 737 00d2 00BF     		.align	2
 738              	.L33:
 739 00d4 50030240 		.word	1073873744
 740              		.cfi_endproc
 741              	.LFE331:
 743              		.section	.text.HAL_DMA_Start,"ax",%progbits
 744              		.align	1
 745              		.global	HAL_DMA_Start
 746              		.syntax unified
 747              		.thumb
 748              		.thumb_func
 750              	HAL_DMA_Start:
 751              	.LVL30:
 752              	.LFB332:
 470:Drivers/STM32H5xx_HAL_Driver/Src/stm32h5xx_hal_dma.c ****   /* Check the DMA peripheral handle parameter */
 753              		.loc 1 470 1 is_stmt 1 view -0
 754              		.cfi_startproc
 755              		@ args = 0, pretend = 0, frame = 0
 756              		@ frame_needed = 0, uses_anonymous_args = 0
 472:Drivers/STM32H5xx_HAL_Driver/Src/stm32h5xx_hal_dma.c ****   {
 757              		.loc 1 472 3 view .LVU257
 472:Drivers/STM32H5xx_HAL_Driver/Src/stm32h5xx_hal_dma.c ****   {
 758              		.loc 1 472 6 is_stmt 0 view .LVU258
 759 0000 10B3     		cbz	r0, .L38
 470:Drivers/STM32H5xx_HAL_Driver/Src/stm32h5xx_hal_dma.c ****   /* Check the DMA peripheral handle parameter */
 760              		.loc 1 470 1 view .LVU259
 761 0002 38B5     		push	{r3, r4, r5, lr}
 762              	.LCFI7:
 763              		.cfi_def_cfa_offset 16
 764              		.cfi_offset 3, -16
 765              		.cfi_offset 4, -12
 766              		.cfi_offset 5, -8
ARM GAS  /var/folders/l3/rwskfq612tq4b7hmtv37jkjw0000gp/T//ccx7lwMy.s 			page 47


 767              		.cfi_offset 14, -4
 768 0004 0446     		mov	r4, r0
 478:Drivers/STM32H5xx_HAL_Driver/Src/stm32h5xx_hal_dma.c **** 
 769              		.loc 1 478 3 is_stmt 1 view .LVU260
 481:Drivers/STM32H5xx_HAL_Driver/Src/stm32h5xx_hal_dma.c **** 
 770              		.loc 1 481 3 view .LVU261
 481:Drivers/STM32H5xx_HAL_Driver/Src/stm32h5xx_hal_dma.c **** 
 771              		.loc 1 481 3 view .LVU262
 772 0006 90F84C00 		ldrb	r0, [r0, #76]	@ zero_extendqisi2
 773              	.LVL31:
 481:Drivers/STM32H5xx_HAL_Driver/Src/stm32h5xx_hal_dma.c **** 
 774              		.loc 1 481 3 is_stmt 0 view .LVU263
 775 000a 0128     		cmp	r0, #1
 776 000c 1ED0     		beq	.L39
 481:Drivers/STM32H5xx_HAL_Driver/Src/stm32h5xx_hal_dma.c **** 
 777              		.loc 1 481 3 is_stmt 1 discriminator 2 view .LVU264
 778 000e 0120     		movs	r0, #1
 779 0010 84F84C00 		strb	r0, [r4, #76]
 481:Drivers/STM32H5xx_HAL_Driver/Src/stm32h5xx_hal_dma.c **** 
 780              		.loc 1 481 3 view .LVU265
 484:Drivers/STM32H5xx_HAL_Driver/Src/stm32h5xx_hal_dma.c ****   {
 781              		.loc 1 484 3 view .LVU266
 484:Drivers/STM32H5xx_HAL_Driver/Src/stm32h5xx_hal_dma.c ****   {
 782              		.loc 1 484 11 is_stmt 0 view .LVU267
 783 0014 94F85400 		ldrb	r0, [r4, #84]	@ zero_extendqisi2
 484:Drivers/STM32H5xx_HAL_Driver/Src/stm32h5xx_hal_dma.c ****   {
 784              		.loc 1 484 6 view .LVU268
 785 0018 0128     		cmp	r0, #1
 786 001a 06D0     		beq	.L44
 501:Drivers/STM32H5xx_HAL_Driver/Src/stm32h5xx_hal_dma.c **** 
 787              		.loc 1 501 5 is_stmt 1 view .LVU269
 501:Drivers/STM32H5xx_HAL_Driver/Src/stm32h5xx_hal_dma.c **** 
 788              		.loc 1 501 21 is_stmt 0 view .LVU270
 789 001c 4023     		movs	r3, #64
 790              	.LVL32:
 501:Drivers/STM32H5xx_HAL_Driver/Src/stm32h5xx_hal_dma.c **** 
 791              		.loc 1 501 21 view .LVU271
 792 001e A365     		str	r3, [r4, #88]
 504:Drivers/STM32H5xx_HAL_Driver/Src/stm32h5xx_hal_dma.c **** 
 793              		.loc 1 504 5 is_stmt 1 view .LVU272
 504:Drivers/STM32H5xx_HAL_Driver/Src/stm32h5xx_hal_dma.c **** 
 794              		.loc 1 504 5 view .LVU273
 795 0020 0023     		movs	r3, #0
 796 0022 84F84C30 		strb	r3, [r4, #76]
 504:Drivers/STM32H5xx_HAL_Driver/Src/stm32h5xx_hal_dma.c **** 
 797              		.loc 1 504 5 view .LVU274
 506:Drivers/STM32H5xx_HAL_Driver/Src/stm32h5xx_hal_dma.c ****   }
 798              		.loc 1 506 5 view .LVU275
 506:Drivers/STM32H5xx_HAL_Driver/Src/stm32h5xx_hal_dma.c ****   }
 799              		.loc 1 506 12 is_stmt 0 view .LVU276
 800 0026 0120     		movs	r0, #1
 801              	.LVL33:
 802              	.L36:
 510:Drivers/STM32H5xx_HAL_Driver/Src/stm32h5xx_hal_dma.c **** 
 803              		.loc 1 510 1 view .LVU277
 804 0028 38BD     		pop	{r3, r4, r5, pc}
 805              	.LVL34:
ARM GAS  /var/folders/l3/rwskfq612tq4b7hmtv37jkjw0000gp/T//ccx7lwMy.s 			page 48


 806              	.L44:
 487:Drivers/STM32H5xx_HAL_Driver/Src/stm32h5xx_hal_dma.c **** 
 807              		.loc 1 487 5 is_stmt 1 view .LVU278
 487:Drivers/STM32H5xx_HAL_Driver/Src/stm32h5xx_hal_dma.c **** 
 808              		.loc 1 487 17 is_stmt 0 view .LVU279
 809 002a 0220     		movs	r0, #2
 810 002c 84F85400 		strb	r0, [r4, #84]
 490:Drivers/STM32H5xx_HAL_Driver/Src/stm32h5xx_hal_dma.c **** 
 811              		.loc 1 490 5 is_stmt 1 view .LVU280
 490:Drivers/STM32H5xx_HAL_Driver/Src/stm32h5xx_hal_dma.c **** 
 812              		.loc 1 490 21 is_stmt 0 view .LVU281
 813 0030 0025     		movs	r5, #0
 814 0032 A565     		str	r5, [r4, #88]
 493:Drivers/STM32H5xx_HAL_Driver/Src/stm32h5xx_hal_dma.c **** 
 815              		.loc 1 493 5 is_stmt 1 view .LVU282
 816 0034 2046     		mov	r0, r4
 817 0036 FFF7FEFF 		bl	DMA_SetConfig
 818              	.LVL35:
 496:Drivers/STM32H5xx_HAL_Driver/Src/stm32h5xx_hal_dma.c ****   }
 819              		.loc 1 496 5 view .LVU283
 820 003a 2268     		ldr	r2, [r4]
 821 003c 5369     		ldr	r3, [r2, #20]
 822 003e 43F00103 		orr	r3, r3, #1
 823 0042 5361     		str	r3, [r2, #20]
 509:Drivers/STM32H5xx_HAL_Driver/Src/stm32h5xx_hal_dma.c **** }
 824              		.loc 1 509 3 view .LVU284
 509:Drivers/STM32H5xx_HAL_Driver/Src/stm32h5xx_hal_dma.c **** }
 825              		.loc 1 509 10 is_stmt 0 view .LVU285
 826 0044 2846     		mov	r0, r5
 827 0046 EFE7     		b	.L36
 828              	.LVL36:
 829              	.L38:
 830              	.LCFI8:
 831              		.cfi_def_cfa_offset 0
 832              		.cfi_restore 3
 833              		.cfi_restore 4
 834              		.cfi_restore 5
 835              		.cfi_restore 14
 474:Drivers/STM32H5xx_HAL_Driver/Src/stm32h5xx_hal_dma.c ****   }
 836              		.loc 1 474 12 view .LVU286
 837 0048 0120     		movs	r0, #1
 838              	.LVL37:
 510:Drivers/STM32H5xx_HAL_Driver/Src/stm32h5xx_hal_dma.c **** 
 839              		.loc 1 510 1 view .LVU287
 840 004a 7047     		bx	lr
 841              	.LVL38:
 842              	.L39:
 843              	.LCFI9:
 844              		.cfi_def_cfa_offset 16
 845              		.cfi_offset 3, -16
 846              		.cfi_offset 4, -12
 847              		.cfi_offset 5, -8
 848              		.cfi_offset 14, -4
 481:Drivers/STM32H5xx_HAL_Driver/Src/stm32h5xx_hal_dma.c **** 
 849              		.loc 1 481 3 discriminator 1 view .LVU288
 850 004c 0220     		movs	r0, #2
 851 004e EBE7     		b	.L36
ARM GAS  /var/folders/l3/rwskfq612tq4b7hmtv37jkjw0000gp/T//ccx7lwMy.s 			page 49


 852              		.cfi_endproc
 853              	.LFE332:
 855              		.section	.text.HAL_DMA_Start_IT,"ax",%progbits
 856              		.align	1
 857              		.global	HAL_DMA_Start_IT
 858              		.syntax unified
 859              		.thumb
 860              		.thumb_func
 862              	HAL_DMA_Start_IT:
 863              	.LVL39:
 864              	.LFB333:
 525:Drivers/STM32H5xx_HAL_Driver/Src/stm32h5xx_hal_dma.c ****   /* Check the DMA peripheral handle parameter */
 865              		.loc 1 525 1 is_stmt 1 view -0
 866              		.cfi_startproc
 867              		@ args = 0, pretend = 0, frame = 0
 868              		@ frame_needed = 0, uses_anonymous_args = 0
 527:Drivers/STM32H5xx_HAL_Driver/Src/stm32h5xx_hal_dma.c ****   {
 869              		.loc 1 527 3 view .LVU290
 527:Drivers/STM32H5xx_HAL_Driver/Src/stm32h5xx_hal_dma.c ****   {
 870              		.loc 1 527 6 is_stmt 0 view .LVU291
 871 0000 0028     		cmp	r0, #0
 872 0002 35D0     		beq	.L50
 525:Drivers/STM32H5xx_HAL_Driver/Src/stm32h5xx_hal_dma.c ****   /* Check the DMA peripheral handle parameter */
 873              		.loc 1 525 1 view .LVU292
 874 0004 10B5     		push	{r4, lr}
 875              	.LCFI10:
 876              		.cfi_def_cfa_offset 8
 877              		.cfi_offset 4, -8
 878              		.cfi_offset 14, -4
 879 0006 0446     		mov	r4, r0
 533:Drivers/STM32H5xx_HAL_Driver/Src/stm32h5xx_hal_dma.c **** 
 880              		.loc 1 533 3 is_stmt 1 view .LVU293
 536:Drivers/STM32H5xx_HAL_Driver/Src/stm32h5xx_hal_dma.c **** 
 881              		.loc 1 536 3 view .LVU294
 536:Drivers/STM32H5xx_HAL_Driver/Src/stm32h5xx_hal_dma.c **** 
 882              		.loc 1 536 3 view .LVU295
 883 0008 90F84C00 		ldrb	r0, [r0, #76]	@ zero_extendqisi2
 884              	.LVL40:
 536:Drivers/STM32H5xx_HAL_Driver/Src/stm32h5xx_hal_dma.c **** 
 885              		.loc 1 536 3 is_stmt 0 view .LVU296
 886 000c 0128     		cmp	r0, #1
 887 000e 31D0     		beq	.L51
 536:Drivers/STM32H5xx_HAL_Driver/Src/stm32h5xx_hal_dma.c **** 
 888              		.loc 1 536 3 is_stmt 1 discriminator 2 view .LVU297
 889 0010 0120     		movs	r0, #1
 890 0012 84F84C00 		strb	r0, [r4, #76]
 536:Drivers/STM32H5xx_HAL_Driver/Src/stm32h5xx_hal_dma.c **** 
 891              		.loc 1 536 3 view .LVU298
 539:Drivers/STM32H5xx_HAL_Driver/Src/stm32h5xx_hal_dma.c ****   {
 892              		.loc 1 539 3 view .LVU299
 539:Drivers/STM32H5xx_HAL_Driver/Src/stm32h5xx_hal_dma.c ****   {
 893              		.loc 1 539 11 is_stmt 0 view .LVU300
 894 0016 94F85400 		ldrb	r0, [r4, #84]	@ zero_extendqisi2
 539:Drivers/STM32H5xx_HAL_Driver/Src/stm32h5xx_hal_dma.c ****   {
 895              		.loc 1 539 6 view .LVU301
 896 001a 0128     		cmp	r0, #1
 897 001c 06D0     		beq	.L56
ARM GAS  /var/folders/l3/rwskfq612tq4b7hmtv37jkjw0000gp/T//ccx7lwMy.s 			page 50


 573:Drivers/STM32H5xx_HAL_Driver/Src/stm32h5xx_hal_dma.c **** 
 898              		.loc 1 573 5 is_stmt 1 view .LVU302
 573:Drivers/STM32H5xx_HAL_Driver/Src/stm32h5xx_hal_dma.c **** 
 899              		.loc 1 573 21 is_stmt 0 view .LVU303
 900 001e 4023     		movs	r3, #64
 901              	.LVL41:
 573:Drivers/STM32H5xx_HAL_Driver/Src/stm32h5xx_hal_dma.c **** 
 902              		.loc 1 573 21 view .LVU304
 903 0020 A365     		str	r3, [r4, #88]
 576:Drivers/STM32H5xx_HAL_Driver/Src/stm32h5xx_hal_dma.c **** 
 904              		.loc 1 576 5 is_stmt 1 view .LVU305
 576:Drivers/STM32H5xx_HAL_Driver/Src/stm32h5xx_hal_dma.c **** 
 905              		.loc 1 576 5 view .LVU306
 906 0022 0023     		movs	r3, #0
 907 0024 84F84C30 		strb	r3, [r4, #76]
 576:Drivers/STM32H5xx_HAL_Driver/Src/stm32h5xx_hal_dma.c **** 
 908              		.loc 1 576 5 view .LVU307
 578:Drivers/STM32H5xx_HAL_Driver/Src/stm32h5xx_hal_dma.c ****   }
 909              		.loc 1 578 5 view .LVU308
 578:Drivers/STM32H5xx_HAL_Driver/Src/stm32h5xx_hal_dma.c ****   }
 910              		.loc 1 578 12 is_stmt 0 view .LVU309
 911 0028 0120     		movs	r0, #1
 912              	.LVL42:
 913              	.L46:
 582:Drivers/STM32H5xx_HAL_Driver/Src/stm32h5xx_hal_dma.c **** 
 914              		.loc 1 582 1 view .LVU310
 915 002a 10BD     		pop	{r4, pc}
 916              	.LVL43:
 917              	.L56:
 542:Drivers/STM32H5xx_HAL_Driver/Src/stm32h5xx_hal_dma.c **** 
 918              		.loc 1 542 5 is_stmt 1 view .LVU311
 542:Drivers/STM32H5xx_HAL_Driver/Src/stm32h5xx_hal_dma.c **** 
 919              		.loc 1 542 17 is_stmt 0 view .LVU312
 920 002c 0220     		movs	r0, #2
 921 002e 84F85400 		strb	r0, [r4, #84]
 545:Drivers/STM32H5xx_HAL_Driver/Src/stm32h5xx_hal_dma.c **** 
 922              		.loc 1 545 5 is_stmt 1 view .LVU313
 545:Drivers/STM32H5xx_HAL_Driver/Src/stm32h5xx_hal_dma.c **** 
 923              		.loc 1 545 21 is_stmt 0 view .LVU314
 924 0032 0020     		movs	r0, #0
 925 0034 A065     		str	r0, [r4, #88]
 548:Drivers/STM32H5xx_HAL_Driver/Src/stm32h5xx_hal_dma.c **** 
 926              		.loc 1 548 5 is_stmt 1 view .LVU315
 927 0036 2046     		mov	r0, r4
 928 0038 FFF7FEFF 		bl	DMA_SetConfig
 929              	.LVL44:
 551:Drivers/STM32H5xx_HAL_Driver/Src/stm32h5xx_hal_dma.c **** 
 930              		.loc 1 551 5 view .LVU316
 931 003c 2268     		ldr	r2, [r4]
 932 003e 5369     		ldr	r3, [r2, #20]
 933 0040 43F4BA43 		orr	r3, r3, #23808
 934 0044 5361     		str	r3, [r2, #20]
 554:Drivers/STM32H5xx_HAL_Driver/Src/stm32h5xx_hal_dma.c ****     {
 935              		.loc 1 554 5 view .LVU317
 554:Drivers/STM32H5xx_HAL_Driver/Src/stm32h5xx_hal_dma.c ****     {
 936              		.loc 1 554 13 is_stmt 0 view .LVU318
 937 0046 636E     		ldr	r3, [r4, #100]
ARM GAS  /var/folders/l3/rwskfq612tq4b7hmtv37jkjw0000gp/T//ccx7lwMy.s 			page 51


 554:Drivers/STM32H5xx_HAL_Driver/Src/stm32h5xx_hal_dma.c ****     {
 938              		.loc 1 554 8 view .LVU319
 939 0048 23B1     		cbz	r3, .L48
 557:Drivers/STM32H5xx_HAL_Driver/Src/stm32h5xx_hal_dma.c ****     }
 940              		.loc 1 557 7 is_stmt 1 view .LVU320
 941 004a 2268     		ldr	r2, [r4]
 942 004c 5369     		ldr	r3, [r2, #20]
 943 004e 43F40073 		orr	r3, r3, #512
 944 0052 5361     		str	r3, [r2, #20]
 945              	.L48:
 561:Drivers/STM32H5xx_HAL_Driver/Src/stm32h5xx_hal_dma.c ****     {
 946              		.loc 1 561 5 view .LVU321
 561:Drivers/STM32H5xx_HAL_Driver/Src/stm32h5xx_hal_dma.c ****     {
 947              		.loc 1 561 13 is_stmt 0 view .LVU322
 948 0054 236F     		ldr	r3, [r4, #112]
 561:Drivers/STM32H5xx_HAL_Driver/Src/stm32h5xx_hal_dma.c ****     {
 949              		.loc 1 561 8 view .LVU323
 950 0056 23B1     		cbz	r3, .L49
 564:Drivers/STM32H5xx_HAL_Driver/Src/stm32h5xx_hal_dma.c ****     }
 951              		.loc 1 564 7 is_stmt 1 view .LVU324
 952 0058 2268     		ldr	r2, [r4]
 953 005a 5369     		ldr	r3, [r2, #20]
 954 005c 43F40053 		orr	r3, r3, #8192
 955 0060 5361     		str	r3, [r2, #20]
 956              	.L49:
 568:Drivers/STM32H5xx_HAL_Driver/Src/stm32h5xx_hal_dma.c ****   }
 957              		.loc 1 568 5 view .LVU325
 958 0062 2268     		ldr	r2, [r4]
 959 0064 5369     		ldr	r3, [r2, #20]
 960 0066 43F00103 		orr	r3, r3, #1
 961 006a 5361     		str	r3, [r2, #20]
 581:Drivers/STM32H5xx_HAL_Driver/Src/stm32h5xx_hal_dma.c **** }
 962              		.loc 1 581 3 view .LVU326
 581:Drivers/STM32H5xx_HAL_Driver/Src/stm32h5xx_hal_dma.c **** }
 963              		.loc 1 581 10 is_stmt 0 view .LVU327
 964 006c 0020     		movs	r0, #0
 965 006e DCE7     		b	.L46
 966              	.LVL45:
 967              	.L50:
 968              	.LCFI11:
 969              		.cfi_def_cfa_offset 0
 970              		.cfi_restore 4
 971              		.cfi_restore 14
 529:Drivers/STM32H5xx_HAL_Driver/Src/stm32h5xx_hal_dma.c ****   }
 972              		.loc 1 529 12 view .LVU328
 973 0070 0120     		movs	r0, #1
 974              	.LVL46:
 582:Drivers/STM32H5xx_HAL_Driver/Src/stm32h5xx_hal_dma.c **** 
 975              		.loc 1 582 1 view .LVU329
 976 0072 7047     		bx	lr
 977              	.LVL47:
 978              	.L51:
 979              	.LCFI12:
 980              		.cfi_def_cfa_offset 8
 981              		.cfi_offset 4, -8
 982              		.cfi_offset 14, -4
 536:Drivers/STM32H5xx_HAL_Driver/Src/stm32h5xx_hal_dma.c **** 
ARM GAS  /var/folders/l3/rwskfq612tq4b7hmtv37jkjw0000gp/T//ccx7lwMy.s 			page 52


 983              		.loc 1 536 3 discriminator 1 view .LVU330
 984 0074 0220     		movs	r0, #2
 985 0076 D8E7     		b	.L46
 986              		.cfi_endproc
 987              	.LFE333:
 989              		.section	.text.HAL_DMA_Abort,"ax",%progbits
 990              		.align	1
 991              		.global	HAL_DMA_Abort
 992              		.syntax unified
 993              		.thumb
 994              		.thumb_func
 996              	HAL_DMA_Abort:
 997              	.LVL48:
 998              	.LFB334:
 594:Drivers/STM32H5xx_HAL_Driver/Src/stm32h5xx_hal_dma.c ****   /* Get tick number */
 999              		.loc 1 594 1 is_stmt 1 view -0
 1000              		.cfi_startproc
 1001              		@ args = 0, pretend = 0, frame = 0
 1002              		@ frame_needed = 0, uses_anonymous_args = 0
 594:Drivers/STM32H5xx_HAL_Driver/Src/stm32h5xx_hal_dma.c ****   /* Get tick number */
 1003              		.loc 1 594 1 is_stmt 0 view .LVU332
 1004 0000 38B5     		push	{r3, r4, r5, lr}
 1005              	.LCFI13:
 1006              		.cfi_def_cfa_offset 16
 1007              		.cfi_offset 3, -16
 1008              		.cfi_offset 4, -12
 1009              		.cfi_offset 5, -8
 1010              		.cfi_offset 14, -4
 1011 0002 0446     		mov	r4, r0
 596:Drivers/STM32H5xx_HAL_Driver/Src/stm32h5xx_hal_dma.c **** 
 1012              		.loc 1 596 3 is_stmt 1 view .LVU333
 596:Drivers/STM32H5xx_HAL_Driver/Src/stm32h5xx_hal_dma.c **** 
 1013              		.loc 1 596 25 is_stmt 0 view .LVU334
 1014 0004 FFF7FEFF 		bl	HAL_GetTick
 1015              	.LVL49:
 599:Drivers/STM32H5xx_HAL_Driver/Src/stm32h5xx_hal_dma.c ****   {
 1016              		.loc 1 599 3 is_stmt 1 view .LVU335
 599:Drivers/STM32H5xx_HAL_Driver/Src/stm32h5xx_hal_dma.c ****   {
 1017              		.loc 1 599 6 is_stmt 0 view .LVU336
 1018 0008 002C     		cmp	r4, #0
 1019 000a 4CD0     		beq	.L64
 1020 000c 0546     		mov	r5, r0
 605:Drivers/STM32H5xx_HAL_Driver/Src/stm32h5xx_hal_dma.c ****   {
 1021              		.loc 1 605 3 is_stmt 1 view .LVU337
 605:Drivers/STM32H5xx_HAL_Driver/Src/stm32h5xx_hal_dma.c ****   {
 1022              		.loc 1 605 11 is_stmt 0 view .LVU338
 1023 000e 94F85430 		ldrb	r3, [r4, #84]	@ zero_extendqisi2
 605:Drivers/STM32H5xx_HAL_Driver/Src/stm32h5xx_hal_dma.c ****   {
 1024              		.loc 1 605 6 view .LVU339
 1025 0012 022B     		cmp	r3, #2
 1026 0014 06D0     		beq	.L59
 608:Drivers/STM32H5xx_HAL_Driver/Src/stm32h5xx_hal_dma.c **** 
 1027              		.loc 1 608 5 is_stmt 1 view .LVU340
 608:Drivers/STM32H5xx_HAL_Driver/Src/stm32h5xx_hal_dma.c **** 
 1028              		.loc 1 608 21 is_stmt 0 view .LVU341
 1029 0016 2023     		movs	r3, #32
 1030 0018 A365     		str	r3, [r4, #88]
ARM GAS  /var/folders/l3/rwskfq612tq4b7hmtv37jkjw0000gp/T//ccx7lwMy.s 			page 53


 611:Drivers/STM32H5xx_HAL_Driver/Src/stm32h5xx_hal_dma.c **** 
 1031              		.loc 1 611 5 is_stmt 1 view .LVU342
 611:Drivers/STM32H5xx_HAL_Driver/Src/stm32h5xx_hal_dma.c **** 
 1032              		.loc 1 611 5 view .LVU343
 1033 001a 0023     		movs	r3, #0
 1034 001c 84F84C30 		strb	r3, [r4, #76]
 611:Drivers/STM32H5xx_HAL_Driver/Src/stm32h5xx_hal_dma.c **** 
 1035              		.loc 1 611 5 view .LVU344
 613:Drivers/STM32H5xx_HAL_Driver/Src/stm32h5xx_hal_dma.c ****   }
 1036              		.loc 1 613 5 view .LVU345
 613:Drivers/STM32H5xx_HAL_Driver/Src/stm32h5xx_hal_dma.c ****   }
 1037              		.loc 1 613 12 is_stmt 0 view .LVU346
 1038 0020 0120     		movs	r0, #1
 1039              	.LVL50:
 1040              	.L58:
 677:Drivers/STM32H5xx_HAL_Driver/Src/stm32h5xx_hal_dma.c **** 
 1041              		.loc 1 677 1 view .LVU347
 1042 0022 38BD     		pop	{r3, r4, r5, pc}
 1043              	.LVL51:
 1044              	.L59:
 618:Drivers/STM32H5xx_HAL_Driver/Src/stm32h5xx_hal_dma.c **** 
 1045              		.loc 1 618 5 is_stmt 1 view .LVU348
 618:Drivers/STM32H5xx_HAL_Driver/Src/stm32h5xx_hal_dma.c **** 
 1046              		.loc 1 618 9 is_stmt 0 view .LVU349
 1047 0024 2268     		ldr	r2, [r4]
 618:Drivers/STM32H5xx_HAL_Driver/Src/stm32h5xx_hal_dma.c **** 
 1048              		.loc 1 618 19 view .LVU350
 1049 0026 5369     		ldr	r3, [r2, #20]
 618:Drivers/STM32H5xx_HAL_Driver/Src/stm32h5xx_hal_dma.c **** 
 1050              		.loc 1 618 25 view .LVU351
 1051 0028 43F00403 		orr	r3, r3, #4
 1052 002c 5361     		str	r3, [r2, #20]
 621:Drivers/STM32H5xx_HAL_Driver/Src/stm32h5xx_hal_dma.c **** 
 1053              		.loc 1 621 5 is_stmt 1 view .LVU352
 621:Drivers/STM32H5xx_HAL_Driver/Src/stm32h5xx_hal_dma.c **** 
 1054              		.loc 1 621 17 is_stmt 0 view .LVU353
 1055 002e 0523     		movs	r3, #5
 1056 0030 84F85430 		strb	r3, [r4, #84]
 624:Drivers/STM32H5xx_HAL_Driver/Src/stm32h5xx_hal_dma.c ****     {
 1057              		.loc 1 624 5 is_stmt 1 view .LVU354
 1058              	.LVL52:
 1059              	.L60:
 624:Drivers/STM32H5xx_HAL_Driver/Src/stm32h5xx_hal_dma.c ****     {
 1060              		.loc 1 624 50 view .LVU355
 624:Drivers/STM32H5xx_HAL_Driver/Src/stm32h5xx_hal_dma.c ****     {
 1061              		.loc 1 624 17 is_stmt 0 view .LVU356
 1062 0034 2368     		ldr	r3, [r4]
 624:Drivers/STM32H5xx_HAL_Driver/Src/stm32h5xx_hal_dma.c ****     {
 1063              		.loc 1 624 27 view .LVU357
 1064 0036 1A69     		ldr	r2, [r3, #16]
 624:Drivers/STM32H5xx_HAL_Driver/Src/stm32h5xx_hal_dma.c ****     {
 1065              		.loc 1 624 50 view .LVU358
 1066 0038 12F4005F 		tst	r2, #8192
 1067 003c 17D1     		bne	.L66
 627:Drivers/STM32H5xx_HAL_Driver/Src/stm32h5xx_hal_dma.c ****       {
 1068              		.loc 1 627 7 is_stmt 1 view .LVU359
 627:Drivers/STM32H5xx_HAL_Driver/Src/stm32h5xx_hal_dma.c ****       {
ARM GAS  /var/folders/l3/rwskfq612tq4b7hmtv37jkjw0000gp/T//ccx7lwMy.s 			page 54


 1069              		.loc 1 627 12 is_stmt 0 view .LVU360
 1070 003e FFF7FEFF 		bl	HAL_GetTick
 1071              	.LVL53:
 627:Drivers/STM32H5xx_HAL_Driver/Src/stm32h5xx_hal_dma.c ****       {
 1072              		.loc 1 627 26 discriminator 1 view .LVU361
 1073 0042 431B     		subs	r3, r0, r5
 627:Drivers/STM32H5xx_HAL_Driver/Src/stm32h5xx_hal_dma.c ****       {
 1074              		.loc 1 627 10 discriminator 1 view .LVU362
 1075 0044 052B     		cmp	r3, #5
 1076 0046 F5D9     		bls	.L60
 630:Drivers/STM32H5xx_HAL_Driver/Src/stm32h5xx_hal_dma.c **** 
 1077              		.loc 1 630 9 is_stmt 1 view .LVU363
 630:Drivers/STM32H5xx_HAL_Driver/Src/stm32h5xx_hal_dma.c **** 
 1078              		.loc 1 630 13 is_stmt 0 view .LVU364
 1079 0048 A36D     		ldr	r3, [r4, #88]
 630:Drivers/STM32H5xx_HAL_Driver/Src/stm32h5xx_hal_dma.c **** 
 1080              		.loc 1 630 25 view .LVU365
 1081 004a 43F01003 		orr	r3, r3, #16
 1082 004e A365     		str	r3, [r4, #88]
 633:Drivers/STM32H5xx_HAL_Driver/Src/stm32h5xx_hal_dma.c **** 
 1083              		.loc 1 633 9 is_stmt 1 view .LVU366
 633:Drivers/STM32H5xx_HAL_Driver/Src/stm32h5xx_hal_dma.c **** 
 1084              		.loc 1 633 21 is_stmt 0 view .LVU367
 1085 0050 0323     		movs	r3, #3
 1086 0052 84F85430 		strb	r3, [r4, #84]
 636:Drivers/STM32H5xx_HAL_Driver/Src/stm32h5xx_hal_dma.c ****         {
 1087              		.loc 1 636 9 is_stmt 1 view .LVU368
 636:Drivers/STM32H5xx_HAL_Driver/Src/stm32h5xx_hal_dma.c ****         {
 1088              		.loc 1 636 18 is_stmt 0 view .LVU369
 1089 0056 236D     		ldr	r3, [r4, #80]
 636:Drivers/STM32H5xx_HAL_Driver/Src/stm32h5xx_hal_dma.c ****         {
 1090              		.loc 1 636 12 view .LVU370
 1091 0058 13F0800F 		tst	r3, #128
 1092 005c 02D0     		beq	.L61
 639:Drivers/STM32H5xx_HAL_Driver/Src/stm32h5xx_hal_dma.c ****         }
 1093              		.loc 1 639 11 is_stmt 1 view .LVU371
 639:Drivers/STM32H5xx_HAL_Driver/Src/stm32h5xx_hal_dma.c ****         }
 1094              		.loc 1 639 15 is_stmt 0 view .LVU372
 1095 005e 636F     		ldr	r3, [r4, #116]
 639:Drivers/STM32H5xx_HAL_Driver/Src/stm32h5xx_hal_dma.c ****         }
 1096              		.loc 1 639 40 view .LVU373
 1097 0060 0122     		movs	r2, #1
 1098 0062 1A73     		strb	r2, [r3, #12]
 1099              	.L61:
 643:Drivers/STM32H5xx_HAL_Driver/Src/stm32h5xx_hal_dma.c **** 
 1100              		.loc 1 643 9 is_stmt 1 view .LVU374
 643:Drivers/STM32H5xx_HAL_Driver/Src/stm32h5xx_hal_dma.c **** 
 1101              		.loc 1 643 9 view .LVU375
 1102 0064 0023     		movs	r3, #0
 1103 0066 84F84C30 		strb	r3, [r4, #76]
 643:Drivers/STM32H5xx_HAL_Driver/Src/stm32h5xx_hal_dma.c **** 
 1104              		.loc 1 643 9 view .LVU376
 645:Drivers/STM32H5xx_HAL_Driver/Src/stm32h5xx_hal_dma.c ****       }
 1105              		.loc 1 645 9 view .LVU377
 645:Drivers/STM32H5xx_HAL_Driver/Src/stm32h5xx_hal_dma.c ****       }
 1106              		.loc 1 645 16 is_stmt 0 view .LVU378
 1107 006a 0120     		movs	r0, #1
ARM GAS  /var/folders/l3/rwskfq612tq4b7hmtv37jkjw0000gp/T//ccx7lwMy.s 			page 55


 1108 006c D9E7     		b	.L58
 1109              	.L66:
 650:Drivers/STM32H5xx_HAL_Driver/Src/stm32h5xx_hal_dma.c **** 
 1110              		.loc 1 650 5 is_stmt 1 view .LVU379
 650:Drivers/STM32H5xx_HAL_Driver/Src/stm32h5xx_hal_dma.c **** 
 1111              		.loc 1 650 19 is_stmt 0 view .LVU380
 1112 006e 5A69     		ldr	r2, [r3, #20]
 650:Drivers/STM32H5xx_HAL_Driver/Src/stm32h5xx_hal_dma.c **** 
 1113              		.loc 1 650 25 view .LVU381
 1114 0070 42F00202 		orr	r2, r2, #2
 1115 0074 5A61     		str	r2, [r3, #20]
 653:Drivers/STM32H5xx_HAL_Driver/Src/stm32h5xx_hal_dma.c **** 
 1116              		.loc 1 653 5 is_stmt 1 view .LVU382
 653:Drivers/STM32H5xx_HAL_Driver/Src/stm32h5xx_hal_dma.c **** 
 1117              		.loc 1 653 17 is_stmt 0 view .LVU383
 1118 0076 0423     		movs	r3, #4
 1119 0078 84F85430 		strb	r3, [r4, #84]
 656:Drivers/STM32H5xx_HAL_Driver/Src/stm32h5xx_hal_dma.c ****                                 DMA_FLAG_TO));
 1120              		.loc 1 656 5 is_stmt 1 view .LVU384
 1121 007c 2368     		ldr	r3, [r4]
 1122 007e 4FF4FE42 		mov	r2, #32512
 1123 0082 DA60     		str	r2, [r3, #12]
 660:Drivers/STM32H5xx_HAL_Driver/Src/stm32h5xx_hal_dma.c **** 
 1124              		.loc 1 660 5 view .LVU385
 660:Drivers/STM32H5xx_HAL_Driver/Src/stm32h5xx_hal_dma.c **** 
 1125              		.loc 1 660 17 is_stmt 0 view .LVU386
 1126 0084 0123     		movs	r3, #1
 1127 0086 84F85430 		strb	r3, [r4, #84]
 663:Drivers/STM32H5xx_HAL_Driver/Src/stm32h5xx_hal_dma.c ****     {
 1128              		.loc 1 663 5 is_stmt 1 view .LVU387
 663:Drivers/STM32H5xx_HAL_Driver/Src/stm32h5xx_hal_dma.c ****     {
 1129              		.loc 1 663 14 is_stmt 0 view .LVU388
 1130 008a 236D     		ldr	r3, [r4, #80]
 663:Drivers/STM32H5xx_HAL_Driver/Src/stm32h5xx_hal_dma.c ****     {
 1131              		.loc 1 663 8 view .LVU389
 1132 008c 13F0800F 		tst	r3, #128
 1133 0090 05D0     		beq	.L63
 666:Drivers/STM32H5xx_HAL_Driver/Src/stm32h5xx_hal_dma.c **** 
 1134              		.loc 1 666 7 is_stmt 1 view .LVU390
 666:Drivers/STM32H5xx_HAL_Driver/Src/stm32h5xx_hal_dma.c **** 
 1135              		.loc 1 666 11 is_stmt 0 view .LVU391
 1136 0092 636F     		ldr	r3, [r4, #116]
 666:Drivers/STM32H5xx_HAL_Driver/Src/stm32h5xx_hal_dma.c **** 
 1137              		.loc 1 666 36 view .LVU392
 1138 0094 0122     		movs	r2, #1
 1139 0096 1A73     		strb	r2, [r3, #12]
 669:Drivers/STM32H5xx_HAL_Driver/Src/stm32h5xx_hal_dma.c ****     }
 1140              		.loc 1 669 7 is_stmt 1 view .LVU393
 669:Drivers/STM32H5xx_HAL_Driver/Src/stm32h5xx_hal_dma.c ****     }
 1141              		.loc 1 669 11 is_stmt 0 view .LVU394
 1142 0098 2368     		ldr	r3, [r4]
 669:Drivers/STM32H5xx_HAL_Driver/Src/stm32h5xx_hal_dma.c ****     }
 1143              		.loc 1 669 28 view .LVU395
 1144 009a 0022     		movs	r2, #0
 1145 009c 9A64     		str	r2, [r3, #72]
 1146              	.L63:
 673:Drivers/STM32H5xx_HAL_Driver/Src/stm32h5xx_hal_dma.c ****   }
ARM GAS  /var/folders/l3/rwskfq612tq4b7hmtv37jkjw0000gp/T//ccx7lwMy.s 			page 56


 1147              		.loc 1 673 5 is_stmt 1 view .LVU396
 673:Drivers/STM32H5xx_HAL_Driver/Src/stm32h5xx_hal_dma.c ****   }
 1148              		.loc 1 673 5 view .LVU397
 1149 009e 0020     		movs	r0, #0
 1150 00a0 84F84C00 		strb	r0, [r4, #76]
 673:Drivers/STM32H5xx_HAL_Driver/Src/stm32h5xx_hal_dma.c ****   }
 1151              		.loc 1 673 5 view .LVU398
 676:Drivers/STM32H5xx_HAL_Driver/Src/stm32h5xx_hal_dma.c **** }
 1152              		.loc 1 676 3 view .LVU399
 676:Drivers/STM32H5xx_HAL_Driver/Src/stm32h5xx_hal_dma.c **** }
 1153              		.loc 1 676 10 is_stmt 0 view .LVU400
 1154 00a4 BDE7     		b	.L58
 1155              	.LVL54:
 1156              	.L64:
 601:Drivers/STM32H5xx_HAL_Driver/Src/stm32h5xx_hal_dma.c ****   }
 1157              		.loc 1 601 12 view .LVU401
 1158 00a6 0120     		movs	r0, #1
 1159              	.LVL55:
 601:Drivers/STM32H5xx_HAL_Driver/Src/stm32h5xx_hal_dma.c ****   }
 1160              		.loc 1 601 12 view .LVU402
 1161 00a8 BBE7     		b	.L58
 1162              		.cfi_endproc
 1163              	.LFE334:
 1165              		.section	.text.HAL_DMA_Abort_IT,"ax",%progbits
 1166              		.align	1
 1167              		.global	HAL_DMA_Abort_IT
 1168              		.syntax unified
 1169              		.thumb
 1170              		.thumb_func
 1172              	HAL_DMA_Abort_IT:
 1173              	.LVL56:
 1174              	.LFB335:
 686:Drivers/STM32H5xx_HAL_Driver/Src/stm32h5xx_hal_dma.c ****   /* Check the DMA peripheral handle parameter */
 1175              		.loc 1 686 1 is_stmt 1 view -0
 1176              		.cfi_startproc
 1177              		@ args = 0, pretend = 0, frame = 0
 1178              		@ frame_needed = 0, uses_anonymous_args = 0
 1179              		@ link register save eliminated.
 688:Drivers/STM32H5xx_HAL_Driver/Src/stm32h5xx_hal_dma.c ****   {
 1180              		.loc 1 688 3 view .LVU404
 688:Drivers/STM32H5xx_HAL_Driver/Src/stm32h5xx_hal_dma.c ****   {
 1181              		.loc 1 688 6 is_stmt 0 view .LVU405
 1182 0000 98B1     		cbz	r0, .L70
 694:Drivers/STM32H5xx_HAL_Driver/Src/stm32h5xx_hal_dma.c ****   {
 1183              		.loc 1 694 3 is_stmt 1 view .LVU406
 694:Drivers/STM32H5xx_HAL_Driver/Src/stm32h5xx_hal_dma.c ****   {
 1184              		.loc 1 694 11 is_stmt 0 view .LVU407
 1185 0002 90F85420 		ldrb	r2, [r0, #84]	@ zero_extendqisi2
 694:Drivers/STM32H5xx_HAL_Driver/Src/stm32h5xx_hal_dma.c ****   {
 1186              		.loc 1 694 6 view .LVU408
 1187 0006 022A     		cmp	r2, #2
 1188 0008 03D0     		beq	.L69
 697:Drivers/STM32H5xx_HAL_Driver/Src/stm32h5xx_hal_dma.c **** 
 1189              		.loc 1 697 5 is_stmt 1 view .LVU409
 697:Drivers/STM32H5xx_HAL_Driver/Src/stm32h5xx_hal_dma.c **** 
 1190              		.loc 1 697 21 is_stmt 0 view .LVU410
 1191 000a 2022     		movs	r2, #32
ARM GAS  /var/folders/l3/rwskfq612tq4b7hmtv37jkjw0000gp/T//ccx7lwMy.s 			page 57


 1192 000c 8265     		str	r2, [r0, #88]
 699:Drivers/STM32H5xx_HAL_Driver/Src/stm32h5xx_hal_dma.c ****   }
 1193              		.loc 1 699 5 is_stmt 1 view .LVU411
 699:Drivers/STM32H5xx_HAL_Driver/Src/stm32h5xx_hal_dma.c ****   }
 1194              		.loc 1 699 12 is_stmt 0 view .LVU412
 1195 000e 0120     		movs	r0, #1
 1196              	.LVL57:
 699:Drivers/STM32H5xx_HAL_Driver/Src/stm32h5xx_hal_dma.c ****   }
 1197              		.loc 1 699 12 view .LVU413
 1198 0010 7047     		bx	lr
 1199              	.LVL58:
 1200              	.L69:
 704:Drivers/STM32H5xx_HAL_Driver/Src/stm32h5xx_hal_dma.c **** 
 1201              		.loc 1 704 5 is_stmt 1 view .LVU414
 704:Drivers/STM32H5xx_HAL_Driver/Src/stm32h5xx_hal_dma.c **** 
 1202              		.loc 1 704 17 is_stmt 0 view .LVU415
 1203 0012 0422     		movs	r2, #4
 1204 0014 80F85420 		strb	r2, [r0, #84]
 707:Drivers/STM32H5xx_HAL_Driver/Src/stm32h5xx_hal_dma.c ****   }
 1205              		.loc 1 707 5 is_stmt 1 view .LVU416
 707:Drivers/STM32H5xx_HAL_Driver/Src/stm32h5xx_hal_dma.c ****   }
 1206              		.loc 1 707 9 is_stmt 0 view .LVU417
 1207 0018 0268     		ldr	r2, [r0]
 707:Drivers/STM32H5xx_HAL_Driver/Src/stm32h5xx_hal_dma.c ****   }
 1208              		.loc 1 707 19 view .LVU418
 1209 001a 5369     		ldr	r3, [r2, #20]
 707:Drivers/STM32H5xx_HAL_Driver/Src/stm32h5xx_hal_dma.c ****   }
 1210              		.loc 1 707 25 view .LVU419
 1211 001c 43F40053 		orr	r3, r3, #8192
 1212 0020 43F00403 		orr	r3, r3, #4
 1213 0024 5361     		str	r3, [r2, #20]
 710:Drivers/STM32H5xx_HAL_Driver/Src/stm32h5xx_hal_dma.c **** }
 1214              		.loc 1 710 3 is_stmt 1 view .LVU420
 710:Drivers/STM32H5xx_HAL_Driver/Src/stm32h5xx_hal_dma.c **** }
 1215              		.loc 1 710 10 is_stmt 0 view .LVU421
 1216 0026 0020     		movs	r0, #0
 1217              	.LVL59:
 710:Drivers/STM32H5xx_HAL_Driver/Src/stm32h5xx_hal_dma.c **** }
 1218              		.loc 1 710 10 view .LVU422
 1219 0028 7047     		bx	lr
 1220              	.LVL60:
 1221              	.L70:
 690:Drivers/STM32H5xx_HAL_Driver/Src/stm32h5xx_hal_dma.c ****   }
 1222              		.loc 1 690 12 view .LVU423
 1223 002a 0120     		movs	r0, #1
 1224              	.LVL61:
 711:Drivers/STM32H5xx_HAL_Driver/Src/stm32h5xx_hal_dma.c **** 
 1225              		.loc 1 711 1 view .LVU424
 1226 002c 7047     		bx	lr
 1227              		.cfi_endproc
 1228              	.LFE335:
 1230              		.section	.text.HAL_DMA_PollForTransfer,"ax",%progbits
 1231              		.align	1
 1232              		.global	HAL_DMA_PollForTransfer
 1233              		.syntax unified
 1234              		.thumb
 1235              		.thumb_func
ARM GAS  /var/folders/l3/rwskfq612tq4b7hmtv37jkjw0000gp/T//ccx7lwMy.s 			page 58


 1237              	HAL_DMA_PollForTransfer:
 1238              	.LVL62:
 1239              	.LFB336:
 724:Drivers/STM32H5xx_HAL_Driver/Src/stm32h5xx_hal_dma.c ****   /* Get tick number */
 1240              		.loc 1 724 1 is_stmt 1 view -0
 1241              		.cfi_startproc
 1242              		@ args = 0, pretend = 0, frame = 0
 1243              		@ frame_needed = 0, uses_anonymous_args = 0
 724:Drivers/STM32H5xx_HAL_Driver/Src/stm32h5xx_hal_dma.c ****   /* Get tick number */
 1244              		.loc 1 724 1 is_stmt 0 view .LVU426
 1245 0000 2DE9F041 		push	{r4, r5, r6, r7, r8, lr}
 1246              	.LCFI14:
 1247              		.cfi_def_cfa_offset 24
 1248              		.cfi_offset 4, -24
 1249              		.cfi_offset 5, -20
 1250              		.cfi_offset 6, -16
 1251              		.cfi_offset 7, -12
 1252              		.cfi_offset 8, -8
 1253              		.cfi_offset 14, -4
 1254 0004 0446     		mov	r4, r0
 1255 0006 0E46     		mov	r6, r1
 1256 0008 1546     		mov	r5, r2
 726:Drivers/STM32H5xx_HAL_Driver/Src/stm32h5xx_hal_dma.c ****   uint32_t level_flag;
 1257              		.loc 1 726 3 is_stmt 1 view .LVU427
 726:Drivers/STM32H5xx_HAL_Driver/Src/stm32h5xx_hal_dma.c ****   uint32_t level_flag;
 1258              		.loc 1 726 24 is_stmt 0 view .LVU428
 1259 000a FFF7FEFF 		bl	HAL_GetTick
 1260              	.LVL63:
 727:Drivers/STM32H5xx_HAL_Driver/Src/stm32h5xx_hal_dma.c ****   uint32_t tmp_csr;
 1261              		.loc 1 727 3 is_stmt 1 view .LVU429
 728:Drivers/STM32H5xx_HAL_Driver/Src/stm32h5xx_hal_dma.c **** 
 1262              		.loc 1 728 3 view .LVU430
 731:Drivers/STM32H5xx_HAL_Driver/Src/stm32h5xx_hal_dma.c ****   {
 1263              		.loc 1 731 3 view .LVU431
 731:Drivers/STM32H5xx_HAL_Driver/Src/stm32h5xx_hal_dma.c ****   {
 1264              		.loc 1 731 6 is_stmt 0 view .LVU432
 1265 000e 002C     		cmp	r4, #0
 1266 0010 00F09880 		beq	.L88
 1267 0014 0746     		mov	r7, r0
 737:Drivers/STM32H5xx_HAL_Driver/Src/stm32h5xx_hal_dma.c **** 
 1268              		.loc 1 737 3 is_stmt 1 view .LVU433
 740:Drivers/STM32H5xx_HAL_Driver/Src/stm32h5xx_hal_dma.c ****   {
 1269              		.loc 1 740 3 view .LVU434
 740:Drivers/STM32H5xx_HAL_Driver/Src/stm32h5xx_hal_dma.c ****   {
 1270              		.loc 1 740 11 is_stmt 0 view .LVU435
 1271 0016 94F85430 		ldrb	r3, [r4, #84]	@ zero_extendqisi2
 740:Drivers/STM32H5xx_HAL_Driver/Src/stm32h5xx_hal_dma.c ****   {
 1272              		.loc 1 740 6 view .LVU436
 1273 001a 022B     		cmp	r3, #2
 1274 001c 07D0     		beq	.L73
 743:Drivers/STM32H5xx_HAL_Driver/Src/stm32h5xx_hal_dma.c **** 
 1275              		.loc 1 743 5 is_stmt 1 view .LVU437
 743:Drivers/STM32H5xx_HAL_Driver/Src/stm32h5xx_hal_dma.c **** 
 1276              		.loc 1 743 21 is_stmt 0 view .LVU438
 1277 001e 2023     		movs	r3, #32
 1278 0020 A365     		str	r3, [r4, #88]
 746:Drivers/STM32H5xx_HAL_Driver/Src/stm32h5xx_hal_dma.c **** 
ARM GAS  /var/folders/l3/rwskfq612tq4b7hmtv37jkjw0000gp/T//ccx7lwMy.s 			page 59


 1279              		.loc 1 746 5 is_stmt 1 view .LVU439
 746:Drivers/STM32H5xx_HAL_Driver/Src/stm32h5xx_hal_dma.c **** 
 1280              		.loc 1 746 5 view .LVU440
 1281 0022 0023     		movs	r3, #0
 1282 0024 84F84C30 		strb	r3, [r4, #76]
 746:Drivers/STM32H5xx_HAL_Driver/Src/stm32h5xx_hal_dma.c **** 
 1283              		.loc 1 746 5 view .LVU441
 748:Drivers/STM32H5xx_HAL_Driver/Src/stm32h5xx_hal_dma.c ****   }
 1284              		.loc 1 748 5 view .LVU442
 748:Drivers/STM32H5xx_HAL_Driver/Src/stm32h5xx_hal_dma.c ****   }
 1285              		.loc 1 748 12 is_stmt 0 view .LVU443
 1286 0028 0120     		movs	r0, #1
 1287              	.LVL64:
 1288              	.L72:
 885:Drivers/STM32H5xx_HAL_Driver/Src/stm32h5xx_hal_dma.c **** 
 1289              		.loc 1 885 1 view .LVU444
 1290 002a BDE8F081 		pop	{r4, r5, r6, r7, r8, pc}
 1291              	.LVL65:
 1292              	.L73:
 752:Drivers/STM32H5xx_HAL_Driver/Src/stm32h5xx_hal_dma.c ****   {
 1293              		.loc 1 752 3 is_stmt 1 view .LVU445
 752:Drivers/STM32H5xx_HAL_Driver/Src/stm32h5xx_hal_dma.c ****   {
 1294              		.loc 1 752 12 is_stmt 0 view .LVU446
 1295 002e 236D     		ldr	r3, [r4, #80]
 752:Drivers/STM32H5xx_HAL_Driver/Src/stm32h5xx_hal_dma.c ****   {
 1296              		.loc 1 752 19 view .LVU447
 1297 0030 03F08103 		and	r3, r3, #129
 752:Drivers/STM32H5xx_HAL_Driver/Src/stm32h5xx_hal_dma.c ****   {
 1298              		.loc 1 752 6 view .LVU448
 1299 0034 812B     		cmp	r3, #129
 1300 0036 05D0     		beq	.L92
 761:Drivers/STM32H5xx_HAL_Driver/Src/stm32h5xx_hal_dma.c **** 
 1301              		.loc 1 761 3 is_stmt 1 view .LVU449
 761:Drivers/STM32H5xx_HAL_Driver/Src/stm32h5xx_hal_dma.c **** 
 1302              		.loc 1 761 74 is_stmt 0 view .LVU450
 1303 0038 4EB9     		cbnz	r6, .L89
 761:Drivers/STM32H5xx_HAL_Driver/Src/stm32h5xx_hal_dma.c **** 
 1304              		.loc 1 761 74 discriminator 1 view .LVU451
 1305 003a 4FF00108 		mov	r8, #1
 1306              	.L75:
 1307              	.LVL66:
 764:Drivers/STM32H5xx_HAL_Driver/Src/stm32h5xx_hal_dma.c **** 
 1308              		.loc 1 764 3 is_stmt 1 view .LVU452
 764:Drivers/STM32H5xx_HAL_Driver/Src/stm32h5xx_hal_dma.c **** 
 1309              		.loc 1 764 17 is_stmt 0 view .LVU453
 1310 003e 2368     		ldr	r3, [r4]
 764:Drivers/STM32H5xx_HAL_Driver/Src/stm32h5xx_hal_dma.c **** 
 1311              		.loc 1 764 11 view .LVU454
 1312 0040 1B69     		ldr	r3, [r3, #16]
 1313              	.LVL67:
 766:Drivers/STM32H5xx_HAL_Driver/Src/stm32h5xx_hal_dma.c ****   {
 1314              		.loc 1 766 3 is_stmt 1 view .LVU455
 766:Drivers/STM32H5xx_HAL_Driver/Src/stm32h5xx_hal_dma.c ****   {
 1315              		.loc 1 766 9 is_stmt 0 view .LVU456
 1316 0042 09E0     		b	.L76
 1317              	.LVL68:
 1318              	.L92:
ARM GAS  /var/folders/l3/rwskfq612tq4b7hmtv37jkjw0000gp/T//ccx7lwMy.s 			page 60


 755:Drivers/STM32H5xx_HAL_Driver/Src/stm32h5xx_hal_dma.c **** 
 1319              		.loc 1 755 5 is_stmt 1 view .LVU457
 755:Drivers/STM32H5xx_HAL_Driver/Src/stm32h5xx_hal_dma.c **** 
 1320              		.loc 1 755 21 is_stmt 0 view .LVU458
 1321 0044 4FF48073 		mov	r3, #256
 1322 0048 A365     		str	r3, [r4, #88]
 757:Drivers/STM32H5xx_HAL_Driver/Src/stm32h5xx_hal_dma.c ****   }
 1323              		.loc 1 757 5 is_stmt 1 view .LVU459
 757:Drivers/STM32H5xx_HAL_Driver/Src/stm32h5xx_hal_dma.c ****   }
 1324              		.loc 1 757 12 is_stmt 0 view .LVU460
 1325 004a 0120     		movs	r0, #1
 1326              	.LVL69:
 757:Drivers/STM32H5xx_HAL_Driver/Src/stm32h5xx_hal_dma.c ****   }
 1327              		.loc 1 757 12 view .LVU461
 1328 004c EDE7     		b	.L72
 1329              	.LVL70:
 1330              	.L89:
 761:Drivers/STM32H5xx_HAL_Driver/Src/stm32h5xx_hal_dma.c **** 
 1331              		.loc 1 761 74 discriminator 2 view .LVU462
 1332 004e 4FF40078 		mov	r8, #512
 1333 0052 F4E7     		b	.L75
 1334              	.LVL71:
 1335              	.L77:
 790:Drivers/STM32H5xx_HAL_Driver/Src/stm32h5xx_hal_dma.c ****   }
 1336              		.loc 1 790 5 is_stmt 1 view .LVU463
 790:Drivers/STM32H5xx_HAL_Driver/Src/stm32h5xx_hal_dma.c ****   }
 1337              		.loc 1 790 19 is_stmt 0 view .LVU464
 1338 0054 2368     		ldr	r3, [r4]
 790:Drivers/STM32H5xx_HAL_Driver/Src/stm32h5xx_hal_dma.c ****   }
 1339              		.loc 1 790 13 view .LVU465
 1340 0056 1B69     		ldr	r3, [r3, #16]
 1341              	.LVL72:
 1342              	.L76:
 766:Drivers/STM32H5xx_HAL_Driver/Src/stm32h5xx_hal_dma.c ****   {
 1343              		.loc 1 766 33 is_stmt 1 view .LVU466
 1344 0058 13EA080F 		tst	r3, r8
 1345 005c 12D1     		bne	.L93
 769:Drivers/STM32H5xx_HAL_Driver/Src/stm32h5xx_hal_dma.c ****     {
 1346              		.loc 1 769 5 view .LVU467
 769:Drivers/STM32H5xx_HAL_Driver/Src/stm32h5xx_hal_dma.c ****     {
 1347              		.loc 1 769 8 is_stmt 0 view .LVU468
 1348 005e B5F1FF3F 		cmp	r5, #-1
 1349 0062 F7D0     		beq	.L77
 771:Drivers/STM32H5xx_HAL_Driver/Src/stm32h5xx_hal_dma.c ****       {
 1350              		.loc 1 771 7 is_stmt 1 view .LVU469
 771:Drivers/STM32H5xx_HAL_Driver/Src/stm32h5xx_hal_dma.c ****       {
 1351              		.loc 1 771 13 is_stmt 0 view .LVU470
 1352 0064 FFF7FEFF 		bl	HAL_GetTick
 1353              	.LVL73:
 771:Drivers/STM32H5xx_HAL_Driver/Src/stm32h5xx_hal_dma.c ****       {
 1354              		.loc 1 771 27 discriminator 1 view .LVU471
 1355 0068 C31B     		subs	r3, r0, r7
 771:Drivers/STM32H5xx_HAL_Driver/Src/stm32h5xx_hal_dma.c ****       {
 1356              		.loc 1 771 10 discriminator 1 view .LVU472
 1357 006a AB42     		cmp	r3, r5
 1358 006c 01D8     		bhi	.L78
 771:Drivers/STM32H5xx_HAL_Driver/Src/stm32h5xx_hal_dma.c ****       {
ARM GAS  /var/folders/l3/rwskfq612tq4b7hmtv37jkjw0000gp/T//ccx7lwMy.s 			page 61


 1359              		.loc 1 771 51 discriminator 1 view .LVU473
 1360 006e 002D     		cmp	r5, #0
 1361 0070 F0D1     		bne	.L77
 1362              	.L78:
 774:Drivers/STM32H5xx_HAL_Driver/Src/stm32h5xx_hal_dma.c **** 
 1363              		.loc 1 774 9 is_stmt 1 view .LVU474
 774:Drivers/STM32H5xx_HAL_Driver/Src/stm32h5xx_hal_dma.c **** 
 1364              		.loc 1 774 13 is_stmt 0 view .LVU475
 1365 0072 A36D     		ldr	r3, [r4, #88]
 774:Drivers/STM32H5xx_HAL_Driver/Src/stm32h5xx_hal_dma.c **** 
 1366              		.loc 1 774 25 view .LVU476
 1367 0074 43F01003 		orr	r3, r3, #16
 1368 0078 A365     		str	r3, [r4, #88]
 783:Drivers/STM32H5xx_HAL_Driver/Src/stm32h5xx_hal_dma.c **** 
 1369              		.loc 1 783 9 is_stmt 1 view .LVU477
 783:Drivers/STM32H5xx_HAL_Driver/Src/stm32h5xx_hal_dma.c **** 
 1370              		.loc 1 783 15 is_stmt 0 view .LVU478
 1371 007a 2046     		mov	r0, r4
 1372 007c FFF7FEFF 		bl	HAL_DMA_Abort
 1373              	.LVL74:
 785:Drivers/STM32H5xx_HAL_Driver/Src/stm32h5xx_hal_dma.c ****       }
 1374              		.loc 1 785 9 is_stmt 1 view .LVU479
 785:Drivers/STM32H5xx_HAL_Driver/Src/stm32h5xx_hal_dma.c ****       }
 1375              		.loc 1 785 16 is_stmt 0 view .LVU480
 1376 0080 0120     		movs	r0, #1
 1377 0082 D2E7     		b	.L72
 1378              	.LVL75:
 1379              	.L93:
 794:Drivers/STM32H5xx_HAL_Driver/Src/stm32h5xx_hal_dma.c ****   {
 1380              		.loc 1 794 3 is_stmt 1 view .LVU481
 794:Drivers/STM32H5xx_HAL_Driver/Src/stm32h5xx_hal_dma.c ****   {
 1381              		.loc 1 794 6 is_stmt 0 view .LVU482
 1382 0084 13F4804F 		tst	r3, #16384
 1383 0088 07D0     		beq	.L80
 797:Drivers/STM32H5xx_HAL_Driver/Src/stm32h5xx_hal_dma.c **** 
 1384              		.loc 1 797 5 is_stmt 1 view .LVU483
 797:Drivers/STM32H5xx_HAL_Driver/Src/stm32h5xx_hal_dma.c **** 
 1385              		.loc 1 797 9 is_stmt 0 view .LVU484
 1386 008a A26D     		ldr	r2, [r4, #88]
 797:Drivers/STM32H5xx_HAL_Driver/Src/stm32h5xx_hal_dma.c **** 
 1387              		.loc 1 797 21 view .LVU485
 1388 008c 42F00802 		orr	r2, r2, #8
 1389 0090 A265     		str	r2, [r4, #88]
 800:Drivers/STM32H5xx_HAL_Driver/Src/stm32h5xx_hal_dma.c ****   }
 1390              		.loc 1 800 5 is_stmt 1 view .LVU486
 1391 0092 2268     		ldr	r2, [r4]
 1392 0094 4FF48041 		mov	r1, #16384
 1393 0098 D160     		str	r1, [r2, #12]
 1394              	.L80:
 804:Drivers/STM32H5xx_HAL_Driver/Src/stm32h5xx_hal_dma.c ****   {
 1395              		.loc 1 804 3 view .LVU487
 804:Drivers/STM32H5xx_HAL_Driver/Src/stm32h5xx_hal_dma.c ****   {
 1396              		.loc 1 804 6 is_stmt 0 view .LVU488
 1397 009a 13F4E05F 		tst	r3, #7168
 1398 009e 16D1     		bne	.L94
 856:Drivers/STM32H5xx_HAL_Driver/Src/stm32h5xx_hal_dma.c ****   {
 1399              		.loc 1 856 3 is_stmt 1 view .LVU489
ARM GAS  /var/folders/l3/rwskfq612tq4b7hmtv37jkjw0000gp/T//ccx7lwMy.s 			page 62


 856:Drivers/STM32H5xx_HAL_Driver/Src/stm32h5xx_hal_dma.c ****   {
 1400              		.loc 1 856 6 is_stmt 0 view .LVU490
 1401 00a0 012E     		cmp	r6, #1
 1402 00a2 49D0     		beq	.L95
 861:Drivers/STM32H5xx_HAL_Driver/Src/stm32h5xx_hal_dma.c ****   {
 1403              		.loc 1 861 8 is_stmt 1 view .LVU491
 861:Drivers/STM32H5xx_HAL_Driver/Src/stm32h5xx_hal_dma.c ****   {
 1404              		.loc 1 861 11 is_stmt 0 view .LVU492
 1405 00a4 002E     		cmp	r6, #0
 1406 00a6 4FD1     		bne	.L90
 864:Drivers/STM32H5xx_HAL_Driver/Src/stm32h5xx_hal_dma.c **** 
 1407              		.loc 1 864 5 is_stmt 1 view .LVU493
 1408 00a8 2368     		ldr	r3, [r4]
 1409              	.LVL76:
 864:Drivers/STM32H5xx_HAL_Driver/Src/stm32h5xx_hal_dma.c **** 
 1410              		.loc 1 864 5 is_stmt 0 view .LVU494
 1411 00aa 4FF44072 		mov	r2, #768
 1412 00ae DA60     		str	r2, [r3, #12]
 867:Drivers/STM32H5xx_HAL_Driver/Src/stm32h5xx_hal_dma.c **** 
 1413              		.loc 1 867 5 is_stmt 1 view .LVU495
 867:Drivers/STM32H5xx_HAL_Driver/Src/stm32h5xx_hal_dma.c **** 
 1414              		.loc 1 867 17 is_stmt 0 view .LVU496
 1415 00b0 0123     		movs	r3, #1
 1416 00b2 84F85430 		strb	r3, [r4, #84]
 870:Drivers/STM32H5xx_HAL_Driver/Src/stm32h5xx_hal_dma.c ****     {
 1417              		.loc 1 870 5 is_stmt 1 view .LVU497
 870:Drivers/STM32H5xx_HAL_Driver/Src/stm32h5xx_hal_dma.c ****     {
 1418              		.loc 1 870 14 is_stmt 0 view .LVU498
 1419 00b6 236D     		ldr	r3, [r4, #80]
 870:Drivers/STM32H5xx_HAL_Driver/Src/stm32h5xx_hal_dma.c ****     {
 1420              		.loc 1 870 8 view .LVU499
 1421 00b8 13F0800F 		tst	r3, #128
 1422 00bc 02D0     		beq	.L87
 873:Drivers/STM32H5xx_HAL_Driver/Src/stm32h5xx_hal_dma.c ****     }
 1423              		.loc 1 873 7 is_stmt 1 view .LVU500
 873:Drivers/STM32H5xx_HAL_Driver/Src/stm32h5xx_hal_dma.c ****     }
 1424              		.loc 1 873 11 is_stmt 0 view .LVU501
 1425 00be 636F     		ldr	r3, [r4, #116]
 873:Drivers/STM32H5xx_HAL_Driver/Src/stm32h5xx_hal_dma.c ****     }
 1426              		.loc 1 873 36 view .LVU502
 1427 00c0 0122     		movs	r2, #1
 1428 00c2 1A73     		strb	r2, [r3, #12]
 1429              	.L87:
 877:Drivers/STM32H5xx_HAL_Driver/Src/stm32h5xx_hal_dma.c ****   }
 1430              		.loc 1 877 5 is_stmt 1 view .LVU503
 877:Drivers/STM32H5xx_HAL_Driver/Src/stm32h5xx_hal_dma.c ****   }
 1431              		.loc 1 877 5 view .LVU504
 1432 00c4 0023     		movs	r3, #0
 1433 00c6 84F84C30 		strb	r3, [r4, #76]
 877:Drivers/STM32H5xx_HAL_Driver/Src/stm32h5xx_hal_dma.c ****   }
 1434              		.loc 1 877 5 view .LVU505
 884:Drivers/STM32H5xx_HAL_Driver/Src/stm32h5xx_hal_dma.c **** }
 1435              		.loc 1 884 10 is_stmt 0 view .LVU506
 1436 00ca 3046     		mov	r0, r6
 1437 00cc ADE7     		b	.L72
 1438              	.LVL77:
 1439              	.L94:
ARM GAS  /var/folders/l3/rwskfq612tq4b7hmtv37jkjw0000gp/T//ccx7lwMy.s 			page 63


 807:Drivers/STM32H5xx_HAL_Driver/Src/stm32h5xx_hal_dma.c ****     {
 1440              		.loc 1 807 5 is_stmt 1 view .LVU507
 807:Drivers/STM32H5xx_HAL_Driver/Src/stm32h5xx_hal_dma.c ****     {
 1441              		.loc 1 807 8 is_stmt 0 view .LVU508
 1442 00ce 13F4806F 		tst	r3, #1024
 1443 00d2 07D0     		beq	.L82
 810:Drivers/STM32H5xx_HAL_Driver/Src/stm32h5xx_hal_dma.c **** 
 1444              		.loc 1 810 7 is_stmt 1 view .LVU509
 810:Drivers/STM32H5xx_HAL_Driver/Src/stm32h5xx_hal_dma.c **** 
 1445              		.loc 1 810 11 is_stmt 0 view .LVU510
 1446 00d4 A26D     		ldr	r2, [r4, #88]
 810:Drivers/STM32H5xx_HAL_Driver/Src/stm32h5xx_hal_dma.c **** 
 1447              		.loc 1 810 23 view .LVU511
 1448 00d6 42F00102 		orr	r2, r2, #1
 1449 00da A265     		str	r2, [r4, #88]
 813:Drivers/STM32H5xx_HAL_Driver/Src/stm32h5xx_hal_dma.c ****     }
 1450              		.loc 1 813 7 is_stmt 1 view .LVU512
 1451 00dc 2268     		ldr	r2, [r4]
 1452 00de 4FF48061 		mov	r1, #1024
 1453 00e2 D160     		str	r1, [r2, #12]
 1454              	.L82:
 817:Drivers/STM32H5xx_HAL_Driver/Src/stm32h5xx_hal_dma.c ****     {
 1455              		.loc 1 817 5 view .LVU513
 817:Drivers/STM32H5xx_HAL_Driver/Src/stm32h5xx_hal_dma.c ****     {
 1456              		.loc 1 817 8 is_stmt 0 view .LVU514
 1457 00e4 13F4006F 		tst	r3, #2048
 1458 00e8 07D0     		beq	.L83
 820:Drivers/STM32H5xx_HAL_Driver/Src/stm32h5xx_hal_dma.c **** 
 1459              		.loc 1 820 7 is_stmt 1 view .LVU515
 820:Drivers/STM32H5xx_HAL_Driver/Src/stm32h5xx_hal_dma.c **** 
 1460              		.loc 1 820 11 is_stmt 0 view .LVU516
 1461 00ea A26D     		ldr	r2, [r4, #88]
 820:Drivers/STM32H5xx_HAL_Driver/Src/stm32h5xx_hal_dma.c **** 
 1462              		.loc 1 820 23 view .LVU517
 1463 00ec 42F00202 		orr	r2, r2, #2
 1464 00f0 A265     		str	r2, [r4, #88]
 823:Drivers/STM32H5xx_HAL_Driver/Src/stm32h5xx_hal_dma.c ****     }
 1465              		.loc 1 823 7 is_stmt 1 view .LVU518
 1466 00f2 2268     		ldr	r2, [r4]
 1467 00f4 4FF40061 		mov	r1, #2048
 1468 00f8 D160     		str	r1, [r2, #12]
 1469              	.L83:
 827:Drivers/STM32H5xx_HAL_Driver/Src/stm32h5xx_hal_dma.c ****     {
 1470              		.loc 1 827 5 view .LVU519
 827:Drivers/STM32H5xx_HAL_Driver/Src/stm32h5xx_hal_dma.c ****     {
 1471              		.loc 1 827 8 is_stmt 0 view .LVU520
 1472 00fa 13F4805F 		tst	r3, #4096
 1473 00fe 07D0     		beq	.L84
 830:Drivers/STM32H5xx_HAL_Driver/Src/stm32h5xx_hal_dma.c **** 
 1474              		.loc 1 830 7 is_stmt 1 view .LVU521
 830:Drivers/STM32H5xx_HAL_Driver/Src/stm32h5xx_hal_dma.c **** 
 1475              		.loc 1 830 11 is_stmt 0 view .LVU522
 1476 0100 A36D     		ldr	r3, [r4, #88]
 1477              	.LVL78:
 830:Drivers/STM32H5xx_HAL_Driver/Src/stm32h5xx_hal_dma.c **** 
 1478              		.loc 1 830 23 view .LVU523
 1479 0102 43F00403 		orr	r3, r3, #4
ARM GAS  /var/folders/l3/rwskfq612tq4b7hmtv37jkjw0000gp/T//ccx7lwMy.s 			page 64


 1480 0106 A365     		str	r3, [r4, #88]
 833:Drivers/STM32H5xx_HAL_Driver/Src/stm32h5xx_hal_dma.c ****     }
 1481              		.loc 1 833 7 is_stmt 1 view .LVU524
 1482 0108 2368     		ldr	r3, [r4]
 1483 010a 4FF48052 		mov	r2, #4096
 1484 010e DA60     		str	r2, [r3, #12]
 1485              	.L84:
 837:Drivers/STM32H5xx_HAL_Driver/Src/stm32h5xx_hal_dma.c **** 
 1486              		.loc 1 837 5 view .LVU525
 837:Drivers/STM32H5xx_HAL_Driver/Src/stm32h5xx_hal_dma.c **** 
 1487              		.loc 1 837 9 is_stmt 0 view .LVU526
 1488 0110 2268     		ldr	r2, [r4]
 837:Drivers/STM32H5xx_HAL_Driver/Src/stm32h5xx_hal_dma.c **** 
 1489              		.loc 1 837 19 view .LVU527
 1490 0112 5369     		ldr	r3, [r2, #20]
 837:Drivers/STM32H5xx_HAL_Driver/Src/stm32h5xx_hal_dma.c **** 
 1491              		.loc 1 837 25 view .LVU528
 1492 0114 43F00203 		orr	r3, r3, #2
 1493 0118 5361     		str	r3, [r2, #20]
 840:Drivers/STM32H5xx_HAL_Driver/Src/stm32h5xx_hal_dma.c **** 
 1494              		.loc 1 840 5 is_stmt 1 view .LVU529
 840:Drivers/STM32H5xx_HAL_Driver/Src/stm32h5xx_hal_dma.c **** 
 1495              		.loc 1 840 17 is_stmt 0 view .LVU530
 1496 011a 0123     		movs	r3, #1
 1497 011c 84F85430 		strb	r3, [r4, #84]
 843:Drivers/STM32H5xx_HAL_Driver/Src/stm32h5xx_hal_dma.c ****     {
 1498              		.loc 1 843 5 is_stmt 1 view .LVU531
 843:Drivers/STM32H5xx_HAL_Driver/Src/stm32h5xx_hal_dma.c ****     {
 1499              		.loc 1 843 14 is_stmt 0 view .LVU532
 1500 0120 236D     		ldr	r3, [r4, #80]
 843:Drivers/STM32H5xx_HAL_Driver/Src/stm32h5xx_hal_dma.c ****     {
 1501              		.loc 1 843 8 view .LVU533
 1502 0122 13F0800F 		tst	r3, #128
 1503 0126 02D0     		beq	.L85
 846:Drivers/STM32H5xx_HAL_Driver/Src/stm32h5xx_hal_dma.c ****     }
 1504              		.loc 1 846 7 is_stmt 1 view .LVU534
 846:Drivers/STM32H5xx_HAL_Driver/Src/stm32h5xx_hal_dma.c ****     }
 1505              		.loc 1 846 11 is_stmt 0 view .LVU535
 1506 0128 636F     		ldr	r3, [r4, #116]
 846:Drivers/STM32H5xx_HAL_Driver/Src/stm32h5xx_hal_dma.c ****     }
 1507              		.loc 1 846 36 view .LVU536
 1508 012a 0122     		movs	r2, #1
 1509 012c 1A73     		strb	r2, [r3, #12]
 1510              	.L85:
 850:Drivers/STM32H5xx_HAL_Driver/Src/stm32h5xx_hal_dma.c **** 
 1511              		.loc 1 850 5 is_stmt 1 view .LVU537
 850:Drivers/STM32H5xx_HAL_Driver/Src/stm32h5xx_hal_dma.c **** 
 1512              		.loc 1 850 5 view .LVU538
 1513 012e 0023     		movs	r3, #0
 1514 0130 84F84C30 		strb	r3, [r4, #76]
 850:Drivers/STM32H5xx_HAL_Driver/Src/stm32h5xx_hal_dma.c **** 
 1515              		.loc 1 850 5 view .LVU539
 852:Drivers/STM32H5xx_HAL_Driver/Src/stm32h5xx_hal_dma.c ****   }
 1516              		.loc 1 852 5 view .LVU540
 852:Drivers/STM32H5xx_HAL_Driver/Src/stm32h5xx_hal_dma.c ****   }
 1517              		.loc 1 852 12 is_stmt 0 view .LVU541
 1518 0134 0120     		movs	r0, #1
ARM GAS  /var/folders/l3/rwskfq612tq4b7hmtv37jkjw0000gp/T//ccx7lwMy.s 			page 65


 1519 0136 78E7     		b	.L72
 1520              	.LVL79:
 1521              	.L95:
 859:Drivers/STM32H5xx_HAL_Driver/Src/stm32h5xx_hal_dma.c ****   }
 1522              		.loc 1 859 5 is_stmt 1 view .LVU542
 1523 0138 2368     		ldr	r3, [r4]
 1524              	.LVL80:
 859:Drivers/STM32H5xx_HAL_Driver/Src/stm32h5xx_hal_dma.c ****   }
 1525              		.loc 1 859 5 is_stmt 0 view .LVU543
 1526 013a 4FF40072 		mov	r2, #512
 1527 013e DA60     		str	r2, [r3, #12]
 884:Drivers/STM32H5xx_HAL_Driver/Src/stm32h5xx_hal_dma.c **** }
 1528              		.loc 1 884 10 view .LVU544
 1529 0140 0020     		movs	r0, #0
 1530 0142 72E7     		b	.L72
 1531              	.LVL81:
 1532              	.L88:
 733:Drivers/STM32H5xx_HAL_Driver/Src/stm32h5xx_hal_dma.c ****   }
 1533              		.loc 1 733 12 view .LVU545
 1534 0144 0120     		movs	r0, #1
 1535              	.LVL82:
 733:Drivers/STM32H5xx_HAL_Driver/Src/stm32h5xx_hal_dma.c ****   }
 1536              		.loc 1 733 12 view .LVU546
 1537 0146 70E7     		b	.L72
 1538              	.LVL83:
 1539              	.L90:
 881:Drivers/STM32H5xx_HAL_Driver/Src/stm32h5xx_hal_dma.c ****   }
 1540              		.loc 1 881 12 view .LVU547
 1541 0148 0120     		movs	r0, #1
 1542 014a 6EE7     		b	.L72
 1543              		.cfi_endproc
 1544              	.LFE336:
 1546              		.section	.text.HAL_DMA_IRQHandler,"ax",%progbits
 1547              		.align	1
 1548              		.global	HAL_DMA_IRQHandler
 1549              		.syntax unified
 1550              		.thumb
 1551              		.thumb_func
 1553              	HAL_DMA_IRQHandler:
 1554              	.LVL84:
 1555              	.LFB337:
 894:Drivers/STM32H5xx_HAL_Driver/Src/stm32h5xx_hal_dma.c ****   const DMA_TypeDef *p_dma_instance = GET_DMA_INSTANCE(hdma);
 1556              		.loc 1 894 1 is_stmt 1 view -0
 1557              		.cfi_startproc
 1558              		@ args = 0, pretend = 0, frame = 0
 1559              		@ frame_needed = 0, uses_anonymous_args = 0
 894:Drivers/STM32H5xx_HAL_Driver/Src/stm32h5xx_hal_dma.c ****   const DMA_TypeDef *p_dma_instance = GET_DMA_INSTANCE(hdma);
 1560              		.loc 1 894 1 is_stmt 0 view .LVU549
 1561 0000 10B5     		push	{r4, lr}
 1562              	.LCFI15:
 1563              		.cfi_def_cfa_offset 8
 1564              		.cfi_offset 4, -8
 1565              		.cfi_offset 14, -4
 1566 0002 0446     		mov	r4, r0
 895:Drivers/STM32H5xx_HAL_Driver/Src/stm32h5xx_hal_dma.c ****   uint32_t global_it_flag =  1UL << (GET_DMA_CHANNEL(hdma) & 0x1FU);
 1567              		.loc 1 895 3 is_stmt 1 view .LVU550
 895:Drivers/STM32H5xx_HAL_Driver/Src/stm32h5xx_hal_dma.c ****   uint32_t global_it_flag =  1UL << (GET_DMA_CHANNEL(hdma) & 0x1FU);
ARM GAS  /var/folders/l3/rwskfq612tq4b7hmtv37jkjw0000gp/T//ccx7lwMy.s 			page 66


 1568              		.loc 1 895 39 is_stmt 0 view .LVU551
 1569 0004 0268     		ldr	r2, [r0]
 1570 0006 22F47F60 		bic	r0, r2, #4080
 1571              	.LVL85:
 895:Drivers/STM32H5xx_HAL_Driver/Src/stm32h5xx_hal_dma.c ****   uint32_t global_it_flag =  1UL << (GET_DMA_CHANNEL(hdma) & 0x1FU);
 1572              		.loc 1 895 39 view .LVU552
 1573 000a 20F00F00 		bic	r0, r0, #15
 1574              	.LVL86:
 896:Drivers/STM32H5xx_HAL_Driver/Src/stm32h5xx_hal_dma.c ****   uint32_t global_active_flag_ns = IS_DMA_GLOBAL_ACTIVE_FLAG_NS(p_dma_instance, global_it_flag);
 1575              		.loc 1 896 3 is_stmt 1 view .LVU553
 896:Drivers/STM32H5xx_HAL_Driver/Src/stm32h5xx_hal_dma.c ****   uint32_t global_active_flag_ns = IS_DMA_GLOBAL_ACTIVE_FLAG_NS(p_dma_instance, global_it_flag);
 1576              		.loc 1 896 38 is_stmt 0 view .LVU554
 1577 000e C2F30B03 		ubfx	r3, r2, #0, #12
 1578 0012 503B     		subs	r3, r3, #80
 896:Drivers/STM32H5xx_HAL_Driver/Src/stm32h5xx_hal_dma.c ****   uint32_t global_active_flag_ns = IS_DMA_GLOBAL_ACTIVE_FLAG_NS(p_dma_instance, global_it_flag);
 1579              		.loc 1 896 60 view .LVU555
 1580 0014 C3F3C413 		ubfx	r3, r3, #7, #5
 896:Drivers/STM32H5xx_HAL_Driver/Src/stm32h5xx_hal_dma.c ****   uint32_t global_active_flag_ns = IS_DMA_GLOBAL_ACTIVE_FLAG_NS(p_dma_instance, global_it_flag);
 1581              		.loc 1 896 12 view .LVU556
 1582 0018 0121     		movs	r1, #1
 1583 001a 01FA03F3 		lsl	r3, r1, r3
 1584              	.LVL87:
 897:Drivers/STM32H5xx_HAL_Driver/Src/stm32h5xx_hal_dma.c **** #if defined (__ARM_FEATURE_CMSE) && (__ARM_FEATURE_CMSE == 3U)
 1585              		.loc 1 897 3 is_stmt 1 view .LVU557
 897:Drivers/STM32H5xx_HAL_Driver/Src/stm32h5xx_hal_dma.c **** #if defined (__ARM_FEATURE_CMSE) && (__ARM_FEATURE_CMSE == 3U)
 1586              		.loc 1 897 36 is_stmt 0 view .LVU558
 1587 001e C168     		ldr	r1, [r0, #12]
 1588              	.LVL88:
 906:Drivers/STM32H5xx_HAL_Driver/Src/stm32h5xx_hal_dma.c **** #endif /* (__ARM_FEATURE_CMSE) && (__ARM_FEATURE_CMSE == 3U) */
 1589              		.loc 1 906 3 is_stmt 1 view .LVU559
 906:Drivers/STM32H5xx_HAL_Driver/Src/stm32h5xx_hal_dma.c **** #endif /* (__ARM_FEATURE_CMSE) && (__ARM_FEATURE_CMSE == 3U) */
 1590              		.loc 1 906 6 is_stmt 0 view .LVU560
 1591 0020 1942     		tst	r1, r3
 1592 0022 00F0C480 		beq	.L96
 913:Drivers/STM32H5xx_HAL_Driver/Src/stm32h5xx_hal_dma.c ****   {
 1593              		.loc 1 913 3 is_stmt 1 view .LVU561
 913:Drivers/STM32H5xx_HAL_Driver/Src/stm32h5xx_hal_dma.c ****   {
 1594              		.loc 1 913 8 is_stmt 0 view .LVU562
 1595 0026 1369     		ldr	r3, [r2, #16]
 1596              	.LVL89:
 913:Drivers/STM32H5xx_HAL_Driver/Src/stm32h5xx_hal_dma.c ****   {
 1597              		.loc 1 913 6 view .LVU563
 1598 0028 13F4806F 		tst	r3, #1024
 1599 002c 0AD0     		beq	.L98
 916:Drivers/STM32H5xx_HAL_Driver/Src/stm32h5xx_hal_dma.c ****     {
 1600              		.loc 1 916 5 is_stmt 1 view .LVU564
 916:Drivers/STM32H5xx_HAL_Driver/Src/stm32h5xx_hal_dma.c ****     {
 1601              		.loc 1 916 9 is_stmt 0 view .LVU565
 1602 002e 5369     		ldr	r3, [r2, #20]
 916:Drivers/STM32H5xx_HAL_Driver/Src/stm32h5xx_hal_dma.c ****     {
 1603              		.loc 1 916 8 view .LVU566
 1604 0030 13F4806F 		tst	r3, #1024
 1605 0034 06D0     		beq	.L98
 919:Drivers/STM32H5xx_HAL_Driver/Src/stm32h5xx_hal_dma.c **** 
 1606              		.loc 1 919 7 is_stmt 1 view .LVU567
 1607 0036 4FF48063 		mov	r3, #1024
 1608 003a D360     		str	r3, [r2, #12]
ARM GAS  /var/folders/l3/rwskfq612tq4b7hmtv37jkjw0000gp/T//ccx7lwMy.s 			page 67


 922:Drivers/STM32H5xx_HAL_Driver/Src/stm32h5xx_hal_dma.c ****     }
 1609              		.loc 1 922 7 view .LVU568
 922:Drivers/STM32H5xx_HAL_Driver/Src/stm32h5xx_hal_dma.c ****     }
 1610              		.loc 1 922 11 is_stmt 0 view .LVU569
 1611 003c A36D     		ldr	r3, [r4, #88]
 922:Drivers/STM32H5xx_HAL_Driver/Src/stm32h5xx_hal_dma.c ****     }
 1612              		.loc 1 922 23 view .LVU570
 1613 003e 43F00103 		orr	r3, r3, #1
 1614 0042 A365     		str	r3, [r4, #88]
 1615              	.L98:
 927:Drivers/STM32H5xx_HAL_Driver/Src/stm32h5xx_hal_dma.c ****   {
 1616              		.loc 1 927 3 is_stmt 1 view .LVU571
 927:Drivers/STM32H5xx_HAL_Driver/Src/stm32h5xx_hal_dma.c ****   {
 1617              		.loc 1 927 8 is_stmt 0 view .LVU572
 1618 0044 2368     		ldr	r3, [r4]
 1619 0046 1A69     		ldr	r2, [r3, #16]
 1620              	.LVL90:
 927:Drivers/STM32H5xx_HAL_Driver/Src/stm32h5xx_hal_dma.c ****   {
 1621              		.loc 1 927 6 view .LVU573
 1622 0048 12F4006F 		tst	r2, #2048
 1623 004c 0AD0     		beq	.L99
 930:Drivers/STM32H5xx_HAL_Driver/Src/stm32h5xx_hal_dma.c ****     {
 1624              		.loc 1 930 5 is_stmt 1 view .LVU574
 930:Drivers/STM32H5xx_HAL_Driver/Src/stm32h5xx_hal_dma.c ****     {
 1625              		.loc 1 930 9 is_stmt 0 view .LVU575
 1626 004e 5A69     		ldr	r2, [r3, #20]
 930:Drivers/STM32H5xx_HAL_Driver/Src/stm32h5xx_hal_dma.c ****     {
 1627              		.loc 1 930 8 view .LVU576
 1628 0050 12F4006F 		tst	r2, #2048
 1629 0054 06D0     		beq	.L99
 933:Drivers/STM32H5xx_HAL_Driver/Src/stm32h5xx_hal_dma.c **** 
 1630              		.loc 1 933 7 is_stmt 1 view .LVU577
 1631 0056 4FF40062 		mov	r2, #2048
 1632 005a DA60     		str	r2, [r3, #12]
 936:Drivers/STM32H5xx_HAL_Driver/Src/stm32h5xx_hal_dma.c ****     }
 1633              		.loc 1 936 7 view .LVU578
 936:Drivers/STM32H5xx_HAL_Driver/Src/stm32h5xx_hal_dma.c ****     }
 1634              		.loc 1 936 11 is_stmt 0 view .LVU579
 1635 005c A36D     		ldr	r3, [r4, #88]
 936:Drivers/STM32H5xx_HAL_Driver/Src/stm32h5xx_hal_dma.c ****     }
 1636              		.loc 1 936 23 view .LVU580
 1637 005e 43F00203 		orr	r3, r3, #2
 1638 0062 A365     		str	r3, [r4, #88]
 1639              	.L99:
 941:Drivers/STM32H5xx_HAL_Driver/Src/stm32h5xx_hal_dma.c ****   {
 1640              		.loc 1 941 3 is_stmt 1 view .LVU581
 941:Drivers/STM32H5xx_HAL_Driver/Src/stm32h5xx_hal_dma.c ****   {
 1641              		.loc 1 941 8 is_stmt 0 view .LVU582
 1642 0064 2368     		ldr	r3, [r4]
 1643 0066 1A69     		ldr	r2, [r3, #16]
 941:Drivers/STM32H5xx_HAL_Driver/Src/stm32h5xx_hal_dma.c ****   {
 1644              		.loc 1 941 6 view .LVU583
 1645 0068 12F4805F 		tst	r2, #4096
 1646 006c 0AD0     		beq	.L100
 944:Drivers/STM32H5xx_HAL_Driver/Src/stm32h5xx_hal_dma.c ****     {
 1647              		.loc 1 944 5 is_stmt 1 view .LVU584
 944:Drivers/STM32H5xx_HAL_Driver/Src/stm32h5xx_hal_dma.c ****     {
ARM GAS  /var/folders/l3/rwskfq612tq4b7hmtv37jkjw0000gp/T//ccx7lwMy.s 			page 68


 1648              		.loc 1 944 9 is_stmt 0 view .LVU585
 1649 006e 5A69     		ldr	r2, [r3, #20]
 944:Drivers/STM32H5xx_HAL_Driver/Src/stm32h5xx_hal_dma.c ****     {
 1650              		.loc 1 944 8 view .LVU586
 1651 0070 12F4805F 		tst	r2, #4096
 1652 0074 06D0     		beq	.L100
 947:Drivers/STM32H5xx_HAL_Driver/Src/stm32h5xx_hal_dma.c **** 
 1653              		.loc 1 947 7 is_stmt 1 view .LVU587
 1654 0076 4FF48052 		mov	r2, #4096
 1655 007a DA60     		str	r2, [r3, #12]
 950:Drivers/STM32H5xx_HAL_Driver/Src/stm32h5xx_hal_dma.c ****     }
 1656              		.loc 1 950 7 view .LVU588
 950:Drivers/STM32H5xx_HAL_Driver/Src/stm32h5xx_hal_dma.c ****     }
 1657              		.loc 1 950 11 is_stmt 0 view .LVU589
 1658 007c A36D     		ldr	r3, [r4, #88]
 950:Drivers/STM32H5xx_HAL_Driver/Src/stm32h5xx_hal_dma.c ****     }
 1659              		.loc 1 950 23 view .LVU590
 1660 007e 43F00403 		orr	r3, r3, #4
 1661 0082 A365     		str	r3, [r4, #88]
 1662              	.L100:
 955:Drivers/STM32H5xx_HAL_Driver/Src/stm32h5xx_hal_dma.c ****   {
 1663              		.loc 1 955 3 is_stmt 1 view .LVU591
 955:Drivers/STM32H5xx_HAL_Driver/Src/stm32h5xx_hal_dma.c ****   {
 1664              		.loc 1 955 8 is_stmt 0 view .LVU592
 1665 0084 2368     		ldr	r3, [r4]
 1666 0086 1A69     		ldr	r2, [r3, #16]
 955:Drivers/STM32H5xx_HAL_Driver/Src/stm32h5xx_hal_dma.c ****   {
 1667              		.loc 1 955 6 view .LVU593
 1668 0088 12F4804F 		tst	r2, #16384
 1669 008c 0AD0     		beq	.L101
 958:Drivers/STM32H5xx_HAL_Driver/Src/stm32h5xx_hal_dma.c ****     {
 1670              		.loc 1 958 5 is_stmt 1 view .LVU594
 958:Drivers/STM32H5xx_HAL_Driver/Src/stm32h5xx_hal_dma.c ****     {
 1671              		.loc 1 958 9 is_stmt 0 view .LVU595
 1672 008e 5A69     		ldr	r2, [r3, #20]
 958:Drivers/STM32H5xx_HAL_Driver/Src/stm32h5xx_hal_dma.c ****     {
 1673              		.loc 1 958 8 view .LVU596
 1674 0090 12F4804F 		tst	r2, #16384
 1675 0094 06D0     		beq	.L101
 961:Drivers/STM32H5xx_HAL_Driver/Src/stm32h5xx_hal_dma.c **** 
 1676              		.loc 1 961 7 is_stmt 1 view .LVU597
 1677 0096 4FF48042 		mov	r2, #16384
 1678 009a DA60     		str	r2, [r3, #12]
 964:Drivers/STM32H5xx_HAL_Driver/Src/stm32h5xx_hal_dma.c ****     }
 1679              		.loc 1 964 7 view .LVU598
 964:Drivers/STM32H5xx_HAL_Driver/Src/stm32h5xx_hal_dma.c ****     }
 1680              		.loc 1 964 11 is_stmt 0 view .LVU599
 1681 009c A36D     		ldr	r3, [r4, #88]
 964:Drivers/STM32H5xx_HAL_Driver/Src/stm32h5xx_hal_dma.c ****     }
 1682              		.loc 1 964 23 view .LVU600
 1683 009e 43F00803 		orr	r3, r3, #8
 1684 00a2 A365     		str	r3, [r4, #88]
 1685              	.L101:
 969:Drivers/STM32H5xx_HAL_Driver/Src/stm32h5xx_hal_dma.c ****   {
 1686              		.loc 1 969 3 is_stmt 1 view .LVU601
 969:Drivers/STM32H5xx_HAL_Driver/Src/stm32h5xx_hal_dma.c ****   {
 1687              		.loc 1 969 8 is_stmt 0 view .LVU602
ARM GAS  /var/folders/l3/rwskfq612tq4b7hmtv37jkjw0000gp/T//ccx7lwMy.s 			page 69


 1688 00a4 2368     		ldr	r3, [r4]
 1689 00a6 1A69     		ldr	r2, [r3, #16]
 969:Drivers/STM32H5xx_HAL_Driver/Src/stm32h5xx_hal_dma.c ****   {
 1690              		.loc 1 969 6 view .LVU603
 1691 00a8 12F4007F 		tst	r2, #512
 1692 00ac 0AD0     		beq	.L102
 972:Drivers/STM32H5xx_HAL_Driver/Src/stm32h5xx_hal_dma.c ****     {
 1693              		.loc 1 972 5 is_stmt 1 view .LVU604
 972:Drivers/STM32H5xx_HAL_Driver/Src/stm32h5xx_hal_dma.c ****     {
 1694              		.loc 1 972 9 is_stmt 0 view .LVU605
 1695 00ae 5A69     		ldr	r2, [r3, #20]
 972:Drivers/STM32H5xx_HAL_Driver/Src/stm32h5xx_hal_dma.c ****     {
 1696              		.loc 1 972 8 view .LVU606
 1697 00b0 12F4007F 		tst	r2, #512
 1698 00b4 06D0     		beq	.L102
 975:Drivers/STM32H5xx_HAL_Driver/Src/stm32h5xx_hal_dma.c **** 
 1699              		.loc 1 975 7 is_stmt 1 view .LVU607
 1700 00b6 4FF40072 		mov	r2, #512
 1701 00ba DA60     		str	r2, [r3, #12]
 978:Drivers/STM32H5xx_HAL_Driver/Src/stm32h5xx_hal_dma.c ****       {
 1702              		.loc 1 978 7 view .LVU608
 978:Drivers/STM32H5xx_HAL_Driver/Src/stm32h5xx_hal_dma.c ****       {
 1703              		.loc 1 978 15 is_stmt 0 view .LVU609
 1704 00bc 636E     		ldr	r3, [r4, #100]
 978:Drivers/STM32H5xx_HAL_Driver/Src/stm32h5xx_hal_dma.c ****       {
 1705              		.loc 1 978 10 view .LVU610
 1706 00be 0BB1     		cbz	r3, .L102
 981:Drivers/STM32H5xx_HAL_Driver/Src/stm32h5xx_hal_dma.c ****       }
 1707              		.loc 1 981 9 is_stmt 1 view .LVU611
 1708 00c0 2046     		mov	r0, r4
 1709              	.LVL91:
 981:Drivers/STM32H5xx_HAL_Driver/Src/stm32h5xx_hal_dma.c ****       }
 1710              		.loc 1 981 9 is_stmt 0 view .LVU612
 1711 00c2 9847     		blx	r3
 1712              	.LVL92:
 1713              	.L102:
 987:Drivers/STM32H5xx_HAL_Driver/Src/stm32h5xx_hal_dma.c ****   {
 1714              		.loc 1 987 3 is_stmt 1 view .LVU613
 987:Drivers/STM32H5xx_HAL_Driver/Src/stm32h5xx_hal_dma.c ****   {
 1715              		.loc 1 987 8 is_stmt 0 view .LVU614
 1716 00c4 2368     		ldr	r3, [r4]
 1717 00c6 1A69     		ldr	r2, [r3, #16]
 987:Drivers/STM32H5xx_HAL_Driver/Src/stm32h5xx_hal_dma.c ****   {
 1718              		.loc 1 987 6 view .LVU615
 1719 00c8 12F4005F 		tst	r2, #8192
 1720 00cc 11D0     		beq	.L103
 990:Drivers/STM32H5xx_HAL_Driver/Src/stm32h5xx_hal_dma.c ****     {
 1721              		.loc 1 990 5 is_stmt 1 view .LVU616
 990:Drivers/STM32H5xx_HAL_Driver/Src/stm32h5xx_hal_dma.c ****     {
 1722              		.loc 1 990 9 is_stmt 0 view .LVU617
 1723 00ce 5A69     		ldr	r2, [r3, #20]
 990:Drivers/STM32H5xx_HAL_Driver/Src/stm32h5xx_hal_dma.c ****     {
 1724              		.loc 1 990 8 view .LVU618
 1725 00d0 12F4005F 		tst	r2, #8192
 1726 00d4 0DD0     		beq	.L103
 993:Drivers/STM32H5xx_HAL_Driver/Src/stm32h5xx_hal_dma.c **** 
 1727              		.loc 1 993 7 is_stmt 1 view .LVU619
ARM GAS  /var/folders/l3/rwskfq612tq4b7hmtv37jkjw0000gp/T//ccx7lwMy.s 			page 70


 1728 00d6 4FF40052 		mov	r2, #8192
 1729 00da DA60     		str	r2, [r3, #12]
 996:Drivers/STM32H5xx_HAL_Driver/Src/stm32h5xx_hal_dma.c ****       {
 1730              		.loc 1 996 7 view .LVU620
 996:Drivers/STM32H5xx_HAL_Driver/Src/stm32h5xx_hal_dma.c ****       {
 1731              		.loc 1 996 15 is_stmt 0 view .LVU621
 1732 00dc 94F85430 		ldrb	r3, [r4, #84]	@ zero_extendqisi2
 996:Drivers/STM32H5xx_HAL_Driver/Src/stm32h5xx_hal_dma.c ****       {
 1733              		.loc 1 996 10 view .LVU622
 1734 00e0 042B     		cmp	r3, #4
 1735 00e2 1DD0     		beq	.L112
1032:Drivers/STM32H5xx_HAL_Driver/Src/stm32h5xx_hal_dma.c **** 
 1736              		.loc 1 1032 9 is_stmt 1 view .LVU623
1032:Drivers/STM32H5xx_HAL_Driver/Src/stm32h5xx_hal_dma.c **** 
 1737              		.loc 1 1032 21 is_stmt 0 view .LVU624
 1738 00e4 0523     		movs	r3, #5
 1739 00e6 84F85430 		strb	r3, [r4, #84]
1035:Drivers/STM32H5xx_HAL_Driver/Src/stm32h5xx_hal_dma.c ****         {
 1740              		.loc 1 1035 9 is_stmt 1 view .LVU625
1035:Drivers/STM32H5xx_HAL_Driver/Src/stm32h5xx_hal_dma.c ****         {
 1741              		.loc 1 1035 17 is_stmt 0 view .LVU626
 1742 00ea 236F     		ldr	r3, [r4, #112]
1035:Drivers/STM32H5xx_HAL_Driver/Src/stm32h5xx_hal_dma.c ****         {
 1743              		.loc 1 1035 12 view .LVU627
 1744 00ec 0BB1     		cbz	r3, .L103
1038:Drivers/STM32H5xx_HAL_Driver/Src/stm32h5xx_hal_dma.c ****         }
 1745              		.loc 1 1038 11 is_stmt 1 view .LVU628
 1746 00ee 2046     		mov	r0, r4
 1747 00f0 9847     		blx	r3
 1748              	.LVL93:
 1749              	.L103:
1045:Drivers/STM32H5xx_HAL_Driver/Src/stm32h5xx_hal_dma.c ****   {
 1750              		.loc 1 1045 3 view .LVU629
1045:Drivers/STM32H5xx_HAL_Driver/Src/stm32h5xx_hal_dma.c ****   {
 1751              		.loc 1 1045 8 is_stmt 0 view .LVU630
 1752 00f2 2368     		ldr	r3, [r4]
 1753 00f4 1A69     		ldr	r2, [r3, #16]
1045:Drivers/STM32H5xx_HAL_Driver/Src/stm32h5xx_hal_dma.c ****   {
 1754              		.loc 1 1045 6 view .LVU631
 1755 00f6 12F4807F 		tst	r2, #256
 1756 00fa 40D0     		beq	.L107
1048:Drivers/STM32H5xx_HAL_Driver/Src/stm32h5xx_hal_dma.c ****     {
 1757              		.loc 1 1048 5 is_stmt 1 view .LVU632
1048:Drivers/STM32H5xx_HAL_Driver/Src/stm32h5xx_hal_dma.c ****     {
 1758              		.loc 1 1048 9 is_stmt 0 view .LVU633
 1759 00fc 5A69     		ldr	r2, [r3, #20]
1048:Drivers/STM32H5xx_HAL_Driver/Src/stm32h5xx_hal_dma.c ****     {
 1760              		.loc 1 1048 8 view .LVU634
 1761 00fe 12F4807F 		tst	r2, #256
 1762 0102 3CD0     		beq	.L107
1051:Drivers/STM32H5xx_HAL_Driver/Src/stm32h5xx_hal_dma.c ****       {
 1763              		.loc 1 1051 7 is_stmt 1 view .LVU635
1051:Drivers/STM32H5xx_HAL_Driver/Src/stm32h5xx_hal_dma.c ****       {
 1764              		.loc 1 1051 16 is_stmt 0 view .LVU636
 1765 0104 226D     		ldr	r2, [r4, #80]
1051:Drivers/STM32H5xx_HAL_Driver/Src/stm32h5xx_hal_dma.c ****       {
 1766              		.loc 1 1051 10 view .LVU637
ARM GAS  /var/folders/l3/rwskfq612tq4b7hmtv37jkjw0000gp/T//ccx7lwMy.s 			page 71


 1767 0106 12F0800F 		tst	r2, #128
 1768 010a 28D0     		beq	.L108
1054:Drivers/STM32H5xx_HAL_Driver/Src/stm32h5xx_hal_dma.c ****         {
 1769              		.loc 1 1054 9 is_stmt 1 view .LVU638
1054:Drivers/STM32H5xx_HAL_Driver/Src/stm32h5xx_hal_dma.c ****         {
 1770              		.loc 1 1054 27 is_stmt 0 view .LVU639
 1771 010c DA6F     		ldr	r2, [r3, #124]
1054:Drivers/STM32H5xx_HAL_Driver/Src/stm32h5xx_hal_dma.c ****         {
 1772              		.loc 1 1054 12 view .LVU640
 1773 010e 5ABB     		cbnz	r2, .L109
1056:Drivers/STM32H5xx_HAL_Driver/Src/stm32h5xx_hal_dma.c ****           {
 1774              		.loc 1 1056 11 is_stmt 1 view .LVU641
1056:Drivers/STM32H5xx_HAL_Driver/Src/stm32h5xx_hal_dma.c ****           {
 1775              		.loc 1 1056 29 is_stmt 0 view .LVU642
 1776 0110 9B6C     		ldr	r3, [r3, #72]
1056:Drivers/STM32H5xx_HAL_Driver/Src/stm32h5xx_hal_dma.c ****           {
 1777              		.loc 1 1056 14 view .LVU643
 1778 0112 4BBB     		cbnz	r3, .L109
1059:Drivers/STM32H5xx_HAL_Driver/Src/stm32h5xx_hal_dma.c **** 
 1779              		.loc 1 1059 13 is_stmt 1 view .LVU644
1059:Drivers/STM32H5xx_HAL_Driver/Src/stm32h5xx_hal_dma.c **** 
 1780              		.loc 1 1059 25 is_stmt 0 view .LVU645
 1781 0114 0123     		movs	r3, #1
1059:Drivers/STM32H5xx_HAL_Driver/Src/stm32h5xx_hal_dma.c **** 
 1782              		.loc 1 1059 25 view .LVU646
 1783 0116 84F85430 		strb	r3, [r4, #84]
1062:Drivers/STM32H5xx_HAL_Driver/Src/stm32h5xx_hal_dma.c ****           }
 1784              		.loc 1 1062 13 is_stmt 1 view .LVU647
1062:Drivers/STM32H5xx_HAL_Driver/Src/stm32h5xx_hal_dma.c ****           }
 1785              		.loc 1 1062 17 is_stmt 0 view .LVU648
 1786 011a 626F     		ldr	r2, [r4, #116]
1062:Drivers/STM32H5xx_HAL_Driver/Src/stm32h5xx_hal_dma.c ****           }
 1787              		.loc 1 1062 42 view .LVU649
 1788 011c 1373     		strb	r3, [r2, #12]
 1789 011e 23E0     		b	.L109
 1790              	.L112:
 999:Drivers/STM32H5xx_HAL_Driver/Src/stm32h5xx_hal_dma.c **** 
 1791              		.loc 1 999 9 is_stmt 1 view .LVU650
 1792 0120 2268     		ldr	r2, [r4]
 1793 0122 5369     		ldr	r3, [r2, #20]
 1794 0124 23F40053 		bic	r3, r3, #8192
 1795 0128 5361     		str	r3, [r2, #20]
1002:Drivers/STM32H5xx_HAL_Driver/Src/stm32h5xx_hal_dma.c **** 
 1796              		.loc 1 1002 9 view .LVU651
1002:Drivers/STM32H5xx_HAL_Driver/Src/stm32h5xx_hal_dma.c **** 
 1797              		.loc 1 1002 13 is_stmt 0 view .LVU652
 1798 012a 2268     		ldr	r2, [r4]
1002:Drivers/STM32H5xx_HAL_Driver/Src/stm32h5xx_hal_dma.c **** 
 1799              		.loc 1 1002 23 view .LVU653
 1800 012c 5369     		ldr	r3, [r2, #20]
1002:Drivers/STM32H5xx_HAL_Driver/Src/stm32h5xx_hal_dma.c **** 
 1801              		.loc 1 1002 29 view .LVU654
 1802 012e 43F00203 		orr	r3, r3, #2
 1803 0132 5361     		str	r3, [r2, #20]
1005:Drivers/STM32H5xx_HAL_Driver/Src/stm32h5xx_hal_dma.c **** 
 1804              		.loc 1 1005 9 is_stmt 1 view .LVU655
1005:Drivers/STM32H5xx_HAL_Driver/Src/stm32h5xx_hal_dma.c **** 
ARM GAS  /var/folders/l3/rwskfq612tq4b7hmtv37jkjw0000gp/T//ccx7lwMy.s 			page 72


 1805              		.loc 1 1005 21 is_stmt 0 view .LVU656
 1806 0134 0123     		movs	r3, #1
1005:Drivers/STM32H5xx_HAL_Driver/Src/stm32h5xx_hal_dma.c **** 
 1807              		.loc 1 1005 21 view .LVU657
 1808 0136 84F85430 		strb	r3, [r4, #84]
1008:Drivers/STM32H5xx_HAL_Driver/Src/stm32h5xx_hal_dma.c ****         {
 1809              		.loc 1 1008 9 is_stmt 1 view .LVU658
1008:Drivers/STM32H5xx_HAL_Driver/Src/stm32h5xx_hal_dma.c ****         {
 1810              		.loc 1 1008 18 is_stmt 0 view .LVU659
 1811 013a 236D     		ldr	r3, [r4, #80]
1008:Drivers/STM32H5xx_HAL_Driver/Src/stm32h5xx_hal_dma.c ****         {
 1812              		.loc 1 1008 12 view .LVU660
 1813 013c 13F0800F 		tst	r3, #128
 1814 0140 05D0     		beq	.L105
1011:Drivers/STM32H5xx_HAL_Driver/Src/stm32h5xx_hal_dma.c **** 
 1815              		.loc 1 1011 11 is_stmt 1 view .LVU661
1011:Drivers/STM32H5xx_HAL_Driver/Src/stm32h5xx_hal_dma.c **** 
 1816              		.loc 1 1011 15 is_stmt 0 view .LVU662
 1817 0142 636F     		ldr	r3, [r4, #116]
1011:Drivers/STM32H5xx_HAL_Driver/Src/stm32h5xx_hal_dma.c **** 
 1818              		.loc 1 1011 40 view .LVU663
 1819 0144 0122     		movs	r2, #1
1011:Drivers/STM32H5xx_HAL_Driver/Src/stm32h5xx_hal_dma.c **** 
 1820              		.loc 1 1011 40 view .LVU664
 1821 0146 1A73     		strb	r2, [r3, #12]
1014:Drivers/STM32H5xx_HAL_Driver/Src/stm32h5xx_hal_dma.c ****         }
 1822              		.loc 1 1014 11 is_stmt 1 view .LVU665
1014:Drivers/STM32H5xx_HAL_Driver/Src/stm32h5xx_hal_dma.c ****         }
 1823              		.loc 1 1014 15 is_stmt 0 view .LVU666
 1824 0148 2368     		ldr	r3, [r4]
1014:Drivers/STM32H5xx_HAL_Driver/Src/stm32h5xx_hal_dma.c ****         }
 1825              		.loc 1 1014 32 view .LVU667
 1826 014a 0022     		movs	r2, #0
1014:Drivers/STM32H5xx_HAL_Driver/Src/stm32h5xx_hal_dma.c ****         }
 1827              		.loc 1 1014 32 view .LVU668
 1828 014c 9A64     		str	r2, [r3, #72]
 1829              	.L105:
1018:Drivers/STM32H5xx_HAL_Driver/Src/stm32h5xx_hal_dma.c **** 
 1830              		.loc 1 1018 9 is_stmt 1 view .LVU669
1018:Drivers/STM32H5xx_HAL_Driver/Src/stm32h5xx_hal_dma.c **** 
 1831              		.loc 1 1018 9 view .LVU670
 1832 014e 0023     		movs	r3, #0
 1833 0150 84F84C30 		strb	r3, [r4, #76]
1018:Drivers/STM32H5xx_HAL_Driver/Src/stm32h5xx_hal_dma.c **** 
 1834              		.loc 1 1018 9 view .LVU671
1021:Drivers/STM32H5xx_HAL_Driver/Src/stm32h5xx_hal_dma.c ****         {
 1835              		.loc 1 1021 9 view .LVU672
1021:Drivers/STM32H5xx_HAL_Driver/Src/stm32h5xx_hal_dma.c ****         {
 1836              		.loc 1 1021 17 is_stmt 0 view .LVU673
 1837 0154 E36E     		ldr	r3, [r4, #108]
1021:Drivers/STM32H5xx_HAL_Driver/Src/stm32h5xx_hal_dma.c ****         {
 1838              		.loc 1 1021 12 view .LVU674
 1839 0156 53B3     		cbz	r3, .L96
1024:Drivers/STM32H5xx_HAL_Driver/Src/stm32h5xx_hal_dma.c ****         }
 1840              		.loc 1 1024 11 is_stmt 1 view .LVU675
 1841 0158 2046     		mov	r0, r4
 1842 015a 9847     		blx	r3
ARM GAS  /var/folders/l3/rwskfq612tq4b7hmtv37jkjw0000gp/T//ccx7lwMy.s 			page 73


 1843              	.LVL94:
1027:Drivers/STM32H5xx_HAL_Driver/Src/stm32h5xx_hal_dma.c ****       }
 1844              		.loc 1 1027 9 view .LVU676
 1845 015c 27E0     		b	.L96
 1846              	.L108:
1069:Drivers/STM32H5xx_HAL_Driver/Src/stm32h5xx_hal_dma.c ****         {
 1847              		.loc 1 1069 9 view .LVU677
1069:Drivers/STM32H5xx_HAL_Driver/Src/stm32h5xx_hal_dma.c ****         {
 1848              		.loc 1 1069 27 is_stmt 0 view .LVU678
 1849 015e 9B6C     		ldr	r3, [r3, #72]
1069:Drivers/STM32H5xx_HAL_Driver/Src/stm32h5xx_hal_dma.c ****         {
 1850              		.loc 1 1069 12 view .LVU679
 1851 0160 13B9     		cbnz	r3, .L109
1072:Drivers/STM32H5xx_HAL_Driver/Src/stm32h5xx_hal_dma.c ****         }
 1852              		.loc 1 1072 11 is_stmt 1 view .LVU680
1072:Drivers/STM32H5xx_HAL_Driver/Src/stm32h5xx_hal_dma.c ****         }
 1853              		.loc 1 1072 23 is_stmt 0 view .LVU681
 1854 0162 0123     		movs	r3, #1
1072:Drivers/STM32H5xx_HAL_Driver/Src/stm32h5xx_hal_dma.c ****         }
 1855              		.loc 1 1072 23 view .LVU682
 1856 0164 84F85430 		strb	r3, [r4, #84]
 1857              	.L109:
1077:Drivers/STM32H5xx_HAL_Driver/Src/stm32h5xx_hal_dma.c **** 
 1858              		.loc 1 1077 7 is_stmt 1 view .LVU683
 1859 0168 2368     		ldr	r3, [r4]
 1860 016a 4FF44072 		mov	r2, #768
 1861 016e DA60     		str	r2, [r3, #12]
1080:Drivers/STM32H5xx_HAL_Driver/Src/stm32h5xx_hal_dma.c **** 
 1862              		.loc 1 1080 7 view .LVU684
1080:Drivers/STM32H5xx_HAL_Driver/Src/stm32h5xx_hal_dma.c **** 
 1863              		.loc 1 1080 7 view .LVU685
 1864 0170 0023     		movs	r3, #0
 1865 0172 84F84C30 		strb	r3, [r4, #76]
1080:Drivers/STM32H5xx_HAL_Driver/Src/stm32h5xx_hal_dma.c **** 
 1866              		.loc 1 1080 7 view .LVU686
1083:Drivers/STM32H5xx_HAL_Driver/Src/stm32h5xx_hal_dma.c ****       {
 1867              		.loc 1 1083 7 view .LVU687
1083:Drivers/STM32H5xx_HAL_Driver/Src/stm32h5xx_hal_dma.c ****       {
 1868              		.loc 1 1083 15 is_stmt 0 view .LVU688
 1869 0176 236E     		ldr	r3, [r4, #96]
1083:Drivers/STM32H5xx_HAL_Driver/Src/stm32h5xx_hal_dma.c ****       {
 1870              		.loc 1 1083 10 view .LVU689
 1871 0178 0BB1     		cbz	r3, .L107
1086:Drivers/STM32H5xx_HAL_Driver/Src/stm32h5xx_hal_dma.c ****       }
 1872              		.loc 1 1086 9 is_stmt 1 view .LVU690
 1873 017a 2046     		mov	r0, r4
 1874 017c 9847     		blx	r3
 1875              	.LVL95:
 1876              	.L107:
1092:Drivers/STM32H5xx_HAL_Driver/Src/stm32h5xx_hal_dma.c ****   {
 1877              		.loc 1 1092 3 view .LVU691
1092:Drivers/STM32H5xx_HAL_Driver/Src/stm32h5xx_hal_dma.c ****   {
 1878              		.loc 1 1092 11 is_stmt 0 view .LVU692
 1879 017e A36D     		ldr	r3, [r4, #88]
1092:Drivers/STM32H5xx_HAL_Driver/Src/stm32h5xx_hal_dma.c ****   {
 1880              		.loc 1 1092 6 view .LVU693
 1881 0180 ABB1     		cbz	r3, .L96
ARM GAS  /var/folders/l3/rwskfq612tq4b7hmtv37jkjw0000gp/T//ccx7lwMy.s 			page 74


1095:Drivers/STM32H5xx_HAL_Driver/Src/stm32h5xx_hal_dma.c **** 
 1882              		.loc 1 1095 5 is_stmt 1 view .LVU694
1095:Drivers/STM32H5xx_HAL_Driver/Src/stm32h5xx_hal_dma.c **** 
 1883              		.loc 1 1095 9 is_stmt 0 view .LVU695
 1884 0182 2268     		ldr	r2, [r4]
1095:Drivers/STM32H5xx_HAL_Driver/Src/stm32h5xx_hal_dma.c **** 
 1885              		.loc 1 1095 19 view .LVU696
 1886 0184 5369     		ldr	r3, [r2, #20]
1095:Drivers/STM32H5xx_HAL_Driver/Src/stm32h5xx_hal_dma.c **** 
 1887              		.loc 1 1095 25 view .LVU697
 1888 0186 43F00203 		orr	r3, r3, #2
 1889 018a 5361     		str	r3, [r2, #20]
1098:Drivers/STM32H5xx_HAL_Driver/Src/stm32h5xx_hal_dma.c **** 
 1890              		.loc 1 1098 5 is_stmt 1 view .LVU698
1098:Drivers/STM32H5xx_HAL_Driver/Src/stm32h5xx_hal_dma.c **** 
 1891              		.loc 1 1098 17 is_stmt 0 view .LVU699
 1892 018c 0123     		movs	r3, #1
1098:Drivers/STM32H5xx_HAL_Driver/Src/stm32h5xx_hal_dma.c **** 
 1893              		.loc 1 1098 17 view .LVU700
 1894 018e 84F85430 		strb	r3, [r4, #84]
1101:Drivers/STM32H5xx_HAL_Driver/Src/stm32h5xx_hal_dma.c ****     {
 1895              		.loc 1 1101 5 is_stmt 1 view .LVU701
1101:Drivers/STM32H5xx_HAL_Driver/Src/stm32h5xx_hal_dma.c ****     {
 1896              		.loc 1 1101 14 is_stmt 0 view .LVU702
 1897 0192 236D     		ldr	r3, [r4, #80]
1101:Drivers/STM32H5xx_HAL_Driver/Src/stm32h5xx_hal_dma.c ****     {
 1898              		.loc 1 1101 8 view .LVU703
 1899 0194 13F0800F 		tst	r3, #128
 1900 0198 02D0     		beq	.L110
1104:Drivers/STM32H5xx_HAL_Driver/Src/stm32h5xx_hal_dma.c ****     }
 1901              		.loc 1 1104 7 is_stmt 1 view .LVU704
1104:Drivers/STM32H5xx_HAL_Driver/Src/stm32h5xx_hal_dma.c ****     }
 1902              		.loc 1 1104 11 is_stmt 0 view .LVU705
 1903 019a 636F     		ldr	r3, [r4, #116]
1104:Drivers/STM32H5xx_HAL_Driver/Src/stm32h5xx_hal_dma.c ****     }
 1904              		.loc 1 1104 36 view .LVU706
 1905 019c 0122     		movs	r2, #1
1104:Drivers/STM32H5xx_HAL_Driver/Src/stm32h5xx_hal_dma.c ****     }
 1906              		.loc 1 1104 36 view .LVU707
 1907 019e 1A73     		strb	r2, [r3, #12]
 1908              	.L110:
1108:Drivers/STM32H5xx_HAL_Driver/Src/stm32h5xx_hal_dma.c **** 
 1909              		.loc 1 1108 5 is_stmt 1 view .LVU708
1108:Drivers/STM32H5xx_HAL_Driver/Src/stm32h5xx_hal_dma.c **** 
 1910              		.loc 1 1108 5 view .LVU709
 1911 01a0 0023     		movs	r3, #0
 1912 01a2 84F84C30 		strb	r3, [r4, #76]
1108:Drivers/STM32H5xx_HAL_Driver/Src/stm32h5xx_hal_dma.c **** 
 1913              		.loc 1 1108 5 view .LVU710
1111:Drivers/STM32H5xx_HAL_Driver/Src/stm32h5xx_hal_dma.c ****     {
 1914              		.loc 1 1111 5 view .LVU711
1111:Drivers/STM32H5xx_HAL_Driver/Src/stm32h5xx_hal_dma.c ****     {
 1915              		.loc 1 1111 13 is_stmt 0 view .LVU712
 1916 01a6 A36E     		ldr	r3, [r4, #104]
1111:Drivers/STM32H5xx_HAL_Driver/Src/stm32h5xx_hal_dma.c ****     {
 1917              		.loc 1 1111 8 view .LVU713
 1918 01a8 0BB1     		cbz	r3, .L96
ARM GAS  /var/folders/l3/rwskfq612tq4b7hmtv37jkjw0000gp/T//ccx7lwMy.s 			page 75


1114:Drivers/STM32H5xx_HAL_Driver/Src/stm32h5xx_hal_dma.c ****     }
 1919              		.loc 1 1114 7 is_stmt 1 view .LVU714
 1920 01aa 2046     		mov	r0, r4
 1921 01ac 9847     		blx	r3
 1922              	.LVL96:
 1923              	.L96:
1117:Drivers/STM32H5xx_HAL_Driver/Src/stm32h5xx_hal_dma.c **** 
 1924              		.loc 1 1117 1 is_stmt 0 view .LVU715
 1925 01ae 10BD     		pop	{r4, pc}
1117:Drivers/STM32H5xx_HAL_Driver/Src/stm32h5xx_hal_dma.c **** 
 1926              		.loc 1 1117 1 view .LVU716
 1927              		.cfi_endproc
 1928              	.LFE337:
 1930              		.section	.text.HAL_DMA_RegisterCallback,"ax",%progbits
 1931              		.align	1
 1932              		.global	HAL_DMA_RegisterCallback
 1933              		.syntax unified
 1934              		.thumb
 1935              		.thumb_func
 1937              	HAL_DMA_RegisterCallback:
 1938              	.LVL97:
 1939              	.LFB338:
1132:Drivers/STM32H5xx_HAL_Driver/Src/stm32h5xx_hal_dma.c ****   HAL_StatusTypeDef status = HAL_OK;
 1940              		.loc 1 1132 1 is_stmt 1 view -0
 1941              		.cfi_startproc
 1942              		@ args = 0, pretend = 0, frame = 0
 1943              		@ frame_needed = 0, uses_anonymous_args = 0
 1944              		@ link register save eliminated.
1133:Drivers/STM32H5xx_HAL_Driver/Src/stm32h5xx_hal_dma.c **** 
 1945              		.loc 1 1133 3 view .LVU718
1136:Drivers/STM32H5xx_HAL_Driver/Src/stm32h5xx_hal_dma.c ****   {
 1946              		.loc 1 1136 3 view .LVU719
1136:Drivers/STM32H5xx_HAL_Driver/Src/stm32h5xx_hal_dma.c ****   {
 1947              		.loc 1 1136 6 is_stmt 0 view .LVU720
 1948 0000 8446     		mov	ip, r0
 1949 0002 08B3     		cbz	r0, .L121
1142:Drivers/STM32H5xx_HAL_Driver/Src/stm32h5xx_hal_dma.c ****   {
 1950              		.loc 1 1142 3 is_stmt 1 view .LVU721
1142:Drivers/STM32H5xx_HAL_Driver/Src/stm32h5xx_hal_dma.c ****   {
 1951              		.loc 1 1142 11 is_stmt 0 view .LVU722
 1952 0004 90F85430 		ldrb	r3, [r0, #84]	@ zero_extendqisi2
 1953 0008 D8B2     		uxtb	r0, r3
 1954              	.LVL98:
1142:Drivers/STM32H5xx_HAL_Driver/Src/stm32h5xx_hal_dma.c ****   {
 1955              		.loc 1 1142 6 view .LVU723
 1956 000a 012B     		cmp	r3, #1
 1957 000c 01D0     		beq	.L124
1193:Drivers/STM32H5xx_HAL_Driver/Src/stm32h5xx_hal_dma.c ****   }
 1958              		.loc 1 1193 12 view .LVU724
 1959 000e 0120     		movs	r0, #1
 1960              	.L114:
 1961              	.LVL99:
1197:Drivers/STM32H5xx_HAL_Driver/Src/stm32h5xx_hal_dma.c **** 
 1962              		.loc 1 1197 1 view .LVU725
 1963 0010 7047     		bx	lr
 1964              	.LVL100:
 1965              	.L124:
ARM GAS  /var/folders/l3/rwskfq612tq4b7hmtv37jkjw0000gp/T//ccx7lwMy.s 			page 76


1145:Drivers/STM32H5xx_HAL_Driver/Src/stm32h5xx_hal_dma.c ****     {
 1966              		.loc 1 1145 5 is_stmt 1 view .LVU726
 1967 0012 0429     		cmp	r1, #4
 1968 0014 FCD8     		bhi	.L114
 1969 0016 DFE801F0 		tbb	[pc, r1]
 1970              	.L116:
 1971 001a 03       		.byte	(.L120-.L116)/2
 1972 001b 07       		.byte	(.L119-.L116)/2
 1973 001c 0B       		.byte	(.L118-.L116)/2
 1974 001d 0F       		.byte	(.L117-.L116)/2
 1975 001e 13       		.byte	(.L115-.L116)/2
 1976 001f 00       		.p2align 1
 1977              	.L120:
1150:Drivers/STM32H5xx_HAL_Driver/Src/stm32h5xx_hal_dma.c ****         break;
 1978              		.loc 1 1150 9 view .LVU727
1150:Drivers/STM32H5xx_HAL_Driver/Src/stm32h5xx_hal_dma.c ****         break;
 1979              		.loc 1 1150 32 is_stmt 0 view .LVU728
 1980 0020 CCF86020 		str	r2, [ip, #96]
1151:Drivers/STM32H5xx_HAL_Driver/Src/stm32h5xx_hal_dma.c ****       }
 1981              		.loc 1 1151 9 is_stmt 1 view .LVU729
1133:Drivers/STM32H5xx_HAL_Driver/Src/stm32h5xx_hal_dma.c **** 
 1982              		.loc 1 1133 21 is_stmt 0 view .LVU730
 1983 0024 0846     		mov	r0, r1
1151:Drivers/STM32H5xx_HAL_Driver/Src/stm32h5xx_hal_dma.c ****       }
 1984              		.loc 1 1151 9 view .LVU731
 1985 0026 7047     		bx	lr
 1986              	.L119:
1157:Drivers/STM32H5xx_HAL_Driver/Src/stm32h5xx_hal_dma.c ****         break;
 1987              		.loc 1 1157 9 is_stmt 1 view .LVU732
1157:Drivers/STM32H5xx_HAL_Driver/Src/stm32h5xx_hal_dma.c ****         break;
 1988              		.loc 1 1157 36 is_stmt 0 view .LVU733
 1989 0028 CCF86420 		str	r2, [ip, #100]
1158:Drivers/STM32H5xx_HAL_Driver/Src/stm32h5xx_hal_dma.c ****       }
 1990              		.loc 1 1158 9 is_stmt 1 view .LVU734
1133:Drivers/STM32H5xx_HAL_Driver/Src/stm32h5xx_hal_dma.c **** 
 1991              		.loc 1 1133 21 is_stmt 0 view .LVU735
 1992 002c 0020     		movs	r0, #0
1158:Drivers/STM32H5xx_HAL_Driver/Src/stm32h5xx_hal_dma.c ****       }
 1993              		.loc 1 1158 9 view .LVU736
 1994 002e 7047     		bx	lr
 1995              	.L118:
1164:Drivers/STM32H5xx_HAL_Driver/Src/stm32h5xx_hal_dma.c ****         break;
 1996              		.loc 1 1164 9 is_stmt 1 view .LVU737
1164:Drivers/STM32H5xx_HAL_Driver/Src/stm32h5xx_hal_dma.c ****         break;
 1997              		.loc 1 1164 33 is_stmt 0 view .LVU738
 1998 0030 CCF86820 		str	r2, [ip, #104]
1165:Drivers/STM32H5xx_HAL_Driver/Src/stm32h5xx_hal_dma.c ****       }
 1999              		.loc 1 1165 9 is_stmt 1 view .LVU739
1133:Drivers/STM32H5xx_HAL_Driver/Src/stm32h5xx_hal_dma.c **** 
 2000              		.loc 1 1133 21 is_stmt 0 view .LVU740
 2001 0034 0020     		movs	r0, #0
1165:Drivers/STM32H5xx_HAL_Driver/Src/stm32h5xx_hal_dma.c ****       }
 2002              		.loc 1 1165 9 view .LVU741
 2003 0036 7047     		bx	lr
 2004              	.L117:
1171:Drivers/STM32H5xx_HAL_Driver/Src/stm32h5xx_hal_dma.c ****         break;
 2005              		.loc 1 1171 9 is_stmt 1 view .LVU742
ARM GAS  /var/folders/l3/rwskfq612tq4b7hmtv37jkjw0000gp/T//ccx7lwMy.s 			page 77


1171:Drivers/STM32H5xx_HAL_Driver/Src/stm32h5xx_hal_dma.c ****         break;
 2006              		.loc 1 1171 33 is_stmt 0 view .LVU743
 2007 0038 CCF86C20 		str	r2, [ip, #108]
1172:Drivers/STM32H5xx_HAL_Driver/Src/stm32h5xx_hal_dma.c ****       }
 2008              		.loc 1 1172 9 is_stmt 1 view .LVU744
1133:Drivers/STM32H5xx_HAL_Driver/Src/stm32h5xx_hal_dma.c **** 
 2009              		.loc 1 1133 21 is_stmt 0 view .LVU745
 2010 003c 0020     		movs	r0, #0
1172:Drivers/STM32H5xx_HAL_Driver/Src/stm32h5xx_hal_dma.c ****       }
 2011              		.loc 1 1172 9 view .LVU746
 2012 003e 7047     		bx	lr
 2013              	.L115:
1178:Drivers/STM32H5xx_HAL_Driver/Src/stm32h5xx_hal_dma.c ****         break;
 2014              		.loc 1 1178 9 is_stmt 1 view .LVU747
1178:Drivers/STM32H5xx_HAL_Driver/Src/stm32h5xx_hal_dma.c ****         break;
 2015              		.loc 1 1178 35 is_stmt 0 view .LVU748
 2016 0040 CCF87020 		str	r2, [ip, #112]
1179:Drivers/STM32H5xx_HAL_Driver/Src/stm32h5xx_hal_dma.c ****       }
 2017              		.loc 1 1179 9 is_stmt 1 view .LVU749
1133:Drivers/STM32H5xx_HAL_Driver/Src/stm32h5xx_hal_dma.c **** 
 2018              		.loc 1 1133 21 is_stmt 0 view .LVU750
 2019 0044 0020     		movs	r0, #0
1179:Drivers/STM32H5xx_HAL_Driver/Src/stm32h5xx_hal_dma.c ****       }
 2020              		.loc 1 1179 9 view .LVU751
 2021 0046 7047     		bx	lr
 2022              	.LVL101:
 2023              	.L121:
1138:Drivers/STM32H5xx_HAL_Driver/Src/stm32h5xx_hal_dma.c ****   }
 2024              		.loc 1 1138 12 view .LVU752
 2025 0048 0120     		movs	r0, #1
 2026              	.LVL102:
1138:Drivers/STM32H5xx_HAL_Driver/Src/stm32h5xx_hal_dma.c ****   }
 2027              		.loc 1 1138 12 view .LVU753
 2028 004a 7047     		bx	lr
 2029              		.cfi_endproc
 2030              	.LFE338:
 2032              		.section	.text.HAL_DMA_UnRegisterCallback,"ax",%progbits
 2033              		.align	1
 2034              		.global	HAL_DMA_UnRegisterCallback
 2035              		.syntax unified
 2036              		.thumb
 2037              		.thumb_func
 2039              	HAL_DMA_UnRegisterCallback:
 2040              	.LVL103:
 2041              	.LFB339:
1210:Drivers/STM32H5xx_HAL_Driver/Src/stm32h5xx_hal_dma.c ****   HAL_StatusTypeDef status = HAL_OK;
 2042              		.loc 1 1210 1 is_stmt 1 view -0
 2043              		.cfi_startproc
 2044              		@ args = 0, pretend = 0, frame = 0
 2045              		@ frame_needed = 0, uses_anonymous_args = 0
 2046              		@ link register save eliminated.
1211:Drivers/STM32H5xx_HAL_Driver/Src/stm32h5xx_hal_dma.c **** 
 2047              		.loc 1 1211 3 view .LVU755
1214:Drivers/STM32H5xx_HAL_Driver/Src/stm32h5xx_hal_dma.c ****   {
 2048              		.loc 1 1214 3 view .LVU756
1214:Drivers/STM32H5xx_HAL_Driver/Src/stm32h5xx_hal_dma.c ****   {
 2049              		.loc 1 1214 6 is_stmt 0 view .LVU757
ARM GAS  /var/folders/l3/rwskfq612tq4b7hmtv37jkjw0000gp/T//ccx7lwMy.s 			page 78


 2050 0000 0246     		mov	r2, r0
 2051 0002 20B3     		cbz	r0, .L134
1220:Drivers/STM32H5xx_HAL_Driver/Src/stm32h5xx_hal_dma.c ****   {
 2052              		.loc 1 1220 3 is_stmt 1 view .LVU758
1220:Drivers/STM32H5xx_HAL_Driver/Src/stm32h5xx_hal_dma.c ****   {
 2053              		.loc 1 1220 11 is_stmt 0 view .LVU759
 2054 0004 90F85430 		ldrb	r3, [r0, #84]	@ zero_extendqisi2
 2055 0008 D8B2     		uxtb	r0, r3
 2056              	.LVL104:
1220:Drivers/STM32H5xx_HAL_Driver/Src/stm32h5xx_hal_dma.c ****   {
 2057              		.loc 1 1220 6 view .LVU760
 2058 000a 012B     		cmp	r3, #1
 2059 000c 01D0     		beq	.L137
1282:Drivers/STM32H5xx_HAL_Driver/Src/stm32h5xx_hal_dma.c ****   }
 2060              		.loc 1 1282 12 view .LVU761
 2061 000e 0120     		movs	r0, #1
 2062              	.L126:
 2063              	.LVL105:
1286:Drivers/STM32H5xx_HAL_Driver/Src/stm32h5xx_hal_dma.c **** /**
 2064              		.loc 1 1286 1 view .LVU762
 2065 0010 7047     		bx	lr
 2066              	.LVL106:
 2067              	.L137:
1223:Drivers/STM32H5xx_HAL_Driver/Src/stm32h5xx_hal_dma.c ****     {
 2068              		.loc 1 1223 5 is_stmt 1 view .LVU763
 2069 0012 0529     		cmp	r1, #5
 2070 0014 FCD8     		bhi	.L126
 2071 0016 DFE801F0 		tbb	[pc, r1]
 2072              	.L128:
 2073 001a 03       		.byte	(.L133-.L128)/2
 2074 001b 07       		.byte	(.L132-.L128)/2
 2075 001c 0A       		.byte	(.L131-.L128)/2
 2076 001d 0D       		.byte	(.L130-.L128)/2
 2077 001e 10       		.byte	(.L129-.L128)/2
 2078 001f 13       		.byte	(.L127-.L128)/2
 2079              		.p2align 1
 2080              	.L133:
1228:Drivers/STM32H5xx_HAL_Driver/Src/stm32h5xx_hal_dma.c ****         break;
 2081              		.loc 1 1228 9 view .LVU764
1228:Drivers/STM32H5xx_HAL_Driver/Src/stm32h5xx_hal_dma.c ****         break;
 2082              		.loc 1 1228 32 is_stmt 0 view .LVU765
 2083 0020 0023     		movs	r3, #0
 2084 0022 1366     		str	r3, [r2, #96]
1229:Drivers/STM32H5xx_HAL_Driver/Src/stm32h5xx_hal_dma.c ****       }
 2085              		.loc 1 1229 9 is_stmt 1 view .LVU766
1211:Drivers/STM32H5xx_HAL_Driver/Src/stm32h5xx_hal_dma.c **** 
 2086              		.loc 1 1211 21 is_stmt 0 view .LVU767
 2087 0024 0846     		mov	r0, r1
1229:Drivers/STM32H5xx_HAL_Driver/Src/stm32h5xx_hal_dma.c ****       }
 2088              		.loc 1 1229 9 view .LVU768
 2089 0026 7047     		bx	lr
 2090              	.L132:
1235:Drivers/STM32H5xx_HAL_Driver/Src/stm32h5xx_hal_dma.c ****         break;
 2091              		.loc 1 1235 9 is_stmt 1 view .LVU769
1235:Drivers/STM32H5xx_HAL_Driver/Src/stm32h5xx_hal_dma.c ****         break;
 2092              		.loc 1 1235 36 is_stmt 0 view .LVU770
 2093 0028 0020     		movs	r0, #0
ARM GAS  /var/folders/l3/rwskfq612tq4b7hmtv37jkjw0000gp/T//ccx7lwMy.s 			page 79


 2094 002a 5066     		str	r0, [r2, #100]
1236:Drivers/STM32H5xx_HAL_Driver/Src/stm32h5xx_hal_dma.c ****       }
 2095              		.loc 1 1236 9 is_stmt 1 view .LVU771
 2096 002c 7047     		bx	lr
 2097              	.L131:
1242:Drivers/STM32H5xx_HAL_Driver/Src/stm32h5xx_hal_dma.c ****         break;
 2098              		.loc 1 1242 9 view .LVU772
1242:Drivers/STM32H5xx_HAL_Driver/Src/stm32h5xx_hal_dma.c ****         break;
 2099              		.loc 1 1242 33 is_stmt 0 view .LVU773
 2100 002e 0020     		movs	r0, #0
 2101 0030 9066     		str	r0, [r2, #104]
1243:Drivers/STM32H5xx_HAL_Driver/Src/stm32h5xx_hal_dma.c ****       }
 2102              		.loc 1 1243 9 is_stmt 1 view .LVU774
 2103 0032 7047     		bx	lr
 2104              	.L130:
1249:Drivers/STM32H5xx_HAL_Driver/Src/stm32h5xx_hal_dma.c ****         break;
 2105              		.loc 1 1249 9 view .LVU775
1249:Drivers/STM32H5xx_HAL_Driver/Src/stm32h5xx_hal_dma.c ****         break;
 2106              		.loc 1 1249 33 is_stmt 0 view .LVU776
 2107 0034 0020     		movs	r0, #0
 2108 0036 D066     		str	r0, [r2, #108]
1250:Drivers/STM32H5xx_HAL_Driver/Src/stm32h5xx_hal_dma.c ****       }
 2109              		.loc 1 1250 9 is_stmt 1 view .LVU777
 2110 0038 7047     		bx	lr
 2111              	.L129:
1256:Drivers/STM32H5xx_HAL_Driver/Src/stm32h5xx_hal_dma.c ****         break;
 2112              		.loc 1 1256 9 view .LVU778
1256:Drivers/STM32H5xx_HAL_Driver/Src/stm32h5xx_hal_dma.c ****         break;
 2113              		.loc 1 1256 35 is_stmt 0 view .LVU779
 2114 003a 0020     		movs	r0, #0
 2115 003c 1067     		str	r0, [r2, #112]
1257:Drivers/STM32H5xx_HAL_Driver/Src/stm32h5xx_hal_dma.c ****       }
 2116              		.loc 1 1257 9 is_stmt 1 view .LVU780
 2117 003e 7047     		bx	lr
 2118              	.L127:
1263:Drivers/STM32H5xx_HAL_Driver/Src/stm32h5xx_hal_dma.c ****         hdma->XferHalfCpltCallback = NULL;
 2119              		.loc 1 1263 9 view .LVU781
1263:Drivers/STM32H5xx_HAL_Driver/Src/stm32h5xx_hal_dma.c ****         hdma->XferHalfCpltCallback = NULL;
 2120              		.loc 1 1263 36 is_stmt 0 view .LVU782
 2121 0040 0020     		movs	r0, #0
 2122 0042 1066     		str	r0, [r2, #96]
1264:Drivers/STM32H5xx_HAL_Driver/Src/stm32h5xx_hal_dma.c ****         hdma->XferErrorCallback    = NULL;
 2123              		.loc 1 1264 9 is_stmt 1 view .LVU783
1264:Drivers/STM32H5xx_HAL_Driver/Src/stm32h5xx_hal_dma.c ****         hdma->XferErrorCallback    = NULL;
 2124              		.loc 1 1264 36 is_stmt 0 view .LVU784
 2125 0044 5066     		str	r0, [r2, #100]
1265:Drivers/STM32H5xx_HAL_Driver/Src/stm32h5xx_hal_dma.c ****         hdma->XferAbortCallback    = NULL;
 2126              		.loc 1 1265 9 is_stmt 1 view .LVU785
1265:Drivers/STM32H5xx_HAL_Driver/Src/stm32h5xx_hal_dma.c ****         hdma->XferAbortCallback    = NULL;
 2127              		.loc 1 1265 36 is_stmt 0 view .LVU786
 2128 0046 9066     		str	r0, [r2, #104]
1266:Drivers/STM32H5xx_HAL_Driver/Src/stm32h5xx_hal_dma.c ****         hdma->XferSuspendCallback  = NULL;
 2129              		.loc 1 1266 9 is_stmt 1 view .LVU787
1266:Drivers/STM32H5xx_HAL_Driver/Src/stm32h5xx_hal_dma.c ****         hdma->XferSuspendCallback  = NULL;
 2130              		.loc 1 1266 36 is_stmt 0 view .LVU788
 2131 0048 D066     		str	r0, [r2, #108]
1267:Drivers/STM32H5xx_HAL_Driver/Src/stm32h5xx_hal_dma.c ****         break;
ARM GAS  /var/folders/l3/rwskfq612tq4b7hmtv37jkjw0000gp/T//ccx7lwMy.s 			page 80


 2132              		.loc 1 1267 9 is_stmt 1 view .LVU789
1267:Drivers/STM32H5xx_HAL_Driver/Src/stm32h5xx_hal_dma.c ****         break;
 2133              		.loc 1 1267 36 is_stmt 0 view .LVU790
 2134 004a 1067     		str	r0, [r2, #112]
1268:Drivers/STM32H5xx_HAL_Driver/Src/stm32h5xx_hal_dma.c ****       }
 2135              		.loc 1 1268 9 is_stmt 1 view .LVU791
 2136 004c 7047     		bx	lr
 2137              	.LVL107:
 2138              	.L134:
1216:Drivers/STM32H5xx_HAL_Driver/Src/stm32h5xx_hal_dma.c ****   }
 2139              		.loc 1 1216 12 is_stmt 0 view .LVU792
 2140 004e 0120     		movs	r0, #1
 2141              	.LVL108:
1216:Drivers/STM32H5xx_HAL_Driver/Src/stm32h5xx_hal_dma.c ****   }
 2142              		.loc 1 1216 12 view .LVU793
 2143 0050 7047     		bx	lr
 2144              		.cfi_endproc
 2145              	.LFE339:
 2147              		.section	.text.HAL_DMA_GetState,"ax",%progbits
 2148              		.align	1
 2149              		.global	HAL_DMA_GetState
 2150              		.syntax unified
 2151              		.thumb
 2152              		.thumb_func
 2154              	HAL_DMA_GetState:
 2155              	.LVL109:
 2156              	.LFB340:
1317:Drivers/STM32H5xx_HAL_Driver/Src/stm32h5xx_hal_dma.c ****   /* Return the DMA channel state */
 2157              		.loc 1 1317 1 is_stmt 1 view -0
 2158              		.cfi_startproc
 2159              		@ args = 0, pretend = 0, frame = 0
 2160              		@ frame_needed = 0, uses_anonymous_args = 0
 2161              		@ link register save eliminated.
1319:Drivers/STM32H5xx_HAL_Driver/Src/stm32h5xx_hal_dma.c **** }
 2162              		.loc 1 1319 3 view .LVU795
1319:Drivers/STM32H5xx_HAL_Driver/Src/stm32h5xx_hal_dma.c **** }
 2163              		.loc 1 1319 14 is_stmt 0 view .LVU796
 2164 0000 90F85400 		ldrb	r0, [r0, #84]	@ zero_extendqisi2
 2165              	.LVL110:
1320:Drivers/STM32H5xx_HAL_Driver/Src/stm32h5xx_hal_dma.c **** 
 2166              		.loc 1 1320 1 view .LVU797
 2167 0004 7047     		bx	lr
 2168              		.cfi_endproc
 2169              	.LFE340:
 2171              		.section	.text.HAL_DMA_GetError,"ax",%progbits
 2172              		.align	1
 2173              		.global	HAL_DMA_GetError
 2174              		.syntax unified
 2175              		.thumb
 2176              		.thumb_func
 2178              	HAL_DMA_GetError:
 2179              	.LVL111:
 2180              	.LFB341:
1329:Drivers/STM32H5xx_HAL_Driver/Src/stm32h5xx_hal_dma.c ****   /* Return the DMA channel error code */
 2181              		.loc 1 1329 1 is_stmt 1 view -0
 2182              		.cfi_startproc
 2183              		@ args = 0, pretend = 0, frame = 0
ARM GAS  /var/folders/l3/rwskfq612tq4b7hmtv37jkjw0000gp/T//ccx7lwMy.s 			page 81


 2184              		@ frame_needed = 0, uses_anonymous_args = 0
 2185              		@ link register save eliminated.
1331:Drivers/STM32H5xx_HAL_Driver/Src/stm32h5xx_hal_dma.c **** }
 2186              		.loc 1 1331 3 view .LVU799
1331:Drivers/STM32H5xx_HAL_Driver/Src/stm32h5xx_hal_dma.c **** }
 2187              		.loc 1 1331 14 is_stmt 0 view .LVU800
 2188 0000 806D     		ldr	r0, [r0, #88]
 2189              	.LVL112:
1332:Drivers/STM32H5xx_HAL_Driver/Src/stm32h5xx_hal_dma.c **** /**
 2190              		.loc 1 1332 1 view .LVU801
 2191 0002 7047     		bx	lr
 2192              		.cfi_endproc
 2193              	.LFE341:
 2195              		.section	.text.HAL_DMA_ConfigChannelAttributes,"ax",%progbits
 2196              		.align	1
 2197              		.global	HAL_DMA_ConfigChannelAttributes
 2198              		.syntax unified
 2199              		.thumb
 2200              		.thumb_func
 2202              	HAL_DMA_ConfigChannelAttributes:
 2203              	.LVL113:
 2204              	.LFB342:
1373:Drivers/STM32H5xx_HAL_Driver/Src/stm32h5xx_hal_dma.c ****   DMA_TypeDef *p_dma_instance;
 2205              		.loc 1 1373 1 is_stmt 1 view -0
 2206              		.cfi_startproc
 2207              		@ args = 0, pretend = 0, frame = 0
 2208              		@ frame_needed = 0, uses_anonymous_args = 0
 2209              		@ link register save eliminated.
1374:Drivers/STM32H5xx_HAL_Driver/Src/stm32h5xx_hal_dma.c ****   uint32_t channel_idx;
 2210              		.loc 1 1374 3 view .LVU803
1375:Drivers/STM32H5xx_HAL_Driver/Src/stm32h5xx_hal_dma.c **** 
 2211              		.loc 1 1375 3 view .LVU804
1378:Drivers/STM32H5xx_HAL_Driver/Src/stm32h5xx_hal_dma.c ****   {
 2212              		.loc 1 1378 3 view .LVU805
1378:Drivers/STM32H5xx_HAL_Driver/Src/stm32h5xx_hal_dma.c ****   {
 2213              		.loc 1 1378 6 is_stmt 0 view .LVU806
 2214 0000 E8B1     		cbz	r0, .L143
1384:Drivers/STM32H5xx_HAL_Driver/Src/stm32h5xx_hal_dma.c **** 
 2215              		.loc 1 1384 3 is_stmt 1 view .LVU807
1387:Drivers/STM32H5xx_HAL_Driver/Src/stm32h5xx_hal_dma.c **** 
 2216              		.loc 1 1387 3 view .LVU808
1387:Drivers/STM32H5xx_HAL_Driver/Src/stm32h5xx_hal_dma.c **** 
 2217              		.loc 1 1387 20 is_stmt 0 view .LVU809
 2218 0002 0368     		ldr	r3, [r0]
 2219 0004 23F47F60 		bic	r0, r3, #4080
 2220              	.LVL114:
1387:Drivers/STM32H5xx_HAL_Driver/Src/stm32h5xx_hal_dma.c **** 
 2221              		.loc 1 1387 20 view .LVU810
 2222 0008 20F00F00 		bic	r0, r0, #15
 2223              	.LVL115:
1390:Drivers/STM32H5xx_HAL_Driver/Src/stm32h5xx_hal_dma.c **** 
 2224              		.loc 1 1390 3 is_stmt 1 view .LVU811
1390:Drivers/STM32H5xx_HAL_Driver/Src/stm32h5xx_hal_dma.c **** 
 2225              		.loc 1 1390 25 is_stmt 0 view .LVU812
 2226 000c C3F30B03 		ubfx	r3, r3, #0, #12
 2227 0010 503B     		subs	r3, r3, #80
1390:Drivers/STM32H5xx_HAL_Driver/Src/stm32h5xx_hal_dma.c **** 
ARM GAS  /var/folders/l3/rwskfq612tq4b7hmtv37jkjw0000gp/T//ccx7lwMy.s 			page 82


 2228              		.loc 1 1390 47 view .LVU813
 2229 0012 C3F3C413 		ubfx	r3, r3, #7, #5
1390:Drivers/STM32H5xx_HAL_Driver/Src/stm32h5xx_hal_dma.c **** 
 2230              		.loc 1 1390 15 view .LVU814
 2231 0016 0122     		movs	r2, #1
 2232 0018 9A40     		lsls	r2, r2, r3
 2233              	.LVL116:
1393:Drivers/STM32H5xx_HAL_Driver/Src/stm32h5xx_hal_dma.c ****   {
 2234              		.loc 1 1393 3 is_stmt 1 view .LVU815
1393:Drivers/STM32H5xx_HAL_Driver/Src/stm32h5xx_hal_dma.c ****   {
 2235              		.loc 1 1393 6 is_stmt 0 view .LVU816
 2236 001a 11F0100F 		tst	r1, #16
 2237 001e 10D0     		beq	.L144
1396:Drivers/STM32H5xx_HAL_Driver/Src/stm32h5xx_hal_dma.c ****     {
 2238              		.loc 1 1396 5 is_stmt 1 view .LVU817
1396:Drivers/STM32H5xx_HAL_Driver/Src/stm32h5xx_hal_dma.c ****     {
 2239              		.loc 1 1396 28 is_stmt 0 view .LVU818
 2240 0020 01F01101 		and	r1, r1, #17
 2241              	.LVL117:
1396:Drivers/STM32H5xx_HAL_Driver/Src/stm32h5xx_hal_dma.c ****     {
 2242              		.loc 1 1396 8 view .LVU819
 2243 0024 1129     		cmp	r1, #17
 2244 0026 05D0     		beq	.L145
1402:Drivers/STM32H5xx_HAL_Driver/Src/stm32h5xx_hal_dma.c ****     }
 2245              		.loc 1 1402 7 is_stmt 1 view .LVU820
1402:Drivers/STM32H5xx_HAL_Driver/Src/stm32h5xx_hal_dma.c ****     }
 2246              		.loc 1 1402 21 is_stmt 0 view .LVU821
 2247 0028 4368     		ldr	r3, [r0, #4]
1402:Drivers/STM32H5xx_HAL_Driver/Src/stm32h5xx_hal_dma.c ****     }
 2248              		.loc 1 1402 32 view .LVU822
 2249 002a 23EA0203 		bic	r3, r3, r2
 2250 002e 4360     		str	r3, [r0, #4]
1450:Drivers/STM32H5xx_HAL_Driver/Src/stm32h5xx_hal_dma.c **** }
 2251              		.loc 1 1450 10 view .LVU823
 2252 0030 0020     		movs	r0, #0
 2253              	.LVL118:
1450:Drivers/STM32H5xx_HAL_Driver/Src/stm32h5xx_hal_dma.c **** }
 2254              		.loc 1 1450 10 view .LVU824
 2255 0032 7047     		bx	lr
 2256              	.LVL119:
 2257              	.L145:
1398:Drivers/STM32H5xx_HAL_Driver/Src/stm32h5xx_hal_dma.c ****     }
 2258              		.loc 1 1398 7 is_stmt 1 view .LVU825
1398:Drivers/STM32H5xx_HAL_Driver/Src/stm32h5xx_hal_dma.c ****     }
 2259              		.loc 1 1398 21 is_stmt 0 view .LVU826
 2260 0034 4368     		ldr	r3, [r0, #4]
1398:Drivers/STM32H5xx_HAL_Driver/Src/stm32h5xx_hal_dma.c ****     }
 2261              		.loc 1 1398 32 view .LVU827
 2262 0036 1343     		orrs	r3, r3, r2
 2263 0038 4360     		str	r3, [r0, #4]
1450:Drivers/STM32H5xx_HAL_Driver/Src/stm32h5xx_hal_dma.c **** }
 2264              		.loc 1 1450 10 view .LVU828
 2265 003a 0020     		movs	r0, #0
 2266              	.LVL120:
1450:Drivers/STM32H5xx_HAL_Driver/Src/stm32h5xx_hal_dma.c **** }
 2267              		.loc 1 1450 10 view .LVU829
 2268 003c 7047     		bx	lr
ARM GAS  /var/folders/l3/rwskfq612tq4b7hmtv37jkjw0000gp/T//ccx7lwMy.s 			page 83


 2269              	.LVL121:
 2270              	.L143:
1380:Drivers/STM32H5xx_HAL_Driver/Src/stm32h5xx_hal_dma.c ****   }
 2271              		.loc 1 1380 12 view .LVU830
 2272 003e 0120     		movs	r0, #1
 2273              	.LVL122:
1380:Drivers/STM32H5xx_HAL_Driver/Src/stm32h5xx_hal_dma.c ****   }
 2274              		.loc 1 1380 12 view .LVU831
 2275 0040 7047     		bx	lr
 2276              	.LVL123:
 2277              	.L144:
1450:Drivers/STM32H5xx_HAL_Driver/Src/stm32h5xx_hal_dma.c **** }
 2278              		.loc 1 1450 10 view .LVU832
 2279 0042 0020     		movs	r0, #0
 2280              	.LVL124:
1451:Drivers/STM32H5xx_HAL_Driver/Src/stm32h5xx_hal_dma.c **** 
 2281              		.loc 1 1451 1 view .LVU833
 2282 0044 7047     		bx	lr
 2283              		.cfi_endproc
 2284              	.LFE342:
 2286              		.section	.text.HAL_DMA_GetConfigChannelAttributes,"ax",%progbits
 2287              		.align	1
 2288              		.global	HAL_DMA_GetConfigChannelAttributes
 2289              		.syntax unified
 2290              		.thumb
 2291              		.thumb_func
 2293              	HAL_DMA_GetConfigChannelAttributes:
 2294              	.LVL125:
 2295              	.LFB343:
1462:Drivers/STM32H5xx_HAL_Driver/Src/stm32h5xx_hal_dma.c ****   const DMA_TypeDef *p_dma_instance;
 2296              		.loc 1 1462 1 is_stmt 1 view -0
 2297              		.cfi_startproc
 2298              		@ args = 0, pretend = 0, frame = 0
 2299              		@ frame_needed = 0, uses_anonymous_args = 0
 2300              		@ link register save eliminated.
1463:Drivers/STM32H5xx_HAL_Driver/Src/stm32h5xx_hal_dma.c ****   uint32_t attributes;
 2301              		.loc 1 1463 3 view .LVU835
1464:Drivers/STM32H5xx_HAL_Driver/Src/stm32h5xx_hal_dma.c ****   uint32_t channel_idx;
 2302              		.loc 1 1464 3 view .LVU836
1465:Drivers/STM32H5xx_HAL_Driver/Src/stm32h5xx_hal_dma.c **** 
 2303              		.loc 1 1465 3 view .LVU837
1468:Drivers/STM32H5xx_HAL_Driver/Src/stm32h5xx_hal_dma.c ****   {
 2304              		.loc 1 1468 3 view .LVU838
1468:Drivers/STM32H5xx_HAL_Driver/Src/stm32h5xx_hal_dma.c ****   {
 2305              		.loc 1 1468 6 is_stmt 0 view .LVU839
 2306 0000 B0B1     		cbz	r0, .L149
1468:Drivers/STM32H5xx_HAL_Driver/Src/stm32h5xx_hal_dma.c ****   {
 2307              		.loc 1 1468 22 discriminator 1 view .LVU840
 2308 0002 B9B1     		cbz	r1, .L150
1474:Drivers/STM32H5xx_HAL_Driver/Src/stm32h5xx_hal_dma.c **** 
 2309              		.loc 1 1474 3 is_stmt 1 view .LVU841
1474:Drivers/STM32H5xx_HAL_Driver/Src/stm32h5xx_hal_dma.c **** 
 2310              		.loc 1 1474 20 is_stmt 0 view .LVU842
 2311 0004 0368     		ldr	r3, [r0]
 2312 0006 23F47F60 		bic	r0, r3, #4080
 2313              	.LVL126:
1474:Drivers/STM32H5xx_HAL_Driver/Src/stm32h5xx_hal_dma.c **** 
ARM GAS  /var/folders/l3/rwskfq612tq4b7hmtv37jkjw0000gp/T//ccx7lwMy.s 			page 84


 2314              		.loc 1 1474 20 view .LVU843
 2315 000a 20F00F00 		bic	r0, r0, #15
 2316              	.LVL127:
1477:Drivers/STM32H5xx_HAL_Driver/Src/stm32h5xx_hal_dma.c **** 
 2317              		.loc 1 1477 3 is_stmt 1 view .LVU844
1477:Drivers/STM32H5xx_HAL_Driver/Src/stm32h5xx_hal_dma.c **** 
 2318              		.loc 1 1477 25 is_stmt 0 view .LVU845
 2319 000e C3F30B03 		ubfx	r3, r3, #0, #12
 2320 0012 503B     		subs	r3, r3, #80
1477:Drivers/STM32H5xx_HAL_Driver/Src/stm32h5xx_hal_dma.c **** 
 2321              		.loc 1 1477 47 view .LVU846
 2322 0014 C3F3C413 		ubfx	r3, r3, #7, #5
1477:Drivers/STM32H5xx_HAL_Driver/Src/stm32h5xx_hal_dma.c **** 
 2323              		.loc 1 1477 15 view .LVU847
 2324 0018 0122     		movs	r2, #1
 2325 001a 02FA03F3 		lsl	r3, r2, r3
 2326              	.LVL128:
1480:Drivers/STM32H5xx_HAL_Driver/Src/stm32h5xx_hal_dma.c **** 
 2327              		.loc 1 1480 3 is_stmt 1 view .LVU848
1480:Drivers/STM32H5xx_HAL_Driver/Src/stm32h5xx_hal_dma.c **** 
 2328              		.loc 1 1480 32 is_stmt 0 view .LVU849
 2329 001e 4268     		ldr	r2, [r0, #4]
1480:Drivers/STM32H5xx_HAL_Driver/Src/stm32h5xx_hal_dma.c **** 
 2330              		.loc 1 1480 85 view .LVU850
 2331 0020 1A42     		tst	r2, r3
 2332 0022 03D1     		bne	.L151
1480:Drivers/STM32H5xx_HAL_Driver/Src/stm32h5xx_hal_dma.c **** 
 2333              		.loc 1 1480 85 discriminator 1 view .LVU851
 2334 0024 1023     		movs	r3, #16
 2335              	.LVL129:
 2336              	.L148:
1494:Drivers/STM32H5xx_HAL_Driver/Src/stm32h5xx_hal_dma.c **** 
 2337              		.loc 1 1494 3 is_stmt 1 view .LVU852
1494:Drivers/STM32H5xx_HAL_Driver/Src/stm32h5xx_hal_dma.c **** 
 2338              		.loc 1 1494 23 is_stmt 0 view .LVU853
 2339 0026 0B60     		str	r3, [r1]
 2340              	.LVL130:
1496:Drivers/STM32H5xx_HAL_Driver/Src/stm32h5xx_hal_dma.c **** }
 2341              		.loc 1 1496 3 is_stmt 1 view .LVU854
1496:Drivers/STM32H5xx_HAL_Driver/Src/stm32h5xx_hal_dma.c **** }
 2342              		.loc 1 1496 10 is_stmt 0 view .LVU855
 2343 0028 0020     		movs	r0, #0
 2344              	.LVL131:
1496:Drivers/STM32H5xx_HAL_Driver/Src/stm32h5xx_hal_dma.c **** }
 2345              		.loc 1 1496 10 view .LVU856
 2346 002a 7047     		bx	lr
 2347              	.LVL132:
 2348              	.L151:
1480:Drivers/STM32H5xx_HAL_Driver/Src/stm32h5xx_hal_dma.c **** 
 2349              		.loc 1 1480 85 discriminator 2 view .LVU857
 2350 002c 1123     		movs	r3, #17
 2351              	.LVL133:
1480:Drivers/STM32H5xx_HAL_Driver/Src/stm32h5xx_hal_dma.c **** 
 2352              		.loc 1 1480 85 discriminator 2 view .LVU858
 2353 002e FAE7     		b	.L148
 2354              	.LVL134:
 2355              	.L149:
ARM GAS  /var/folders/l3/rwskfq612tq4b7hmtv37jkjw0000gp/T//ccx7lwMy.s 			page 85


1470:Drivers/STM32H5xx_HAL_Driver/Src/stm32h5xx_hal_dma.c ****   }
 2356              		.loc 1 1470 12 view .LVU859
 2357 0030 0120     		movs	r0, #1
 2358              	.LVL135:
1470:Drivers/STM32H5xx_HAL_Driver/Src/stm32h5xx_hal_dma.c ****   }
 2359              		.loc 1 1470 12 view .LVU860
 2360 0032 7047     		bx	lr
 2361              	.LVL136:
 2362              	.L150:
1470:Drivers/STM32H5xx_HAL_Driver/Src/stm32h5xx_hal_dma.c ****   }
 2363              		.loc 1 1470 12 view .LVU861
 2364 0034 0120     		movs	r0, #1
 2365              	.LVL137:
1497:Drivers/STM32H5xx_HAL_Driver/Src/stm32h5xx_hal_dma.c **** 
 2366              		.loc 1 1497 1 view .LVU862
 2367 0036 7047     		bx	lr
 2368              		.cfi_endproc
 2369              	.LFE343:
 2371              		.text
 2372              	.Letext0:
 2373              		.file 2 "/opt/local/arm-none-eabi/include/machine/_default_types.h"
 2374              		.file 3 "/opt/local/arm-none-eabi/include/sys/_stdint.h"
 2375              		.file 4 "Drivers/CMSIS/Device/ST/STM32H5xx/Include/stm32h503xx.h"
 2376              		.file 5 "Drivers/STM32H5xx_HAL_Driver/Inc/stm32h5xx_hal_def.h"
 2377              		.file 6 "Drivers/STM32H5xx_HAL_Driver/Inc/stm32h5xx_hal_dma.h"
 2378              		.file 7 "Drivers/STM32H5xx_HAL_Driver/Inc/stm32h5xx_hal_dma_ex.h"
 2379              		.file 8 "Drivers/STM32H5xx_HAL_Driver/Inc/stm32h5xx_hal.h"
ARM GAS  /var/folders/l3/rwskfq612tq4b7hmtv37jkjw0000gp/T//ccx7lwMy.s 			page 86


DEFINED SYMBOLS
                            *ABS*:00000000 stm32h5xx_hal_dma.c
/var/folders/l3/rwskfq612tq4b7hmtv37jkjw0000gp/T//ccx7lwMy.s:22     .text.DMA_SetConfig:00000000 $t
/var/folders/l3/rwskfq612tq4b7hmtv37jkjw0000gp/T//ccx7lwMy.s:27     .text.DMA_SetConfig:00000000 DMA_SetConfig
/var/folders/l3/rwskfq612tq4b7hmtv37jkjw0000gp/T//ccx7lwMy.s:76     .text.DMA_Init:00000000 $t
/var/folders/l3/rwskfq612tq4b7hmtv37jkjw0000gp/T//ccx7lwMy.s:81     .text.DMA_Init:00000000 DMA_Init
/var/folders/l3/rwskfq612tq4b7hmtv37jkjw0000gp/T//ccx7lwMy.s:388    .text.DMA_Init:0000017c $d
/var/folders/l3/rwskfq612tq4b7hmtv37jkjw0000gp/T//ccx7lwMy.s:394    .text.HAL_DMA_Init:00000000 $t
/var/folders/l3/rwskfq612tq4b7hmtv37jkjw0000gp/T//ccx7lwMy.s:400    .text.HAL_DMA_Init:00000000 HAL_DMA_Init
/var/folders/l3/rwskfq612tq4b7hmtv37jkjw0000gp/T//ccx7lwMy.s:523    .text.HAL_DMA_DeInit:00000000 $t
/var/folders/l3/rwskfq612tq4b7hmtv37jkjw0000gp/T//ccx7lwMy.s:529    .text.HAL_DMA_DeInit:00000000 HAL_DMA_DeInit
/var/folders/l3/rwskfq612tq4b7hmtv37jkjw0000gp/T//ccx7lwMy.s:739    .text.HAL_DMA_DeInit:000000d4 $d
/var/folders/l3/rwskfq612tq4b7hmtv37jkjw0000gp/T//ccx7lwMy.s:744    .text.HAL_DMA_Start:00000000 $t
/var/folders/l3/rwskfq612tq4b7hmtv37jkjw0000gp/T//ccx7lwMy.s:750    .text.HAL_DMA_Start:00000000 HAL_DMA_Start
/var/folders/l3/rwskfq612tq4b7hmtv37jkjw0000gp/T//ccx7lwMy.s:856    .text.HAL_DMA_Start_IT:00000000 $t
/var/folders/l3/rwskfq612tq4b7hmtv37jkjw0000gp/T//ccx7lwMy.s:862    .text.HAL_DMA_Start_IT:00000000 HAL_DMA_Start_IT
/var/folders/l3/rwskfq612tq4b7hmtv37jkjw0000gp/T//ccx7lwMy.s:990    .text.HAL_DMA_Abort:00000000 $t
/var/folders/l3/rwskfq612tq4b7hmtv37jkjw0000gp/T//ccx7lwMy.s:996    .text.HAL_DMA_Abort:00000000 HAL_DMA_Abort
/var/folders/l3/rwskfq612tq4b7hmtv37jkjw0000gp/T//ccx7lwMy.s:1166   .text.HAL_DMA_Abort_IT:00000000 $t
/var/folders/l3/rwskfq612tq4b7hmtv37jkjw0000gp/T//ccx7lwMy.s:1172   .text.HAL_DMA_Abort_IT:00000000 HAL_DMA_Abort_IT
/var/folders/l3/rwskfq612tq4b7hmtv37jkjw0000gp/T//ccx7lwMy.s:1231   .text.HAL_DMA_PollForTransfer:00000000 $t
/var/folders/l3/rwskfq612tq4b7hmtv37jkjw0000gp/T//ccx7lwMy.s:1237   .text.HAL_DMA_PollForTransfer:00000000 HAL_DMA_PollForTransfer
/var/folders/l3/rwskfq612tq4b7hmtv37jkjw0000gp/T//ccx7lwMy.s:1547   .text.HAL_DMA_IRQHandler:00000000 $t
/var/folders/l3/rwskfq612tq4b7hmtv37jkjw0000gp/T//ccx7lwMy.s:1553   .text.HAL_DMA_IRQHandler:00000000 HAL_DMA_IRQHandler
/var/folders/l3/rwskfq612tq4b7hmtv37jkjw0000gp/T//ccx7lwMy.s:1931   .text.HAL_DMA_RegisterCallback:00000000 $t
/var/folders/l3/rwskfq612tq4b7hmtv37jkjw0000gp/T//ccx7lwMy.s:1937   .text.HAL_DMA_RegisterCallback:00000000 HAL_DMA_RegisterCallback
/var/folders/l3/rwskfq612tq4b7hmtv37jkjw0000gp/T//ccx7lwMy.s:1971   .text.HAL_DMA_RegisterCallback:0000001a $d
/var/folders/l3/rwskfq612tq4b7hmtv37jkjw0000gp/T//ccx7lwMy.s:2033   .text.HAL_DMA_UnRegisterCallback:00000000 $t
/var/folders/l3/rwskfq612tq4b7hmtv37jkjw0000gp/T//ccx7lwMy.s:2039   .text.HAL_DMA_UnRegisterCallback:00000000 HAL_DMA_UnRegisterCallback
/var/folders/l3/rwskfq612tq4b7hmtv37jkjw0000gp/T//ccx7lwMy.s:2073   .text.HAL_DMA_UnRegisterCallback:0000001a $d
/var/folders/l3/rwskfq612tq4b7hmtv37jkjw0000gp/T//ccx7lwMy.s:2079   .text.HAL_DMA_UnRegisterCallback:00000020 $t
/var/folders/l3/rwskfq612tq4b7hmtv37jkjw0000gp/T//ccx7lwMy.s:2148   .text.HAL_DMA_GetState:00000000 $t
/var/folders/l3/rwskfq612tq4b7hmtv37jkjw0000gp/T//ccx7lwMy.s:2154   .text.HAL_DMA_GetState:00000000 HAL_DMA_GetState
/var/folders/l3/rwskfq612tq4b7hmtv37jkjw0000gp/T//ccx7lwMy.s:2172   .text.HAL_DMA_GetError:00000000 $t
/var/folders/l3/rwskfq612tq4b7hmtv37jkjw0000gp/T//ccx7lwMy.s:2178   .text.HAL_DMA_GetError:00000000 HAL_DMA_GetError
/var/folders/l3/rwskfq612tq4b7hmtv37jkjw0000gp/T//ccx7lwMy.s:2196   .text.HAL_DMA_ConfigChannelAttributes:00000000 $t
/var/folders/l3/rwskfq612tq4b7hmtv37jkjw0000gp/T//ccx7lwMy.s:2202   .text.HAL_DMA_ConfigChannelAttributes:00000000 HAL_DMA_ConfigChannelAttributes
/var/folders/l3/rwskfq612tq4b7hmtv37jkjw0000gp/T//ccx7lwMy.s:2287   .text.HAL_DMA_GetConfigChannelAttributes:00000000 $t
/var/folders/l3/rwskfq612tq4b7hmtv37jkjw0000gp/T//ccx7lwMy.s:2293   .text.HAL_DMA_GetConfigChannelAttributes:00000000 HAL_DMA_GetConfigChannelAttributes
/var/folders/l3/rwskfq612tq4b7hmtv37jkjw0000gp/T//ccx7lwMy.s:1976   .text.HAL_DMA_RegisterCallback:0000001f $d
/var/folders/l3/rwskfq612tq4b7hmtv37jkjw0000gp/T//ccx7lwMy.s:1976   .text.HAL_DMA_RegisterCallback:00000020 $t

UNDEFINED SYMBOLS
HAL_GetTick
