ARM GAS  /var/folders/l3/rwskfq612tq4b7hmtv37jkjw0000gp/T//cctyv2t7.s 			page 1


   1              		.cpu cortex-m33
   2              		.arch armv8-m.main
   3              		.fpu fpv4-sp-d16
   4              		.arch_extension dsp
   5              		.eabi_attribute 27, 1
   6              		.eabi_attribute 28, 1
   7              		.eabi_attribute 20, 1
   8              		.eabi_attribute 21, 1
   9              		.eabi_attribute 23, 3
  10              		.eabi_attribute 24, 1
  11              		.eabi_attribute 25, 1
  12              		.eabi_attribute 26, 1
  13              		.eabi_attribute 30, 1
  14              		.eabi_attribute 34, 1
  15              		.eabi_attribute 18, 4
  16              		.file	"stm32h5xx_hal_gpio.c"
  17              		.text
  18              	.Ltext0:
  19              		.cfi_sections	.debug_frame
  20              		.file 1 "Drivers/STM32H5xx_HAL_Driver/Src/stm32h5xx_hal_gpio.c"
  21              		.section	.text.HAL_GPIO_Init,"ax",%progbits
  22              		.align	1
  23              		.global	HAL_GPIO_Init
  24              		.syntax unified
  25              		.thumb
  26              		.thumb_func
  28              	HAL_GPIO_Init:
  29              	.LVL0:
  30              	.LFB330:
   1:Drivers/STM32H5xx_HAL_Driver/Src/stm32h5xx_hal_gpio.c **** /**
   2:Drivers/STM32H5xx_HAL_Driver/Src/stm32h5xx_hal_gpio.c ****   ******************************************************************************
   3:Drivers/STM32H5xx_HAL_Driver/Src/stm32h5xx_hal_gpio.c ****   * @file    stm32h5xx_hal_gpio.c
   4:Drivers/STM32H5xx_HAL_Driver/Src/stm32h5xx_hal_gpio.c ****   * @author  MCD Application Team
   5:Drivers/STM32H5xx_HAL_Driver/Src/stm32h5xx_hal_gpio.c ****   * @brief   GPIO HAL module driver.
   6:Drivers/STM32H5xx_HAL_Driver/Src/stm32h5xx_hal_gpio.c ****   *          This file provides firmware functions to manage the following
   7:Drivers/STM32H5xx_HAL_Driver/Src/stm32h5xx_hal_gpio.c ****   *          functionalities of the General Purpose Input/Output (GPIO) peripheral:
   8:Drivers/STM32H5xx_HAL_Driver/Src/stm32h5xx_hal_gpio.c ****   *           + Initialization and de-initialization functions
   9:Drivers/STM32H5xx_HAL_Driver/Src/stm32h5xx_hal_gpio.c ****   *           + IO operation functions
  10:Drivers/STM32H5xx_HAL_Driver/Src/stm32h5xx_hal_gpio.c ****   ******************************************************************************
  11:Drivers/STM32H5xx_HAL_Driver/Src/stm32h5xx_hal_gpio.c ****   * @attention
  12:Drivers/STM32H5xx_HAL_Driver/Src/stm32h5xx_hal_gpio.c ****   *
  13:Drivers/STM32H5xx_HAL_Driver/Src/stm32h5xx_hal_gpio.c ****   * Copyright (c) 2023 STMicroelectronics.
  14:Drivers/STM32H5xx_HAL_Driver/Src/stm32h5xx_hal_gpio.c ****   * All rights reserved.
  15:Drivers/STM32H5xx_HAL_Driver/Src/stm32h5xx_hal_gpio.c ****   *
  16:Drivers/STM32H5xx_HAL_Driver/Src/stm32h5xx_hal_gpio.c ****   * This software is licensed under terms that can be found in the LICENSE file
  17:Drivers/STM32H5xx_HAL_Driver/Src/stm32h5xx_hal_gpio.c ****   * in the root directory of this software component.
  18:Drivers/STM32H5xx_HAL_Driver/Src/stm32h5xx_hal_gpio.c ****   * If no LICENSE file comes with this software, it is provided AS-IS.
  19:Drivers/STM32H5xx_HAL_Driver/Src/stm32h5xx_hal_gpio.c ****   *
  20:Drivers/STM32H5xx_HAL_Driver/Src/stm32h5xx_hal_gpio.c ****   ******************************************************************************
  21:Drivers/STM32H5xx_HAL_Driver/Src/stm32h5xx_hal_gpio.c ****   @verbatim
  22:Drivers/STM32H5xx_HAL_Driver/Src/stm32h5xx_hal_gpio.c ****   ==============================================================================
  23:Drivers/STM32H5xx_HAL_Driver/Src/stm32h5xx_hal_gpio.c ****                     ##### GPIO Peripheral features #####
  24:Drivers/STM32H5xx_HAL_Driver/Src/stm32h5xx_hal_gpio.c ****   ==============================================================================
  25:Drivers/STM32H5xx_HAL_Driver/Src/stm32h5xx_hal_gpio.c ****   [..]
  26:Drivers/STM32H5xx_HAL_Driver/Src/stm32h5xx_hal_gpio.c ****     (+) Each port bit of the general-purpose I/O (GPIO) ports can be individually
  27:Drivers/STM32H5xx_HAL_Driver/Src/stm32h5xx_hal_gpio.c ****         configured by software in several modes:
  28:Drivers/STM32H5xx_HAL_Driver/Src/stm32h5xx_hal_gpio.c ****         (++) Input mode
ARM GAS  /var/folders/l3/rwskfq612tq4b7hmtv37jkjw0000gp/T//cctyv2t7.s 			page 2


  29:Drivers/STM32H5xx_HAL_Driver/Src/stm32h5xx_hal_gpio.c ****         (++) Analog mode
  30:Drivers/STM32H5xx_HAL_Driver/Src/stm32h5xx_hal_gpio.c ****         (++) Output mode
  31:Drivers/STM32H5xx_HAL_Driver/Src/stm32h5xx_hal_gpio.c ****         (++) Alternate function mode
  32:Drivers/STM32H5xx_HAL_Driver/Src/stm32h5xx_hal_gpio.c ****         (++) External interrupt/event lines
  33:Drivers/STM32H5xx_HAL_Driver/Src/stm32h5xx_hal_gpio.c **** 
  34:Drivers/STM32H5xx_HAL_Driver/Src/stm32h5xx_hal_gpio.c ****     (+) During and just after reset, the alternate functions and external interrupt
  35:Drivers/STM32H5xx_HAL_Driver/Src/stm32h5xx_hal_gpio.c ****         lines are not active and the I/O ports are configured in input floating mode.
  36:Drivers/STM32H5xx_HAL_Driver/Src/stm32h5xx_hal_gpio.c **** 
  37:Drivers/STM32H5xx_HAL_Driver/Src/stm32h5xx_hal_gpio.c ****     (+) All GPIO pins have weak internal pull-up and pull-down resistors, which can be
  38:Drivers/STM32H5xx_HAL_Driver/Src/stm32h5xx_hal_gpio.c ****         activated or not.
  39:Drivers/STM32H5xx_HAL_Driver/Src/stm32h5xx_hal_gpio.c **** 
  40:Drivers/STM32H5xx_HAL_Driver/Src/stm32h5xx_hal_gpio.c ****     (+) In Output or Alternate mode, each IO can be configured on open-drain or push-pull
  41:Drivers/STM32H5xx_HAL_Driver/Src/stm32h5xx_hal_gpio.c ****         type and the IO speed can be selected depending on the VDD value.
  42:Drivers/STM32H5xx_HAL_Driver/Src/stm32h5xx_hal_gpio.c **** 
  43:Drivers/STM32H5xx_HAL_Driver/Src/stm32h5xx_hal_gpio.c ****     (+) The microcontroller IO pins are connected to onboard peripherals/modules through a
  44:Drivers/STM32H5xx_HAL_Driver/Src/stm32h5xx_hal_gpio.c ****         multiplexer that allows only one peripheral alternate function (AF) connected
  45:Drivers/STM32H5xx_HAL_Driver/Src/stm32h5xx_hal_gpio.c ****        to an IO pin at a time. In this way, there can be no conflict between peripherals
  46:Drivers/STM32H5xx_HAL_Driver/Src/stm32h5xx_hal_gpio.c ****        sharing the same IO pin.
  47:Drivers/STM32H5xx_HAL_Driver/Src/stm32h5xx_hal_gpio.c **** 
  48:Drivers/STM32H5xx_HAL_Driver/Src/stm32h5xx_hal_gpio.c ****     (+) All ports have external interrupt/event capability. To use external interrupt
  49:Drivers/STM32H5xx_HAL_Driver/Src/stm32h5xx_hal_gpio.c ****         lines, the port must be configured in input mode. All available GPIO pins are
  50:Drivers/STM32H5xx_HAL_Driver/Src/stm32h5xx_hal_gpio.c ****         connected to the 16 external interrupt/event lines from EXTI0 to EXTI15.
  51:Drivers/STM32H5xx_HAL_Driver/Src/stm32h5xx_hal_gpio.c **** 
  52:Drivers/STM32H5xx_HAL_Driver/Src/stm32h5xx_hal_gpio.c ****     (+) The external interrupt/event controller consists of up to 39 edge detectors
  53:Drivers/STM32H5xx_HAL_Driver/Src/stm32h5xx_hal_gpio.c ****         (16 lines are connected to GPIO) for generating event/interrupt requests (each
  54:Drivers/STM32H5xx_HAL_Driver/Src/stm32h5xx_hal_gpio.c ****         input line can be independently configured to select the type (interrupt or event)
  55:Drivers/STM32H5xx_HAL_Driver/Src/stm32h5xx_hal_gpio.c ****         and the corresponding trigger event (rising or falling or both). Each line can
  56:Drivers/STM32H5xx_HAL_Driver/Src/stm32h5xx_hal_gpio.c ****         also be masked independently.
  57:Drivers/STM32H5xx_HAL_Driver/Src/stm32h5xx_hal_gpio.c **** 
  58:Drivers/STM32H5xx_HAL_Driver/Src/stm32h5xx_hal_gpio.c ****                      ##### How to use this driver #####
  59:Drivers/STM32H5xx_HAL_Driver/Src/stm32h5xx_hal_gpio.c ****   ==============================================================================
  60:Drivers/STM32H5xx_HAL_Driver/Src/stm32h5xx_hal_gpio.c ****   [..]
  61:Drivers/STM32H5xx_HAL_Driver/Src/stm32h5xx_hal_gpio.c ****     (#) Enable the GPIO AHB clock using the following function: __HAL_RCC_GPIOx_CLK_ENABLE().
  62:Drivers/STM32H5xx_HAL_Driver/Src/stm32h5xx_hal_gpio.c **** 
  63:Drivers/STM32H5xx_HAL_Driver/Src/stm32h5xx_hal_gpio.c ****     (#) Configure the GPIO pin(s) using HAL_GPIO_Init().
  64:Drivers/STM32H5xx_HAL_Driver/Src/stm32h5xx_hal_gpio.c ****         (++) Configure the IO mode using "Mode" member from GPIO_InitTypeDef structure
  65:Drivers/STM32H5xx_HAL_Driver/Src/stm32h5xx_hal_gpio.c ****         (++) Activate Pull-up, Pull-down resistor using "Pull" member from GPIO_InitTypeDef
  66:Drivers/STM32H5xx_HAL_Driver/Src/stm32h5xx_hal_gpio.c ****              structure.
  67:Drivers/STM32H5xx_HAL_Driver/Src/stm32h5xx_hal_gpio.c ****         (++) In case of Output or alternate function mode selection: the speed is
  68:Drivers/STM32H5xx_HAL_Driver/Src/stm32h5xx_hal_gpio.c ****              configured through "Speed" member from GPIO_InitTypeDef structure.
  69:Drivers/STM32H5xx_HAL_Driver/Src/stm32h5xx_hal_gpio.c ****         (++) In alternate mode is selection, the alternate function connected to the IO
  70:Drivers/STM32H5xx_HAL_Driver/Src/stm32h5xx_hal_gpio.c ****              is configured through "Alternate" member from GPIO_InitTypeDef structure.
  71:Drivers/STM32H5xx_HAL_Driver/Src/stm32h5xx_hal_gpio.c ****         (++) Analog mode is required when a pin is to be used as ADC channel
  72:Drivers/STM32H5xx_HAL_Driver/Src/stm32h5xx_hal_gpio.c ****              or DAC output.
  73:Drivers/STM32H5xx_HAL_Driver/Src/stm32h5xx_hal_gpio.c ****         (++) In case of external interrupt/event selection the "Mode" member from
  74:Drivers/STM32H5xx_HAL_Driver/Src/stm32h5xx_hal_gpio.c ****              GPIO_InitTypeDef structure select the type (interrupt or event) and
  75:Drivers/STM32H5xx_HAL_Driver/Src/stm32h5xx_hal_gpio.c ****              the corresponding trigger event (rising or falling or both).
  76:Drivers/STM32H5xx_HAL_Driver/Src/stm32h5xx_hal_gpio.c **** 
  77:Drivers/STM32H5xx_HAL_Driver/Src/stm32h5xx_hal_gpio.c ****     (#) In case of external interrupt/event mode selection, configure NVIC IRQ priority
  78:Drivers/STM32H5xx_HAL_Driver/Src/stm32h5xx_hal_gpio.c ****         mapped to the EXTI line using HAL_NVIC_SetPriority() and enable it using
  79:Drivers/STM32H5xx_HAL_Driver/Src/stm32h5xx_hal_gpio.c ****         HAL_NVIC_EnableIRQ().
  80:Drivers/STM32H5xx_HAL_Driver/Src/stm32h5xx_hal_gpio.c **** 
  81:Drivers/STM32H5xx_HAL_Driver/Src/stm32h5xx_hal_gpio.c ****     (#) To get the level of a pin configured in input mode use HAL_GPIO_ReadPin().
  82:Drivers/STM32H5xx_HAL_Driver/Src/stm32h5xx_hal_gpio.c **** 
  83:Drivers/STM32H5xx_HAL_Driver/Src/stm32h5xx_hal_gpio.c ****     (#) To set/reset the level of a pin configured in output mode use
  84:Drivers/STM32H5xx_HAL_Driver/Src/stm32h5xx_hal_gpio.c ****         HAL_GPIO_WritePin()/HAL_GPIO_TogglePin().
  85:Drivers/STM32H5xx_HAL_Driver/Src/stm32h5xx_hal_gpio.c **** 
ARM GAS  /var/folders/l3/rwskfq612tq4b7hmtv37jkjw0000gp/T//cctyv2t7.s 			page 3


  86:Drivers/STM32H5xx_HAL_Driver/Src/stm32h5xx_hal_gpio.c ****     (#) To set the level of several pins and reset level of several other pins in
  87:Drivers/STM32H5xx_HAL_Driver/Src/stm32h5xx_hal_gpio.c ****         same cycle, use HAL_GPIO_WriteMultipleStatePin().
  88:Drivers/STM32H5xx_HAL_Driver/Src/stm32h5xx_hal_gpio.c **** 
  89:Drivers/STM32H5xx_HAL_Driver/Src/stm32h5xx_hal_gpio.c ****    (#) To lock pin configuration until next reset use HAL_GPIO_LockPin().
  90:Drivers/STM32H5xx_HAL_Driver/Src/stm32h5xx_hal_gpio.c **** 
  91:Drivers/STM32H5xx_HAL_Driver/Src/stm32h5xx_hal_gpio.c ****     (#) During and just after reset, the alternate functions are not
  92:Drivers/STM32H5xx_HAL_Driver/Src/stm32h5xx_hal_gpio.c ****         active and the GPIO pins are configured in input floating mode (except JTAG
  93:Drivers/STM32H5xx_HAL_Driver/Src/stm32h5xx_hal_gpio.c ****         pins).
  94:Drivers/STM32H5xx_HAL_Driver/Src/stm32h5xx_hal_gpio.c **** 
  95:Drivers/STM32H5xx_HAL_Driver/Src/stm32h5xx_hal_gpio.c ****     (#) The LSE oscillator pins OSC32_IN and OSC32_OUT can be used as general purpose
  96:Drivers/STM32H5xx_HAL_Driver/Src/stm32h5xx_hal_gpio.c ****         (PC14 and PC15, respectively) when the LSE oscillator is off. The LSE has
  97:Drivers/STM32H5xx_HAL_Driver/Src/stm32h5xx_hal_gpio.c ****         priority over the GPIO function.
  98:Drivers/STM32H5xx_HAL_Driver/Src/stm32h5xx_hal_gpio.c **** 
  99:Drivers/STM32H5xx_HAL_Driver/Src/stm32h5xx_hal_gpio.c ****     (#) The HSE oscillator pins OSC_IN/OSC_OUT can be used as
 100:Drivers/STM32H5xx_HAL_Driver/Src/stm32h5xx_hal_gpio.c ****         general purpose PH0 and PH1, respectively, when the HSE oscillator is off.
 101:Drivers/STM32H5xx_HAL_Driver/Src/stm32h5xx_hal_gpio.c ****         The HSE has priority over the GPIO function.
 102:Drivers/STM32H5xx_HAL_Driver/Src/stm32h5xx_hal_gpio.c **** 
 103:Drivers/STM32H5xx_HAL_Driver/Src/stm32h5xx_hal_gpio.c ****   @endverbatim
 104:Drivers/STM32H5xx_HAL_Driver/Src/stm32h5xx_hal_gpio.c ****   ******************************************************************************
 105:Drivers/STM32H5xx_HAL_Driver/Src/stm32h5xx_hal_gpio.c ****   */
 106:Drivers/STM32H5xx_HAL_Driver/Src/stm32h5xx_hal_gpio.c **** 
 107:Drivers/STM32H5xx_HAL_Driver/Src/stm32h5xx_hal_gpio.c **** /* Includes ------------------------------------------------------------------*/
 108:Drivers/STM32H5xx_HAL_Driver/Src/stm32h5xx_hal_gpio.c **** #include "stm32h5xx_hal.h"
 109:Drivers/STM32H5xx_HAL_Driver/Src/stm32h5xx_hal_gpio.c **** 
 110:Drivers/STM32H5xx_HAL_Driver/Src/stm32h5xx_hal_gpio.c **** /** @addtogroup STM32H5xx_HAL_Driver
 111:Drivers/STM32H5xx_HAL_Driver/Src/stm32h5xx_hal_gpio.c ****   * @{
 112:Drivers/STM32H5xx_HAL_Driver/Src/stm32h5xx_hal_gpio.c ****   */
 113:Drivers/STM32H5xx_HAL_Driver/Src/stm32h5xx_hal_gpio.c **** 
 114:Drivers/STM32H5xx_HAL_Driver/Src/stm32h5xx_hal_gpio.c **** /** @defgroup GPIO GPIO
 115:Drivers/STM32H5xx_HAL_Driver/Src/stm32h5xx_hal_gpio.c ****   * @brief GPIO HAL module driver
 116:Drivers/STM32H5xx_HAL_Driver/Src/stm32h5xx_hal_gpio.c ****   * @{
 117:Drivers/STM32H5xx_HAL_Driver/Src/stm32h5xx_hal_gpio.c ****   */
 118:Drivers/STM32H5xx_HAL_Driver/Src/stm32h5xx_hal_gpio.c **** 
 119:Drivers/STM32H5xx_HAL_Driver/Src/stm32h5xx_hal_gpio.c **** #ifdef HAL_GPIO_MODULE_ENABLED
 120:Drivers/STM32H5xx_HAL_Driver/Src/stm32h5xx_hal_gpio.c **** 
 121:Drivers/STM32H5xx_HAL_Driver/Src/stm32h5xx_hal_gpio.c **** /* Private typedef -----------------------------------------------------------*/
 122:Drivers/STM32H5xx_HAL_Driver/Src/stm32h5xx_hal_gpio.c **** /* Private defines -----------------------------------------------------------*/
 123:Drivers/STM32H5xx_HAL_Driver/Src/stm32h5xx_hal_gpio.c **** /** @defgroup GPIO_Private_Defines GPIO Private Defines
 124:Drivers/STM32H5xx_HAL_Driver/Src/stm32h5xx_hal_gpio.c ****   * @{
 125:Drivers/STM32H5xx_HAL_Driver/Src/stm32h5xx_hal_gpio.c ****   */
 126:Drivers/STM32H5xx_HAL_Driver/Src/stm32h5xx_hal_gpio.c **** #define GPIO_MODE             (0x00000003U)
 127:Drivers/STM32H5xx_HAL_Driver/Src/stm32h5xx_hal_gpio.c **** #define EXTI_MODE             (0x10000000U)
 128:Drivers/STM32H5xx_HAL_Driver/Src/stm32h5xx_hal_gpio.c **** #define GPIO_MODE_IT          (0x00010000U)
 129:Drivers/STM32H5xx_HAL_Driver/Src/stm32h5xx_hal_gpio.c **** #define GPIO_MODE_EVT         (0x00020000U)
 130:Drivers/STM32H5xx_HAL_Driver/Src/stm32h5xx_hal_gpio.c **** #define RISING_EDGE           (0x00100000U)
 131:Drivers/STM32H5xx_HAL_Driver/Src/stm32h5xx_hal_gpio.c **** #define FALLING_EDGE          (0x00200000U)
 132:Drivers/STM32H5xx_HAL_Driver/Src/stm32h5xx_hal_gpio.c **** #define GPIO_OUTPUT_TYPE      (0x00000010U)
 133:Drivers/STM32H5xx_HAL_Driver/Src/stm32h5xx_hal_gpio.c **** #define GPIO_NUMBER           (16U)
 134:Drivers/STM32H5xx_HAL_Driver/Src/stm32h5xx_hal_gpio.c **** 
 135:Drivers/STM32H5xx_HAL_Driver/Src/stm32h5xx_hal_gpio.c **** /**
 136:Drivers/STM32H5xx_HAL_Driver/Src/stm32h5xx_hal_gpio.c ****   * @}
 137:Drivers/STM32H5xx_HAL_Driver/Src/stm32h5xx_hal_gpio.c ****   */
 138:Drivers/STM32H5xx_HAL_Driver/Src/stm32h5xx_hal_gpio.c **** 
 139:Drivers/STM32H5xx_HAL_Driver/Src/stm32h5xx_hal_gpio.c **** /* Private macros ------------------------------------------------------------*/
 140:Drivers/STM32H5xx_HAL_Driver/Src/stm32h5xx_hal_gpio.c **** /* Private variables ---------------------------------------------------------*/
 141:Drivers/STM32H5xx_HAL_Driver/Src/stm32h5xx_hal_gpio.c **** /** @defgroup GPIO_Private_Macros GPIO Private Macros
 142:Drivers/STM32H5xx_HAL_Driver/Src/stm32h5xx_hal_gpio.c ****   * @{
ARM GAS  /var/folders/l3/rwskfq612tq4b7hmtv37jkjw0000gp/T//cctyv2t7.s 			page 4


 143:Drivers/STM32H5xx_HAL_Driver/Src/stm32h5xx_hal_gpio.c ****   */
 144:Drivers/STM32H5xx_HAL_Driver/Src/stm32h5xx_hal_gpio.c **** /**
 145:Drivers/STM32H5xx_HAL_Driver/Src/stm32h5xx_hal_gpio.c ****   * @}
 146:Drivers/STM32H5xx_HAL_Driver/Src/stm32h5xx_hal_gpio.c ****   */
 147:Drivers/STM32H5xx_HAL_Driver/Src/stm32h5xx_hal_gpio.c **** 
 148:Drivers/STM32H5xx_HAL_Driver/Src/stm32h5xx_hal_gpio.c **** /* Private function prototypes -----------------------------------------------*/
 149:Drivers/STM32H5xx_HAL_Driver/Src/stm32h5xx_hal_gpio.c **** /* Exported functions --------------------------------------------------------*/
 150:Drivers/STM32H5xx_HAL_Driver/Src/stm32h5xx_hal_gpio.c **** 
 151:Drivers/STM32H5xx_HAL_Driver/Src/stm32h5xx_hal_gpio.c **** /** @defgroup GPIO_Exported_Functions GPIO Exported Functions
 152:Drivers/STM32H5xx_HAL_Driver/Src/stm32h5xx_hal_gpio.c ****   * @{
 153:Drivers/STM32H5xx_HAL_Driver/Src/stm32h5xx_hal_gpio.c ****   */
 154:Drivers/STM32H5xx_HAL_Driver/Src/stm32h5xx_hal_gpio.c **** 
 155:Drivers/STM32H5xx_HAL_Driver/Src/stm32h5xx_hal_gpio.c **** /** @defgroup GPIO_Exported_Functions_Group1 Initialization/de-initialization functions
 156:Drivers/STM32H5xx_HAL_Driver/Src/stm32h5xx_hal_gpio.c ****   *  @brief    Initialization and Configuration functions
 157:Drivers/STM32H5xx_HAL_Driver/Src/stm32h5xx_hal_gpio.c ****   *
 158:Drivers/STM32H5xx_HAL_Driver/Src/stm32h5xx_hal_gpio.c **** @verbatim
 159:Drivers/STM32H5xx_HAL_Driver/Src/stm32h5xx_hal_gpio.c ****  ===============================================================================
 160:Drivers/STM32H5xx_HAL_Driver/Src/stm32h5xx_hal_gpio.c ****               ##### Initialization and de-initialization functions #####
 161:Drivers/STM32H5xx_HAL_Driver/Src/stm32h5xx_hal_gpio.c ****  ===============================================================================
 162:Drivers/STM32H5xx_HAL_Driver/Src/stm32h5xx_hal_gpio.c **** 
 163:Drivers/STM32H5xx_HAL_Driver/Src/stm32h5xx_hal_gpio.c **** @endverbatim
 164:Drivers/STM32H5xx_HAL_Driver/Src/stm32h5xx_hal_gpio.c ****   * @{
 165:Drivers/STM32H5xx_HAL_Driver/Src/stm32h5xx_hal_gpio.c ****   */
 166:Drivers/STM32H5xx_HAL_Driver/Src/stm32h5xx_hal_gpio.c **** 
 167:Drivers/STM32H5xx_HAL_Driver/Src/stm32h5xx_hal_gpio.c **** /**
 168:Drivers/STM32H5xx_HAL_Driver/Src/stm32h5xx_hal_gpio.c ****   * @brief  Initialize the GPIOx peripheral according to the specified parameters in the pGPIO_Init
 169:Drivers/STM32H5xx_HAL_Driver/Src/stm32h5xx_hal_gpio.c ****   * @note   If GPIOx peripheral pin is used in EXTI_MODE and the pin is secure in case
 170:Drivers/STM32H5xx_HAL_Driver/Src/stm32h5xx_hal_gpio.c ****   *         the system implements the security (TZEN=1), it is up to the secure application to
 171:Drivers/STM32H5xx_HAL_Driver/Src/stm32h5xx_hal_gpio.c ****   *         insure that the corresponding EXTI line is set secure.
 172:Drivers/STM32H5xx_HAL_Driver/Src/stm32h5xx_hal_gpio.c ****   * @param  GPIOx: where x can be (A..I) for stm32h56xxx and stm32h57xxx family lines and
 173:Drivers/STM32H5xx_HAL_Driver/Src/stm32h5xx_hal_gpio.c ****   *         (A..D or H) for stm32h503xx family line to select the GPIO peripheral for STM32H5 famil
 174:Drivers/STM32H5xx_HAL_Driver/Src/stm32h5xx_hal_gpio.c ****   * @param  pGPIO_Init: pointer to a GPIO_InitTypeDef structure that contains
 175:Drivers/STM32H5xx_HAL_Driver/Src/stm32h5xx_hal_gpio.c ****   *         the configuration information for the specified GPIO peripheral.
 176:Drivers/STM32H5xx_HAL_Driver/Src/stm32h5xx_hal_gpio.c ****   * @retval None
 177:Drivers/STM32H5xx_HAL_Driver/Src/stm32h5xx_hal_gpio.c ****   */
 178:Drivers/STM32H5xx_HAL_Driver/Src/stm32h5xx_hal_gpio.c **** void HAL_GPIO_Init(GPIO_TypeDef  *GPIOx, const GPIO_InitTypeDef *pGPIO_Init)
 179:Drivers/STM32H5xx_HAL_Driver/Src/stm32h5xx_hal_gpio.c **** {
  31              		.loc 1 179 1 view -0
  32              		.cfi_startproc
  33              		@ args = 0, pretend = 0, frame = 0
  34              		@ frame_needed = 0, uses_anonymous_args = 0
  35              		.loc 1 179 1 is_stmt 0 view .LVU1
  36 0000 F0B5     		push	{r4, r5, r6, r7, lr}
  37              	.LCFI0:
  38              		.cfi_def_cfa_offset 20
  39              		.cfi_offset 4, -20
  40              		.cfi_offset 5, -16
  41              		.cfi_offset 6, -12
  42              		.cfi_offset 7, -8
  43              		.cfi_offset 14, -4
 180:Drivers/STM32H5xx_HAL_Driver/Src/stm32h5xx_hal_gpio.c ****   uint32_t tmp;
  44              		.loc 1 180 3 is_stmt 1 view .LVU2
 181:Drivers/STM32H5xx_HAL_Driver/Src/stm32h5xx_hal_gpio.c ****   uint32_t iocurrent;
  45              		.loc 1 181 3 view .LVU3
 182:Drivers/STM32H5xx_HAL_Driver/Src/stm32h5xx_hal_gpio.c ****   uint32_t position = 0U;
  46              		.loc 1 182 3 view .LVU4
  47              	.LVL1:
ARM GAS  /var/folders/l3/rwskfq612tq4b7hmtv37jkjw0000gp/T//cctyv2t7.s 			page 5


 183:Drivers/STM32H5xx_HAL_Driver/Src/stm32h5xx_hal_gpio.c **** 
 184:Drivers/STM32H5xx_HAL_Driver/Src/stm32h5xx_hal_gpio.c **** 
 185:Drivers/STM32H5xx_HAL_Driver/Src/stm32h5xx_hal_gpio.c ****   /* Check the parameters */
 186:Drivers/STM32H5xx_HAL_Driver/Src/stm32h5xx_hal_gpio.c ****   assert_param(IS_GPIO_ALL_INSTANCE(GPIOx));
  48              		.loc 1 186 3 view .LVU5
 187:Drivers/STM32H5xx_HAL_Driver/Src/stm32h5xx_hal_gpio.c ****   assert_param(IS_GPIO_PIN(pGPIO_Init->Pin));
  49              		.loc 1 187 3 view .LVU6
 188:Drivers/STM32H5xx_HAL_Driver/Src/stm32h5xx_hal_gpio.c ****   assert_param(IS_GPIO_MODE(pGPIO_Init->Mode));
  50              		.loc 1 188 3 view .LVU7
 189:Drivers/STM32H5xx_HAL_Driver/Src/stm32h5xx_hal_gpio.c ****   assert_param(IS_GPIO_PULL(pGPIO_Init->Pull));
  51              		.loc 1 189 3 view .LVU8
 190:Drivers/STM32H5xx_HAL_Driver/Src/stm32h5xx_hal_gpio.c **** 
 191:Drivers/STM32H5xx_HAL_Driver/Src/stm32h5xx_hal_gpio.c ****   /* Configure the port pins */
 192:Drivers/STM32H5xx_HAL_Driver/Src/stm32h5xx_hal_gpio.c ****   while (((pGPIO_Init->Pin) >> position) != 0U)
  52              		.loc 1 192 3 view .LVU9
 182:Drivers/STM32H5xx_HAL_Driver/Src/stm32h5xx_hal_gpio.c **** 
  53              		.loc 1 182 12 is_stmt 0 view .LVU10
  54 0002 0022     		movs	r2, #0
  55              		.loc 1 192 9 view .LVU11
  56 0004 64E0     		b	.L2
  57              	.LVL2:
  58              	.L6:
 193:Drivers/STM32H5xx_HAL_Driver/Src/stm32h5xx_hal_gpio.c ****   {
 194:Drivers/STM32H5xx_HAL_Driver/Src/stm32h5xx_hal_gpio.c ****     /* Get current io position */
 195:Drivers/STM32H5xx_HAL_Driver/Src/stm32h5xx_hal_gpio.c ****     iocurrent = (pGPIO_Init->Pin) & (1UL << position);
 196:Drivers/STM32H5xx_HAL_Driver/Src/stm32h5xx_hal_gpio.c **** 
 197:Drivers/STM32H5xx_HAL_Driver/Src/stm32h5xx_hal_gpio.c ****     if (iocurrent != 0U)
 198:Drivers/STM32H5xx_HAL_Driver/Src/stm32h5xx_hal_gpio.c ****     {
 199:Drivers/STM32H5xx_HAL_Driver/Src/stm32h5xx_hal_gpio.c ****       /*--------------------- GPIO Mode Configuration ------------------------*/
 200:Drivers/STM32H5xx_HAL_Driver/Src/stm32h5xx_hal_gpio.c ****       /* In case of Alternate function mode selection */
 201:Drivers/STM32H5xx_HAL_Driver/Src/stm32h5xx_hal_gpio.c ****       if ((pGPIO_Init->Mode == GPIO_MODE_AF_PP) || (pGPIO_Init->Mode == GPIO_MODE_AF_OD))
 202:Drivers/STM32H5xx_HAL_Driver/Src/stm32h5xx_hal_gpio.c ****       {
 203:Drivers/STM32H5xx_HAL_Driver/Src/stm32h5xx_hal_gpio.c ****         /* Check the Alternate function parameters */
 204:Drivers/STM32H5xx_HAL_Driver/Src/stm32h5xx_hal_gpio.c ****         assert_param(IS_GPIO_AF_INSTANCE(GPIOx));
 205:Drivers/STM32H5xx_HAL_Driver/Src/stm32h5xx_hal_gpio.c ****         assert_param(IS_GPIO_AF(pGPIO_Init->Alternate));
 206:Drivers/STM32H5xx_HAL_Driver/Src/stm32h5xx_hal_gpio.c **** 
 207:Drivers/STM32H5xx_HAL_Driver/Src/stm32h5xx_hal_gpio.c ****         /* Configure Alternate function mapped with the current IO */
 208:Drivers/STM32H5xx_HAL_Driver/Src/stm32h5xx_hal_gpio.c ****         tmp = GPIOx->AFR[position >> 3U];
 209:Drivers/STM32H5xx_HAL_Driver/Src/stm32h5xx_hal_gpio.c ****         tmp &= ~(0x0FUL << ((position & 0x07U) * GPIO_AFRL_AFSEL1_Pos));
 210:Drivers/STM32H5xx_HAL_Driver/Src/stm32h5xx_hal_gpio.c ****         tmp |= ((pGPIO_Init->Alternate & 0x0FUL) << ((position & 0x07U) * GPIO_AFRL_AFSEL1_Pos));
 211:Drivers/STM32H5xx_HAL_Driver/Src/stm32h5xx_hal_gpio.c ****         GPIOx->AFR[position >> 3U] = tmp;
 212:Drivers/STM32H5xx_HAL_Driver/Src/stm32h5xx_hal_gpio.c ****       }
 213:Drivers/STM32H5xx_HAL_Driver/Src/stm32h5xx_hal_gpio.c **** 
 214:Drivers/STM32H5xx_HAL_Driver/Src/stm32h5xx_hal_gpio.c ****       /* Configure IO Direction mode (Input, Output, Alternate or Analog) */
 215:Drivers/STM32H5xx_HAL_Driver/Src/stm32h5xx_hal_gpio.c ****       tmp = GPIOx->MODER;
 216:Drivers/STM32H5xx_HAL_Driver/Src/stm32h5xx_hal_gpio.c ****       tmp &= ~(GPIO_MODER_MODE0 << (position * GPIO_MODER_MODE1_Pos));
 217:Drivers/STM32H5xx_HAL_Driver/Src/stm32h5xx_hal_gpio.c ****       tmp |= ((pGPIO_Init->Mode & GPIO_MODE) << (position * GPIO_MODER_MODE1_Pos));
 218:Drivers/STM32H5xx_HAL_Driver/Src/stm32h5xx_hal_gpio.c ****       GPIOx->MODER = tmp;
 219:Drivers/STM32H5xx_HAL_Driver/Src/stm32h5xx_hal_gpio.c **** 
 220:Drivers/STM32H5xx_HAL_Driver/Src/stm32h5xx_hal_gpio.c ****       /* In case of Output or Alternate function mode selection */
 221:Drivers/STM32H5xx_HAL_Driver/Src/stm32h5xx_hal_gpio.c ****       if ((pGPIO_Init->Mode == GPIO_MODE_OUTPUT_PP) || (pGPIO_Init->Mode == GPIO_MODE_AF_PP) ||
 222:Drivers/STM32H5xx_HAL_Driver/Src/stm32h5xx_hal_gpio.c ****           (pGPIO_Init->Mode == GPIO_MODE_OUTPUT_OD) || (pGPIO_Init->Mode == GPIO_MODE_AF_OD))
 223:Drivers/STM32H5xx_HAL_Driver/Src/stm32h5xx_hal_gpio.c ****       {
 224:Drivers/STM32H5xx_HAL_Driver/Src/stm32h5xx_hal_gpio.c ****         /* Check the Speed parameter */
 225:Drivers/STM32H5xx_HAL_Driver/Src/stm32h5xx_hal_gpio.c ****         assert_param(IS_GPIO_SPEED(pGPIO_Init->Speed));
  59              		.loc 1 225 9 is_stmt 1 view .LVU12
 226:Drivers/STM32H5xx_HAL_Driver/Src/stm32h5xx_hal_gpio.c **** 
ARM GAS  /var/folders/l3/rwskfq612tq4b7hmtv37jkjw0000gp/T//cctyv2t7.s 			page 6


 227:Drivers/STM32H5xx_HAL_Driver/Src/stm32h5xx_hal_gpio.c ****         /* Configure the IO Speed */
 228:Drivers/STM32H5xx_HAL_Driver/Src/stm32h5xx_hal_gpio.c ****         tmp = GPIOx->OSPEEDR;
  60              		.loc 1 228 9 view .LVU13
  61              		.loc 1 228 13 is_stmt 0 view .LVU14
  62 0006 8668     		ldr	r6, [r0, #8]
  63              	.LVL3:
 229:Drivers/STM32H5xx_HAL_Driver/Src/stm32h5xx_hal_gpio.c ****         tmp &= ~(GPIO_OSPEEDR_OSPEED0 << (position * GPIO_OSPEEDR_OSPEED1_Pos));
  64              		.loc 1 229 9 is_stmt 1 view .LVU15
  65              		.loc 1 229 13 is_stmt 0 view .LVU16
  66 0008 2E40     		ands	r6, r6, r5
  67              	.LVL4:
 230:Drivers/STM32H5xx_HAL_Driver/Src/stm32h5xx_hal_gpio.c ****         tmp |= (pGPIO_Init->Speed << (position * GPIO_OSPEEDR_OSPEED1_Pos));
  68              		.loc 1 230 9 is_stmt 1 view .LVU17
  69              		.loc 1 230 27 is_stmt 0 view .LVU18
  70 000a CC68     		ldr	r4, [r1, #12]
  71              		.loc 1 230 35 view .LVU19
  72 000c 04FA0EF4 		lsl	r4, r4, lr
  73              		.loc 1 230 13 view .LVU20
  74 0010 3443     		orrs	r4, r4, r6
  75              	.LVL5:
 231:Drivers/STM32H5xx_HAL_Driver/Src/stm32h5xx_hal_gpio.c ****         GPIOx->OSPEEDR = tmp;
  76              		.loc 1 231 9 is_stmt 1 view .LVU21
  77              		.loc 1 231 24 is_stmt 0 view .LVU22
  78 0012 8460     		str	r4, [r0, #8]
 232:Drivers/STM32H5xx_HAL_Driver/Src/stm32h5xx_hal_gpio.c **** 
 233:Drivers/STM32H5xx_HAL_Driver/Src/stm32h5xx_hal_gpio.c ****         /* Configure the IO Output Type */
 234:Drivers/STM32H5xx_HAL_Driver/Src/stm32h5xx_hal_gpio.c ****         tmp = GPIOx->OTYPER;
  79              		.loc 1 234 9 is_stmt 1 view .LVU23
  80              		.loc 1 234 13 is_stmt 0 view .LVU24
  81 0014 4668     		ldr	r6, [r0, #4]
  82              	.LVL6:
 235:Drivers/STM32H5xx_HAL_Driver/Src/stm32h5xx_hal_gpio.c ****         tmp &= ~(GPIO_OTYPER_OT0 << position) ;
  83              		.loc 1 235 9 is_stmt 1 view .LVU25
  84              		.loc 1 235 13 is_stmt 0 view .LVU26
  85 0016 26EA0C06 		bic	r6, r6, ip
  86              	.LVL7:
 236:Drivers/STM32H5xx_HAL_Driver/Src/stm32h5xx_hal_gpio.c ****         tmp |= (((pGPIO_Init->Mode & GPIO_OUTPUT_TYPE) >> 4U) << position);
  87              		.loc 1 236 9 is_stmt 1 view .LVU27
  88              		.loc 1 236 29 is_stmt 0 view .LVU28
  89 001a 4C68     		ldr	r4, [r1, #4]
  90              		.loc 1 236 56 view .LVU29
  91 001c C4F30014 		ubfx	r4, r4, #4, #1
  92              		.loc 1 236 63 view .LVU30
  93 0020 9440     		lsls	r4, r4, r2
  94              		.loc 1 236 13 view .LVU31
  95 0022 3443     		orrs	r4, r4, r6
  96              	.LVL8:
 237:Drivers/STM32H5xx_HAL_Driver/Src/stm32h5xx_hal_gpio.c ****         GPIOx->OTYPER = tmp;
  97              		.loc 1 237 9 is_stmt 1 view .LVU32
  98              		.loc 1 237 23 is_stmt 0 view .LVU33
  99 0024 4460     		str	r4, [r0, #4]
 100              	.LVL9:
 101              	.L7:
 238:Drivers/STM32H5xx_HAL_Driver/Src/stm32h5xx_hal_gpio.c ****       }
 239:Drivers/STM32H5xx_HAL_Driver/Src/stm32h5xx_hal_gpio.c **** 
 240:Drivers/STM32H5xx_HAL_Driver/Src/stm32h5xx_hal_gpio.c ****       if (pGPIO_Init->Mode != GPIO_MODE_ANALOG)
 102              		.loc 1 240 7 is_stmt 1 view .LVU34
ARM GAS  /var/folders/l3/rwskfq612tq4b7hmtv37jkjw0000gp/T//cctyv2t7.s 			page 7


 103              		.loc 1 240 21 is_stmt 0 view .LVU35
 104 0026 4C68     		ldr	r4, [r1, #4]
 105              		.loc 1 240 10 view .LVU36
 106 0028 032C     		cmp	r4, #3
 107 002a 06D0     		beq	.L8
 241:Drivers/STM32H5xx_HAL_Driver/Src/stm32h5xx_hal_gpio.c ****       {
 242:Drivers/STM32H5xx_HAL_Driver/Src/stm32h5xx_hal_gpio.c ****         /* Check the Pull parameters */
 243:Drivers/STM32H5xx_HAL_Driver/Src/stm32h5xx_hal_gpio.c ****         assert_param(IS_GPIO_PULL(pGPIO_Init->Pull));
 108              		.loc 1 243 9 is_stmt 1 view .LVU37
 244:Drivers/STM32H5xx_HAL_Driver/Src/stm32h5xx_hal_gpio.c **** 
 245:Drivers/STM32H5xx_HAL_Driver/Src/stm32h5xx_hal_gpio.c ****         /* Activate the Pull-up or Pull down resistor for the current IO */
 246:Drivers/STM32H5xx_HAL_Driver/Src/stm32h5xx_hal_gpio.c ****         tmp = GPIOx->PUPDR;
 109              		.loc 1 246 9 view .LVU38
 110              		.loc 1 246 13 is_stmt 0 view .LVU39
 111 002c C468     		ldr	r4, [r0, #12]
 112              	.LVL10:
 247:Drivers/STM32H5xx_HAL_Driver/Src/stm32h5xx_hal_gpio.c ****         tmp &= ~(GPIO_PUPDR_PUPD0 << (position * GPIO_PUPDR_PUPD1_Pos));
 113              		.loc 1 247 9 is_stmt 1 view .LVU40
 114              		.loc 1 247 13 is_stmt 0 view .LVU41
 115 002e 2540     		ands	r5, r5, r4
 116              	.LVL11:
 248:Drivers/STM32H5xx_HAL_Driver/Src/stm32h5xx_hal_gpio.c ****         tmp |= ((pGPIO_Init->Pull) << (position * GPIO_PUPDR_PUPD1_Pos));
 117              		.loc 1 248 9 is_stmt 1 view .LVU42
 118              		.loc 1 248 28 is_stmt 0 view .LVU43
 119 0030 8C68     		ldr	r4, [r1, #8]
 120              		.loc 1 248 36 view .LVU44
 121 0032 04FA0EF4 		lsl	r4, r4, lr
 122              		.loc 1 248 13 view .LVU45
 123 0036 2C43     		orrs	r4, r4, r5
 124              	.LVL12:
 249:Drivers/STM32H5xx_HAL_Driver/Src/stm32h5xx_hal_gpio.c ****         GPIOx->PUPDR = tmp;
 125              		.loc 1 249 9 is_stmt 1 view .LVU46
 126              		.loc 1 249 22 is_stmt 0 view .LVU47
 127 0038 C460     		str	r4, [r0, #12]
 128              	.LVL13:
 129              	.L8:
 250:Drivers/STM32H5xx_HAL_Driver/Src/stm32h5xx_hal_gpio.c ****       }
 251:Drivers/STM32H5xx_HAL_Driver/Src/stm32h5xx_hal_gpio.c **** 
 252:Drivers/STM32H5xx_HAL_Driver/Src/stm32h5xx_hal_gpio.c ****       /*--------------------- EXTI Mode Configuration ------------------------*/
 253:Drivers/STM32H5xx_HAL_Driver/Src/stm32h5xx_hal_gpio.c ****       /* Configure the External Interrupt or event for the current IO */
 254:Drivers/STM32H5xx_HAL_Driver/Src/stm32h5xx_hal_gpio.c ****       if ((pGPIO_Init->Mode & EXTI_MODE) == EXTI_MODE)
 130              		.loc 1 254 7 is_stmt 1 view .LVU48
 131              		.loc 1 254 22 is_stmt 0 view .LVU49
 132 003a 4C68     		ldr	r4, [r1, #4]
 133              		.loc 1 254 10 view .LVU50
 134 003c 14F0805F 		tst	r4, #268435456
 135 0040 45D0     		beq	.L3
 255:Drivers/STM32H5xx_HAL_Driver/Src/stm32h5xx_hal_gpio.c ****       {
 256:Drivers/STM32H5xx_HAL_Driver/Src/stm32h5xx_hal_gpio.c ****         tmp = EXTI->EXTICR[position >> 2U];
 136              		.loc 1 256 9 is_stmt 1 view .LVU51
 137              		.loc 1 256 37 is_stmt 0 view .LVU52
 138 0042 9508     		lsrs	r5, r2, #2
 139              		.loc 1 256 13 view .LVU53
 140 0044 434F     		ldr	r7, .L16
 141 0046 1835     		adds	r5, r5, #24
 142 0048 57F82540 		ldr	r4, [r7, r5, lsl #2]
 143              	.LVL14:
ARM GAS  /var/folders/l3/rwskfq612tq4b7hmtv37jkjw0000gp/T//cctyv2t7.s 			page 8


 257:Drivers/STM32H5xx_HAL_Driver/Src/stm32h5xx_hal_gpio.c ****         tmp &= ~((0x0FUL) << ((position & 0x03U) * EXTI_EXTICR1_EXTI1_Pos));
 144              		.loc 1 257 9 is_stmt 1 view .LVU54
 145              		.loc 1 257 41 is_stmt 0 view .LVU55
 146 004c 02F00306 		and	r6, r2, #3
 147              		.loc 1 257 50 view .LVU56
 148 0050 F600     		lsls	r6, r6, #3
 149              		.loc 1 257 27 view .LVU57
 150 0052 4FF00F0C 		mov	ip, #15
 151 0056 0CFA06FC 		lsl	ip, ip, r6
 152              		.loc 1 257 13 view .LVU58
 153 005a 24EA0C0C 		bic	ip, r4, ip
 154              	.LVL15:
 258:Drivers/STM32H5xx_HAL_Driver/Src/stm32h5xx_hal_gpio.c ****         tmp |= (GPIO_GET_INDEX(GPIOx) << ((position & 0x03U) * EXTI_EXTICR1_EXTI1_Pos));
 155              		.loc 1 258 9 is_stmt 1 view .LVU59
 156              		.loc 1 258 17 is_stmt 0 view .LVU60
 157 005e 3E4C     		ldr	r4, .L16+4
 158 0060 04EA9024 		and	r4, r4, r0, lsr #10
 159              		.loc 1 258 39 view .LVU61
 160 0064 B440     		lsls	r4, r4, r6
 161              		.loc 1 258 13 view .LVU62
 162 0066 44EA0C04 		orr	r4, r4, ip
 163              	.LVL16:
 259:Drivers/STM32H5xx_HAL_Driver/Src/stm32h5xx_hal_gpio.c ****         EXTI->EXTICR[position >> 2U] = tmp;
 164              		.loc 1 259 9 is_stmt 1 view .LVU63
 165              		.loc 1 259 38 is_stmt 0 view .LVU64
 166 006a 47F82540 		str	r4, [r7, r5, lsl #2]
 260:Drivers/STM32H5xx_HAL_Driver/Src/stm32h5xx_hal_gpio.c **** 
 261:Drivers/STM32H5xx_HAL_Driver/Src/stm32h5xx_hal_gpio.c ****         /* Clear Rising Falling edge configuration */
 262:Drivers/STM32H5xx_HAL_Driver/Src/stm32h5xx_hal_gpio.c ****         tmp = EXTI->RTSR1;
 167              		.loc 1 262 9 is_stmt 1 view .LVU65
 168              		.loc 1 262 13 is_stmt 0 view .LVU66
 169 006e 3D68     		ldr	r5, [r7]
 170              	.LVL17:
 263:Drivers/STM32H5xx_HAL_Driver/Src/stm32h5xx_hal_gpio.c ****         tmp &= ~((uint32_t)iocurrent);
 171              		.loc 1 263 9 is_stmt 1 view .LVU67
 172              		.loc 1 263 16 is_stmt 0 view .LVU68
 173 0070 DC43     		mvns	r4, r3
 174              		.loc 1 263 13 view .LVU69
 175 0072 25EA0306 		bic	r6, r5, r3
 176              	.LVL18:
 264:Drivers/STM32H5xx_HAL_Driver/Src/stm32h5xx_hal_gpio.c ****         if ((pGPIO_Init->Mode & RISING_EDGE) == RISING_EDGE)
 177              		.loc 1 264 9 is_stmt 1 view .LVU70
 178              		.loc 1 264 24 is_stmt 0 view .LVU71
 179 0076 4F68     		ldr	r7, [r1, #4]
 180              		.loc 1 264 12 view .LVU72
 181 0078 17F4801F 		tst	r7, #1048576
 182 007c 01D0     		beq	.L9
 265:Drivers/STM32H5xx_HAL_Driver/Src/stm32h5xx_hal_gpio.c ****         {
 266:Drivers/STM32H5xx_HAL_Driver/Src/stm32h5xx_hal_gpio.c ****           tmp |= iocurrent;
 183              		.loc 1 266 11 is_stmt 1 view .LVU73
 184              		.loc 1 266 15 is_stmt 0 view .LVU74
 185 007e 43EA0506 		orr	r6, r3, r5
 186              	.LVL19:
 187              	.L9:
 267:Drivers/STM32H5xx_HAL_Driver/Src/stm32h5xx_hal_gpio.c ****         }
 268:Drivers/STM32H5xx_HAL_Driver/Src/stm32h5xx_hal_gpio.c ****         EXTI->RTSR1 = tmp;
 188              		.loc 1 268 9 is_stmt 1 view .LVU75
ARM GAS  /var/folders/l3/rwskfq612tq4b7hmtv37jkjw0000gp/T//cctyv2t7.s 			page 9


 189              		.loc 1 268 21 is_stmt 0 view .LVU76
 190 0082 344D     		ldr	r5, .L16
 191 0084 2E60     		str	r6, [r5]
 269:Drivers/STM32H5xx_HAL_Driver/Src/stm32h5xx_hal_gpio.c **** 
 270:Drivers/STM32H5xx_HAL_Driver/Src/stm32h5xx_hal_gpio.c ****         tmp = EXTI->FTSR1;
 192              		.loc 1 270 9 is_stmt 1 view .LVU77
 193              		.loc 1 270 13 is_stmt 0 view .LVU78
 194 0086 6D68     		ldr	r5, [r5, #4]
 195              	.LVL20:
 271:Drivers/STM32H5xx_HAL_Driver/Src/stm32h5xx_hal_gpio.c ****         tmp &= ~((uint32_t)iocurrent);
 196              		.loc 1 271 9 is_stmt 1 view .LVU79
 197              		.loc 1 271 13 is_stmt 0 view .LVU80
 198 0088 04EA0506 		and	r6, r4, r5
 199              	.LVL21:
 272:Drivers/STM32H5xx_HAL_Driver/Src/stm32h5xx_hal_gpio.c ****         if ((pGPIO_Init->Mode & FALLING_EDGE) == FALLING_EDGE)
 200              		.loc 1 272 9 is_stmt 1 view .LVU81
 201              		.loc 1 272 24 is_stmt 0 view .LVU82
 202 008c 4F68     		ldr	r7, [r1, #4]
 203              		.loc 1 272 12 view .LVU83
 204 008e 17F4001F 		tst	r7, #2097152
 205 0092 01D0     		beq	.L10
 273:Drivers/STM32H5xx_HAL_Driver/Src/stm32h5xx_hal_gpio.c ****         {
 274:Drivers/STM32H5xx_HAL_Driver/Src/stm32h5xx_hal_gpio.c ****           tmp |= iocurrent;
 206              		.loc 1 274 11 is_stmt 1 view .LVU84
 207              		.loc 1 274 15 is_stmt 0 view .LVU85
 208 0094 43EA0506 		orr	r6, r3, r5
 209              	.LVL22:
 210              	.L10:
 275:Drivers/STM32H5xx_HAL_Driver/Src/stm32h5xx_hal_gpio.c ****         }
 276:Drivers/STM32H5xx_HAL_Driver/Src/stm32h5xx_hal_gpio.c ****         EXTI->FTSR1 = tmp;
 211              		.loc 1 276 9 is_stmt 1 view .LVU86
 212              		.loc 1 276 21 is_stmt 0 view .LVU87
 213 0098 2E4D     		ldr	r5, .L16
 214 009a 6E60     		str	r6, [r5, #4]
 277:Drivers/STM32H5xx_HAL_Driver/Src/stm32h5xx_hal_gpio.c **** 
 278:Drivers/STM32H5xx_HAL_Driver/Src/stm32h5xx_hal_gpio.c ****         /* Clear EXTI line configuration */
 279:Drivers/STM32H5xx_HAL_Driver/Src/stm32h5xx_hal_gpio.c ****         tmp = EXTI->EMR1;
 215              		.loc 1 279 9 is_stmt 1 view .LVU88
 216              		.loc 1 279 13 is_stmt 0 view .LVU89
 217 009c D5F88450 		ldr	r5, [r5, #132]
 218              	.LVL23:
 280:Drivers/STM32H5xx_HAL_Driver/Src/stm32h5xx_hal_gpio.c ****         tmp &= ~((uint32_t)iocurrent);
 219              		.loc 1 280 9 is_stmt 1 view .LVU90
 220              		.loc 1 280 13 is_stmt 0 view .LVU91
 221 00a0 04EA0506 		and	r6, r4, r5
 222              	.LVL24:
 281:Drivers/STM32H5xx_HAL_Driver/Src/stm32h5xx_hal_gpio.c ****         if ((pGPIO_Init->Mode & GPIO_MODE_EVT) == GPIO_MODE_EVT)
 223              		.loc 1 281 9 is_stmt 1 view .LVU92
 224              		.loc 1 281 24 is_stmt 0 view .LVU93
 225 00a4 4F68     		ldr	r7, [r1, #4]
 226              		.loc 1 281 12 view .LVU94
 227 00a6 17F4003F 		tst	r7, #131072
 228 00aa 01D0     		beq	.L11
 282:Drivers/STM32H5xx_HAL_Driver/Src/stm32h5xx_hal_gpio.c ****         {
 283:Drivers/STM32H5xx_HAL_Driver/Src/stm32h5xx_hal_gpio.c ****           tmp |= iocurrent;
 229              		.loc 1 283 11 is_stmt 1 view .LVU95
 230              		.loc 1 283 15 is_stmt 0 view .LVU96
ARM GAS  /var/folders/l3/rwskfq612tq4b7hmtv37jkjw0000gp/T//cctyv2t7.s 			page 10


 231 00ac 43EA0506 		orr	r6, r3, r5
 232              	.LVL25:
 233              	.L11:
 284:Drivers/STM32H5xx_HAL_Driver/Src/stm32h5xx_hal_gpio.c ****         }
 285:Drivers/STM32H5xx_HAL_Driver/Src/stm32h5xx_hal_gpio.c ****         EXTI->EMR1 = tmp;
 234              		.loc 1 285 9 is_stmt 1 view .LVU97
 235              		.loc 1 285 20 is_stmt 0 view .LVU98
 236 00b0 284D     		ldr	r5, .L16
 237 00b2 C5F88460 		str	r6, [r5, #132]
 286:Drivers/STM32H5xx_HAL_Driver/Src/stm32h5xx_hal_gpio.c **** 
 287:Drivers/STM32H5xx_HAL_Driver/Src/stm32h5xx_hal_gpio.c ****         tmp = EXTI->IMR1;
 238              		.loc 1 287 9 is_stmt 1 view .LVU99
 239              		.loc 1 287 13 is_stmt 0 view .LVU100
 240 00b6 D5F88050 		ldr	r5, [r5, #128]
 241              	.LVL26:
 288:Drivers/STM32H5xx_HAL_Driver/Src/stm32h5xx_hal_gpio.c ****         tmp &= ~((uint32_t)iocurrent);
 242              		.loc 1 288 9 is_stmt 1 view .LVU101
 243              		.loc 1 288 13 is_stmt 0 view .LVU102
 244 00ba 2C40     		ands	r4, r4, r5
 245              	.LVL27:
 289:Drivers/STM32H5xx_HAL_Driver/Src/stm32h5xx_hal_gpio.c ****         if ((pGPIO_Init->Mode & GPIO_MODE_IT) == GPIO_MODE_IT)
 246              		.loc 1 289 9 is_stmt 1 view .LVU103
 247              		.loc 1 289 24 is_stmt 0 view .LVU104
 248 00bc 4E68     		ldr	r6, [r1, #4]
 249              		.loc 1 289 12 view .LVU105
 250 00be 16F4803F 		tst	r6, #65536
 251 00c2 01D0     		beq	.L12
 290:Drivers/STM32H5xx_HAL_Driver/Src/stm32h5xx_hal_gpio.c ****         {
 291:Drivers/STM32H5xx_HAL_Driver/Src/stm32h5xx_hal_gpio.c ****           tmp |= iocurrent;
 252              		.loc 1 291 11 is_stmt 1 view .LVU106
 253              		.loc 1 291 15 is_stmt 0 view .LVU107
 254 00c4 43EA0504 		orr	r4, r3, r5
 255              	.LVL28:
 256              	.L12:
 292:Drivers/STM32H5xx_HAL_Driver/Src/stm32h5xx_hal_gpio.c ****         }
 293:Drivers/STM32H5xx_HAL_Driver/Src/stm32h5xx_hal_gpio.c ****         EXTI->IMR1 = tmp;
 257              		.loc 1 293 9 is_stmt 1 view .LVU108
 258              		.loc 1 293 20 is_stmt 0 view .LVU109
 259 00c8 224B     		ldr	r3, .L16
 260              	.LVL29:
 261              		.loc 1 293 20 view .LVU110
 262 00ca C3F88040 		str	r4, [r3, #128]
 263              	.LVL30:
 264              	.L3:
 294:Drivers/STM32H5xx_HAL_Driver/Src/stm32h5xx_hal_gpio.c ****       }
 295:Drivers/STM32H5xx_HAL_Driver/Src/stm32h5xx_hal_gpio.c ****     }
 296:Drivers/STM32H5xx_HAL_Driver/Src/stm32h5xx_hal_gpio.c **** 
 297:Drivers/STM32H5xx_HAL_Driver/Src/stm32h5xx_hal_gpio.c ****     position++;
 265              		.loc 1 297 5 is_stmt 1 view .LVU111
 266              		.loc 1 297 13 is_stmt 0 view .LVU112
 267 00ce 0132     		adds	r2, r2, #1
 268              	.LVL31:
 269              	.L2:
 192:Drivers/STM32H5xx_HAL_Driver/Src/stm32h5xx_hal_gpio.c ****   {
 270              		.loc 1 192 42 is_stmt 1 view .LVU113
 192:Drivers/STM32H5xx_HAL_Driver/Src/stm32h5xx_hal_gpio.c ****   {
 271              		.loc 1 192 22 is_stmt 0 view .LVU114
ARM GAS  /var/folders/l3/rwskfq612tq4b7hmtv37jkjw0000gp/T//cctyv2t7.s 			page 11


 272 00d0 0B68     		ldr	r3, [r1]
 192:Drivers/STM32H5xx_HAL_Driver/Src/stm32h5xx_hal_gpio.c ****   {
 273              		.loc 1 192 42 view .LVU115
 274 00d2 33FA02F4 		lsrs	r4, r3, r2
 275 00d6 3CD0     		beq	.L15
 195:Drivers/STM32H5xx_HAL_Driver/Src/stm32h5xx_hal_gpio.c **** 
 276              		.loc 1 195 5 is_stmt 1 view .LVU116
 195:Drivers/STM32H5xx_HAL_Driver/Src/stm32h5xx_hal_gpio.c **** 
 277              		.loc 1 195 42 is_stmt 0 view .LVU117
 278 00d8 4FF0010C 		mov	ip, #1
 279 00dc 0CFA02FC 		lsl	ip, ip, r2
 280              	.LVL32:
 197:Drivers/STM32H5xx_HAL_Driver/Src/stm32h5xx_hal_gpio.c ****     {
 281              		.loc 1 197 5 is_stmt 1 view .LVU118
 197:Drivers/STM32H5xx_HAL_Driver/Src/stm32h5xx_hal_gpio.c ****     {
 282              		.loc 1 197 8 is_stmt 0 view .LVU119
 283 00e0 1CEA0303 		ands	r3, ip, r3
 284              	.LVL33:
 197:Drivers/STM32H5xx_HAL_Driver/Src/stm32h5xx_hal_gpio.c ****     {
 285              		.loc 1 197 8 view .LVU120
 286 00e4 F3D0     		beq	.L3
 201:Drivers/STM32H5xx_HAL_Driver/Src/stm32h5xx_hal_gpio.c ****       {
 287              		.loc 1 201 7 is_stmt 1 view .LVU121
 201:Drivers/STM32H5xx_HAL_Driver/Src/stm32h5xx_hal_gpio.c ****       {
 288              		.loc 1 201 22 is_stmt 0 view .LVU122
 289 00e6 4C68     		ldr	r4, [r1, #4]
 201:Drivers/STM32H5xx_HAL_Driver/Src/stm32h5xx_hal_gpio.c ****       {
 290              		.loc 1 201 10 view .LVU123
 291 00e8 022C     		cmp	r4, #2
 292 00ea 01D0     		beq	.L4
 201:Drivers/STM32H5xx_HAL_Driver/Src/stm32h5xx_hal_gpio.c ****       {
 293              		.loc 1 201 49 discriminator 1 view .LVU124
 294 00ec 122C     		cmp	r4, #18
 295 00ee 14D1     		bne	.L5
 296              	.L4:
 204:Drivers/STM32H5xx_HAL_Driver/Src/stm32h5xx_hal_gpio.c ****         assert_param(IS_GPIO_AF(pGPIO_Init->Alternate));
 297              		.loc 1 204 9 is_stmt 1 view .LVU125
 205:Drivers/STM32H5xx_HAL_Driver/Src/stm32h5xx_hal_gpio.c **** 
 298              		.loc 1 205 9 view .LVU126
 208:Drivers/STM32H5xx_HAL_Driver/Src/stm32h5xx_hal_gpio.c ****         tmp &= ~(0x0FUL << ((position & 0x07U) * GPIO_AFRL_AFSEL1_Pos));
 299              		.loc 1 208 9 view .LVU127
 208:Drivers/STM32H5xx_HAL_Driver/Src/stm32h5xx_hal_gpio.c ****         tmp &= ~(0x0FUL << ((position & 0x07U) * GPIO_AFRL_AFSEL1_Pos));
 300              		.loc 1 208 35 is_stmt 0 view .LVU128
 301 00f0 D508     		lsrs	r5, r2, #3
 208:Drivers/STM32H5xx_HAL_Driver/Src/stm32h5xx_hal_gpio.c ****         tmp &= ~(0x0FUL << ((position & 0x07U) * GPIO_AFRL_AFSEL1_Pos));
 302              		.loc 1 208 13 view .LVU129
 303 00f2 0835     		adds	r5, r5, #8
 304 00f4 50F82540 		ldr	r4, [r0, r5, lsl #2]
 305              	.LVL34:
 209:Drivers/STM32H5xx_HAL_Driver/Src/stm32h5xx_hal_gpio.c ****         tmp |= ((pGPIO_Init->Alternate & 0x0FUL) << ((position & 0x07U) * GPIO_AFRL_AFSEL1_Pos));
 306              		.loc 1 209 9 is_stmt 1 view .LVU130
 209:Drivers/STM32H5xx_HAL_Driver/Src/stm32h5xx_hal_gpio.c ****         tmp |= ((pGPIO_Init->Alternate & 0x0FUL) << ((position & 0x07U) * GPIO_AFRL_AFSEL1_Pos));
 307              		.loc 1 209 39 is_stmt 0 view .LVU131
 308 00f8 02F00706 		and	r6, r2, #7
 209:Drivers/STM32H5xx_HAL_Driver/Src/stm32h5xx_hal_gpio.c ****         tmp |= ((pGPIO_Init->Alternate & 0x0FUL) << ((position & 0x07U) * GPIO_AFRL_AFSEL1_Pos));
 309              		.loc 1 209 48 view .LVU132
 310 00fc B600     		lsls	r6, r6, #2
ARM GAS  /var/folders/l3/rwskfq612tq4b7hmtv37jkjw0000gp/T//cctyv2t7.s 			page 12


 209:Drivers/STM32H5xx_HAL_Driver/Src/stm32h5xx_hal_gpio.c ****         tmp |= ((pGPIO_Init->Alternate & 0x0FUL) << ((position & 0x07U) * GPIO_AFRL_AFSEL1_Pos));
 311              		.loc 1 209 25 view .LVU133
 312 00fe 4FF00F0E 		mov	lr, #15
 313 0102 0EFA06FE 		lsl	lr, lr, r6
 209:Drivers/STM32H5xx_HAL_Driver/Src/stm32h5xx_hal_gpio.c ****         tmp |= ((pGPIO_Init->Alternate & 0x0FUL) << ((position & 0x07U) * GPIO_AFRL_AFSEL1_Pos));
 314              		.loc 1 209 13 view .LVU134
 315 0106 24EA0E0E 		bic	lr, r4, lr
 316              	.LVL35:
 210:Drivers/STM32H5xx_HAL_Driver/Src/stm32h5xx_hal_gpio.c ****         GPIOx->AFR[position >> 3U] = tmp;
 317              		.loc 1 210 9 is_stmt 1 view .LVU135
 210:Drivers/STM32H5xx_HAL_Driver/Src/stm32h5xx_hal_gpio.c ****         GPIOx->AFR[position >> 3U] = tmp;
 318              		.loc 1 210 28 is_stmt 0 view .LVU136
 319 010a 0C69     		ldr	r4, [r1, #16]
 210:Drivers/STM32H5xx_HAL_Driver/Src/stm32h5xx_hal_gpio.c ****         GPIOx->AFR[position >> 3U] = tmp;
 320              		.loc 1 210 40 view .LVU137
 321 010c 04F00F04 		and	r4, r4, #15
 210:Drivers/STM32H5xx_HAL_Driver/Src/stm32h5xx_hal_gpio.c ****         GPIOx->AFR[position >> 3U] = tmp;
 322              		.loc 1 210 50 view .LVU138
 323 0110 B440     		lsls	r4, r4, r6
 210:Drivers/STM32H5xx_HAL_Driver/Src/stm32h5xx_hal_gpio.c ****         GPIOx->AFR[position >> 3U] = tmp;
 324              		.loc 1 210 13 view .LVU139
 325 0112 44EA0E04 		orr	r4, r4, lr
 326              	.LVL36:
 211:Drivers/STM32H5xx_HAL_Driver/Src/stm32h5xx_hal_gpio.c ****       }
 327              		.loc 1 211 9 is_stmt 1 view .LVU140
 211:Drivers/STM32H5xx_HAL_Driver/Src/stm32h5xx_hal_gpio.c ****       }
 328              		.loc 1 211 36 is_stmt 0 view .LVU141
 329 0116 40F82540 		str	r4, [r0, r5, lsl #2]
 330              	.LVL37:
 331              	.L5:
 215:Drivers/STM32H5xx_HAL_Driver/Src/stm32h5xx_hal_gpio.c ****       tmp &= ~(GPIO_MODER_MODE0 << (position * GPIO_MODER_MODE1_Pos));
 332              		.loc 1 215 7 is_stmt 1 view .LVU142
 215:Drivers/STM32H5xx_HAL_Driver/Src/stm32h5xx_hal_gpio.c ****       tmp &= ~(GPIO_MODER_MODE0 << (position * GPIO_MODER_MODE1_Pos));
 333              		.loc 1 215 11 is_stmt 0 view .LVU143
 334 011a 0668     		ldr	r6, [r0]
 335              	.LVL38:
 216:Drivers/STM32H5xx_HAL_Driver/Src/stm32h5xx_hal_gpio.c ****       tmp |= ((pGPIO_Init->Mode & GPIO_MODE) << (position * GPIO_MODER_MODE1_Pos));
 336              		.loc 1 216 7 is_stmt 1 view .LVU144
 216:Drivers/STM32H5xx_HAL_Driver/Src/stm32h5xx_hal_gpio.c ****       tmp |= ((pGPIO_Init->Mode & GPIO_MODE) << (position * GPIO_MODER_MODE1_Pos));
 337              		.loc 1 216 46 is_stmt 0 view .LVU145
 338 011c 4FEA420E 		lsl	lr, r2, #1
 216:Drivers/STM32H5xx_HAL_Driver/Src/stm32h5xx_hal_gpio.c ****       tmp |= ((pGPIO_Init->Mode & GPIO_MODE) << (position * GPIO_MODER_MODE1_Pos));
 339              		.loc 1 216 33 view .LVU146
 340 0120 0324     		movs	r4, #3
 341 0122 04FA0EF4 		lsl	r4, r4, lr
 216:Drivers/STM32H5xx_HAL_Driver/Src/stm32h5xx_hal_gpio.c ****       tmp |= ((pGPIO_Init->Mode & GPIO_MODE) << (position * GPIO_MODER_MODE1_Pos));
 342              		.loc 1 216 14 view .LVU147
 343 0126 E543     		mvns	r5, r4
 216:Drivers/STM32H5xx_HAL_Driver/Src/stm32h5xx_hal_gpio.c ****       tmp |= ((pGPIO_Init->Mode & GPIO_MODE) << (position * GPIO_MODER_MODE1_Pos));
 344              		.loc 1 216 11 view .LVU148
 345 0128 26EA0406 		bic	r6, r6, r4
 346              	.LVL39:
 217:Drivers/STM32H5xx_HAL_Driver/Src/stm32h5xx_hal_gpio.c ****       GPIOx->MODER = tmp;
 347              		.loc 1 217 7 is_stmt 1 view .LVU149
 217:Drivers/STM32H5xx_HAL_Driver/Src/stm32h5xx_hal_gpio.c ****       GPIOx->MODER = tmp;
 348              		.loc 1 217 26 is_stmt 0 view .LVU150
 349 012c 4C68     		ldr	r4, [r1, #4]
ARM GAS  /var/folders/l3/rwskfq612tq4b7hmtv37jkjw0000gp/T//cctyv2t7.s 			page 13


 217:Drivers/STM32H5xx_HAL_Driver/Src/stm32h5xx_hal_gpio.c ****       GPIOx->MODER = tmp;
 350              		.loc 1 217 33 view .LVU151
 351 012e 04F00304 		and	r4, r4, #3
 217:Drivers/STM32H5xx_HAL_Driver/Src/stm32h5xx_hal_gpio.c ****       GPIOx->MODER = tmp;
 352              		.loc 1 217 46 view .LVU152
 353 0132 04FA0EF4 		lsl	r4, r4, lr
 217:Drivers/STM32H5xx_HAL_Driver/Src/stm32h5xx_hal_gpio.c ****       GPIOx->MODER = tmp;
 354              		.loc 1 217 11 view .LVU153
 355 0136 3443     		orrs	r4, r4, r6
 356              	.LVL40:
 218:Drivers/STM32H5xx_HAL_Driver/Src/stm32h5xx_hal_gpio.c **** 
 357              		.loc 1 218 7 is_stmt 1 view .LVU154
 218:Drivers/STM32H5xx_HAL_Driver/Src/stm32h5xx_hal_gpio.c **** 
 358              		.loc 1 218 20 is_stmt 0 view .LVU155
 359 0138 0460     		str	r4, [r0]
 221:Drivers/STM32H5xx_HAL_Driver/Src/stm32h5xx_hal_gpio.c ****           (pGPIO_Init->Mode == GPIO_MODE_OUTPUT_OD) || (pGPIO_Init->Mode == GPIO_MODE_AF_OD))
 360              		.loc 1 221 7 is_stmt 1 view .LVU156
 221:Drivers/STM32H5xx_HAL_Driver/Src/stm32h5xx_hal_gpio.c ****           (pGPIO_Init->Mode == GPIO_MODE_OUTPUT_OD) || (pGPIO_Init->Mode == GPIO_MODE_AF_OD))
 361              		.loc 1 221 22 is_stmt 0 view .LVU157
 362 013a 4C68     		ldr	r4, [r1, #4]
 363              	.LVL41:
 221:Drivers/STM32H5xx_HAL_Driver/Src/stm32h5xx_hal_gpio.c ****           (pGPIO_Init->Mode == GPIO_MODE_OUTPUT_OD) || (pGPIO_Init->Mode == GPIO_MODE_AF_OD))
 364              		.loc 1 221 53 view .LVU158
 365 013c 661E     		subs	r6, r4, #1
 221:Drivers/STM32H5xx_HAL_Driver/Src/stm32h5xx_hal_gpio.c ****           (pGPIO_Init->Mode == GPIO_MODE_OUTPUT_OD) || (pGPIO_Init->Mode == GPIO_MODE_AF_OD))
 366              		.loc 1 221 10 view .LVU159
 367 013e 012E     		cmp	r6, #1
 368 0140 7FF661AF 		bls	.L6
 221:Drivers/STM32H5xx_HAL_Driver/Src/stm32h5xx_hal_gpio.c ****           (pGPIO_Init->Mode == GPIO_MODE_OUTPUT_OD) || (pGPIO_Init->Mode == GPIO_MODE_AF_OD))
 369              		.loc 1 221 94 discriminator 1 view .LVU160
 370 0144 112C     		cmp	r4, #17
 371 0146 3FF45EAF 		beq	.L6
 222:Drivers/STM32H5xx_HAL_Driver/Src/stm32h5xx_hal_gpio.c ****       {
 372              		.loc 1 222 53 view .LVU161
 373 014a 122C     		cmp	r4, #18
 374 014c 7FF46BAF 		bne	.L7
 375 0150 59E7     		b	.L6
 376              	.LVL42:
 377              	.L15:
 298:Drivers/STM32H5xx_HAL_Driver/Src/stm32h5xx_hal_gpio.c ****   }
 299:Drivers/STM32H5xx_HAL_Driver/Src/stm32h5xx_hal_gpio.c **** }
 378              		.loc 1 299 1 view .LVU162
 379 0152 F0BD     		pop	{r4, r5, r6, r7, pc}
 380              	.L17:
 381              		.align	2
 382              	.L16:
 383 0154 00200244 		.word	1140989952
 384 0158 7F7F2F00 		.word	3112831
 385              		.cfi_endproc
 386              	.LFE330:
 388              		.section	.text.HAL_GPIO_DeInit,"ax",%progbits
 389              		.align	1
 390              		.global	HAL_GPIO_DeInit
 391              		.syntax unified
 392              		.thumb
 393              		.thumb_func
 395              	HAL_GPIO_DeInit:
ARM GAS  /var/folders/l3/rwskfq612tq4b7hmtv37jkjw0000gp/T//cctyv2t7.s 			page 14


 396              	.LVL43:
 397              	.LFB331:
 300:Drivers/STM32H5xx_HAL_Driver/Src/stm32h5xx_hal_gpio.c **** 
 301:Drivers/STM32H5xx_HAL_Driver/Src/stm32h5xx_hal_gpio.c **** /**
 302:Drivers/STM32H5xx_HAL_Driver/Src/stm32h5xx_hal_gpio.c ****   * @brief  De-initialize the GPIOx peripheral registers to their default reset values.
 303:Drivers/STM32H5xx_HAL_Driver/Src/stm32h5xx_hal_gpio.c ****   * @param  GPIOx: where x can be (A..I) for stm32h56xxx and stm32h57xxx family lines and
 304:Drivers/STM32H5xx_HAL_Driver/Src/stm32h5xx_hal_gpio.c ****   *         (A..D or H) for stm32h503xx family line to select the GPIO peripheral for STM32H5 famil
 305:Drivers/STM32H5xx_HAL_Driver/Src/stm32h5xx_hal_gpio.c ****   * @param  GPIO_Pin: specifies the port bit to be written.
 306:Drivers/STM32H5xx_HAL_Driver/Src/stm32h5xx_hal_gpio.c ****   *         This parameter can be one of GPIO_PIN_x where x can be (0..15).
 307:Drivers/STM32H5xx_HAL_Driver/Src/stm32h5xx_hal_gpio.c ****   * @retval None
 308:Drivers/STM32H5xx_HAL_Driver/Src/stm32h5xx_hal_gpio.c ****   */
 309:Drivers/STM32H5xx_HAL_Driver/Src/stm32h5xx_hal_gpio.c **** void HAL_GPIO_DeInit(GPIO_TypeDef  *GPIOx, uint32_t GPIO_Pin)
 310:Drivers/STM32H5xx_HAL_Driver/Src/stm32h5xx_hal_gpio.c **** {
 398              		.loc 1 310 1 is_stmt 1 view -0
 399              		.cfi_startproc
 400              		@ args = 0, pretend = 0, frame = 0
 401              		@ frame_needed = 0, uses_anonymous_args = 0
 311:Drivers/STM32H5xx_HAL_Driver/Src/stm32h5xx_hal_gpio.c ****   uint32_t tmp;
 402              		.loc 1 311 3 view .LVU164
 312:Drivers/STM32H5xx_HAL_Driver/Src/stm32h5xx_hal_gpio.c ****   uint32_t iocurrent;
 403              		.loc 1 312 3 view .LVU165
 313:Drivers/STM32H5xx_HAL_Driver/Src/stm32h5xx_hal_gpio.c ****   uint32_t position = 0U;
 404              		.loc 1 313 3 view .LVU166
 314:Drivers/STM32H5xx_HAL_Driver/Src/stm32h5xx_hal_gpio.c **** 
 315:Drivers/STM32H5xx_HAL_Driver/Src/stm32h5xx_hal_gpio.c ****   /* Check the parameters */
 316:Drivers/STM32H5xx_HAL_Driver/Src/stm32h5xx_hal_gpio.c ****   assert_param(IS_GPIO_ALL_INSTANCE(GPIOx));
 405              		.loc 1 316 3 view .LVU167
 317:Drivers/STM32H5xx_HAL_Driver/Src/stm32h5xx_hal_gpio.c ****   assert_param(IS_GPIO_PIN(GPIO_Pin));
 406              		.loc 1 317 3 view .LVU168
 318:Drivers/STM32H5xx_HAL_Driver/Src/stm32h5xx_hal_gpio.c **** 
 319:Drivers/STM32H5xx_HAL_Driver/Src/stm32h5xx_hal_gpio.c ****   /* Configure the port pins */
 320:Drivers/STM32H5xx_HAL_Driver/Src/stm32h5xx_hal_gpio.c ****   while ((GPIO_Pin >> position) != 0U)
 407              		.loc 1 320 3 view .LVU169
 313:Drivers/STM32H5xx_HAL_Driver/Src/stm32h5xx_hal_gpio.c **** 
 408              		.loc 1 313 12 is_stmt 0 view .LVU170
 409 0000 0023     		movs	r3, #0
 410              	.LVL44:
 411              		.loc 1 320 33 is_stmt 1 view .LVU171
 412 0002 31FA03F2 		lsrs	r2, r1, r3
 413 0006 63D0     		beq	.L26
 310:Drivers/STM32H5xx_HAL_Driver/Src/stm32h5xx_hal_gpio.c ****   uint32_t tmp;
 414              		.loc 1 310 1 is_stmt 0 view .LVU172
 415 0008 2DE9F041 		push	{r4, r5, r6, r7, r8, lr}
 416              	.LCFI1:
 417              		.cfi_def_cfa_offset 24
 418              		.cfi_offset 4, -24
 419              		.cfi_offset 5, -20
 420              		.cfi_offset 6, -16
 421              		.cfi_offset 7, -12
 422              		.cfi_offset 8, -8
 423              		.cfi_offset 14, -4
 424 000c 27E0     		b	.L22
 425              	.LVL45:
 426              	.L21:
 321:Drivers/STM32H5xx_HAL_Driver/Src/stm32h5xx_hal_gpio.c ****   {
 322:Drivers/STM32H5xx_HAL_Driver/Src/stm32h5xx_hal_gpio.c ****     /* Get current io position */
 323:Drivers/STM32H5xx_HAL_Driver/Src/stm32h5xx_hal_gpio.c ****     iocurrent = (GPIO_Pin) & (1UL << position);
ARM GAS  /var/folders/l3/rwskfq612tq4b7hmtv37jkjw0000gp/T//cctyv2t7.s 			page 15


 324:Drivers/STM32H5xx_HAL_Driver/Src/stm32h5xx_hal_gpio.c **** 
 325:Drivers/STM32H5xx_HAL_Driver/Src/stm32h5xx_hal_gpio.c ****     if (iocurrent != 0U)
 326:Drivers/STM32H5xx_HAL_Driver/Src/stm32h5xx_hal_gpio.c ****     {
 327:Drivers/STM32H5xx_HAL_Driver/Src/stm32h5xx_hal_gpio.c ****       /*------------------------- EXTI Mode Configuration --------------------*/
 328:Drivers/STM32H5xx_HAL_Driver/Src/stm32h5xx_hal_gpio.c ****       /* Clear the External Interrupt or Event for the current IO */
 329:Drivers/STM32H5xx_HAL_Driver/Src/stm32h5xx_hal_gpio.c ****       tmp = EXTI->EXTICR[position >> 2U];
 330:Drivers/STM32H5xx_HAL_Driver/Src/stm32h5xx_hal_gpio.c ****       tmp &= ((0x0FUL) << ((position & 0x03U) * EXTI_EXTICR1_EXTI1_Pos));
 331:Drivers/STM32H5xx_HAL_Driver/Src/stm32h5xx_hal_gpio.c ****       if (tmp == (GPIO_GET_INDEX(GPIOx) << ((position & 0x03U) * EXTI_EXTICR1_EXTI1_Pos)))
 332:Drivers/STM32H5xx_HAL_Driver/Src/stm32h5xx_hal_gpio.c ****       {
 333:Drivers/STM32H5xx_HAL_Driver/Src/stm32h5xx_hal_gpio.c ****         /* Clear EXTI line configuration */
 334:Drivers/STM32H5xx_HAL_Driver/Src/stm32h5xx_hal_gpio.c ****         EXTI->IMR1 &= ~(iocurrent);
 335:Drivers/STM32H5xx_HAL_Driver/Src/stm32h5xx_hal_gpio.c ****         EXTI->EMR1 &= ~(iocurrent);
 336:Drivers/STM32H5xx_HAL_Driver/Src/stm32h5xx_hal_gpio.c **** 
 337:Drivers/STM32H5xx_HAL_Driver/Src/stm32h5xx_hal_gpio.c ****         /* Clear Rising Falling edge configuration */
 338:Drivers/STM32H5xx_HAL_Driver/Src/stm32h5xx_hal_gpio.c ****         EXTI->RTSR1 &= ~(iocurrent);
 339:Drivers/STM32H5xx_HAL_Driver/Src/stm32h5xx_hal_gpio.c ****         EXTI->FTSR1 &= ~(iocurrent);
 340:Drivers/STM32H5xx_HAL_Driver/Src/stm32h5xx_hal_gpio.c **** 
 341:Drivers/STM32H5xx_HAL_Driver/Src/stm32h5xx_hal_gpio.c ****         tmp = (0x0FUL) << ((position & 0x03U) * EXTI_EXTICR1_EXTI1_Pos);
 342:Drivers/STM32H5xx_HAL_Driver/Src/stm32h5xx_hal_gpio.c ****         EXTI->EXTICR[position >> 2U] &= ~tmp;
 343:Drivers/STM32H5xx_HAL_Driver/Src/stm32h5xx_hal_gpio.c ****       }
 344:Drivers/STM32H5xx_HAL_Driver/Src/stm32h5xx_hal_gpio.c **** 
 345:Drivers/STM32H5xx_HAL_Driver/Src/stm32h5xx_hal_gpio.c ****       /*------------------------- GPIO Mode Configuration --------------------*/
 346:Drivers/STM32H5xx_HAL_Driver/Src/stm32h5xx_hal_gpio.c ****       /* Configure IO in Analog Mode */
 347:Drivers/STM32H5xx_HAL_Driver/Src/stm32h5xx_hal_gpio.c ****       GPIOx->MODER |= (GPIO_MODER_MODE0 << (position * GPIO_MODER_MODE1_Pos));
 427              		.loc 1 347 7 is_stmt 1 view .LVU173
 428              		.loc 1 347 12 is_stmt 0 view .LVU174
 429 000e 0468     		ldr	r4, [r0]
 430              		.loc 1 347 54 view .LVU175
 431 0010 5D00     		lsls	r5, r3, #1
 432              		.loc 1 347 41 view .LVU176
 433 0012 4FF0030C 		mov	ip, #3
 434 0016 0CFA05FC 		lsl	ip, ip, r5
 435              		.loc 1 347 20 view .LVU177
 436 001a 44EA0C04 		orr	r4, r4, ip
 437 001e 0460     		str	r4, [r0]
 348:Drivers/STM32H5xx_HAL_Driver/Src/stm32h5xx_hal_gpio.c **** 
 349:Drivers/STM32H5xx_HAL_Driver/Src/stm32h5xx_hal_gpio.c ****       /* Configure the default Alternate Function in current IO */
 350:Drivers/STM32H5xx_HAL_Driver/Src/stm32h5xx_hal_gpio.c ****       GPIOx->AFR[position >> 3U] &= ~(0x0FUL << ((position & 0x07U) * GPIO_AFRL_AFSEL1_Pos));
 438              		.loc 1 350 7 is_stmt 1 view .LVU178
 439              		.loc 1 350 17 is_stmt 0 view .LVU179
 440 0020 DC08     		lsrs	r4, r3, #3
 441 0022 0834     		adds	r4, r4, #8
 442 0024 50F82450 		ldr	r5, [r0, r4, lsl #2]
 443              		.loc 1 350 60 view .LVU180
 444 0028 03F00706 		and	r6, r3, #7
 445              		.loc 1 350 69 view .LVU181
 446 002c B600     		lsls	r6, r6, #2
 447              		.loc 1 350 46 view .LVU182
 448 002e 4FF00F0E 		mov	lr, #15
 449 0032 0EFA06FE 		lsl	lr, lr, r6
 450              		.loc 1 350 34 view .LVU183
 451 0036 25EA0E05 		bic	r5, r5, lr
 452 003a 40F82450 		str	r5, [r0, r4, lsl #2]
 351:Drivers/STM32H5xx_HAL_Driver/Src/stm32h5xx_hal_gpio.c **** 
 352:Drivers/STM32H5xx_HAL_Driver/Src/stm32h5xx_hal_gpio.c ****       /* Configure the default value for IO Speed */
 353:Drivers/STM32H5xx_HAL_Driver/Src/stm32h5xx_hal_gpio.c ****       GPIOx->OSPEEDR &= ~(GPIO_OSPEEDR_OSPEED0 << (position * GPIO_OSPEEDR_OSPEED1_Pos));
 453              		.loc 1 353 7 is_stmt 1 view .LVU184
ARM GAS  /var/folders/l3/rwskfq612tq4b7hmtv37jkjw0000gp/T//cctyv2t7.s 			page 16


 454              		.loc 1 353 12 is_stmt 0 view .LVU185
 455 003e 8468     		ldr	r4, [r0, #8]
 456              		.loc 1 353 22 view .LVU186
 457 0040 24EA0C04 		bic	r4, r4, ip
 458 0044 8460     		str	r4, [r0, #8]
 354:Drivers/STM32H5xx_HAL_Driver/Src/stm32h5xx_hal_gpio.c **** 
 355:Drivers/STM32H5xx_HAL_Driver/Src/stm32h5xx_hal_gpio.c ****       /* Configure the default value IO Output Type */
 356:Drivers/STM32H5xx_HAL_Driver/Src/stm32h5xx_hal_gpio.c ****       GPIOx->OTYPER  &= ~(GPIO_OTYPER_OT0 << position);
 459              		.loc 1 356 7 is_stmt 1 view .LVU187
 460              		.loc 1 356 12 is_stmt 0 view .LVU188
 461 0046 4468     		ldr	r4, [r0, #4]
 462              		.loc 1 356 22 view .LVU189
 463 0048 24EA0202 		bic	r2, r4, r2
 464 004c 4260     		str	r2, [r0, #4]
 357:Drivers/STM32H5xx_HAL_Driver/Src/stm32h5xx_hal_gpio.c **** 
 358:Drivers/STM32H5xx_HAL_Driver/Src/stm32h5xx_hal_gpio.c ****       /* Deactivate the Pull-up and Pull-down resistor for the current IO */
 359:Drivers/STM32H5xx_HAL_Driver/Src/stm32h5xx_hal_gpio.c ****       GPIOx->PUPDR &= ~(GPIO_PUPDR_PUPD0 << (position * GPIO_PUPDR_PUPD1_Pos));
 465              		.loc 1 359 7 is_stmt 1 view .LVU190
 466              		.loc 1 359 12 is_stmt 0 view .LVU191
 467 004e C268     		ldr	r2, [r0, #12]
 468              		.loc 1 359 20 view .LVU192
 469 0050 22EA0C02 		bic	r2, r2, ip
 470 0054 C260     		str	r2, [r0, #12]
 471              	.L20:
 360:Drivers/STM32H5xx_HAL_Driver/Src/stm32h5xx_hal_gpio.c ****     }
 361:Drivers/STM32H5xx_HAL_Driver/Src/stm32h5xx_hal_gpio.c **** 
 362:Drivers/STM32H5xx_HAL_Driver/Src/stm32h5xx_hal_gpio.c ****     position++;
 472              		.loc 1 362 5 is_stmt 1 view .LVU193
 473              		.loc 1 362 13 is_stmt 0 view .LVU194
 474 0056 0133     		adds	r3, r3, #1
 475              	.LVL46:
 320:Drivers/STM32H5xx_HAL_Driver/Src/stm32h5xx_hal_gpio.c ****   {
 476              		.loc 1 320 33 is_stmt 1 view .LVU195
 477 0058 31FA03F2 		lsrs	r2, r1, r3
 478 005c 36D0     		beq	.L27
 479              	.LVL47:
 480              	.L22:
 323:Drivers/STM32H5xx_HAL_Driver/Src/stm32h5xx_hal_gpio.c **** 
 481              		.loc 1 323 5 view .LVU196
 323:Drivers/STM32H5xx_HAL_Driver/Src/stm32h5xx_hal_gpio.c **** 
 482              		.loc 1 323 35 is_stmt 0 view .LVU197
 483 005e 0122     		movs	r2, #1
 484 0060 9A40     		lsls	r2, r2, r3
 485              	.LVL48:
 325:Drivers/STM32H5xx_HAL_Driver/Src/stm32h5xx_hal_gpio.c ****     {
 486              		.loc 1 325 5 is_stmt 1 view .LVU198
 325:Drivers/STM32H5xx_HAL_Driver/Src/stm32h5xx_hal_gpio.c ****     {
 487              		.loc 1 325 8 is_stmt 0 view .LVU199
 488 0062 12EA0108 		ands	r8, r2, r1
 489              	.LVL49:
 325:Drivers/STM32H5xx_HAL_Driver/Src/stm32h5xx_hal_gpio.c ****     {
 490              		.loc 1 325 8 view .LVU200
 491 0066 F6D0     		beq	.L20
 329:Drivers/STM32H5xx_HAL_Driver/Src/stm32h5xx_hal_gpio.c ****       tmp &= ((0x0FUL) << ((position & 0x03U) * EXTI_EXTICR1_EXTI1_Pos));
 492              		.loc 1 329 7 is_stmt 1 view .LVU201
 329:Drivers/STM32H5xx_HAL_Driver/Src/stm32h5xx_hal_gpio.c ****       tmp &= ((0x0FUL) << ((position & 0x03U) * EXTI_EXTICR1_EXTI1_Pos));
 493              		.loc 1 329 35 is_stmt 0 view .LVU202
ARM GAS  /var/folders/l3/rwskfq612tq4b7hmtv37jkjw0000gp/T//cctyv2t7.s 			page 17


 494 0068 9F08     		lsrs	r7, r3, #2
 329:Drivers/STM32H5xx_HAL_Driver/Src/stm32h5xx_hal_gpio.c ****       tmp &= ((0x0FUL) << ((position & 0x03U) * EXTI_EXTICR1_EXTI1_Pos));
 495              		.loc 1 329 11 view .LVU203
 496 006a 07F11805 		add	r5, r7, #24
 497 006e 194C     		ldr	r4, .L28
 498 0070 54F82560 		ldr	r6, [r4, r5, lsl #2]
 499              	.LVL50:
 330:Drivers/STM32H5xx_HAL_Driver/Src/stm32h5xx_hal_gpio.c ****       if (tmp == (GPIO_GET_INDEX(GPIOx) << ((position & 0x03U) * EXTI_EXTICR1_EXTI1_Pos)))
 500              		.loc 1 330 7 is_stmt 1 view .LVU204
 330:Drivers/STM32H5xx_HAL_Driver/Src/stm32h5xx_hal_gpio.c ****       if (tmp == (GPIO_GET_INDEX(GPIOx) << ((position & 0x03U) * EXTI_EXTICR1_EXTI1_Pos)))
 501              		.loc 1 330 38 is_stmt 0 view .LVU205
 502 0074 03F0030E 		and	lr, r3, #3
 330:Drivers/STM32H5xx_HAL_Driver/Src/stm32h5xx_hal_gpio.c ****       if (tmp == (GPIO_GET_INDEX(GPIOx) << ((position & 0x03U) * EXTI_EXTICR1_EXTI1_Pos)))
 503              		.loc 1 330 47 view .LVU206
 504 0078 4FEACE0E 		lsl	lr, lr, #3
 330:Drivers/STM32H5xx_HAL_Driver/Src/stm32h5xx_hal_gpio.c ****       if (tmp == (GPIO_GET_INDEX(GPIOx) << ((position & 0x03U) * EXTI_EXTICR1_EXTI1_Pos)))
 505              		.loc 1 330 24 view .LVU207
 506 007c 0F25     		movs	r5, #15
 507 007e 05FA0EF5 		lsl	r5, r5, lr
 330:Drivers/STM32H5xx_HAL_Driver/Src/stm32h5xx_hal_gpio.c ****       if (tmp == (GPIO_GET_INDEX(GPIOx) << ((position & 0x03U) * EXTI_EXTICR1_EXTI1_Pos)))
 508              		.loc 1 330 11 view .LVU208
 509 0082 2E40     		ands	r6, r6, r5
 510              	.LVL51:
 331:Drivers/STM32H5xx_HAL_Driver/Src/stm32h5xx_hal_gpio.c ****       {
 511              		.loc 1 331 7 is_stmt 1 view .LVU209
 331:Drivers/STM32H5xx_HAL_Driver/Src/stm32h5xx_hal_gpio.c ****       {
 512              		.loc 1 331 19 is_stmt 0 view .LVU210
 513 0084 144C     		ldr	r4, .L28+4
 514 0086 04EA902C 		and	ip, r4, r0, lsr #10
 331:Drivers/STM32H5xx_HAL_Driver/Src/stm32h5xx_hal_gpio.c ****       {
 515              		.loc 1 331 41 view .LVU211
 516 008a 0CFA0EFC 		lsl	ip, ip, lr
 331:Drivers/STM32H5xx_HAL_Driver/Src/stm32h5xx_hal_gpio.c ****       {
 517              		.loc 1 331 10 view .LVU212
 518 008e B445     		cmp	ip, r6
 519 0090 BDD1     		bne	.L21
 334:Drivers/STM32H5xx_HAL_Driver/Src/stm32h5xx_hal_gpio.c ****         EXTI->EMR1 &= ~(iocurrent);
 520              		.loc 1 334 9 is_stmt 1 view .LVU213
 334:Drivers/STM32H5xx_HAL_Driver/Src/stm32h5xx_hal_gpio.c ****         EXTI->EMR1 &= ~(iocurrent);
 521              		.loc 1 334 13 is_stmt 0 view .LVU214
 522 0092 104C     		ldr	r4, .L28
 523 0094 D4F88060 		ldr	r6, [r4, #128]
 524              	.LVL52:
 334:Drivers/STM32H5xx_HAL_Driver/Src/stm32h5xx_hal_gpio.c ****         EXTI->EMR1 &= ~(iocurrent);
 525              		.loc 1 334 20 view .LVU215
 526 0098 26EA0806 		bic	r6, r6, r8
 527 009c C4F88060 		str	r6, [r4, #128]
 335:Drivers/STM32H5xx_HAL_Driver/Src/stm32h5xx_hal_gpio.c **** 
 528              		.loc 1 335 9 is_stmt 1 view .LVU216
 335:Drivers/STM32H5xx_HAL_Driver/Src/stm32h5xx_hal_gpio.c **** 
 529              		.loc 1 335 13 is_stmt 0 view .LVU217
 530 00a0 D4F88460 		ldr	r6, [r4, #132]
 335:Drivers/STM32H5xx_HAL_Driver/Src/stm32h5xx_hal_gpio.c **** 
 531              		.loc 1 335 20 view .LVU218
 532 00a4 26EA0806 		bic	r6, r6, r8
 533 00a8 C4F88460 		str	r6, [r4, #132]
 338:Drivers/STM32H5xx_HAL_Driver/Src/stm32h5xx_hal_gpio.c ****         EXTI->FTSR1 &= ~(iocurrent);
ARM GAS  /var/folders/l3/rwskfq612tq4b7hmtv37jkjw0000gp/T//cctyv2t7.s 			page 18


 534              		.loc 1 338 9 is_stmt 1 view .LVU219
 338:Drivers/STM32H5xx_HAL_Driver/Src/stm32h5xx_hal_gpio.c ****         EXTI->FTSR1 &= ~(iocurrent);
 535              		.loc 1 338 13 is_stmt 0 view .LVU220
 536 00ac 2668     		ldr	r6, [r4]
 338:Drivers/STM32H5xx_HAL_Driver/Src/stm32h5xx_hal_gpio.c ****         EXTI->FTSR1 &= ~(iocurrent);
 537              		.loc 1 338 21 view .LVU221
 538 00ae 26EA0806 		bic	r6, r6, r8
 539 00b2 2660     		str	r6, [r4]
 339:Drivers/STM32H5xx_HAL_Driver/Src/stm32h5xx_hal_gpio.c **** 
 540              		.loc 1 339 9 is_stmt 1 view .LVU222
 339:Drivers/STM32H5xx_HAL_Driver/Src/stm32h5xx_hal_gpio.c **** 
 541              		.loc 1 339 13 is_stmt 0 view .LVU223
 542 00b4 6668     		ldr	r6, [r4, #4]
 339:Drivers/STM32H5xx_HAL_Driver/Src/stm32h5xx_hal_gpio.c **** 
 543              		.loc 1 339 21 view .LVU224
 544 00b6 26EA0806 		bic	r6, r6, r8
 545 00ba 6660     		str	r6, [r4, #4]
 341:Drivers/STM32H5xx_HAL_Driver/Src/stm32h5xx_hal_gpio.c ****         EXTI->EXTICR[position >> 2U] &= ~tmp;
 546              		.loc 1 341 9 is_stmt 1 view .LVU225
 547              	.LVL53:
 342:Drivers/STM32H5xx_HAL_Driver/Src/stm32h5xx_hal_gpio.c ****       }
 548              		.loc 1 342 9 view .LVU226
 342:Drivers/STM32H5xx_HAL_Driver/Src/stm32h5xx_hal_gpio.c ****       }
 549              		.loc 1 342 21 is_stmt 0 view .LVU227
 550 00bc 1837     		adds	r7, r7, #24
 551 00be 54F82760 		ldr	r6, [r4, r7, lsl #2]
 342:Drivers/STM32H5xx_HAL_Driver/Src/stm32h5xx_hal_gpio.c ****       }
 552              		.loc 1 342 38 view .LVU228
 553 00c2 26EA0505 		bic	r5, r6, r5
 554              	.LVL54:
 342:Drivers/STM32H5xx_HAL_Driver/Src/stm32h5xx_hal_gpio.c ****       }
 555              		.loc 1 342 38 view .LVU229
 556 00c6 44F82750 		str	r5, [r4, r7, lsl #2]
 557 00ca A0E7     		b	.L21
 558              	.LVL55:
 559              	.L27:
 363:Drivers/STM32H5xx_HAL_Driver/Src/stm32h5xx_hal_gpio.c ****   }
 364:Drivers/STM32H5xx_HAL_Driver/Src/stm32h5xx_hal_gpio.c **** }
 560              		.loc 1 364 1 view .LVU230
 561 00cc BDE8F081 		pop	{r4, r5, r6, r7, r8, pc}
 562              	.LVL56:
 563              	.L26:
 564              	.LCFI2:
 565              		.cfi_def_cfa_offset 0
 566              		.cfi_restore 4
 567              		.cfi_restore 5
 568              		.cfi_restore 6
 569              		.cfi_restore 7
 570              		.cfi_restore 8
 571              		.cfi_restore 14
 572              		.loc 1 364 1 view .LVU231
 573 00d0 7047     		bx	lr
 574              	.L29:
 575 00d2 00BF     		.align	2
 576              	.L28:
 577 00d4 00200244 		.word	1140989952
 578 00d8 7F7F2F00 		.word	3112831
ARM GAS  /var/folders/l3/rwskfq612tq4b7hmtv37jkjw0000gp/T//cctyv2t7.s 			page 19


 579              		.cfi_endproc
 580              	.LFE331:
 582              		.section	.text.HAL_GPIO_ReadPin,"ax",%progbits
 583              		.align	1
 584              		.global	HAL_GPIO_ReadPin
 585              		.syntax unified
 586              		.thumb
 587              		.thumb_func
 589              	HAL_GPIO_ReadPin:
 590              	.LVL57:
 591              	.LFB332:
 365:Drivers/STM32H5xx_HAL_Driver/Src/stm32h5xx_hal_gpio.c **** 
 366:Drivers/STM32H5xx_HAL_Driver/Src/stm32h5xx_hal_gpio.c **** /**
 367:Drivers/STM32H5xx_HAL_Driver/Src/stm32h5xx_hal_gpio.c ****   * @}
 368:Drivers/STM32H5xx_HAL_Driver/Src/stm32h5xx_hal_gpio.c ****   */
 369:Drivers/STM32H5xx_HAL_Driver/Src/stm32h5xx_hal_gpio.c **** 
 370:Drivers/STM32H5xx_HAL_Driver/Src/stm32h5xx_hal_gpio.c **** /** @defgroup GPIO_Exported_Functions_Group2 IO operation functions
 371:Drivers/STM32H5xx_HAL_Driver/Src/stm32h5xx_hal_gpio.c ****   *  @brief GPIO Read, Write, Toggle, Lock and EXTI management functions.
 372:Drivers/STM32H5xx_HAL_Driver/Src/stm32h5xx_hal_gpio.c ****   *
 373:Drivers/STM32H5xx_HAL_Driver/Src/stm32h5xx_hal_gpio.c **** @verbatim
 374:Drivers/STM32H5xx_HAL_Driver/Src/stm32h5xx_hal_gpio.c ****  ===============================================================================
 375:Drivers/STM32H5xx_HAL_Driver/Src/stm32h5xx_hal_gpio.c ****                        ##### IO operation functions #####
 376:Drivers/STM32H5xx_HAL_Driver/Src/stm32h5xx_hal_gpio.c ****  ===============================================================================
 377:Drivers/STM32H5xx_HAL_Driver/Src/stm32h5xx_hal_gpio.c **** 
 378:Drivers/STM32H5xx_HAL_Driver/Src/stm32h5xx_hal_gpio.c **** @endverbatim
 379:Drivers/STM32H5xx_HAL_Driver/Src/stm32h5xx_hal_gpio.c ****   * @{
 380:Drivers/STM32H5xx_HAL_Driver/Src/stm32h5xx_hal_gpio.c ****   */
 381:Drivers/STM32H5xx_HAL_Driver/Src/stm32h5xx_hal_gpio.c **** 
 382:Drivers/STM32H5xx_HAL_Driver/Src/stm32h5xx_hal_gpio.c **** /**
 383:Drivers/STM32H5xx_HAL_Driver/Src/stm32h5xx_hal_gpio.c ****   * @brief  Read the specified input port pin.
 384:Drivers/STM32H5xx_HAL_Driver/Src/stm32h5xx_hal_gpio.c ****   * @param  GPIOx: where x can be (A..I) for stm32h56xxx and stm32h57xxx family lines and
 385:Drivers/STM32H5xx_HAL_Driver/Src/stm32h5xx_hal_gpio.c ****   *         (A..D or H) for stm32h503xx family line to select the GPIO peripheral for STM32H5 famil
 386:Drivers/STM32H5xx_HAL_Driver/Src/stm32h5xx_hal_gpio.c ****   * @param  GPIO_Pin: specifies the port bit to read.
 387:Drivers/STM32H5xx_HAL_Driver/Src/stm32h5xx_hal_gpio.c ****   *         This parameter can be GPIO_PIN_x where x can be (0..15).
 388:Drivers/STM32H5xx_HAL_Driver/Src/stm32h5xx_hal_gpio.c ****   * @retval The input port pin value.
 389:Drivers/STM32H5xx_HAL_Driver/Src/stm32h5xx_hal_gpio.c ****   */
 390:Drivers/STM32H5xx_HAL_Driver/Src/stm32h5xx_hal_gpio.c **** GPIO_PinState HAL_GPIO_ReadPin(const GPIO_TypeDef *GPIOx, uint16_t GPIO_Pin)
 391:Drivers/STM32H5xx_HAL_Driver/Src/stm32h5xx_hal_gpio.c **** {
 592              		.loc 1 391 1 is_stmt 1 view -0
 593              		.cfi_startproc
 594              		@ args = 0, pretend = 0, frame = 0
 595              		@ frame_needed = 0, uses_anonymous_args = 0
 596              		@ link register save eliminated.
 392:Drivers/STM32H5xx_HAL_Driver/Src/stm32h5xx_hal_gpio.c ****   GPIO_PinState bitstatus;
 597              		.loc 1 392 3 view .LVU233
 393:Drivers/STM32H5xx_HAL_Driver/Src/stm32h5xx_hal_gpio.c **** 
 394:Drivers/STM32H5xx_HAL_Driver/Src/stm32h5xx_hal_gpio.c ****   /* Check the parameters */
 395:Drivers/STM32H5xx_HAL_Driver/Src/stm32h5xx_hal_gpio.c ****   assert_param(IS_GPIO_PIN(GPIO_Pin));
 598              		.loc 1 395 3 view .LVU234
 396:Drivers/STM32H5xx_HAL_Driver/Src/stm32h5xx_hal_gpio.c **** 
 397:Drivers/STM32H5xx_HAL_Driver/Src/stm32h5xx_hal_gpio.c ****   if ((GPIOx->IDR & GPIO_Pin) != 0U)
 599              		.loc 1 397 3 view .LVU235
 600              		.loc 1 397 13 is_stmt 0 view .LVU236
 601 0000 0369     		ldr	r3, [r0, #16]
 602              		.loc 1 397 6 view .LVU237
 603 0002 1942     		tst	r1, r3
 604 0004 01D0     		beq	.L32
ARM GAS  /var/folders/l3/rwskfq612tq4b7hmtv37jkjw0000gp/T//cctyv2t7.s 			page 20


 398:Drivers/STM32H5xx_HAL_Driver/Src/stm32h5xx_hal_gpio.c ****   {
 399:Drivers/STM32H5xx_HAL_Driver/Src/stm32h5xx_hal_gpio.c ****     bitstatus = GPIO_PIN_SET;
 605              		.loc 1 399 15 view .LVU238
 606 0006 0120     		movs	r0, #1
 607              	.LVL58:
 608              		.loc 1 399 15 view .LVU239
 609 0008 7047     		bx	lr
 610              	.LVL59:
 611              	.L32:
 400:Drivers/STM32H5xx_HAL_Driver/Src/stm32h5xx_hal_gpio.c ****   }
 401:Drivers/STM32H5xx_HAL_Driver/Src/stm32h5xx_hal_gpio.c ****   else
 402:Drivers/STM32H5xx_HAL_Driver/Src/stm32h5xx_hal_gpio.c ****   {
 403:Drivers/STM32H5xx_HAL_Driver/Src/stm32h5xx_hal_gpio.c ****     bitstatus = GPIO_PIN_RESET;
 612              		.loc 1 403 15 view .LVU240
 613 000a 0020     		movs	r0, #0
 614              	.LVL60:
 404:Drivers/STM32H5xx_HAL_Driver/Src/stm32h5xx_hal_gpio.c ****   }
 405:Drivers/STM32H5xx_HAL_Driver/Src/stm32h5xx_hal_gpio.c ****   return bitstatus;
 615              		.loc 1 405 3 is_stmt 1 view .LVU241
 406:Drivers/STM32H5xx_HAL_Driver/Src/stm32h5xx_hal_gpio.c **** }
 616              		.loc 1 406 1 is_stmt 0 view .LVU242
 617 000c 7047     		bx	lr
 618              		.cfi_endproc
 619              	.LFE332:
 621              		.section	.text.HAL_GPIO_WritePin,"ax",%progbits
 622              		.align	1
 623              		.global	HAL_GPIO_WritePin
 624              		.syntax unified
 625              		.thumb
 626              		.thumb_func
 628              	HAL_GPIO_WritePin:
 629              	.LVL61:
 630              	.LFB333:
 407:Drivers/STM32H5xx_HAL_Driver/Src/stm32h5xx_hal_gpio.c **** 
 408:Drivers/STM32H5xx_HAL_Driver/Src/stm32h5xx_hal_gpio.c **** /**
 409:Drivers/STM32H5xx_HAL_Driver/Src/stm32h5xx_hal_gpio.c ****   * @brief  Set or clear the selected data port bit.
 410:Drivers/STM32H5xx_HAL_Driver/Src/stm32h5xx_hal_gpio.c ****   *
 411:Drivers/STM32H5xx_HAL_Driver/Src/stm32h5xx_hal_gpio.c ****   * @note   This function uses GPIOx_BSRR and GPIOx_BRR registers to allow atomic read/modify
 412:Drivers/STM32H5xx_HAL_Driver/Src/stm32h5xx_hal_gpio.c ****   *         accesses. In this way, there is no risk of an IRQ occurring between
 413:Drivers/STM32H5xx_HAL_Driver/Src/stm32h5xx_hal_gpio.c ****   *         the read and the modify access.
 414:Drivers/STM32H5xx_HAL_Driver/Src/stm32h5xx_hal_gpio.c ****   *
 415:Drivers/STM32H5xx_HAL_Driver/Src/stm32h5xx_hal_gpio.c ****   * @param  GPIOx: where x can be (A..I) for stm32h56xxx and stm32h57xxx family lines and
 416:Drivers/STM32H5xx_HAL_Driver/Src/stm32h5xx_hal_gpio.c ****   *         (A..D or H) for stm32h503xx family line to select the GPIO peripheral for STM32H5 famil
 417:Drivers/STM32H5xx_HAL_Driver/Src/stm32h5xx_hal_gpio.c ****   * @param  GPIO_Pin: specifies the port bit to be written.
 418:Drivers/STM32H5xx_HAL_Driver/Src/stm32h5xx_hal_gpio.c ****   *         This parameter can be one of GPIO_PIN_x where x can be (0..15).
 419:Drivers/STM32H5xx_HAL_Driver/Src/stm32h5xx_hal_gpio.c ****   * @param  PinState: specifies the value to be written to the selected bit.
 420:Drivers/STM32H5xx_HAL_Driver/Src/stm32h5xx_hal_gpio.c ****   *         This parameter can be one of the GPIO_PinState enum values:
 421:Drivers/STM32H5xx_HAL_Driver/Src/stm32h5xx_hal_gpio.c ****   *            @arg GPIO_PIN_RESET: to clear the port pin
 422:Drivers/STM32H5xx_HAL_Driver/Src/stm32h5xx_hal_gpio.c ****   *            @arg GPIO_PIN_SET: to set the port pin
 423:Drivers/STM32H5xx_HAL_Driver/Src/stm32h5xx_hal_gpio.c ****   * @retval None
 424:Drivers/STM32H5xx_HAL_Driver/Src/stm32h5xx_hal_gpio.c ****   */
 425:Drivers/STM32H5xx_HAL_Driver/Src/stm32h5xx_hal_gpio.c **** void HAL_GPIO_WritePin(GPIO_TypeDef *GPIOx, uint16_t GPIO_Pin, GPIO_PinState PinState)
 426:Drivers/STM32H5xx_HAL_Driver/Src/stm32h5xx_hal_gpio.c **** {
 631              		.loc 1 426 1 is_stmt 1 view -0
 632              		.cfi_startproc
 633              		@ args = 0, pretend = 0, frame = 0
 634              		@ frame_needed = 0, uses_anonymous_args = 0
ARM GAS  /var/folders/l3/rwskfq612tq4b7hmtv37jkjw0000gp/T//cctyv2t7.s 			page 21


 635              		@ link register save eliminated.
 427:Drivers/STM32H5xx_HAL_Driver/Src/stm32h5xx_hal_gpio.c ****   /* Check the parameters */
 428:Drivers/STM32H5xx_HAL_Driver/Src/stm32h5xx_hal_gpio.c ****   assert_param(IS_GPIO_PIN(GPIO_Pin));
 636              		.loc 1 428 3 view .LVU244
 429:Drivers/STM32H5xx_HAL_Driver/Src/stm32h5xx_hal_gpio.c ****   assert_param(IS_GPIO_PIN_ACTION(PinState));
 637              		.loc 1 429 3 view .LVU245
 430:Drivers/STM32H5xx_HAL_Driver/Src/stm32h5xx_hal_gpio.c **** 
 431:Drivers/STM32H5xx_HAL_Driver/Src/stm32h5xx_hal_gpio.c ****   if (PinState != GPIO_PIN_RESET)
 638              		.loc 1 431 3 view .LVU246
 639              		.loc 1 431 6 is_stmt 0 view .LVU247
 640 0000 0AB1     		cbz	r2, .L34
 432:Drivers/STM32H5xx_HAL_Driver/Src/stm32h5xx_hal_gpio.c ****   {
 433:Drivers/STM32H5xx_HAL_Driver/Src/stm32h5xx_hal_gpio.c ****     GPIOx->BSRR = (uint32_t)GPIO_Pin;
 641              		.loc 1 433 5 is_stmt 1 view .LVU248
 642              		.loc 1 433 17 is_stmt 0 view .LVU249
 643 0002 8161     		str	r1, [r0, #24]
 644 0004 7047     		bx	lr
 645              	.L34:
 434:Drivers/STM32H5xx_HAL_Driver/Src/stm32h5xx_hal_gpio.c ****   }
 435:Drivers/STM32H5xx_HAL_Driver/Src/stm32h5xx_hal_gpio.c ****   else
 436:Drivers/STM32H5xx_HAL_Driver/Src/stm32h5xx_hal_gpio.c ****   {
 437:Drivers/STM32H5xx_HAL_Driver/Src/stm32h5xx_hal_gpio.c ****     GPIOx->BRR = (uint32_t)GPIO_Pin;
 646              		.loc 1 437 5 is_stmt 1 view .LVU250
 647              		.loc 1 437 16 is_stmt 0 view .LVU251
 648 0006 8162     		str	r1, [r0, #40]
 438:Drivers/STM32H5xx_HAL_Driver/Src/stm32h5xx_hal_gpio.c ****   }
 439:Drivers/STM32H5xx_HAL_Driver/Src/stm32h5xx_hal_gpio.c **** }
 649              		.loc 1 439 1 view .LVU252
 650 0008 7047     		bx	lr
 651              		.cfi_endproc
 652              	.LFE333:
 654              		.section	.text.HAL_GPIO_WriteMultipleStatePin,"ax",%progbits
 655              		.align	1
 656              		.global	HAL_GPIO_WriteMultipleStatePin
 657              		.syntax unified
 658              		.thumb
 659              		.thumb_func
 661              	HAL_GPIO_WriteMultipleStatePin:
 662              	.LVL62:
 663              	.LFB334:
 440:Drivers/STM32H5xx_HAL_Driver/Src/stm32h5xx_hal_gpio.c **** 
 441:Drivers/STM32H5xx_HAL_Driver/Src/stm32h5xx_hal_gpio.c **** /**
 442:Drivers/STM32H5xx_HAL_Driver/Src/stm32h5xx_hal_gpio.c ****   * @brief  Set and clear several pins of a dedicated port in same cycle.
 443:Drivers/STM32H5xx_HAL_Driver/Src/stm32h5xx_hal_gpio.c ****   * @note   This function uses GPIOx_BSRR and GPIOx_BRR registers to allow atomic read/modify
 444:Drivers/STM32H5xx_HAL_Driver/Src/stm32h5xx_hal_gpio.c ****   *         accesses.
 445:Drivers/STM32H5xx_HAL_Driver/Src/stm32h5xx_hal_gpio.c ****   * @param  GPIOx: where x can be (A..I) for stm32h56xxx and stm32h57xxx family lines and
 446:Drivers/STM32H5xx_HAL_Driver/Src/stm32h5xx_hal_gpio.c ****   *         (A..D or H) for stm32h503xx family line to select the GPIO peripheral for STM32H5 famil
 447:Drivers/STM32H5xx_HAL_Driver/Src/stm32h5xx_hal_gpio.c ****   * @param  PinReset specifies the port bits to be reset
 448:Drivers/STM32H5xx_HAL_Driver/Src/stm32h5xx_hal_gpio.c ****   *         This parameter can be any combination of GPIO_Pin_x where x can be (0..15) or zero.
 449:Drivers/STM32H5xx_HAL_Driver/Src/stm32h5xx_hal_gpio.c ****   * @param  PinSet specifies the port bits to be set
 450:Drivers/STM32H5xx_HAL_Driver/Src/stm32h5xx_hal_gpio.c ****   *         This parameter can be any combination of GPIO_Pin_x where x can be (0..15) or zero.
 451:Drivers/STM32H5xx_HAL_Driver/Src/stm32h5xx_hal_gpio.c ****   * @note   Both PinReset and PinSet combinations shall not get any common bit, else
 452:Drivers/STM32H5xx_HAL_Driver/Src/stm32h5xx_hal_gpio.c ****   *         assert would be triggered.
 453:Drivers/STM32H5xx_HAL_Driver/Src/stm32h5xx_hal_gpio.c ****   * @note   At least one of the two parameters used to set or reset shall be different from zero.
 454:Drivers/STM32H5xx_HAL_Driver/Src/stm32h5xx_hal_gpio.c ****   * @retval None
 455:Drivers/STM32H5xx_HAL_Driver/Src/stm32h5xx_hal_gpio.c ****   */
 456:Drivers/STM32H5xx_HAL_Driver/Src/stm32h5xx_hal_gpio.c **** void HAL_GPIO_WriteMultipleStatePin(GPIO_TypeDef *GPIOx, uint16_t PinReset, uint16_t PinSet)
ARM GAS  /var/folders/l3/rwskfq612tq4b7hmtv37jkjw0000gp/T//cctyv2t7.s 			page 22


 457:Drivers/STM32H5xx_HAL_Driver/Src/stm32h5xx_hal_gpio.c **** {
 664              		.loc 1 457 1 is_stmt 1 view -0
 665              		.cfi_startproc
 666              		@ args = 0, pretend = 0, frame = 0
 667              		@ frame_needed = 0, uses_anonymous_args = 0
 668              		@ link register save eliminated.
 458:Drivers/STM32H5xx_HAL_Driver/Src/stm32h5xx_hal_gpio.c ****   uint32_t tmp;
 669              		.loc 1 458 3 view .LVU254
 459:Drivers/STM32H5xx_HAL_Driver/Src/stm32h5xx_hal_gpio.c **** 
 460:Drivers/STM32H5xx_HAL_Driver/Src/stm32h5xx_hal_gpio.c ****   /* Check the parameters */
 461:Drivers/STM32H5xx_HAL_Driver/Src/stm32h5xx_hal_gpio.c ****   /* Make sure at least one parameter is different from zero and that there is no common pin */
 462:Drivers/STM32H5xx_HAL_Driver/Src/stm32h5xx_hal_gpio.c ****   assert_param(IS_GPIO_PIN((uint32_t)PinReset | (uint32_t)PinSet));
 670              		.loc 1 462 3 view .LVU255
 463:Drivers/STM32H5xx_HAL_Driver/Src/stm32h5xx_hal_gpio.c ****   assert_param(IS_GPIO_COMMON_PIN(PinReset, PinSet));
 671              		.loc 1 463 3 view .LVU256
 464:Drivers/STM32H5xx_HAL_Driver/Src/stm32h5xx_hal_gpio.c **** 
 465:Drivers/STM32H5xx_HAL_Driver/Src/stm32h5xx_hal_gpio.c ****   tmp = (((uint32_t)PinReset << 16) | PinSet);
 672              		.loc 1 465 3 view .LVU257
 673              		.loc 1 465 7 is_stmt 0 view .LVU258
 674 0000 42EA0142 		orr	r2, r2, r1, lsl #16
 675              	.LVL63:
 466:Drivers/STM32H5xx_HAL_Driver/Src/stm32h5xx_hal_gpio.c ****   GPIOx->BSRR = tmp;
 676              		.loc 1 466 3 is_stmt 1 view .LVU259
 677              		.loc 1 466 15 is_stmt 0 view .LVU260
 678 0004 8261     		str	r2, [r0, #24]
 467:Drivers/STM32H5xx_HAL_Driver/Src/stm32h5xx_hal_gpio.c **** }
 679              		.loc 1 467 1 view .LVU261
 680 0006 7047     		bx	lr
 681              		.cfi_endproc
 682              	.LFE334:
 684              		.section	.text.HAL_GPIO_TogglePin,"ax",%progbits
 685              		.align	1
 686              		.global	HAL_GPIO_TogglePin
 687              		.syntax unified
 688              		.thumb
 689              		.thumb_func
 691              	HAL_GPIO_TogglePin:
 692              	.LVL64:
 693              	.LFB335:
 468:Drivers/STM32H5xx_HAL_Driver/Src/stm32h5xx_hal_gpio.c **** 
 469:Drivers/STM32H5xx_HAL_Driver/Src/stm32h5xx_hal_gpio.c **** /**
 470:Drivers/STM32H5xx_HAL_Driver/Src/stm32h5xx_hal_gpio.c ****   * @brief  Toggle the specified GPIO pin.
 471:Drivers/STM32H5xx_HAL_Driver/Src/stm32h5xx_hal_gpio.c ****   * @param  GPIOx: where x can be (A..I) to select the GPIO peripheral for STM32H5 family
 472:Drivers/STM32H5xx_HAL_Driver/Src/stm32h5xx_hal_gpio.c ****   * @param  GPIO_Pin: specifies the pin to be toggled.
 473:Drivers/STM32H5xx_HAL_Driver/Src/stm32h5xx_hal_gpio.c ****   * @retval None
 474:Drivers/STM32H5xx_HAL_Driver/Src/stm32h5xx_hal_gpio.c ****   */
 475:Drivers/STM32H5xx_HAL_Driver/Src/stm32h5xx_hal_gpio.c **** void HAL_GPIO_TogglePin(GPIO_TypeDef *GPIOx, uint16_t GPIO_Pin)
 476:Drivers/STM32H5xx_HAL_Driver/Src/stm32h5xx_hal_gpio.c **** {
 694              		.loc 1 476 1 is_stmt 1 view -0
 695              		.cfi_startproc
 696              		@ args = 0, pretend = 0, frame = 0
 697              		@ frame_needed = 0, uses_anonymous_args = 0
 698              		@ link register save eliminated.
 477:Drivers/STM32H5xx_HAL_Driver/Src/stm32h5xx_hal_gpio.c ****   uint32_t odr;
 699              		.loc 1 477 3 view .LVU263
 478:Drivers/STM32H5xx_HAL_Driver/Src/stm32h5xx_hal_gpio.c **** 
 479:Drivers/STM32H5xx_HAL_Driver/Src/stm32h5xx_hal_gpio.c ****   /* Check the parameters */
ARM GAS  /var/folders/l3/rwskfq612tq4b7hmtv37jkjw0000gp/T//cctyv2t7.s 			page 23


 480:Drivers/STM32H5xx_HAL_Driver/Src/stm32h5xx_hal_gpio.c ****   assert_param(IS_GPIO_PIN(GPIO_Pin));
 700              		.loc 1 480 3 view .LVU264
 481:Drivers/STM32H5xx_HAL_Driver/Src/stm32h5xx_hal_gpio.c **** 
 482:Drivers/STM32H5xx_HAL_Driver/Src/stm32h5xx_hal_gpio.c ****   /* get current Output Data Register value */
 483:Drivers/STM32H5xx_HAL_Driver/Src/stm32h5xx_hal_gpio.c ****   odr = GPIOx->ODR;
 701              		.loc 1 483 3 view .LVU265
 702              		.loc 1 483 7 is_stmt 0 view .LVU266
 703 0000 4369     		ldr	r3, [r0, #20]
 704              	.LVL65:
 484:Drivers/STM32H5xx_HAL_Driver/Src/stm32h5xx_hal_gpio.c **** 
 485:Drivers/STM32H5xx_HAL_Driver/Src/stm32h5xx_hal_gpio.c ****   /* Set selected pins that were at low level, and reset ones that were high */
 486:Drivers/STM32H5xx_HAL_Driver/Src/stm32h5xx_hal_gpio.c ****   GPIOx->BSRR = ((odr & GPIO_Pin) << GPIO_NUMBER) | (~odr & GPIO_Pin);
 705              		.loc 1 486 3 is_stmt 1 view .LVU267
 706              		.loc 1 486 23 is_stmt 0 view .LVU268
 707 0002 01EA0302 		and	r2, r1, r3
 708              		.loc 1 486 59 view .LVU269
 709 0006 21EA0301 		bic	r1, r1, r3
 710              	.LVL66:
 711              		.loc 1 486 51 view .LVU270
 712 000a 41EA0241 		orr	r1, r1, r2, lsl #16
 713              		.loc 1 486 15 view .LVU271
 714 000e 8161     		str	r1, [r0, #24]
 487:Drivers/STM32H5xx_HAL_Driver/Src/stm32h5xx_hal_gpio.c **** }
 715              		.loc 1 487 1 view .LVU272
 716 0010 7047     		bx	lr
 717              		.cfi_endproc
 718              	.LFE335:
 720              		.section	.text.HAL_GPIO_LockPin,"ax",%progbits
 721              		.align	1
 722              		.global	HAL_GPIO_LockPin
 723              		.syntax unified
 724              		.thumb
 725              		.thumb_func
 727              	HAL_GPIO_LockPin:
 728              	.LVL67:
 729              	.LFB336:
 488:Drivers/STM32H5xx_HAL_Driver/Src/stm32h5xx_hal_gpio.c **** 
 489:Drivers/STM32H5xx_HAL_Driver/Src/stm32h5xx_hal_gpio.c **** /**
 490:Drivers/STM32H5xx_HAL_Driver/Src/stm32h5xx_hal_gpio.c ****   * @brief  Lock GPIO Pins configuration registers.
 491:Drivers/STM32H5xx_HAL_Driver/Src/stm32h5xx_hal_gpio.c ****   * @note   The locked registers are GPIOx_MODER, GPIOx_OTYPER, GPIOx_OSPEEDR,
 492:Drivers/STM32H5xx_HAL_Driver/Src/stm32h5xx_hal_gpio.c ****   *         GPIOx_PUPDR, GPIOx_AFRL and GPIOx_AFRH.
 493:Drivers/STM32H5xx_HAL_Driver/Src/stm32h5xx_hal_gpio.c ****   * @note   The configuration of the locked GPIO pins can no longer be modified
 494:Drivers/STM32H5xx_HAL_Driver/Src/stm32h5xx_hal_gpio.c ****   *         until the next reset.
 495:Drivers/STM32H5xx_HAL_Driver/Src/stm32h5xx_hal_gpio.c ****   * @param  GPIOx: where x can be (A..I) for stm32h56xxx and stm32h57xxx family lines and
 496:Drivers/STM32H5xx_HAL_Driver/Src/stm32h5xx_hal_gpio.c ****   *         (A..D or H) for stm32h503xx family line to select the GPIO peripheral for STM32H5 famil
 497:Drivers/STM32H5xx_HAL_Driver/Src/stm32h5xx_hal_gpio.c ****   * @param  GPIO_Pin: specifies the port bits to be locked.
 498:Drivers/STM32H5xx_HAL_Driver/Src/stm32h5xx_hal_gpio.c ****   *         This parameter can be any combination of GPIO_Pin_x where x can be (0..15).
 499:Drivers/STM32H5xx_HAL_Driver/Src/stm32h5xx_hal_gpio.c ****   * @retval None
 500:Drivers/STM32H5xx_HAL_Driver/Src/stm32h5xx_hal_gpio.c ****   */
 501:Drivers/STM32H5xx_HAL_Driver/Src/stm32h5xx_hal_gpio.c **** HAL_StatusTypeDef HAL_GPIO_LockPin(GPIO_TypeDef *GPIOx, uint16_t GPIO_Pin)
 502:Drivers/STM32H5xx_HAL_Driver/Src/stm32h5xx_hal_gpio.c **** {
 730              		.loc 1 502 1 is_stmt 1 view -0
 731              		.cfi_startproc
 732              		@ args = 0, pretend = 0, frame = 8
 733              		@ frame_needed = 0, uses_anonymous_args = 0
 734              		@ link register save eliminated.
 735              		.loc 1 502 1 is_stmt 0 view .LVU274
ARM GAS  /var/folders/l3/rwskfq612tq4b7hmtv37jkjw0000gp/T//cctyv2t7.s 			page 24


 736 0000 82B0     		sub	sp, sp, #8
 737              	.LCFI3:
 738              		.cfi_def_cfa_offset 8
 503:Drivers/STM32H5xx_HAL_Driver/Src/stm32h5xx_hal_gpio.c ****   __IO uint32_t tmp = GPIO_LCKR_LCKK;
 739              		.loc 1 503 3 is_stmt 1 view .LVU275
 740              		.loc 1 503 17 is_stmt 0 view .LVU276
 741 0002 4FF48033 		mov	r3, #65536
 742 0006 0193     		str	r3, [sp, #4]
 504:Drivers/STM32H5xx_HAL_Driver/Src/stm32h5xx_hal_gpio.c **** 
 505:Drivers/STM32H5xx_HAL_Driver/Src/stm32h5xx_hal_gpio.c ****   /* Check the parameters */
 506:Drivers/STM32H5xx_HAL_Driver/Src/stm32h5xx_hal_gpio.c ****   assert_param(IS_GPIO_LOCK_INSTANCE(GPIOx));
 743              		.loc 1 506 3 is_stmt 1 view .LVU277
 507:Drivers/STM32H5xx_HAL_Driver/Src/stm32h5xx_hal_gpio.c ****   assert_param(IS_GPIO_PIN(GPIO_Pin));
 744              		.loc 1 507 3 view .LVU278
 508:Drivers/STM32H5xx_HAL_Driver/Src/stm32h5xx_hal_gpio.c **** 
 509:Drivers/STM32H5xx_HAL_Driver/Src/stm32h5xx_hal_gpio.c ****   /* Apply lock key write sequence */
 510:Drivers/STM32H5xx_HAL_Driver/Src/stm32h5xx_hal_gpio.c ****   tmp |= GPIO_Pin;
 745              		.loc 1 510 3 view .LVU279
 746              		.loc 1 510 7 is_stmt 0 view .LVU280
 747 0008 019B     		ldr	r3, [sp, #4]
 748 000a 0B43     		orrs	r3, r3, r1
 749 000c 0193     		str	r3, [sp, #4]
 511:Drivers/STM32H5xx_HAL_Driver/Src/stm32h5xx_hal_gpio.c ****   /* Set LCKx bit(s): LCKK='1' + LCK[15-0] */
 512:Drivers/STM32H5xx_HAL_Driver/Src/stm32h5xx_hal_gpio.c ****   GPIOx->LCKR = tmp;
 750              		.loc 1 512 3 is_stmt 1 view .LVU281
 751              		.loc 1 512 15 is_stmt 0 view .LVU282
 752 000e 019B     		ldr	r3, [sp, #4]
 753 0010 C361     		str	r3, [r0, #28]
 513:Drivers/STM32H5xx_HAL_Driver/Src/stm32h5xx_hal_gpio.c ****   /* Reset LCKx bit(s): LCKK='0' + LCK[15-0] */
 514:Drivers/STM32H5xx_HAL_Driver/Src/stm32h5xx_hal_gpio.c ****   GPIOx->LCKR = GPIO_Pin;
 754              		.loc 1 514 3 is_stmt 1 view .LVU283
 755              		.loc 1 514 15 is_stmt 0 view .LVU284
 756 0012 C161     		str	r1, [r0, #28]
 515:Drivers/STM32H5xx_HAL_Driver/Src/stm32h5xx_hal_gpio.c ****   /* Set LCKx bit(s): LCKK='1' + LCK[15-0] */
 516:Drivers/STM32H5xx_HAL_Driver/Src/stm32h5xx_hal_gpio.c ****   GPIOx->LCKR = tmp;
 757              		.loc 1 516 3 is_stmt 1 view .LVU285
 758              		.loc 1 516 15 is_stmt 0 view .LVU286
 759 0014 019B     		ldr	r3, [sp, #4]
 760 0016 C361     		str	r3, [r0, #28]
 517:Drivers/STM32H5xx_HAL_Driver/Src/stm32h5xx_hal_gpio.c ****   /* Read LCKK bit*/
 518:Drivers/STM32H5xx_HAL_Driver/Src/stm32h5xx_hal_gpio.c ****   tmp = GPIOx->LCKR;
 761              		.loc 1 518 3 is_stmt 1 view .LVU287
 762              		.loc 1 518 14 is_stmt 0 view .LVU288
 763 0018 C369     		ldr	r3, [r0, #28]
 764              		.loc 1 518 7 view .LVU289
 765 001a 0193     		str	r3, [sp, #4]
 519:Drivers/STM32H5xx_HAL_Driver/Src/stm32h5xx_hal_gpio.c **** 
 520:Drivers/STM32H5xx_HAL_Driver/Src/stm32h5xx_hal_gpio.c ****   /* read again in order to confirm lock is active */
 521:Drivers/STM32H5xx_HAL_Driver/Src/stm32h5xx_hal_gpio.c ****   if ((GPIOx->LCKR & GPIO_LCKR_LCKK) != GPIO_LCKR_LCKK)
 766              		.loc 1 521 3 is_stmt 1 view .LVU290
 767              		.loc 1 521 13 is_stmt 0 view .LVU291
 768 001c C369     		ldr	r3, [r0, #28]
 769              		.loc 1 521 6 view .LVU292
 770 001e 13F4803F 		tst	r3, #65536
 771 0022 02D0     		beq	.L40
 522:Drivers/STM32H5xx_HAL_Driver/Src/stm32h5xx_hal_gpio.c ****   {
 523:Drivers/STM32H5xx_HAL_Driver/Src/stm32h5xx_hal_gpio.c ****     return HAL_ERROR;
ARM GAS  /var/folders/l3/rwskfq612tq4b7hmtv37jkjw0000gp/T//cctyv2t7.s 			page 25


 524:Drivers/STM32H5xx_HAL_Driver/Src/stm32h5xx_hal_gpio.c ****   }
 525:Drivers/STM32H5xx_HAL_Driver/Src/stm32h5xx_hal_gpio.c ****   return HAL_OK;
 772              		.loc 1 525 10 view .LVU293
 773 0024 0020     		movs	r0, #0
 774              	.LVL68:
 775              	.L39:
 526:Drivers/STM32H5xx_HAL_Driver/Src/stm32h5xx_hal_gpio.c **** }
 776              		.loc 1 526 1 view .LVU294
 777 0026 02B0     		add	sp, sp, #8
 778              	.LCFI4:
 779              		.cfi_remember_state
 780              		.cfi_def_cfa_offset 0
 781              		@ sp needed
 782 0028 7047     		bx	lr
 783              	.LVL69:
 784              	.L40:
 785              	.LCFI5:
 786              		.cfi_restore_state
 523:Drivers/STM32H5xx_HAL_Driver/Src/stm32h5xx_hal_gpio.c ****   }
 787              		.loc 1 523 12 view .LVU295
 788 002a 0120     		movs	r0, #1
 789              	.LVL70:
 523:Drivers/STM32H5xx_HAL_Driver/Src/stm32h5xx_hal_gpio.c ****   }
 790              		.loc 1 523 12 view .LVU296
 791 002c FBE7     		b	.L39
 792              		.cfi_endproc
 793              	.LFE336:
 795              		.section	.text.HAL_GPIO_EnableHighSPeedLowVoltage,"ax",%progbits
 796              		.align	1
 797              		.global	HAL_GPIO_EnableHighSPeedLowVoltage
 798              		.syntax unified
 799              		.thumb
 800              		.thumb_func
 802              	HAL_GPIO_EnableHighSPeedLowVoltage:
 803              	.LVL71:
 804              	.LFB337:
 527:Drivers/STM32H5xx_HAL_Driver/Src/stm32h5xx_hal_gpio.c **** 
 528:Drivers/STM32H5xx_HAL_Driver/Src/stm32h5xx_hal_gpio.c **** /**
 529:Drivers/STM32H5xx_HAL_Driver/Src/stm32h5xx_hal_gpio.c ****   * @brief  Enable speed optimization for several pin of dedicated port.
 530:Drivers/STM32H5xx_HAL_Driver/Src/stm32h5xx_hal_gpio.c ****   * @note   Not all I/Os support the HSLV mode. Refer to the I/O structure in the corresponding
 531:Drivers/STM32H5xx_HAL_Driver/Src/stm32h5xx_hal_gpio.c ****   *         datasheet for the list of I/Os supporting this feature. Other I/Os HSLV configuration m
 532:Drivers/STM32H5xx_HAL_Driver/Src/stm32h5xx_hal_gpio.c ****   *         be kept at reset value.
 533:Drivers/STM32H5xx_HAL_Driver/Src/stm32h5xx_hal_gpio.c ****   * @note   It must be used only if the I/O supply voltage is below 2.7 V.
 534:Drivers/STM32H5xx_HAL_Driver/Src/stm32h5xx_hal_gpio.c ****   * @param  GPIOx: where x can be (A..I) for stm32h56xxx and stm32h57xxx family lines and
 535:Drivers/STM32H5xx_HAL_Driver/Src/stm32h5xx_hal_gpio.c ****   *         (A..D or H) for stm32h503xx family line to select the GPIO peripheral for STM32H5 famil
 536:Drivers/STM32H5xx_HAL_Driver/Src/stm32h5xx_hal_gpio.c ****   * @param  GPIO_Pin: specifies the port bit to be written.
 537:Drivers/STM32H5xx_HAL_Driver/Src/stm32h5xx_hal_gpio.c ****   *         This parameter can be any combination of GPIO_Pin_x where x can be (0..15).
 538:Drivers/STM32H5xx_HAL_Driver/Src/stm32h5xx_hal_gpio.c ****   * @retval None
 539:Drivers/STM32H5xx_HAL_Driver/Src/stm32h5xx_hal_gpio.c ****   */
 540:Drivers/STM32H5xx_HAL_Driver/Src/stm32h5xx_hal_gpio.c **** void HAL_GPIO_EnableHighSPeedLowVoltage(GPIO_TypeDef *GPIOx, uint16_t GPIO_Pin)
 541:Drivers/STM32H5xx_HAL_Driver/Src/stm32h5xx_hal_gpio.c **** {
 805              		.loc 1 541 1 is_stmt 1 view -0
 806              		.cfi_startproc
 807              		@ args = 0, pretend = 0, frame = 0
 808              		@ frame_needed = 0, uses_anonymous_args = 0
 809              		@ link register save eliminated.
 542:Drivers/STM32H5xx_HAL_Driver/Src/stm32h5xx_hal_gpio.c ****   /* Check the parameters */
ARM GAS  /var/folders/l3/rwskfq612tq4b7hmtv37jkjw0000gp/T//cctyv2t7.s 			page 26


 543:Drivers/STM32H5xx_HAL_Driver/Src/stm32h5xx_hal_gpio.c ****   assert_param(IS_GPIO_PIN(GPIO_Pin));
 810              		.loc 1 543 3 view .LVU298
 544:Drivers/STM32H5xx_HAL_Driver/Src/stm32h5xx_hal_gpio.c ****   assert_param(IS_GPIO_ALL_INSTANCE(GPIOx));
 811              		.loc 1 544 3 view .LVU299
 545:Drivers/STM32H5xx_HAL_Driver/Src/stm32h5xx_hal_gpio.c **** 
 546:Drivers/STM32H5xx_HAL_Driver/Src/stm32h5xx_hal_gpio.c ****   /* Set HSLVR gpio pin */
 547:Drivers/STM32H5xx_HAL_Driver/Src/stm32h5xx_hal_gpio.c ****   SET_BIT(GPIOx->HSLVR, GPIO_Pin);
 812              		.loc 1 547 3 view .LVU300
 813 0000 C36A     		ldr	r3, [r0, #44]
 814 0002 1943     		orrs	r1, r1, r3
 815              	.LVL72:
 816              		.loc 1 547 3 is_stmt 0 view .LVU301
 817 0004 C162     		str	r1, [r0, #44]
 548:Drivers/STM32H5xx_HAL_Driver/Src/stm32h5xx_hal_gpio.c **** }
 818              		.loc 1 548 1 view .LVU302
 819 0006 7047     		bx	lr
 820              		.cfi_endproc
 821              	.LFE337:
 823              		.section	.text.HAL_GPIO_DisableHighSPeedLowVoltage,"ax",%progbits
 824              		.align	1
 825              		.global	HAL_GPIO_DisableHighSPeedLowVoltage
 826              		.syntax unified
 827              		.thumb
 828              		.thumb_func
 830              	HAL_GPIO_DisableHighSPeedLowVoltage:
 831              	.LVL73:
 832              	.LFB338:
 549:Drivers/STM32H5xx_HAL_Driver/Src/stm32h5xx_hal_gpio.c **** 
 550:Drivers/STM32H5xx_HAL_Driver/Src/stm32h5xx_hal_gpio.c **** /**
 551:Drivers/STM32H5xx_HAL_Driver/Src/stm32h5xx_hal_gpio.c ****   * @brief  Disable speed optimization for several pin of dedicated port.
 552:Drivers/STM32H5xx_HAL_Driver/Src/stm32h5xx_hal_gpio.c ****   * @note   Not all I/Os support the HSLV mode. Refer to the I/O structure in the corresponding
 553:Drivers/STM32H5xx_HAL_Driver/Src/stm32h5xx_hal_gpio.c ****   *         datasheet for the list of I/Os supporting this feature. Other I/Os HSLV configuration m
 554:Drivers/STM32H5xx_HAL_Driver/Src/stm32h5xx_hal_gpio.c ****   *         be kept at reset value.
 555:Drivers/STM32H5xx_HAL_Driver/Src/stm32h5xx_hal_gpio.c ****   * @note   It must be used only if the I/O supply voltage is below 2.7 V.
 556:Drivers/STM32H5xx_HAL_Driver/Src/stm32h5xx_hal_gpio.c ****   * @param  GPIOx: where x can be (A..I) for stm32h56xxx and stm32h57xxx family lines and
 557:Drivers/STM32H5xx_HAL_Driver/Src/stm32h5xx_hal_gpio.c ****   *         (A..D or H) for stm32h503xx family line to select the GPIO peripheral for STM32H5 famil
 558:Drivers/STM32H5xx_HAL_Driver/Src/stm32h5xx_hal_gpio.c ****   * @param  GPIO_Pin: specifies the port bit to be written.
 559:Drivers/STM32H5xx_HAL_Driver/Src/stm32h5xx_hal_gpio.c ****   *         This parameter can be any combination of GPIO_Pin_x where x can be (0..15).
 560:Drivers/STM32H5xx_HAL_Driver/Src/stm32h5xx_hal_gpio.c ****   * @retval None
 561:Drivers/STM32H5xx_HAL_Driver/Src/stm32h5xx_hal_gpio.c ****   */
 562:Drivers/STM32H5xx_HAL_Driver/Src/stm32h5xx_hal_gpio.c **** void HAL_GPIO_DisableHighSPeedLowVoltage(GPIO_TypeDef *GPIOx, uint16_t GPIO_Pin)
 563:Drivers/STM32H5xx_HAL_Driver/Src/stm32h5xx_hal_gpio.c **** {
 833              		.loc 1 563 1 is_stmt 1 view -0
 834              		.cfi_startproc
 835              		@ args = 0, pretend = 0, frame = 0
 836              		@ frame_needed = 0, uses_anonymous_args = 0
 837              		@ link register save eliminated.
 564:Drivers/STM32H5xx_HAL_Driver/Src/stm32h5xx_hal_gpio.c ****   /* Check the parameters */
 565:Drivers/STM32H5xx_HAL_Driver/Src/stm32h5xx_hal_gpio.c ****   assert_param(IS_GPIO_PIN(GPIO_Pin));
 838              		.loc 1 565 3 view .LVU304
 566:Drivers/STM32H5xx_HAL_Driver/Src/stm32h5xx_hal_gpio.c ****   assert_param(IS_GPIO_ALL_INSTANCE(GPIOx));
 839              		.loc 1 566 3 view .LVU305
 567:Drivers/STM32H5xx_HAL_Driver/Src/stm32h5xx_hal_gpio.c **** 
 568:Drivers/STM32H5xx_HAL_Driver/Src/stm32h5xx_hal_gpio.c ****   /* Clear HSLVR gpio pin */
 569:Drivers/STM32H5xx_HAL_Driver/Src/stm32h5xx_hal_gpio.c ****   CLEAR_BIT(GPIOx->HSLVR, GPIO_Pin);
 840              		.loc 1 569 3 view .LVU306
 841 0000 C36A     		ldr	r3, [r0, #44]
ARM GAS  /var/folders/l3/rwskfq612tq4b7hmtv37jkjw0000gp/T//cctyv2t7.s 			page 27


 842 0002 23EA0103 		bic	r3, r3, r1
 843 0006 C362     		str	r3, [r0, #44]
 570:Drivers/STM32H5xx_HAL_Driver/Src/stm32h5xx_hal_gpio.c **** }
 844              		.loc 1 570 1 is_stmt 0 view .LVU307
 845 0008 7047     		bx	lr
 846              		.cfi_endproc
 847              	.LFE338:
 849              		.section	.text.HAL_GPIO_EXTI_Rising_Callback,"ax",%progbits
 850              		.align	1
 851              		.weak	HAL_GPIO_EXTI_Rising_Callback
 852              		.syntax unified
 853              		.thumb
 854              		.thumb_func
 856              	HAL_GPIO_EXTI_Rising_Callback:
 857              	.LVL74:
 858              	.LFB340:
 571:Drivers/STM32H5xx_HAL_Driver/Src/stm32h5xx_hal_gpio.c **** 
 572:Drivers/STM32H5xx_HAL_Driver/Src/stm32h5xx_hal_gpio.c **** /**
 573:Drivers/STM32H5xx_HAL_Driver/Src/stm32h5xx_hal_gpio.c ****   * @brief  Handle EXTI interrupt request.
 574:Drivers/STM32H5xx_HAL_Driver/Src/stm32h5xx_hal_gpio.c ****   * @param  GPIO_Pin: Specifies the port pin connected to corresponding EXTI line.
 575:Drivers/STM32H5xx_HAL_Driver/Src/stm32h5xx_hal_gpio.c ****   * @retval None
 576:Drivers/STM32H5xx_HAL_Driver/Src/stm32h5xx_hal_gpio.c ****   */
 577:Drivers/STM32H5xx_HAL_Driver/Src/stm32h5xx_hal_gpio.c **** void HAL_GPIO_EXTI_IRQHandler(uint16_t GPIO_Pin)
 578:Drivers/STM32H5xx_HAL_Driver/Src/stm32h5xx_hal_gpio.c **** {
 579:Drivers/STM32H5xx_HAL_Driver/Src/stm32h5xx_hal_gpio.c ****   /* EXTI line interrupt detected */
 580:Drivers/STM32H5xx_HAL_Driver/Src/stm32h5xx_hal_gpio.c ****   if (__HAL_GPIO_EXTI_GET_RISING_IT(GPIO_Pin) != 0U)
 581:Drivers/STM32H5xx_HAL_Driver/Src/stm32h5xx_hal_gpio.c ****   {
 582:Drivers/STM32H5xx_HAL_Driver/Src/stm32h5xx_hal_gpio.c ****     __HAL_GPIO_EXTI_CLEAR_RISING_IT(GPIO_Pin);
 583:Drivers/STM32H5xx_HAL_Driver/Src/stm32h5xx_hal_gpio.c ****     HAL_GPIO_EXTI_Rising_Callback(GPIO_Pin);
 584:Drivers/STM32H5xx_HAL_Driver/Src/stm32h5xx_hal_gpio.c ****   }
 585:Drivers/STM32H5xx_HAL_Driver/Src/stm32h5xx_hal_gpio.c **** 
 586:Drivers/STM32H5xx_HAL_Driver/Src/stm32h5xx_hal_gpio.c ****   if (__HAL_GPIO_EXTI_GET_FALLING_IT(GPIO_Pin) != 0U)
 587:Drivers/STM32H5xx_HAL_Driver/Src/stm32h5xx_hal_gpio.c ****   {
 588:Drivers/STM32H5xx_HAL_Driver/Src/stm32h5xx_hal_gpio.c ****     __HAL_GPIO_EXTI_CLEAR_FALLING_IT(GPIO_Pin);
 589:Drivers/STM32H5xx_HAL_Driver/Src/stm32h5xx_hal_gpio.c ****     HAL_GPIO_EXTI_Falling_Callback(GPIO_Pin);
 590:Drivers/STM32H5xx_HAL_Driver/Src/stm32h5xx_hal_gpio.c ****   }
 591:Drivers/STM32H5xx_HAL_Driver/Src/stm32h5xx_hal_gpio.c **** }
 592:Drivers/STM32H5xx_HAL_Driver/Src/stm32h5xx_hal_gpio.c **** 
 593:Drivers/STM32H5xx_HAL_Driver/Src/stm32h5xx_hal_gpio.c **** /**
 594:Drivers/STM32H5xx_HAL_Driver/Src/stm32h5xx_hal_gpio.c ****   * @brief  EXTI line rising detection callback.
 595:Drivers/STM32H5xx_HAL_Driver/Src/stm32h5xx_hal_gpio.c ****   * @param  GPIO_Pin: Specifies the port pin connected to corresponding EXTI line.
 596:Drivers/STM32H5xx_HAL_Driver/Src/stm32h5xx_hal_gpio.c ****   * @retval None
 597:Drivers/STM32H5xx_HAL_Driver/Src/stm32h5xx_hal_gpio.c ****   */
 598:Drivers/STM32H5xx_HAL_Driver/Src/stm32h5xx_hal_gpio.c **** __weak void HAL_GPIO_EXTI_Rising_Callback(uint16_t GPIO_Pin)
 599:Drivers/STM32H5xx_HAL_Driver/Src/stm32h5xx_hal_gpio.c **** {
 859              		.loc 1 599 1 is_stmt 1 view -0
 860              		.cfi_startproc
 861              		@ args = 0, pretend = 0, frame = 0
 862              		@ frame_needed = 0, uses_anonymous_args = 0
 863              		@ link register save eliminated.
 600:Drivers/STM32H5xx_HAL_Driver/Src/stm32h5xx_hal_gpio.c ****   /* Prevent unused argument(s) compilation warning */
 601:Drivers/STM32H5xx_HAL_Driver/Src/stm32h5xx_hal_gpio.c ****   UNUSED(GPIO_Pin);
 864              		.loc 1 601 3 view .LVU309
 602:Drivers/STM32H5xx_HAL_Driver/Src/stm32h5xx_hal_gpio.c **** 
 603:Drivers/STM32H5xx_HAL_Driver/Src/stm32h5xx_hal_gpio.c ****   /* NOTE: This function should not be modified, when the callback is needed,
 604:Drivers/STM32H5xx_HAL_Driver/Src/stm32h5xx_hal_gpio.c ****            the HAL_GPIO_EXTI_Rising_Callback could be implemented in the user file
 605:Drivers/STM32H5xx_HAL_Driver/Src/stm32h5xx_hal_gpio.c ****    */
ARM GAS  /var/folders/l3/rwskfq612tq4b7hmtv37jkjw0000gp/T//cctyv2t7.s 			page 28


 606:Drivers/STM32H5xx_HAL_Driver/Src/stm32h5xx_hal_gpio.c **** }
 865              		.loc 1 606 1 is_stmt 0 view .LVU310
 866 0000 7047     		bx	lr
 867              		.cfi_endproc
 868              	.LFE340:
 870              		.section	.text.HAL_GPIO_EXTI_Falling_Callback,"ax",%progbits
 871              		.align	1
 872              		.weak	HAL_GPIO_EXTI_Falling_Callback
 873              		.syntax unified
 874              		.thumb
 875              		.thumb_func
 877              	HAL_GPIO_EXTI_Falling_Callback:
 878              	.LVL75:
 879              	.LFB341:
 607:Drivers/STM32H5xx_HAL_Driver/Src/stm32h5xx_hal_gpio.c **** 
 608:Drivers/STM32H5xx_HAL_Driver/Src/stm32h5xx_hal_gpio.c **** /**
 609:Drivers/STM32H5xx_HAL_Driver/Src/stm32h5xx_hal_gpio.c ****   * @brief  EXTI line falling detection callback.
 610:Drivers/STM32H5xx_HAL_Driver/Src/stm32h5xx_hal_gpio.c ****   * @param  GPIO_Pin: Specifies the port pin connected to corresponding EXTI line.
 611:Drivers/STM32H5xx_HAL_Driver/Src/stm32h5xx_hal_gpio.c ****   * @retval None
 612:Drivers/STM32H5xx_HAL_Driver/Src/stm32h5xx_hal_gpio.c ****   */
 613:Drivers/STM32H5xx_HAL_Driver/Src/stm32h5xx_hal_gpio.c **** __weak void HAL_GPIO_EXTI_Falling_Callback(uint16_t GPIO_Pin)
 614:Drivers/STM32H5xx_HAL_Driver/Src/stm32h5xx_hal_gpio.c **** {
 880              		.loc 1 614 1 is_stmt 1 view -0
 881              		.cfi_startproc
 882              		@ args = 0, pretend = 0, frame = 0
 883              		@ frame_needed = 0, uses_anonymous_args = 0
 884              		@ link register save eliminated.
 615:Drivers/STM32H5xx_HAL_Driver/Src/stm32h5xx_hal_gpio.c ****   /* Prevent unused argument(s) compilation warning */
 616:Drivers/STM32H5xx_HAL_Driver/Src/stm32h5xx_hal_gpio.c ****   UNUSED(GPIO_Pin);
 885              		.loc 1 616 3 view .LVU312
 617:Drivers/STM32H5xx_HAL_Driver/Src/stm32h5xx_hal_gpio.c **** 
 618:Drivers/STM32H5xx_HAL_Driver/Src/stm32h5xx_hal_gpio.c ****   /* NOTE: This function should not be modified, when the callback is needed,
 619:Drivers/STM32H5xx_HAL_Driver/Src/stm32h5xx_hal_gpio.c ****            the HAL_GPIO_EXTI_Falling_Callback could be implemented in the user file
 620:Drivers/STM32H5xx_HAL_Driver/Src/stm32h5xx_hal_gpio.c ****    */
 621:Drivers/STM32H5xx_HAL_Driver/Src/stm32h5xx_hal_gpio.c **** }
 886              		.loc 1 621 1 is_stmt 0 view .LVU313
 887 0000 7047     		bx	lr
 888              		.cfi_endproc
 889              	.LFE341:
 891              		.section	.text.HAL_GPIO_EXTI_IRQHandler,"ax",%progbits
 892              		.align	1
 893              		.global	HAL_GPIO_EXTI_IRQHandler
 894              		.syntax unified
 895              		.thumb
 896              		.thumb_func
 898              	HAL_GPIO_EXTI_IRQHandler:
 899              	.LVL76:
 900              	.LFB339:
 578:Drivers/STM32H5xx_HAL_Driver/Src/stm32h5xx_hal_gpio.c ****   /* EXTI line interrupt detected */
 901              		.loc 1 578 1 is_stmt 1 view -0
 902              		.cfi_startproc
 903              		@ args = 0, pretend = 0, frame = 0
 904              		@ frame_needed = 0, uses_anonymous_args = 0
 578:Drivers/STM32H5xx_HAL_Driver/Src/stm32h5xx_hal_gpio.c ****   /* EXTI line interrupt detected */
 905              		.loc 1 578 1 is_stmt 0 view .LVU315
 906 0000 10B5     		push	{r4, lr}
 907              	.LCFI6:
ARM GAS  /var/folders/l3/rwskfq612tq4b7hmtv37jkjw0000gp/T//cctyv2t7.s 			page 29


 908              		.cfi_def_cfa_offset 8
 909              		.cfi_offset 4, -8
 910              		.cfi_offset 14, -4
 911 0002 0446     		mov	r4, r0
 580:Drivers/STM32H5xx_HAL_Driver/Src/stm32h5xx_hal_gpio.c ****   {
 912              		.loc 1 580 3 is_stmt 1 view .LVU316
 580:Drivers/STM32H5xx_HAL_Driver/Src/stm32h5xx_hal_gpio.c ****   {
 913              		.loc 1 580 7 is_stmt 0 view .LVU317
 914 0004 094B     		ldr	r3, .L52
 915 0006 DB68     		ldr	r3, [r3, #12]
 580:Drivers/STM32H5xx_HAL_Driver/Src/stm32h5xx_hal_gpio.c ****   {
 916              		.loc 1 580 6 view .LVU318
 917 0008 0342     		tst	r3, r0
 918 000a 04D1     		bne	.L50
 919              	.LVL77:
 920              	.L47:
 586:Drivers/STM32H5xx_HAL_Driver/Src/stm32h5xx_hal_gpio.c ****   {
 921              		.loc 1 586 3 is_stmt 1 view .LVU319
 586:Drivers/STM32H5xx_HAL_Driver/Src/stm32h5xx_hal_gpio.c ****   {
 922              		.loc 1 586 7 is_stmt 0 view .LVU320
 923 000c 074B     		ldr	r3, .L52
 924 000e 1B69     		ldr	r3, [r3, #16]
 586:Drivers/STM32H5xx_HAL_Driver/Src/stm32h5xx_hal_gpio.c ****   {
 925              		.loc 1 586 6 view .LVU321
 926 0010 1C42     		tst	r4, r3
 927 0012 05D1     		bne	.L51
 928              	.L46:
 591:Drivers/STM32H5xx_HAL_Driver/Src/stm32h5xx_hal_gpio.c **** 
 929              		.loc 1 591 1 view .LVU322
 930 0014 10BD     		pop	{r4, pc}
 931              	.LVL78:
 932              	.L50:
 582:Drivers/STM32H5xx_HAL_Driver/Src/stm32h5xx_hal_gpio.c ****     HAL_GPIO_EXTI_Rising_Callback(GPIO_Pin);
 933              		.loc 1 582 5 is_stmt 1 view .LVU323
 934 0016 054B     		ldr	r3, .L52
 935 0018 D860     		str	r0, [r3, #12]
 583:Drivers/STM32H5xx_HAL_Driver/Src/stm32h5xx_hal_gpio.c ****   }
 936              		.loc 1 583 5 view .LVU324
 937 001a FFF7FEFF 		bl	HAL_GPIO_EXTI_Rising_Callback
 938              	.LVL79:
 583:Drivers/STM32H5xx_HAL_Driver/Src/stm32h5xx_hal_gpio.c ****   }
 939              		.loc 1 583 5 is_stmt 0 view .LVU325
 940 001e F5E7     		b	.L47
 941              	.L51:
 588:Drivers/STM32H5xx_HAL_Driver/Src/stm32h5xx_hal_gpio.c ****     HAL_GPIO_EXTI_Falling_Callback(GPIO_Pin);
 942              		.loc 1 588 5 is_stmt 1 view .LVU326
 943 0020 024B     		ldr	r3, .L52
 944 0022 1C61     		str	r4, [r3, #16]
 589:Drivers/STM32H5xx_HAL_Driver/Src/stm32h5xx_hal_gpio.c ****   }
 945              		.loc 1 589 5 view .LVU327
 946 0024 2046     		mov	r0, r4
 947 0026 FFF7FEFF 		bl	HAL_GPIO_EXTI_Falling_Callback
 948              	.LVL80:
 591:Drivers/STM32H5xx_HAL_Driver/Src/stm32h5xx_hal_gpio.c **** 
 949              		.loc 1 591 1 is_stmt 0 view .LVU328
 950 002a F3E7     		b	.L46
 951              	.L53:
ARM GAS  /var/folders/l3/rwskfq612tq4b7hmtv37jkjw0000gp/T//cctyv2t7.s 			page 30


 952              		.align	2
 953              	.L52:
 954 002c 00200244 		.word	1140989952
 955              		.cfi_endproc
 956              	.LFE339:
 958              		.text
 959              	.Letext0:
 960              		.file 2 "/opt/local/arm-none-eabi/include/machine/_default_types.h"
 961              		.file 3 "/opt/local/arm-none-eabi/include/sys/_stdint.h"
 962              		.file 4 "Drivers/CMSIS/Device/ST/STM32H5xx/Include/stm32h503xx.h"
 963              		.file 5 "Drivers/STM32H5xx_HAL_Driver/Inc/stm32h5xx_hal_def.h"
 964              		.file 6 "Drivers/STM32H5xx_HAL_Driver/Inc/stm32h5xx_hal_gpio.h"
ARM GAS  /var/folders/l3/rwskfq612tq4b7hmtv37jkjw0000gp/T//cctyv2t7.s 			page 31

